 AuthAgent

 Timestamp is 6160c92e (Sat Oct 09 07:41:50 2021)

 Preferred load address is 00400000

 Start         Length     Name                   Class
 0001:00000000 0002e3ecH .text                   CODE
 0001:0002e3f0 00000ce9H .text$x                 CODE
 0001:0002f0e0 0000061bH .text$yc                CODE
 0001:0002f700 000000d2H .text$yd                CODE
 0002:00000000 0000026cH .idata$5                DATA
 0002:0000026c 00000004H .CRT$XCA                DATA
 0002:00000270 00000004H .CRT$XCC                DATA
 0002:00000274 0000016cH .CRT$XCU                DATA
 0002:000003e0 00000004H .CRT$XCZ                DATA
 0002:000003e4 00000004H .CRT$XIA                DATA
 0002:000003e8 00000010H .CRT$XIC                DATA
 0002:000003f8 00000004H .CRT$XIY                DATA
 0002:000003fc 00000004H .CRT$XIZ                DATA
 0002:00000400 00000004H .CRT$XPA                DATA
 0002:00000404 00000004H .CRT$XPX                DATA
 0002:00000408 00000004H .CRT$XPXA               DATA
 0002:0000040c 00000004H .CRT$XPZ                DATA
 0002:00000410 00000004H .CRT$XTA                DATA
 0002:00000414 00000004H .CRT$XTZ                DATA
 0002:00000420 00006f58H .rdata                  DATA
 0002:00007378 00000050H .rdata$debug            DATA
 0002:000073c8 0000097cH .rdata$r                DATA
 0002:00007d50 00000120H .rdata$sxdata           DATA
 0002:00007e70 00000004H .rtc$IAA                DATA
 0002:00007e74 00000004H .rtc$IZZ                DATA
 0002:00007e78 00000004H .rtc$TAA                DATA
 0002:00007e7c 00000004H .rtc$TZZ                DATA
 0002:00007e80 0000170cH .xdata$x                DATA
 0002:0000958c 00000064H .idata$2                DATA
 0002:000095f0 00000014H .idata$3                DATA
 0002:00009604 0000026cH .idata$4                DATA
 0002:00009870 00000a34H .idata$6                DATA
 0002:0000a2a4 00000000H .edata                  DATA
 0003:00000000 00001bd8H .data                   DATA
 0003:00001be0 0007a3c8H .bss                    DATA

  Address         Publics by Value              Rva+Base       Lib:Object

 0000:00000000       __except_list              00000000     <absolute>
 0000:00000048       ___safe_se_handler_count   00000048     <absolute>
 0000:00000000       ___ImageBase               00400000     <linker-defined>
 0001:00000000       ?DoAllocServerSession@AuthAgentFrame@@SAPAVNetworkObject@@XZ 00401000 f   AuthAgentFrame.obj
 0001:00000020       ?DoFreeServerSession@AuthAgentFrame@@SAXPAVNetworkObject@@@Z 00401020 f   AuthAgentFrame.obj
 0001:00000050       ?DoFreeConnectSession@AuthAgentFrame@@SAXPAVNetworkObject@@@Z 00401050 f   AuthAgentFrame.obj
 0001:00000060       ??0AuthAgentFrame@@QAE@XZ  00401060 f   AuthAgentFrame.obj
 0001:00000110       ??1AuthAgentFrame@@UAE@XZ  00401110 f   AuthAgentFrame.obj
 0001:000001a0       ?Init@AuthAgentFrame@@MAEHXZ 004011a0 f   AuthAgentFrame.obj
 0001:00000250       ?Update@AuthAgentFrame@@MAEHK@Z 00401250 f   AuthAgentFrame.obj
 0001:00000270       ?Release@AuthAgentFrame@@MAEXXZ 00401270 f   AuthAgentFrame.obj
 0001:000002d0       ?SendAuthServer@AuthAgentFrame@@QAEHPAUMSG_BASE_INTERNAL@@G@Z 004012d0 f   AuthAgentFrame.obj
 0001:00000310       ?IsAuthServerConnected@AuthAgentFrame@@QAEHXZ 00401310 f   AuthAgentFrame.obj
 0001:00000350       ?SendGameAgentServer@AuthAgentFrame@@QAEHPAUMSG_BASE_INTERNAL@@G@Z 00401350 f   AuthAgentFrame.obj
 0001:00000390       ?IsGameAgentConnected@AuthAgentFrame@@QAEHXZ 00401390 f   AuthAgentFrame.obj
 0001:000003d0       ?AllocServerSession@AuthAgentFrame@@MAEPAVServerSession@@W4eSERVER_TYPE@@@Z 004013d0 f   AuthAgentFrame.obj
 0001:00000480       ?FreeServerSession@AuthAgentFrame@@MAEXPAVServerSession@@@Z 00401480 f   AuthAgentFrame.obj
 0001:00000530       ?KeyEvent@AuthAgentFrame@@MAEHD@Z 00401530 f   AuthAgentFrame.obj
 0001:00000570       ?DisplayServerInfo@AuthAgentFrame@@IAEXXZ 00401570 f   AuthAgentFrame.obj
 0001:00000580       ?GetSession@AuthAgentFrame@@QAEPAVServerSession@@W4eSERVER_TYPE@@@Z 00401580 f   AuthAgentFrame.obj
 0001:000005c0       ?ConnectTo@AuthAgentFrame@@QAEHW4eSERVER_TYPE@@@Z 004015c0 f   AuthAgentFrame.obj
 0001:00000680       ?CreateSunLog@AuthAgentFrame@@IAEHXZ 00401680 f   AuthAgentFrame.obj
 0001:000007e0       ?GetServerType@AuthAgentFrame@@UAE?AW4eSERVER_TYPE@@XZ 004017e0 f i AuthAgentFrame.obj
 0001:000007f0       ??_GAuthAgentFrame@@UAEPAXI@Z 004017f0 f i AuthAgentFrame.obj
 0001:000007f0       ??_EAuthAgentFrame@@UAEPAXI@Z 004017f0 f i AuthAgentFrame.obj
 0001:00000820       ?GetReadyState@ServerFrame@@QAEAAVReadyState@@XZ 00401820 f i AuthAgentFrame.obj
 0001:00000840       ?SetPool@AuthServerSession@@SAXPAV?$CMemoryPoolFactory@VAuthServerSession@@@util@@@Z 00401840 f i AuthAgentFrame.obj
 0001:00000860       ?SetPool@GameAgentServerSession@@SAXPAV?$CMemoryPoolFactory@VGameAgentServerSession@@@util@@@Z 00401860 f i AuthAgentFrame.obj
 0001:00000880       ??_GCSunLog@@QAEPAXI@Z     00401880 f i AuthAgentFrame.obj
 0001:000008b0       ?IsConnected@ServerSession@@QBE_NXZ 004018b0 f i AuthAgentFrame.obj
 0001:000008d0       ?Init@ServerSession@@QAEXPAVServerFrame@@@Z 004018d0 f i AuthAgentFrame.obj
 0001:00000900       ?ALLOC@AuthServerSession@@SAPAV1@XZ 00401900 f i AuthAgentFrame.obj
 0001:00000920       ?ALLOC@GameAgentServerSession@@SAPAV1@XZ 00401920 f i AuthAgentFrame.obj
 0001:00000940       ?FREE@AuthServerSession@@SAXPAV1@@Z 00401940 f i AuthAgentFrame.obj
 0001:00000960       ?FREE@GameAgentServerSession@@SAXPAV1@@Z 00401960 f i AuthAgentFrame.obj
 0001:00000980       ?IsConnecting@ServerSession@@QBE_NXZ 00401980 f i AuthAgentFrame.obj
 0001:000009a0       ?GetDescFileName@ServerFrame@@IAEPBDXZ 004019a0 f i AuthAgentFrame.obj
 0001:000009c0       ??0?$CMemoryPoolFactory@VAuthServerSession@@@util@@QAE@XZ 004019c0 f i AuthAgentFrame.obj
 0001:00000a30       ??1?$CMemoryPoolFactory@VAuthServerSession@@@util@@UAE@XZ 00401a30 f i AuthAgentFrame.obj
 0001:00000a90       ?Initialize@?$CMemoryPoolFactory@VAuthServerSession@@@util@@UAE_NIIPBDPAX@Z 00401a90 f i AuthAgentFrame.obj
 0001:00000ae0       ?Alloc@?$CMemoryPoolFactory@VGameAgentServerSession@@@util@@UAEPAXXZ 00401ae0 f i AuthAgentFrame.obj
 0001:00000ae0       ?Alloc@?$CMemoryPoolFactory@VAuthServerSession@@@util@@UAEPAXXZ 00401ae0 f i AuthAgentFrame.obj
 0001:00000b10       ??0?$CMemoryPoolFactory@VGameAgentServerSession@@@util@@QAE@XZ 00401b10 f i AuthAgentFrame.obj
 0001:00000b80       ??1?$CMemoryPoolFactory@VGameAgentServerSession@@@util@@UAE@XZ 00401b80 f i AuthAgentFrame.obj
 0001:00000be0       ?Initialize@?$CMemoryPoolFactory@VGameAgentServerSession@@@util@@UAE_NIIPBDPAX@Z 00401be0 f i AuthAgentFrame.obj
 0001:00000c30       ?Free@?$CMemoryPoolFactory@VGameAgentServerSession@@@util@@UAEHPAX@Z 00401c30 f i AuthAgentFrame.obj
 0001:00000c30       ?Free@?$CMemoryPoolFactory@VAuthServerSession@@@util@@UAEHPAX@Z 00401c30 f i AuthAgentFrame.obj
 0001:00000c70       ?Release@?$CMemoryPoolFactory@VAuthServerSession@@@util@@UAEXXZ 00401c70 f i AuthAgentFrame.obj
 0001:00000c70       ?Release@?$CMemoryPoolFactory@VGameAgentServerSession@@@util@@UAEXXZ 00401c70 f i AuthAgentFrame.obj
 0001:00000ca0       ?SetTypeName@?$CMemoryPoolFactory@VGameAgentServerSession@@@util@@QAEXPBD@Z 00401ca0 f i AuthAgentFrame.obj
 0001:00000ca0       ?SetTypeName@?$CMemoryPoolFactory@VAuthServerSession@@@util@@QAEXPBD@Z 00401ca0 f i AuthAgentFrame.obj
 0001:00000cd0       ?Instance@?$Singleton@VAuthAgentFrame@@$00@util@@SAPAVAuthAgentFrame@@XZ 00401cd0 f i AuthAgentFrame.obj
 0001:00000d60       ?DestroyInstance@?$Singleton@VGameAgentManager@@$00@util@@SAXXZ 00401d60 f i AuthAgentFrame.obj
 0001:00000db0       ?Instance@?$Singleton@VGameAgentInfoList@@$00@util@@SAPAVGameAgentInfoList@@XZ 00401db0 f i AuthAgentFrame.obj
 0001:00000e40       ?DestroyInstance@?$Singleton@VGameAgentInfoList@@$00@util@@SAXXZ 00401e40 f i AuthAgentFrame.obj
 0001:00000e90       ??_G?$CMemoryPoolFactory@VAuthServerSession@@@util@@UAEPAXI@Z 00401e90 f i AuthAgentFrame.obj
 0001:00000e90       ??_E?$CMemoryPoolFactory@VAuthServerSession@@@util@@UAEPAXI@Z 00401e90 f i AuthAgentFrame.obj
 0001:00000ec0       ??0IVMemoryPool@util@@QAE@XZ 00401ec0 f i AuthAgentFrame.obj
 0001:00000ee0       ??_G?$CMemoryPoolFactory@VGameAgentServerSession@@@util@@UAEPAXI@Z 00401ee0 f i AuthAgentFrame.obj
 0001:00000ee0       ??_E?$CMemoryPoolFactory@VGameAgentServerSession@@@util@@UAEPAXI@Z 00401ee0 f i AuthAgentFrame.obj
 0001:00000f10       ??_GGameAgentManager@@QAEPAXI@Z 00401f10 f i AuthAgentFrame.obj
 0001:00000f40       ??_GGameAgentInfoList@@QAEPAXI@Z 00401f40 f i AuthAgentFrame.obj
 0001:00000f70       ??0_Aux_cont@std@@QAE@QBV_Container_base_aux@1@@Z 00401f70 f i GameAgentInfoList.obj
 0001:00000f70       ??0?$scoped_ptr@VIMemoryPoolFactoryImpl@internal@util@@@boost@@QAE@PAVIMemoryPoolFactoryImpl@internal@util@@@Z 00401f70 f i AuthAgentFrame.obj
 0001:00000f90       ??1?$scoped_ptr@VIMemoryPoolFactoryImpl@internal@util@@@boost@@QAE@XZ 00401f90 f i AuthAgentFrame.obj
 0001:00000fb0       ?begin@?$PODptr@I@details@boost@@QBEPADXZ 00401fb0 f i AuthAgentFrame.obj
 0001:00000fb0       ?_Getcont@_Aux_cont@std@@QBEPBV_Container_base_aux@2@XZ 00401fb0 f i AuthServerSession.obj
 0001:00000fb0       ??C?$scoped_ptr@VIMemoryPoolFactoryImpl@internal@util@@@boost@@QBEPAVIMemoryPoolFactoryImpl@internal@util@@XZ 00401fb0 f i AuthAgentFrame.obj
 0001:00000fc0       ?CreateImpl@?$CMemoryPoolFactory@VAuthServerSession@@@util@@QAEXH@Z 00401fc0 f i AuthAgentFrame.obj
 0001:00001150       ?CreateImpl@?$CMemoryPoolFactory@VGameAgentServerSession@@@util@@QAEXH@Z 00402150 f i AuthAgentFrame.obj
 0001:000012e0       ?reset@?$scoped_ptr@VIMemoryPoolFactoryImpl@internal@util@@@boost@@QAEXPAVIMemoryPoolFactoryImpl@internal@util@@@Z 004022e0 f i AuthAgentFrame.obj
 0001:00001350       ??0?$NotUseChunkImpl@VAuthServerSession@@@internal@util@@QAE@XZ 00402350 f i AuthAgentFrame.obj
 0001:00001370       ?Alloc@?$NotUseChunkImpl@VAuthServerSession@@@internal@util@@UAEPAXXZ 00402370 f i AuthAgentFrame.obj
 0001:00001400       ??2@YAPAXIPAX@Z            00402400 f i AuthAgentFrame.obj
 0001:00001410       ??3@YAXPAX0@Z              00402410 f i AuthAgentFrame.obj
 0001:00001410       ?DoFreeConnect_NotUsed@AuthAgentFrame@@SAXPAVNetworkObject@@@Z 00402410 f i main.obj
 0001:00001410       ?DoFreeClient_NotUsed@AuthAgentFrame@@SAXPAVNetworkObject@@@Z 00402410 f i main.obj
 0001:00001420       ??0?$VariableSizeChunkImpl@VAuthServerSession@@@internal@util@@QAE@XZ 00402420 f i AuthAgentFrame.obj
 0001:00001490       ?Initialize@?$VariableSizeChunkImpl@VAuthServerSession@@@internal@util@@UAE_NIIPBD@Z 00402490 f i AuthAgentFrame.obj
 0001:00001490       ?Initialize@?$VariableSizeChunkImpl@VGameAgentServerSession@@@internal@util@@UAE_NIIPBD@Z 00402490 f i AuthAgentFrame.obj
 0001:000014c0       ?Alloc@?$VariableSizeChunkImpl@VAuthServerSession@@@internal@util@@UAEPAXXZ 004024c0 f i AuthAgentFrame.obj
 0001:000014c0       ?Alloc@?$VariableSizeChunkImpl@VGameAgentServerSession@@@internal@util@@UAEPAXXZ 004024c0 f i AuthAgentFrame.obj
 0001:000014e0       ?Free@?$VariableSizeChunkImpl@VAuthServerSession@@@internal@util@@UAEXQAX@Z 004024e0 f i AuthAgentFrame.obj
 0001:000014e0       ?Free@?$VariableSizeChunkImpl@VGameAgentServerSession@@@internal@util@@UAEXQAX@Z 004024e0 f i AuthAgentFrame.obj
 0001:00001500       ?GetAvailableNumberOfTypes@?$VariableSizeChunkImpl@VAuthServerSession@@@internal@util@@UBEHXZ 00402500 f i AuthAgentFrame.obj
 0001:00001500       ?GetAvailableNumberOfTypes@?$VariableSizeChunkImpl@VGameAgentServerSession@@@internal@util@@UBEHXZ 00402500 f i AuthAgentFrame.obj
 0001:00001520       ??0?$FixedSizeChunkImpl@VAuthServerSession@@@internal@util@@QAE@XZ 00402520 f i AuthAgentFrame.obj
 0001:00001590       ?Release@?$FixedSizeChunkImpl@VGameAgentServerSession@@@internal@util@@UAEXXZ 00402590 f i AuthAgentFrame.obj
 0001:00001590       ?Release@?$FixedSizeChunkImpl@VAuthServerSession@@@internal@util@@UAEXXZ 00402590 f i AuthAgentFrame.obj
 0001:000015b0       ?Alloc@?$FixedSizeChunkImpl@VAuthServerSession@@@internal@util@@UAEPAXXZ 004025b0 f i AuthAgentFrame.obj
 0001:00001640       ??0?$NotUseChunkImpl@VGameAgentServerSession@@@internal@util@@QAE@XZ 00402640 f i AuthAgentFrame.obj
 0001:00001660       ?Alloc@?$NotUseChunkImpl@VGameAgentServerSession@@@internal@util@@UAEPAXXZ 00402660 f i AuthAgentFrame.obj
 0001:000016f0       ?Free@?$NotUseChunkImpl@VAuthServerSession@@@internal@util@@UAEXQAX@Z 004026f0 f i AuthAgentFrame.obj
 0001:000016f0       ?Free@?$NotUseChunkImpl@VGameAgentServerSession@@@internal@util@@UAEXQAX@Z 004026f0 f i AuthAgentFrame.obj
 0001:00001720       ??0?$VariableSizeChunkImpl@VGameAgentServerSession@@@internal@util@@QAE@XZ 00402720 f i AuthAgentFrame.obj
 0001:00001790       ?Release@?$VariableSizeChunkImpl@VGameAgentServerSession@@@internal@util@@UAEXXZ 00402790 f i AuthAgentFrame.obj
 0001:00001790       ?Release@?$VariableSizeChunkImpl@VAuthServerSession@@@internal@util@@UAEXXZ 00402790 f i AuthAgentFrame.obj
 0001:000017b0       ?SetTypeName@?$VariableSizeChunkImpl@VAuthServerSession@@@internal@util@@UAEXPBD@Z 004027b0 f i AuthAgentFrame.obj
 0001:000017b0       ?SetTypeName@?$VariableSizeChunkImpl@VGameAgentServerSession@@@internal@util@@UAEXPBD@Z 004027b0 f i AuthAgentFrame.obj
 0001:000017d0       ?GetNumberOfBands@?$VariableSizeChunkImpl@VAuthServerSession@@@internal@util@@UBEHXZ 004027d0 f i AuthAgentFrame.obj
 0001:000017d0       ?GetNumberOfBands@?$VariableSizeChunkImpl@VGameAgentServerSession@@@internal@util@@UBEHXZ 004027d0 f i AuthAgentFrame.obj
 0001:000017f0       ??0?$FixedSizeChunkImpl@VGameAgentServerSession@@@internal@util@@QAE@XZ 004027f0 f i AuthAgentFrame.obj
 0001:00001860       ?Alloc@?$FixedSizeChunkImpl@VGameAgentServerSession@@@internal@util@@UAEPAXXZ 00402860 f i AuthAgentFrame.obj
 0001:000018f0       ?Free@?$FixedSizeChunkImpl@VAuthServerSession@@@internal@util@@UAEXQAX@Z 004028f0 f i AuthAgentFrame.obj
 0001:000018f0       ?Free@?$FixedSizeChunkImpl@VGameAgentServerSession@@@internal@util@@UAEXQAX@Z 004028f0 f i AuthAgentFrame.obj
 0001:00001920       ??_E?$NotUseChunkImpl@VAuthServerSession@@@internal@util@@UAEPAXI@Z 00402920 f i AuthAgentFrame.obj
 0001:00001920       ??_G?$NotUseChunkImpl@VAuthServerSession@@@internal@util@@UAEPAXI@Z 00402920 f i AuthAgentFrame.obj
 0001:00001950       ??1?$NotUseChunkImpl@VAuthServerSession@@@internal@util@@UAE@XZ 00402950 f i AuthAgentFrame.obj
 0001:00001970       ??_G?$VariableSizeChunkImpl@VAuthServerSession@@@internal@util@@UAEPAXI@Z 00402970 f i AuthAgentFrame.obj
 0001:00001970       ??_E?$VariableSizeChunkImpl@VAuthServerSession@@@internal@util@@UAEPAXI@Z 00402970 f i AuthAgentFrame.obj
 0001:000019a0       ??1?$VariableSizeChunkImpl@VAuthServerSession@@@internal@util@@UAE@XZ 004029a0 f i AuthAgentFrame.obj
 0001:00001a10       ??_E?$FixedSizeChunkImpl@VAuthServerSession@@@internal@util@@UAEPAXI@Z 00402a10 f i AuthAgentFrame.obj
 0001:00001a10       ??_G?$FixedSizeChunkImpl@VAuthServerSession@@@internal@util@@UAEPAXI@Z 00402a10 f i AuthAgentFrame.obj
 0001:00001a40       ??1?$FixedSizeChunkImpl@VAuthServerSession@@@internal@util@@UAE@XZ 00402a40 f i AuthAgentFrame.obj
 0001:00001aa0       ??_G?$NotUseChunkImpl@VGameAgentServerSession@@@internal@util@@UAEPAXI@Z 00402aa0 f i AuthAgentFrame.obj
 0001:00001aa0       ??_E?$NotUseChunkImpl@VGameAgentServerSession@@@internal@util@@UAEPAXI@Z 00402aa0 f i AuthAgentFrame.obj
 0001:00001ad0       ??1?$NotUseChunkImpl@VGameAgentServerSession@@@internal@util@@UAE@XZ 00402ad0 f i AuthAgentFrame.obj
 0001:00001af0       ??_G?$VariableSizeChunkImpl@VGameAgentServerSession@@@internal@util@@UAEPAXI@Z 00402af0 f i AuthAgentFrame.obj
 0001:00001af0       ??_E?$VariableSizeChunkImpl@VGameAgentServerSession@@@internal@util@@UAEPAXI@Z 00402af0 f i AuthAgentFrame.obj
 0001:00001b20       ??1?$VariableSizeChunkImpl@VGameAgentServerSession@@@internal@util@@UAE@XZ 00402b20 f i AuthAgentFrame.obj
 0001:00001b90       ??_E?$FixedSizeChunkImpl@VGameAgentServerSession@@@internal@util@@UAEPAXI@Z 00402b90 f i AuthAgentFrame.obj
 0001:00001b90       ??_G?$FixedSizeChunkImpl@VGameAgentServerSession@@@internal@util@@UAEPAXI@Z 00402b90 f i AuthAgentFrame.obj
 0001:00001bc0       ??1?$FixedSizeChunkImpl@VGameAgentServerSession@@@internal@util@@UAE@XZ 00402bc0 f i AuthAgentFrame.obj
 0001:00001c20       ??0?$pool@Udefault_user_allocator_new_delete@boost@@@boost@@QAE@III@Z 00402c20 f i AuthAgentFrame.obj
 0001:00001c70       ??1?$pool@Udefault_user_allocator_new_delete@boost@@@boost@@QAE@XZ 00402c70 f i AuthAgentFrame.obj
 0001:00001c90       ?malloc@?$pool@Udefault_user_allocator_new_delete@boost@@@boost@@QAEPAXXZ 00402c90 f i AuthAgentFrame.obj
 0001:00001cd0       ?free@?$pool@Udefault_user_allocator_new_delete@boost@@@boost@@QAEXQAX@Z 00402cd0 f i AuthAgentFrame.obj
 0001:00001cf0       ?swap@?$scoped_ptr@VIMemoryPoolFactoryImpl@internal@util@@@boost@@QAEXAAV12@@Z 00402cf0 f i AuthAgentFrame.obj
 0001:00001d20       ?Create@?$VariableSizeChunkImpl@VAuthServerSession@@@internal@util@@CAXPAX@Z 00402d20 f i AuthAgentFrame.obj
 0001:00001da0       ?Create@?$VariableSizeChunkImpl@VGameAgentServerSession@@@internal@util@@CAXPAX@Z 00402da0 f i AuthAgentFrame.obj
 0001:00001e20       ?Destroy@?$VariableSizeChunkImpl@VAuthServerSession@@@internal@util@@CAXPAX@Z 00402e20 f i AuthAgentFrame.obj
 0001:00001e20       ?Destroy@?$VariableSizeChunkImpl@VGameAgentServerSession@@@internal@util@@CAXPAX@Z 00402e20 f i AuthAgentFrame.obj
 0001:00001e40       ?empty@?$simple_segregated_storage@I@boost@@QBE_NXZ 00402e40 f i AuthAgentFrame.obj
 0001:00001e60       ?malloc@?$simple_segregated_storage@I@boost@@QAEPAXXZ 00402e60 f i AuthAgentFrame.obj
 0001:00001e90       ?free@?$simple_segregated_storage@I@boost@@QAEXQAX@Z 00402e90 f i AuthAgentFrame.obj
 0001:00001ec0       ??0?$PODptr@I@details@boost@@QAE@QADI@Z 00402ec0 f i AuthAgentFrame.obj
 0001:00001ef0       ?_Nextnode@?$list@U?$pair@$$CBGPAUsGAME_AGENT_INFO@@@std@@V?$CustomAllocator@U?$pair@$$CBGPAUsGAME_AGENT_INFO@@@std@@@util@@@std@@KAAAPAU_Node@?$_List_nod@U?$pair@$$CBGPAUsGAME_AGENT_INFO@@@std@@V?$CustomAllocator@U?$pair@$$CBGPAUsGAME_AGENT_INFO@@@std@@@util@@@2@PAU342@@Z 00402ef0 f i GameAgentInfoList.obj
 0001:00001ef0       ?_Kfn@?$_Hmap_traits@KPAVGameAgentServerSession@@V?$hash_compare@KU?$less@K@std@@@stdext@@V?$CustomAllocator@PAVGameAgentServerSession@@@util@@$0A@@stdext@@SAABKABU?$pair@$$CBKPAVGameAgentServerSession@@@std@@@Z 00402ef0 f i GameAgentManager.obj
 0001:00001ef0       ?nextof@?$pool@Udefault_user_allocator_new_delete@boost@@@boost@@KAAAPAXQAX@Z 00402ef0 f i AuthAgentFrame.obj
 0001:00001ef0       ?nextof@?$simple_segregated_storage@I@boost@@KAAAPAXQAX@Z 00402ef0 f i AuthAgentFrame.obj
 0001:00001ef0       ?_Kfn@?$_Hmap_traits@GPAUsGAME_AGENT_INFO@@V?$hash_compare@GU?$less@G@std@@@stdext@@V?$CustomAllocator@PAUsGAME_AGENT_INFO@@@util@@$0A@@stdext@@SAABGABU?$pair@$$CBGPAUsGAME_AGENT_INFO@@@std@@@Z 00402ef0 f i GameAgentInfoList.obj
 0001:00001ef0       ?_Nextnode@?$list@U?$pair@$$CBKPAVGameAgentServerSession@@@std@@V?$CustomAllocator@U?$pair@$$CBKPAVGameAgentServerSession@@@std@@@util@@@std@@KAAAPAU_Node@?$_List_nod@U?$pair@$$CBKPAVGameAgentServerSession@@@std@@V?$CustomAllocator@U?$pair@$$CBKPAVGameAgentServerSession@@@std@@@util@@@2@PAU342@@Z 00402ef0 f i AuthServerSession.obj
 0001:00001f00       ??$checked_delete@VIMemoryPoolFactoryImpl@internal@util@@@boost@@YAXPAVIMemoryPoolFactoryImpl@internal@util@@@Z 00402f00 f i AuthAgentFrame.obj
 0001:00001f40       ?malloc_need_resize@?$pool@Udefault_user_allocator_new_delete@boost@@@boost@@AAEPAXXZ 00402f40 f i AuthAgentFrame.obj
 0001:000020b0       ?release_memory@?$pool@Udefault_user_allocator_new_delete@boost@@@boost@@QAE_NXZ 004030b0 f i AuthAgentFrame.obj
 0001:00002280       ?purge_memory@?$pool@Udefault_user_allocator_new_delete@boost@@@boost@@QAE_NXZ 00403280 f i AuthAgentFrame.obj
 0001:00002310       ?is_from@?$pool@Udefault_user_allocator_new_delete@boost@@@boost@@KA_NQAXQADI@Z 00403310 f i AuthAgentFrame.obj
 0001:00002370       ?alloc_size@?$pool@Udefault_user_allocator_new_delete@boost@@@boost@@IBEIXZ 00403370 f i AuthAgentFrame.obj
 0001:000023c0       ?add_block@?$simple_segregated_storage@I@boost@@QAEXQAXII@Z 004033c0 f i AuthAgentFrame.obj
 0001:000023f0       ??0?$PODptr@I@details@boost@@QAE@XZ 004033f0 f i AuthAgentFrame.obj
 0001:00002420       ?valid@?$PODptr@I@details@boost@@QBE_NXZ 00403420 f i AuthAgentFrame.obj
 0001:00002440       ?invalidate@?$PODptr@I@details@boost@@QAEXXZ 00403440 f i AuthAgentFrame.obj
 0001:00002460       ??0_Container_base_aux@std@@QAE@XZ 00403460 f i GameAgentInfoList.obj
 0001:00002460       ??0?$arg@$02@boost@@QAE@XZ 00403460 f i AuthAgentFrame.obj
 0001:00002460       ??0?$allocator@D@std@@QAE@XZ 00403460 f i GameAgentInfoList.obj
 0001:00002460       ??0?$arg@$06@boost@@QAE@XZ 00403460 f i AuthAgentFrame.obj
 0001:00002460       ??0?$arg@$07@boost@@QAE@XZ 00403460 f i AuthAgentFrame.obj
 0001:00002460       ??0?$Singleton@VGameAgentInfoList@@$00@util@@IAE@XZ 00403460 f i GameAgentInfoList.obj
 0001:00002460       ??0?$arg@$08@boost@@QAE@XZ 00403460 f i AuthAgentFrame.obj
 0001:00002460       ??0?$hash_compare@KU?$less@K@std@@@stdext@@QAE@XZ 00403460 f i GameAgentManager.obj
 0001:00002460       ??0?$Singleton@VGameAgentManager@@$00@util@@IAE@XZ 00403460 f i GameAgentManager.obj
 0001:00002460       ??0?$arg@$03@boost@@QAE@XZ 00403460 f i AuthAgentFrame.obj
 0001:00002460       ??0?$Singleton@VAuthAgentFrame@@$00@util@@IAE@XZ 00403460 f i AuthAgentFrame.obj
 0001:00002460       ??0?$arg@$04@boost@@QAE@XZ 00403460 f i AuthAgentFrame.obj
 0001:00002460       ??0?$arg@$05@boost@@QAE@XZ 00403460 f i AuthAgentFrame.obj
 0001:00002460       ?store@?$pool@Udefault_user_allocator_new_delete@boost@@@boost@@IAEAAV?$simple_segregated_storage@I@2@XZ 00403460 f i AuthAgentFrame.obj
 0001:00002460       ??0?$hash_compare@GU?$less@G@std@@@stdext@@QAE@XZ 00403460 f i GameAgentInfoList.obj
 0001:00002460       ??0?$CustomAllocator@U?$pair@$$CBGPAUsGAME_AGENT_INFO@@@std@@@util@@QAE@XZ 00403460 f i GameAgentInfoList.obj
 0001:00002460       ?begin@?$PODptr@I@details@boost@@QAEAAPADXZ 00403460 f i AuthAgentFrame.obj
 0001:00002460       ??0?$arg@$00@boost@@QAE@XZ 00403460 f i AuthAgentFrame.obj
 0001:00002460       ??0?$CustomAllocator@U?$pair@$$CBKPAVGameAgentServerSession@@@std@@@util@@QAE@XZ 00403460 f i GameAgentManager.obj
 0001:00002460       ??0?$arg@$01@boost@@QAE@XZ 00403460 f i AuthAgentFrame.obj
 0001:00002470       ?next_ptr@?$PODptr@I@details@boost@@QBEAAPADXZ 00403470 f i AuthAgentFrame.obj
 0001:00002470       ?end@?$PODptr@I@details@boost@@QBEPADXZ 00403470 f i AuthAgentFrame.obj
 0001:00002490       ?element_size@?$PODptr@I@details@boost@@QBEIXZ 00403490 f i AuthAgentFrame.obj
 0001:000024b0       ?next@?$PODptr@I@details@boost@@QBE?AV123@XZ 004034b0 f i AuthAgentFrame.obj
 0001:000024e0       ?next@?$PODptr@I@details@boost@@QBEXABV123@@Z 004034e0 f i AuthAgentFrame.obj
 0001:00002520       ??R?$less@K@std@@QBE_NABK0@Z 00403520 f i GameAgentManager.obj
 0001:00002520       ??R?$less@PAX@std@@QBE_NABQAX0@Z 00403520 f i AuthAgentFrame.obj
 0001:00002540       ?ptr_next_ptr@?$PODptr@I@details@boost@@ABEPADXZ 00403540 f i AuthAgentFrame.obj
 0001:00002560       ?next_size@?$PODptr@I@details@boost@@QBEAAIXZ 00403560 f i AuthAgentFrame.obj
 0001:00002580       ??R?$less_equal@PAX@std@@QBE_NABQAX0@Z 00403580 f i AuthAgentFrame.obj
 0001:000025a0       ?ptr_next_size@?$PODptr@I@details@boost@@ABEPADXZ 004035a0 f i AuthAgentFrame.obj
 0001:000025c0       ??$min@I@std@@YAABIABI0@Z  004035c0 f i AuthAgentFrame.obj
 0001:000025f0       ?segregate@?$simple_segregated_storage@I@boost@@SAPAXPAXII0@Z 004035f0 f i AuthAgentFrame.obj
 0001:00002680       ??$max@I@std@@YAABIABI0@Z  00403680 f i AuthAgentFrame.obj
 0001:000026b0       ?malloc@default_user_allocator_new_delete@boost@@SAPADI@Z 004036b0 f i AuthAgentFrame.obj
 0001:000026d0       ?free@default_user_allocator_new_delete@boost@@SAXQAD@Z 004036d0 f i AuthAgentFrame.obj
 0001:000026f0       ?FCAssert@FlowControl@@SAEPAD0K@Z 004036f0 f i AuthAgentFrame.obj
 0001:00002710       ?_Interceptor@FlowControl@@SAEE@Z 00403710 f i AuthAgentFrame.obj
 0001:00002720       ?SetTypeName@MemoryPoolSizeBased@internal@util@@QAEXPBD@Z 00403720 f i AuthAgentFrame.obj
 0001:00002740       ?GetStatistics@MemoryPoolSizeBased@internal@util@@QBEABUStatistics@123@XZ 00403740 f i AuthAgentFrame.obj
 0001:00002760       ??0IMemoryPoolFactoryImpl@internal@util@@QAE@XZ 00403760 f i AuthAgentFrame.obj
 0001:00002780       ??1IMemoryPoolFactoryImpl@internal@util@@UAE@XZ 00403780 f i AuthAgentFrame.obj
 0001:000027a0       ?Initialize@IMemoryPoolFactoryImpl@internal@util@@UAE_NIIPBD@Z 004037a0 f i AuthAgentFrame.obj
 0001:000027b0       ?GetAvailableNumberOfTypes@IMemoryPoolFactoryImpl@internal@util@@UBEHXZ 004037b0 f i AuthAgentFrame.obj
 0001:000027b0       ?GetNumberOfBands@IMemoryPoolFactoryImpl@internal@util@@UBEHXZ 004037b0 f i AuthAgentFrame.obj
 0001:000027b0       ?GetPoolExtendSize@IMemoryPoolFactoryImpl@internal@util@@UBEHXZ 004037b0 f i AuthAgentFrame.obj
 0001:000027b0       ?GetPoolBasicSize@IMemoryPoolFactoryImpl@internal@util@@UBEHXZ 004037b0 f i AuthAgentFrame.obj
 0001:000027c0       ??_EIMemoryPoolFactoryImpl@internal@util@@UAEPAXI@Z 004037c0 f i AuthAgentFrame.obj
 0001:000027c0       ??_GIMemoryPoolFactoryImpl@internal@util@@UAEPAXI@Z 004037c0 f i AuthAgentFrame.obj
 0001:000027f0       ?SetFileOutDelayOption@CSunLog@@QAEXH@Z 004037f0 f i AuthAgentFrame.obj
 0001:00002810       ?ProcCrashHandling@@YAXPBD0@Z 00403810 f   main.obj
 0001:000029a0       ?GenerateDmpName@@YAPBDXZ  004039a0 f   main.obj
 0001:000029f0       ?ErrorHandler@@YAXKPAD@Z   004039f0 f   main.obj
 0001:00002a10       ?OnServiceStart@@YA_NXZ    00403a10 f   main.obj
 0001:00002a90       ?OnServiceProcess@@YAXXZ   00403a90 f   main.obj
 0001:00002ab0       ?OnServiceUpdate@@YA_NXZ   00403ab0 f   main.obj
 0001:00002ad0       ?OnServiceStop@@YAXXZ      00403ad0 f   main.obj
 0001:00002af0       _main                      00403af0 f   main.obj
 0001:00002c20       ?DoAllocClient_NotUsed@AuthAgentFrame@@SAPAVNetworkObject@@XZ 00403c20 f i main.obj
 0001:00002c30       ?DestroyInstance@?$Singleton@VAuthAgentFrame@@$00@util@@SAXXZ 00403c30 f i main.obj
 0001:00002c80       ??0AuthServerSession@@QAE@XZ 00403c80 f   AuthServerSession.obj
 0001:00002ca0       ??1AuthServerSession@@UAE@XZ 00403ca0 f   AuthServerSession.obj
 0001:00002cc0       ?OnConnect@AuthServerSession@@MAEXHK@Z 00403cc0 f   AuthServerSession.obj
 0001:00002d00       ?OnRecv@AuthServerSession@@MAEXPAEG@Z 00403d00 f   AuthServerSession.obj
 0001:00002e40       ?OnSA_AUTH_AGENT_IP_LIST_NTF@AuthServerSession@@AAEXPAUMSG_BASE_INTERNAL@@G@Z 00403e40 f   AuthServerSession.obj
 0001:00002ef0       ?OnSA_AUTH_NEWCLIENT_TO_GAMEAGENT_SYN@AuthServerSession@@AAEXPAUMSG_BASE_INTERNAL@@G@Z 00403ef0 f   AuthServerSession.obj
 0001:00003010       ?OnSA_AUTH_ASK_PC_LOGOUT_SYN@AuthServerSession@@AAEXPAUMSG_BASE_INTERNAL@@G@Z 00404010 f   AuthServerSession.obj
 0001:00003100       ?OnSA_AUTH_BILLING_ALARM_CMD@AuthServerSession@@AAEXPAUMSG_BASE_INTERNAL@@G@Z 00404100 f   AuthServerSession.obj
 0001:00003190       ?OnAU_AUTH_SERVER_SELECT_ACK@AuthServerSession@@AAEXPAUMSG_BASE_INTERNAL@@G@Z 00404190 f   AuthServerSession.obj
 0001:000031f0       ?OnAU_AUTH_COMMON_QUERY_USER_ID_ACK@AuthServerSession@@AAEXPAUMSG_BASE_INTERNAL@@G@Z 004041f0 f   AuthServerSession.obj
 0001:00003250       ?OnAU_AUTH_BILLING_CHANGE_CONTROL_SYN@AuthServerSession@@AAEXPAUMSG_BASE_INTERNAL@@G@Z 00404250 f   AuthServerSession.obj
 0001:000032a0       ?GetServerType@AuthServerSession@@UAE?AW4eSERVER_TYPE@@XZ 004042a0 f i AuthServerSession.obj
 0001:000032b0       ?SendPacket@ServerSession@@UAEHPAUMSG_BASE@@G@Z 004042b0 f i AuthServerSession.obj
 0001:000032b0       ?SendPacket@ServerSession@@UAEHPAUMSG_BASE_INTERNAL@@G@Z 004042b0 f i AuthServerSession.obj
 0001:000032d0       ?OnRedirect@AuthServerSession@@MAEXKQAUMSG_SERVER_TYPE@@@Z 004042d0 f i AuthServerSession.obj
 0001:000032d0       ?OnRedirect@GameAgentServerSession@@MAEXKQAUMSG_SERVER_TYPE@@@Z 004042d0 f i GameAgentServerSession.obj
 0001:000032e0       ??_EAuthServerSession@@UAEPAXI@Z 004042e0 f i AuthServerSession.obj
 0001:000032e0       ??_GAuthServerSession@@UAEPAXI@Z 004042e0 f i AuthServerSession.obj
 0001:00003310       ??0SendGameAgentLoginOperator@@QAE@XZ 00404310 f i AuthServerSession.obj
 0001:00003330       ??0MSG_AG_AUTH_NEWCLIENT_TO_GAMEAGENT_SYN@@QAE@XZ 00404330 f i AuthServerSession.obj
 0001:00003350       ??0MSG_AS_AUTH_NEWCLIENT_TO_GAMEAGENT_ACK@@QAE@XZ 00404350 f i AuthServerSession.obj
 0001:00003380       ??0MSG_GA_AUTH_NEWCLIENT_TO_GAMEAGENT_ACK@@QAE@XZ 00404380 f i AuthServerSession.obj
 0001:000033a0       ??0MSG_AG_AUTH_ASK_PC_LOGOUT_SYN@@QAE@XZ 004043a0 f i AuthServerSession.obj
 0001:000033c0       ??0MSG_AS_AUTH_ASK_PC_LOGOUT_ACK@@QAE@XZ 004043c0 f i AuthServerSession.obj
 0001:000033f0       ??0MSG_GA_AUTH_ASK_PC_LOGOUT_ACK@@QAE@XZ 004043f0 f i AuthServerSession.obj
 0001:00003410       ??0MSG_AG_AUTH_BILLING_ALARM_SYN@@QAE@XZ 00404410 f i AuthServerSession.obj
 0001:00003430       ?GetSize@MSG_AU_AUTH_SERVER_SELECT_ACK@@QBEGXZ 00404430 f i AuthServerSession.obj
 0001:00003460       ?GetSize@MSG_AU_AUTH_COMMON_QUERY_USER_ID_ACK@@QBEGXZ 00404460 f i AuthServerSession.obj
 0001:00003470       ?Instance@?$Singleton@VGameAgentManager@@$00@util@@SAPAVGameAgentManager@@XZ 00404470 f i AuthServerSession.obj
 0001:00003500       ??$Foreach@VSendGameAgentLoginOperator@@@GameAgentManager@@QAEXAAVSendGameAgentLoginOperator@@@Z 00404500 f i AuthServerSession.obj
 0001:00003560       ??RSendGameAgentLoginOperator@@QAEXPAVGameAgentServerSession@@@Z 00404560 f i AuthServerSession.obj
 0001:000035a0       ??0MSG_AS_AUTH_GAMEAGENT_LOGIN_CMD@@QAE@XZ 004045a0 f i AuthServerSession.obj
 0001:000035c0       ?GetGameAgentID@GameAgentServerSession@@QBEGXZ 004045c0 f i AuthServerSession.obj
 0001:000035e0       ?begin@?$_Hash@V?$_Hmap_traits@KPAVGameAgentServerSession@@V?$hash_compare@KU?$less@K@std@@@stdext@@V?$CustomAllocator@PAVGameAgentServerSession@@@util@@$0A@@stdext@@@stdext@@QAE?AV?$_Iterator@$00@?$list@U?$pair@$$CBKPAVGameAgentServerSession@@@std@@V?$CustomAllocator@U?$pair@$$CBKPAVGameAgentServerSession@@@std@@@util@@@std@@XZ 004045e0 f i AuthServerSession.obj
 0001:000035e0       ?begin@?$_Hash@V?$_Hmap_traits@GPAUsGAME_AGENT_INFO@@V?$hash_compare@GU?$less@G@std@@@stdext@@V?$CustomAllocator@PAUsGAME_AGENT_INFO@@@util@@$0A@@stdext@@@stdext@@QAE?AV?$_Iterator@$00@?$list@U?$pair@$$CBGPAUsGAME_AGENT_INFO@@@std@@V?$CustomAllocator@U?$pair@$$CBGPAUsGAME_AGENT_INFO@@@std@@@util@@@std@@XZ 004045e0 f i GameAgentInfoList.obj
 0001:00003600       ?end@?$_Hash@V?$_Hmap_traits@KPAVGameAgentServerSession@@V?$hash_compare@KU?$less@K@std@@@stdext@@V?$CustomAllocator@PAVGameAgentServerSession@@@util@@$0A@@stdext@@@stdext@@QAE?AV?$_Iterator@$00@?$list@U?$pair@$$CBKPAVGameAgentServerSession@@@std@@V?$CustomAllocator@U?$pair@$$CBKPAVGameAgentServerSession@@@std@@@util@@@std@@XZ 00404600 f i AuthServerSession.obj
 0001:00003600       ?end@?$_Hash@V?$_Hmap_traits@GPAUsGAME_AGENT_INFO@@V?$hash_compare@GU?$less@G@std@@@stdext@@V?$CustomAllocator@PAUsGAME_AGENT_INFO@@@util@@$0A@@stdext@@@stdext@@QAE?AV?$_Iterator@$00@?$list@U?$pair@$$CBGPAUsGAME_AGENT_INFO@@@std@@V?$CustomAllocator@U?$pair@$$CBGPAUsGAME_AGENT_INFO@@@std@@@util@@@std@@XZ 00404600 f i GameAgentInfoList.obj
 0001:00003620       ??E?$_Iterator@$00@?$list@U?$pair@$$CBKPAVGameAgentServerSession@@@std@@V?$CustomAllocator@U?$pair@$$CBKPAVGameAgentServerSession@@@std@@@util@@@std@@QAEAAV012@XZ 00404620 f i AuthServerSession.obj
 0001:00003620       ??E?$_Iterator@$00@?$list@U?$pair@$$CBGPAUsGAME_AGENT_INFO@@@std@@V?$CustomAllocator@U?$pair@$$CBGPAUsGAME_AGENT_INFO@@@std@@@util@@@std@@QAEAAV012@XZ 00404620 f i GameAgentInfoList.obj
 0001:00003640       ?begin@?$list@U?$pair@$$CBGPAUsGAME_AGENT_INFO@@@std@@V?$CustomAllocator@U?$pair@$$CBGPAUsGAME_AGENT_INFO@@@std@@@util@@@std@@QAE?AV?$_Iterator@$00@12@XZ 00404640 f i GameAgentInfoList.obj
 0001:00003640       ?begin@?$list@U?$pair@$$CBKPAVGameAgentServerSession@@@std@@V?$CustomAllocator@U?$pair@$$CBKPAVGameAgentServerSession@@@std@@@util@@@std@@QAE?AV?$_Iterator@$00@12@XZ 00404640 f i AuthServerSession.obj
 0001:00003670       ?end@?$list@U?$pair@$$CBGPAUsGAME_AGENT_INFO@@@std@@V?$CustomAllocator@U?$pair@$$CBGPAUsGAME_AGENT_INFO@@@std@@@util@@@std@@QAE?AV?$_Iterator@$00@12@XZ 00404670 f i GameAgentInfoList.obj
 0001:00003670       ?end@?$list@U?$pair@$$CBKPAVGameAgentServerSession@@@std@@V?$CustomAllocator@U?$pair@$$CBKPAVGameAgentServerSession@@@std@@@util@@@std@@QAE?AV?$_Iterator@$00@12@XZ 00404670 f i AuthServerSession.obj
 0001:000036a0       ??C?$_Const_iterator@$00@?$list@U?$pair@$$CBGPAUsGAME_AGENT_INFO@@@std@@V?$CustomAllocator@U?$pair@$$CBGPAUsGAME_AGENT_INFO@@@std@@@util@@@std@@QBEPBU?$pair@$$CBGPAUsGAME_AGENT_INFO@@@2@XZ 004046a0 f i GameAgentInfoList.obj
 0001:000036a0       ??D?$_Iterator@$00@?$list@U?$pair@$$CBKPAVGameAgentServerSession@@@std@@V?$CustomAllocator@U?$pair@$$CBKPAVGameAgentServerSession@@@std@@@util@@@std@@QBEAAU?$pair@$$CBKPAVGameAgentServerSession@@@2@XZ 004046a0 f i AuthServerSession.obj
 0001:000036a0       ??D?$_Iterator@$00@?$list@U?$pair@$$CBGPAUsGAME_AGENT_INFO@@@std@@V?$CustomAllocator@U?$pair@$$CBGPAUsGAME_AGENT_INFO@@@std@@@util@@@std@@QBEAAU?$pair@$$CBGPAUsGAME_AGENT_INFO@@@2@XZ 004046a0 f i GameAgentInfoList.obj
 0001:000036c0       ??E?$_Const_iterator@$00@?$list@U?$pair@$$CBGPAUsGAME_AGENT_INFO@@@std@@V?$CustomAllocator@U?$pair@$$CBGPAUsGAME_AGENT_INFO@@@std@@@util@@@std@@QAEAAV012@XZ 004046c0 f i GameAgentInfoList.obj
 0001:000036c0       ??E?$_Const_iterator@$00@?$list@U?$pair@$$CBKPAVGameAgentServerSession@@@std@@V?$CustomAllocator@U?$pair@$$CBKPAVGameAgentServerSession@@@std@@@util@@@std@@QAEAAV012@XZ 004046c0 f i AuthServerSession.obj
 0001:00003730       ?_Getmycont@_Iterator_base_aux@std@@QBEPBV_Container_base_aux@2@XZ 00404730 f i AuthServerSession.obj
 0001:00003760       ?_Has_container@_Iterator_base_aux@std@@QBE_NXZ 00404760 f i AuthServerSession.obj
 0001:00003780       ?_Same_container@_Iterator_base_aux@std@@QBE_NABV12@@Z 00404780 f i AuthServerSession.obj
 0001:000037a0       ??0?$_Iterator@$00@?$list@U?$pair@$$CBGPAUsGAME_AGENT_INFO@@@std@@V?$CustomAllocator@U?$pair@$$CBGPAUsGAME_AGENT_INFO@@@std@@@util@@@std@@QAE@PAU_Node@?$_List_nod@U?$pair@$$CBGPAUsGAME_AGENT_INFO@@@std@@V?$CustomAllocator@U?$pair@$$CBGPAUsGAME_AGENT_INFO@@@std@@@util@@@2@PBV12@@Z 004047a0 f i GameAgentInfoList.obj
 0001:000037a0       ??0?$_Iterator@$00@?$list@U?$pair@$$CBKPAVGameAgentServerSession@@@std@@V?$CustomAllocator@U?$pair@$$CBKPAVGameAgentServerSession@@@std@@@util@@@std@@QAE@PAU_Node@?$_List_nod@U?$pair@$$CBKPAVGameAgentServerSession@@@std@@V?$CustomAllocator@U?$pair@$$CBKPAVGameAgentServerSession@@@std@@@util@@@2@PBV12@@Z 004047a0 f i AuthServerSession.obj
 0001:000037c0       ??D?$_Const_iterator@$00@?$list@U?$pair@$$CBGPAUsGAME_AGENT_INFO@@@std@@V?$CustomAllocator@U?$pair@$$CBGPAUsGAME_AGENT_INFO@@@std@@@util@@@std@@QBEABU?$pair@$$CBGPAUsGAME_AGENT_INFO@@@2@XZ 004047c0 f i GameAgentInfoList.obj
 0001:000037c0       ??D?$_Const_iterator@$00@?$list@U?$pair@$$CBKPAVGameAgentServerSession@@@std@@V?$CustomAllocator@U?$pair@$$CBKPAVGameAgentServerSession@@@std@@@util@@@std@@QBEABU?$pair@$$CBKPAVGameAgentServerSession@@@2@XZ 004047c0 f i AuthServerSession.obj
 0001:00003820       ?_Myval@?$list@U?$pair@$$CBKPAVGameAgentServerSession@@@std@@V?$CustomAllocator@U?$pair@$$CBKPAVGameAgentServerSession@@@std@@@util@@@std@@KAAAU?$pair@$$CBKPAVGameAgentServerSession@@@2@PAU_Node@?$_List_nod@U?$pair@$$CBKPAVGameAgentServerSession@@@std@@V?$CustomAllocator@U?$pair@$$CBKPAVGameAgentServerSession@@@std@@@util@@@2@@Z 00404820 f i AuthServerSession.obj
 0001:00003820       ?_Myval@?$list@U?$pair@$$CBGPAUsGAME_AGENT_INFO@@@std@@V?$CustomAllocator@U?$pair@$$CBGPAUsGAME_AGENT_INFO@@@std@@@util@@@std@@KAAAU?$pair@$$CBGPAUsGAME_AGENT_INFO@@@2@PAU_Node@?$_List_nod@U?$pair@$$CBGPAUsGAME_AGENT_INFO@@@std@@V?$CustomAllocator@U?$pair@$$CBGPAUsGAME_AGENT_INFO@@@std@@@util@@@2@@Z 00404820 f i GameAgentInfoList.obj
 0001:00003830       ??0?$_Const_iterator@$00@?$list@U?$pair@$$CBKPAVGameAgentServerSession@@@std@@V?$CustomAllocator@U?$pair@$$CBKPAVGameAgentServerSession@@@std@@@util@@@std@@QAE@PAU_Node@?$_List_nod@U?$pair@$$CBKPAVGameAgentServerSession@@@std@@V?$CustomAllocator@U?$pair@$$CBKPAVGameAgentServerSession@@@std@@@util@@@2@PBV12@@Z 00404830 f i AuthServerSession.obj
 0001:00003830       ??0?$_Const_iterator@$00@?$list@U?$pair@$$CBGPAUsGAME_AGENT_INFO@@@std@@V?$CustomAllocator@U?$pair@$$CBGPAUsGAME_AGENT_INFO@@@std@@@util@@@std@@QAE@PAU_Node@?$_List_nod@U?$pair@$$CBGPAUsGAME_AGENT_INFO@@@std@@V?$CustomAllocator@U?$pair@$$CBGPAUsGAME_AGENT_INFO@@@std@@@util@@@2@PBV12@@Z 00404830 f i GameAgentInfoList.obj
 0001:00003880       ?_Set_container@_Iterator_base_aux@std@@QAEXQBV_Container_base_aux@2@@Z 00404880 f i AuthServerSession.obj
 0001:000038a0       ??0_Iterator_base_aux@std@@QAE@XZ 004048a0 f i AuthServerSession.obj
 0001:000038a0       ??0?$simple_segregated_storage@I@boost@@QAE@XZ 004048a0 f i AuthAgentFrame.obj
 0001:000038c0       __tcsncpy                  004048c0 f i AuthServerSession.obj
 0001:000038e0       ??0GameAgentServerSession@@QAE@XZ 004048e0 f   GameAgentServerSession.obj
 0001:00003910       ??1GameAgentServerSession@@UAE@XZ 00404910 f   GameAgentServerSession.obj
 0001:00003930       ?AuthenticateConnectedAgentServer@GameAgentServerSession@@AAEXKG@Z 00404930 f   GameAgentServerSession.obj
 0001:00003a20       ?OnAccept@GameAgentServerSession@@MAEXK@Z 00404a20 f   GameAgentServerSession.obj
 0001:00003a40       ?OnDisconnect@GameAgentServerSession@@MAEXXZ 00404a40 f   GameAgentServerSession.obj
 0001:00003ad0       ?OnRecv@GameAgentServerSession@@MAEXPAEG@Z 00404ad0 f   GameAgentServerSession.obj
 0001:00003ca0       ?OnAU_AUTH_CONNECTOR_CHANGE_CONFIG_SYN@GameAgentServerSession@@AAEXPAUMSG_BASE_INTERNAL@@G@Z 00404ca0 f   GameAgentServerSession.obj
 0001:00003d10       ?OnGA_AUTH_NEWCLIENT_TO_GAMEAGENT_ACK@GameAgentServerSession@@AAEXPAUMSG_BASE_INTERNAL@@G@Z 00404d10 f   GameAgentServerSession.obj
 0001:00003d90       ?OnGA_AUTH_PC_LOGIN_CMD@GameAgentServerSession@@AAEXPAUMSG_BASE_INTERNAL@@G@Z 00404d90 f   GameAgentServerSession.obj
 0001:00003e00       ?OnGA_AUTH_PC_LOGOUT_CMD@GameAgentServerSession@@AAEXPAUMSG_BASE_INTERNAL@@G@Z 00404e00 f   GameAgentServerSession.obj
 0001:00003e70       ?OnGA_AUTH_ASK_PC_LOGOUT_ACK@GameAgentServerSession@@AAEXPAUMSG_BASE_INTERNAL@@G@Z 00404e70 f   GameAgentServerSession.obj
 0001:00003ee0       ?OnGA_AUTH_BILLING_ALARM_ACK@GameAgentServerSession@@AAEXPAUMSG_BASE_INTERNAL@@G@Z 00404ee0 f   GameAgentServerSession.obj
 0001:00003f20       ?OnGA_AUTH_PC_NAME_NTF@GameAgentServerSession@@AAEXPAUMSG_BASE_INTERNAL@@G@Z 00404f20 f   GameAgentServerSession.obj
 0001:00003f90       ?OnGA_AUTH_USER_COUNT_NTF@GameAgentServerSession@@AAEXPAUMSG_BASE_INTERNAL@@G@Z 00404f90 f   GameAgentServerSession.obj
 0001:00003fe0       ?OnAU_AUTH_SERVER_SELECT_SYN@GameAgentServerSession@@AAEXPAUMSG_BASE_INTERNAL@@G@Z 00404fe0 f   GameAgentServerSession.obj
 0001:00004030       ?OnAU_AUTH_COMMON_QUERY_USER_ID_SYN@GameAgentServerSession@@AAEXPAUMSG_BASE_INTERNAL@@G@Z 00405030 f   GameAgentServerSession.obj
 0001:00004090       ?GetServerType@GameAgentServerSession@@UAE?AW4eSERVER_TYPE@@XZ 00405090 f i GameAgentServerSession.obj
 0001:000040a0       ?SendPacket@AuthServerSession@@UAEHPAUMSG_BASE_INTERNAL@@G@Z 004050a0 f i AuthServerSession.obj
 0001:000040a0       ?SendPacket@GameAgentServerSession@@UAEHPAUMSG_BASE_INTERNAL@@G@Z 004050a0 f i GameAgentServerSession.obj
 0001:000040a0       ?SendPacket@AuthServerSession@@UAEHPAUMSG_BASE@@G@Z 004050a0 f i AuthServerSession.obj
 0001:000040a0       ?SendPacket@GameAgentServerSession@@UAEHPAUMSG_BASE@@G@Z 004050a0 f i GameAgentServerSession.obj
 0001:000040c0       ??_EGameAgentServerSession@@UAEPAXI@Z 004050c0 f i GameAgentServerSession.obj
 0001:000040c0       ??_GGameAgentServerSession@@UAEPAXI@Z 004050c0 f i GameAgentServerSession.obj
 0001:000040f0       ??0MSG_AU_AUTH_HEART_BEAT_ACK@@QAE@XZ 004050f0 f i GameAgentServerSession.obj
 0001:00004110       ?GetSize@MSG_AU_AUTH_HEART_BEAT_ACK@@QBEGXZ 00405110 f i GameAgentServerSession.obj
 0001:00004120       ??0MSG_AS_AUTH_PC_LOGIN_CMD@@QAE@XZ 00405120 f i GameAgentServerSession.obj
 0001:00004150       ??0MSG_GA_AUTH_PC_LOGIN_CMD@@QAE@XZ 00405150 f i GameAgentServerSession.obj
 0001:00004170       ??0MSG_AS_AUTH_PC_LOGOUT_CMD@@QAE@XZ 00405170 f i GameAgentServerSession.obj
 0001:000041a0       ??0MSG_GA_AUTH_PC_LOGOUT_CMD@@QAE@XZ 004051a0 f i GameAgentServerSession.obj
 0001:000041c0       ??0MSG_AS_AUTH_PC_NAME_NTF@@QAE@XZ 004051c0 f i GameAgentServerSession.obj
 0001:000041f0       ??0MSG_GA_AUTH_PC_NAME_NTF@@QAE@XZ 004051f0 f i GameAgentServerSession.obj
 0001:00004210       ??0MSG_AS_AUTH_USER_COUNT_NTF@@QAE@XZ 00405210 f i GameAgentServerSession.obj
 0001:00004240       ??0MSG_GA_AUTH_USER_COUNT_NTF@@QAE@XZ 00405240 f i GameAgentServerSession.obj
 0001:00004260       ??0GameAgentInfoList@@QAE@XZ 00405260 f   GameAgentInfoList.obj
 0001:000042d0       ??1GameAgentInfoList@@QAE@XZ 004052d0 f   GameAgentInfoList.obj
 0001:00004330       ?Release@GameAgentInfoList@@QAEXXZ 00405330 f   GameAgentInfoList.obj
 0001:000043c0       ?AddAgentInfo@GameAgentInfoList@@QAE_NPBUsGAME_AGENT_INFO@@@Z 004053c0 f   GameAgentInfoList.obj
 0001:00004460       ?RemoveAgentInfo@GameAgentInfoList@@QAEXG@Z 00405460 f   GameAgentInfoList.obj
 0001:000044f0       ?FindAgentInfo@GameAgentInfoList@@QAEPBUsGAME_AGENT_INFO@@G@Z 004054f0 f   GameAgentInfoList.obj
 0001:00004540       ?FindAgentInfoForPrivateIPAddress@GameAgentInfoList@@QAEPBUsGAME_AGENT_INFO@@KG@Z 00405540 f   GameAgentInfoList.obj
 0001:000045e0       ?Display@GameAgentInfoList@@QAEXXZ 004055e0 f   GameAgentInfoList.obj
 0001:000046b0       ??1?$chunk_hash_map@KPAVGameAgentServerSession@@V?$hash_compare@KU?$less@K@std@@@stdext@@@util@@QAE@XZ 004056b0 f i GameAgentManager.obj
 0001:000046b0       ??1?$chunk_hash_map@GPAUsGAME_AGENT_INFO@@V?$hash_compare@GU?$less@G@std@@@stdext@@@util@@QAE@XZ 004056b0 f i GameAgentInfoList.obj
 0001:000046d0       ??1?$hash_map@GPAUsGAME_AGENT_INFO@@V?$hash_compare@GU?$less@G@std@@@stdext@@V?$CustomAllocator@PAUsGAME_AGENT_INFO@@@util@@@stdext@@QAE@XZ 004056d0 f i GameAgentInfoList.obj
 0001:000046d0       ??1?$hash_map@KPAVGameAgentServerSession@@V?$hash_compare@KU?$less@K@std@@@stdext@@V?$CustomAllocator@PAVGameAgentServerSession@@@util@@@stdext@@QAE@XZ 004056d0 f i GameAgentManager.obj
 0001:000046f0       ??0?$chunk_hash_map@KPAVGameAgentServerSession@@V?$hash_compare@KU?$less@K@std@@@stdext@@@util@@QAE@ABV?$hash_compare@KU?$less@K@std@@@stdext@@ABV?$CustomAllocator@U?$pair@$$CBKPAVGameAgentServerSession@@@std@@@1@@Z 004056f0 f i GameAgentManager.obj
 0001:000046f0       ??0?$chunk_hash_map@GPAUsGAME_AGENT_INFO@@V?$hash_compare@GU?$less@G@std@@@stdext@@@util@@QAE@ABV?$hash_compare@GU?$less@G@std@@@stdext@@ABV?$CustomAllocator@U?$pair@$$CBGPAUsGAME_AGENT_INFO@@@std@@@1@@Z 004056f0 f i GameAgentInfoList.obj
 0001:00004710       ??1?$_Hash@V?$_Hmap_traits@KPAVGameAgentServerSession@@V?$hash_compare@KU?$less@K@std@@@stdext@@V?$CustomAllocator@PAVGameAgentServerSession@@@util@@$0A@@stdext@@@stdext@@QAE@XZ 00405710 f i GameAgentManager.obj
 0001:00004710       ??1?$_Hash@V?$_Hmap_traits@GPAUsGAME_AGENT_INFO@@V?$hash_compare@GU?$less@G@std@@@stdext@@V?$CustomAllocator@PAUsGAME_AGENT_INFO@@@util@@$0A@@stdext@@@stdext@@QAE@XZ 00405710 f i GameAgentInfoList.obj
 0001:00004780       ?insert@?$_Hash@V?$_Hmap_traits@GPAUsGAME_AGENT_INFO@@V?$hash_compare@GU?$less@G@std@@@stdext@@V?$CustomAllocator@PAUsGAME_AGENT_INFO@@@util@@$0A@@stdext@@@stdext@@QAE?AU?$pair@V?$_Iterator@$00@?$list@U?$pair@$$CBGPAUsGAME_AGENT_INFO@@@std@@V?$CustomAllocator@U?$pair@$$CBGPAUsGAME_AGENT_INFO@@@std@@@util@@@std@@_N@std@@ABU?$pair@$$CBGPAUsGAME_AGENT_INFO@@@4@@Z 00405780 f i GameAgentInfoList.obj
 0001:000047c0       ?erase@?$_Hash@V?$_Hmap_traits@GPAUsGAME_AGENT_INFO@@V?$hash_compare@GU?$less@G@std@@@stdext@@V?$CustomAllocator@PAUsGAME_AGENT_INFO@@@util@@$0A@@stdext@@@stdext@@QAE?AV?$_Iterator@$00@?$list@U?$pair@$$CBGPAUsGAME_AGENT_INFO@@@std@@V?$CustomAllocator@U?$pair@$$CBGPAUsGAME_AGENT_INFO@@@std@@@util@@@std@@V?$_Const_iterator@$00@45@@Z 004057c0 f i GameAgentInfoList.obj
 0001:00004890       ?clear@?$_Hash@V?$_Hmap_traits@GPAUsGAME_AGENT_INFO@@V?$hash_compare@GU?$less@G@std@@@stdext@@V?$CustomAllocator@PAUsGAME_AGENT_INFO@@@util@@$0A@@stdext@@@stdext@@QAEXXZ 00405890 f i GameAgentInfoList.obj
 0001:000048b0       ?find@?$_Hash@V?$_Hmap_traits@GPAUsGAME_AGENT_INFO@@V?$hash_compare@GU?$less@G@std@@@stdext@@V?$CustomAllocator@PAUsGAME_AGENT_INFO@@@util@@$0A@@stdext@@@stdext@@QAE?AV?$_Iterator@$00@?$list@U?$pair@$$CBGPAUsGAME_AGENT_INFO@@@std@@V?$CustomAllocator@U?$pair@$$CBGPAUsGAME_AGENT_INFO@@@std@@@util@@@std@@ABG@Z 004058b0 f i GameAgentInfoList.obj
 0001:000048d0       ??C?$_Iterator@$00@?$list@U?$pair@$$CBGPAUsGAME_AGENT_INFO@@@std@@V?$CustomAllocator@U?$pair@$$CBGPAUsGAME_AGENT_INFO@@@std@@@util@@@std@@QBEPAU?$pair@$$CBGPAUsGAME_AGENT_INFO@@@2@XZ 004058d0 f i GameAgentInfoList.obj
 0001:000048d0       ??C?$_Iterator@$00@?$list@U?$pair@$$CBKPAVGameAgentServerSession@@@std@@V?$CustomAllocator@U?$pair@$$CBKPAVGameAgentServerSession@@@std@@@util@@@std@@QBEPAU?$pair@$$CBKPAVGameAgentServerSession@@@2@XZ 004058d0 f i AuthServerSession.obj
 0001:000048f0       ??8?$_Const_iterator@$00@?$list@U?$pair@$$CBKPAVGameAgentServerSession@@@std@@V?$CustomAllocator@U?$pair@$$CBKPAVGameAgentServerSession@@@std@@@util@@@std@@QBE_NABV012@@Z 004058f0 f i AuthServerSession.obj
 0001:000048f0       ??8?$_Const_iterator@$00@?$list@U?$pair@$$CBGPAUsGAME_AGENT_INFO@@@std@@V?$CustomAllocator@U?$pair@$$CBGPAUsGAME_AGENT_INFO@@@std@@@util@@@std@@QBE_NABV012@@Z 004058f0 f i GameAgentInfoList.obj
 0001:00004940       ??9?$_Const_iterator@$00@?$list@U?$pair@$$CBGPAUsGAME_AGENT_INFO@@@std@@V?$CustomAllocator@U?$pair@$$CBGPAUsGAME_AGENT_INFO@@@std@@@util@@@std@@QBE_NABV012@@Z 00405940 f i GameAgentInfoList.obj
 0001:00004940       ??9?$_Const_iterator@$00@?$list@U?$pair@$$CBKPAVGameAgentServerSession@@@std@@V?$CustomAllocator@U?$pair@$$CBKPAVGameAgentServerSession@@@std@@@util@@@std@@QBE_NABV012@@Z 00405940 f i AuthServerSession.obj
 0001:00004970       ??1?$Singleton@VAuthAgentFrame@@$00@util@@IAE@XZ 00405970 f i AuthAgentFrame.obj
 0001:00004970       ?Connect@ServerSession@@UAEXXZ 00405970 f i AuthServerSession.obj
 0001:00004970       ??1?$Singleton@VGameAgentInfoList@@$00@util@@IAE@XZ 00405970 f i GameAgentInfoList.obj
 0001:00004970       ?Release@IMemoryPoolFactoryImpl@internal@util@@UAEXXZ 00405970 f i AuthAgentFrame.obj
 0001:00004970       ??1?$Singleton@VGameAgentManager@@$00@util@@IAE@XZ 00405970 f i GameAgentManager.obj
 0001:00004970       ??1_Container_base_aux@std@@QAE@XZ 00405970 f i GameAgentInfoList.obj
 0001:00004980       ??0?$hash_map@GPAUsGAME_AGENT_INFO@@V?$hash_compare@GU?$less@G@std@@@stdext@@V?$CustomAllocator@PAUsGAME_AGENT_INFO@@@util@@@stdext@@QAE@ABV?$hash_compare@GU?$less@G@std@@@1@ABV?$CustomAllocator@U?$pair@$$CBGPAUsGAME_AGENT_INFO@@@std@@@util@@@Z 00405980 f i GameAgentInfoList.obj
 0001:00004980       ??0?$hash_map@KPAVGameAgentServerSession@@V?$hash_compare@KU?$less@K@std@@@stdext@@V?$CustomAllocator@PAVGameAgentServerSession@@@util@@@stdext@@QAE@ABV?$hash_compare@KU?$less@K@std@@@1@ABV?$CustomAllocator@U?$pair@$$CBKPAVGameAgentServerSession@@@std@@@util@@@Z 00405980 f i GameAgentManager.obj
 0001:000049a0       ?lower_bound@?$_Hash@V?$_Hmap_traits@GPAUsGAME_AGENT_INFO@@V?$hash_compare@GU?$less@G@std@@@stdext@@V?$CustomAllocator@PAUsGAME_AGENT_INFO@@@util@@$0A@@stdext@@@stdext@@QAE?AV?$_Iterator@$00@?$list@U?$pair@$$CBGPAUsGAME_AGENT_INFO@@@std@@V?$CustomAllocator@U?$pair@$$CBGPAUsGAME_AGENT_INFO@@@std@@@util@@@std@@ABG@Z 004059a0 f i GameAgentInfoList.obj
 0001:00004ac0       ?_Hashval@?$_Hash@V?$_Hmap_traits@GPAUsGAME_AGENT_INFO@@V?$hash_compare@GU?$less@G@std@@@stdext@@V?$CustomAllocator@PAUsGAME_AGENT_INFO@@@util@@$0A@@stdext@@@stdext@@IBEIABG@Z 00405ac0 f i GameAgentInfoList.obj
 0001:00004b10       ?_Init@?$_Hash@V?$_Hmap_traits@KPAVGameAgentServerSession@@V?$hash_compare@KU?$less@K@std@@@stdext@@V?$CustomAllocator@PAVGameAgentServerSession@@@util@@$0A@@stdext@@@stdext@@IAEXI@Z 00405b10 f i GameAgentManager.obj
 0001:00004b10       ?_Init@?$_Hash@V?$_Hmap_traits@GPAUsGAME_AGENT_INFO@@V?$hash_compare@GU?$less@G@std@@@stdext@@V?$CustomAllocator@PAUsGAME_AGENT_INFO@@@util@@$0A@@stdext@@@stdext@@IAEXI@Z 00405b10 f i GameAgentInfoList.obj
 0001:00004b70       ?_Insert@?$_Hash@V?$_Hmap_traits@GPAUsGAME_AGENT_INFO@@V?$hash_compare@GU?$less@G@std@@@stdext@@V?$CustomAllocator@PAUsGAME_AGENT_INFO@@@util@@$0A@@stdext@@@stdext@@IAE?AU?$pair@V?$_Iterator@$00@?$list@U?$pair@$$CBGPAUsGAME_AGENT_INFO@@@std@@V?$CustomAllocator@U?$pair@$$CBGPAUsGAME_AGENT_INFO@@@std@@@util@@@std@@_N@std@@ABU?$pair@$$CBGPAUsGAME_AGENT_INFO@@@4@V?$_Iterator@$00@?$list@U?$pair@$$CBGPAUsGAME_AGENT_INFO@@@std@@V?$CustomAllocator@U?$pair@$$CBGPAUsGAME_AGENT_INFO@@@std@@@util@@@4@@Z 00405b70 f i GameAgentInfoList.obj
 0001:00004e50       ??1?$list@U?$pair@$$CBGPAUsGAME_AGENT_INFO@@@std@@V?$CustomAllocator@U?$pair@$$CBGPAUsGAME_AGENT_INFO@@@std@@@util@@@std@@QAE@XZ 00405e50 f i GameAgentInfoList.obj
 0001:00004e50       ??1?$list@U?$pair@$$CBKPAVGameAgentServerSession@@@std@@V?$CustomAllocator@U?$pair@$$CBKPAVGameAgentServerSession@@@std@@@util@@@std@@QAE@XZ 00405e50 f i GameAgentManager.obj
 0001:00004eb0       ?size@?$list@U?$pair@$$CBKPAVGameAgentServerSession@@@std@@V?$CustomAllocator@U?$pair@$$CBKPAVGameAgentServerSession@@@std@@@util@@@std@@QBEIXZ 00405eb0 f i GameAgentManager.obj
 0001:00004eb0       ?size@?$list@U?$pair@$$CBGPAUsGAME_AGENT_INFO@@@std@@V?$CustomAllocator@U?$pair@$$CBGPAUsGAME_AGENT_INFO@@@std@@@util@@@std@@QBEIXZ 00405eb0 f i GameAgentInfoList.obj
 0001:00004ed0       ?erase@?$list@U?$pair@$$CBKPAVGameAgentServerSession@@@std@@V?$CustomAllocator@U?$pair@$$CBKPAVGameAgentServerSession@@@std@@@util@@@std@@QAE?AV?$_Iterator@$00@12@V?$_Const_iterator@$00@12@@Z 00405ed0 f i GameAgentManager.obj
 0001:00004ed0       ?erase@?$list@U?$pair@$$CBGPAUsGAME_AGENT_INFO@@@std@@V?$CustomAllocator@U?$pair@$$CBGPAUsGAME_AGENT_INFO@@@std@@@util@@@std@@QAE?AV?$_Iterator@$00@12@V?$_Const_iterator@$00@12@@Z 00405ed0 f i GameAgentInfoList.obj
 0001:00004fa0       ?clear@?$list@U?$pair@$$CBGPAUsGAME_AGENT_INFO@@@std@@V?$CustomAllocator@U?$pair@$$CBGPAUsGAME_AGENT_INFO@@@std@@@util@@@std@@QAEXXZ 00405fa0 f i GameAgentInfoList.obj
 0001:00004fa0       ?clear@?$list@U?$pair@$$CBKPAVGameAgentServerSession@@@std@@V?$CustomAllocator@U?$pair@$$CBKPAVGameAgentServerSession@@@std@@@util@@@std@@QAEXXZ 00405fa0 f i GameAgentManager.obj
 0001:00005040       ??1?$vector@U_List_position@?$_Hash@V?$_Hmap_traits@GPAUsGAME_AGENT_INFO@@V?$hash_compare@GU?$less@G@std@@@stdext@@V?$CustomAllocator@PAUsGAME_AGENT_INFO@@@util@@$0A@@stdext@@@stdext@@V?$CustomAllocator@U_List_position@?$_Hash@V?$_Hmap_traits@GPAUsGAME_AGENT_INFO@@V?$hash_compare@GU?$less@G@std@@@stdext@@V?$CustomAllocator@PAUsGAME_AGENT_INFO@@@util@@$0A@@stdext@@@stdext@@@util@@@std@@QAE@XZ 00406040 f i GameAgentInfoList.obj
 0001:00005040       ??1?$vector@U_List_position@?$_Hash@V?$_Hmap_traits@KPAVGameAgentServerSession@@V?$hash_compare@KU?$less@K@std@@@stdext@@V?$CustomAllocator@PAVGameAgentServerSession@@@util@@$0A@@stdext@@@stdext@@V?$CustomAllocator@U_List_position@?$_Hash@V?$_Hmap_traits@KPAVGameAgentServerSession@@V?$hash_compare@KU?$less@K@std@@@stdext@@V?$CustomAllocator@PAVGameAgentServerSession@@@util@@$0A@@stdext@@@stdext@@@util@@@std@@QAE@XZ 00406040 f i GameAgentManager.obj
 0001:000050a0       ??0_List_position@?$_Hash@V?$_Hmap_traits@KPAVGameAgentServerSession@@V?$hash_compare@KU?$less@K@std@@@stdext@@V?$CustomAllocator@PAVGameAgentServerSession@@@util@@$0A@@stdext@@@stdext@@QAE@V?$_Iterator@$00@?$list@U?$pair@$$CBKPAVGameAgentServerSession@@@std@@V?$CustomAllocator@U?$pair@$$CBKPAVGameAgentServerSession@@@std@@@util@@@std@@@Z 004060a0 f i GameAgentManager.obj
 0001:000050a0       ??0_List_position@?$_Hash@V?$_Hmap_traits@GPAUsGAME_AGENT_INFO@@V?$hash_compare@GU?$less@G@std@@@stdext@@V?$CustomAllocator@PAUsGAME_AGENT_INFO@@@util@@$0A@@stdext@@@stdext@@QAE@V?$_Iterator@$00@?$list@U?$pair@$$CBGPAUsGAME_AGENT_INFO@@@std@@V?$CustomAllocator@U?$pair@$$CBGPAUsGAME_AGENT_INFO@@@std@@@util@@@std@@@Z 004060a0 f i GameAgentInfoList.obj
 0001:000050d0       ??1?$_List_val@U?$pair@$$CBGPAUsGAME_AGENT_INFO@@@std@@V?$CustomAllocator@U?$pair@$$CBGPAUsGAME_AGENT_INFO@@@std@@@util@@@std@@QAE@XZ 004060d0 f i GameAgentInfoList.obj
 0001:000050d0       ??1?$_List_val@U?$pair@$$CBKPAVGameAgentServerSession@@@std@@V?$CustomAllocator@U?$pair@$$CBKPAVGameAgentServerSession@@@std@@@util@@@std@@QAE@XZ 004060d0 f i GameAgentManager.obj
 0001:000050f0       ??1?$_Vector_val@U_List_position@?$_Hash@V?$_Hmap_traits@KPAVGameAgentServerSession@@V?$hash_compare@KU?$less@K@std@@@stdext@@V?$CustomAllocator@PAVGameAgentServerSession@@@util@@$0A@@stdext@@@stdext@@V?$CustomAllocator@U_List_position@?$_Hash@V?$_Hmap_traits@KPAVGameAgentServerSession@@V?$hash_compare@KU?$less@K@std@@@stdext@@V?$CustomAllocator@PAVGameAgentServerSession@@@util@@$0A@@stdext@@@stdext@@@util@@@std@@QAE@XZ 004060f0 f i GameAgentManager.obj
 0001:000050f0       ??1?$_List_nod@U?$pair@$$CBKPAVGameAgentServerSession@@@std@@V?$CustomAllocator@U?$pair@$$CBKPAVGameAgentServerSession@@@std@@@util@@@std@@QAE@XZ 004060f0 f i GameAgentManager.obj
 0001:000050f0       ??1?$_Vector_val@U_List_position@?$_Hash@V?$_Hmap_traits@GPAUsGAME_AGENT_INFO@@V?$hash_compare@GU?$less@G@std@@@stdext@@V?$CustomAllocator@PAUsGAME_AGENT_INFO@@@util@@$0A@@stdext@@@stdext@@V?$CustomAllocator@U_List_position@?$_Hash@V?$_Hmap_traits@GPAUsGAME_AGENT_INFO@@V?$hash_compare@GU?$less@G@std@@@stdext@@V?$CustomAllocator@PAUsGAME_AGENT_INFO@@@util@@$0A@@stdext@@@stdext@@@util@@@std@@QAE@XZ 004060f0 f i GameAgentInfoList.obj
 0001:000050f0       ??1?$_List_nod@U?$pair@$$CBGPAUsGAME_AGENT_INFO@@@std@@V?$CustomAllocator@U?$pair@$$CBGPAUsGAME_AGENT_INFO@@@std@@@util@@@std@@QAE@XZ 004060f0 f i GameAgentInfoList.obj
 0001:00005110       ??1?$_List_ptr@U?$pair@$$CBKPAVGameAgentServerSession@@@std@@V?$CustomAllocator@U?$pair@$$CBKPAVGameAgentServerSession@@@std@@@util@@@std@@QAE@XZ 00406110 f i GameAgentManager.obj
 0001:00005110       ??1?$_List_ptr@U?$pair@$$CBGPAUsGAME_AGENT_INFO@@@std@@V?$CustomAllocator@U?$pair@$$CBGPAUsGAME_AGENT_INFO@@@std@@@util@@@std@@QAE@XZ 00406110 f i GameAgentInfoList.obj
 0001:00005130       ??0?$_Hash@V?$_Hmap_traits@GPAUsGAME_AGENT_INFO@@V?$hash_compare@GU?$less@G@std@@@stdext@@V?$CustomAllocator@PAUsGAME_AGENT_INFO@@@util@@$0A@@stdext@@@stdext@@QAE@ABV?$hash_compare@GU?$less@G@std@@@1@ABV?$CustomAllocator@U?$pair@$$CBGPAUsGAME_AGENT_INFO@@@std@@@util@@@Z 00406130 f i GameAgentInfoList.obj
 0001:00005130       ??0?$_Hash@V?$_Hmap_traits@KPAVGameAgentServerSession@@V?$hash_compare@KU?$less@K@std@@@stdext@@V?$CustomAllocator@PAVGameAgentServerSession@@@util@@$0A@@stdext@@@stdext@@QAE@ABV?$hash_compare@KU?$less@K@std@@@1@ABV?$CustomAllocator@U?$pair@$$CBKPAVGameAgentServerSession@@@std@@@util@@@Z 00406130 f i GameAgentManager.obj
 0001:000051e0       ?bucket_count@?$_Hash@V?$_Hmap_traits@KPAVGameAgentServerSession@@V?$hash_compare@KU?$less@K@std@@@stdext@@V?$CustomAllocator@PAVGameAgentServerSession@@@util@@$0A@@stdext@@@stdext@@QBEIXZ 004061e0 f i GameAgentManager.obj
 0001:000051e0       ?bucket_count@?$_Hash@V?$_Hmap_traits@GPAUsGAME_AGENT_INFO@@V?$hash_compare@GU?$less@G@std@@@stdext@@V?$CustomAllocator@PAUsGAME_AGENT_INFO@@@util@@$0A@@stdext@@@stdext@@QBEIXZ 004061e0 f i GameAgentInfoList.obj
 0001:00005200       ?load_factor@?$_Hash@V?$_Hmap_traits@GPAUsGAME_AGENT_INFO@@V?$hash_compare@GU?$less@G@std@@@stdext@@V?$CustomAllocator@PAUsGAME_AGENT_INFO@@@util@@$0A@@stdext@@@stdext@@QBEMXZ 00406200 f i GameAgentInfoList.obj
 0001:00005200       ?load_factor@?$_Hash@V?$_Hmap_traits@KPAVGameAgentServerSession@@V?$hash_compare@KU?$less@K@std@@@stdext@@V?$CustomAllocator@PAVGameAgentServerSession@@@util@@$0A@@stdext@@@stdext@@QBEMXZ 00406200 f i GameAgentManager.obj
 0001:00005250       ?_Reinsert@?$_Hash@V?$_Hmap_traits@GPAUsGAME_AGENT_INFO@@V?$hash_compare@GU?$less@G@std@@@stdext@@V?$CustomAllocator@PAUsGAME_AGENT_INFO@@@util@@$0A@@stdext@@@stdext@@IAEXXZ 00406250 f i GameAgentInfoList.obj
 0001:000052d0       ??R?$hash_compare@GU?$less@G@std@@@stdext@@QBEIABG@Z 004062d0 f i GameAgentInfoList.obj
 0001:00005340       ??R?$hash_compare@GU?$less@G@std@@@stdext@@QBE_NABG0@Z 00406340 f i GameAgentInfoList.obj
 0001:00005360       ?_Prevnode@?$list@U?$pair@$$CBGPAUsGAME_AGENT_INFO@@@std@@V?$CustomAllocator@U?$pair@$$CBGPAUsGAME_AGENT_INFO@@@std@@@util@@@std@@KAAAPAU_Node@?$_List_nod@U?$pair@$$CBGPAUsGAME_AGENT_INFO@@@std@@V?$CustomAllocator@U?$pair@$$CBGPAUsGAME_AGENT_INFO@@@std@@@util@@@2@PAU342@@Z 00406360 f i GameAgentInfoList.obj
 0001:00005360       ?_Prevnode@?$list@U?$pair@$$CBKPAVGameAgentServerSession@@@std@@V?$CustomAllocator@U?$pair@$$CBKPAVGameAgentServerSession@@@std@@@util@@@std@@KAAAPAU_Node@?$_List_nod@U?$pair@$$CBKPAVGameAgentServerSession@@@std@@V?$CustomAllocator@U?$pair@$$CBKPAVGameAgentServerSession@@@std@@@util@@@2@PAU342@@Z 00406360 f i GameAgentManager.obj
 0001:00005370       ?_Make_iter@?$list@U?$pair@$$CBKPAVGameAgentServerSession@@@std@@V?$CustomAllocator@U?$pair@$$CBKPAVGameAgentServerSession@@@std@@@util@@@std@@QBE?AV?$_Iterator@$00@12@V?$_Const_iterator@$00@12@@Z 00406370 f i GameAgentManager.obj
 0001:00005370       ?_Make_iter@?$list@U?$pair@$$CBGPAUsGAME_AGENT_INFO@@@std@@V?$CustomAllocator@U?$pair@$$CBGPAUsGAME_AGENT_INFO@@@std@@@util@@@std@@QBE?AV?$_Iterator@$00@12@V?$_Const_iterator@$00@12@@Z 00406370 f i GameAgentInfoList.obj
 0001:00005390       ?_Tidy@?$list@U?$pair@$$CBKPAVGameAgentServerSession@@@std@@V?$CustomAllocator@U?$pair@$$CBKPAVGameAgentServerSession@@@std@@@util@@@std@@IAEXXZ 00406390 f i GameAgentManager.obj
 0001:00005390       ?_Tidy@?$list@U?$pair@$$CBGPAUsGAME_AGENT_INFO@@@std@@V?$CustomAllocator@U?$pair@$$CBGPAUsGAME_AGENT_INFO@@@std@@@util@@@std@@IAEXXZ 00406390 f i GameAgentInfoList.obj
 0001:00005400       ?size@?$vector@U_List_position@?$_Hash@V?$_Hmap_traits@KPAVGameAgentServerSession@@V?$hash_compare@KU?$less@K@std@@@stdext@@V?$CustomAllocator@PAVGameAgentServerSession@@@util@@$0A@@stdext@@@stdext@@V?$CustomAllocator@U_List_position@?$_Hash@V?$_Hmap_traits@KPAVGameAgentServerSession@@V?$hash_compare@KU?$less@K@std@@@stdext@@V?$CustomAllocator@PAVGameAgentServerSession@@@util@@$0A@@stdext@@@stdext@@@util@@@std@@QBEIXZ 00406400 f i GameAgentManager.obj
 0001:00005400       ?size@?$vector@U_List_position@?$_Hash@V?$_Hmap_traits@GPAUsGAME_AGENT_INFO@@V?$hash_compare@GU?$less@G@std@@@stdext@@V?$CustomAllocator@PAUsGAME_AGENT_INFO@@@util@@$0A@@stdext@@@stdext@@V?$CustomAllocator@U_List_position@?$_Hash@V?$_Hmap_traits@GPAUsGAME_AGENT_INFO@@V?$hash_compare@GU?$less@G@std@@@stdext@@V?$CustomAllocator@PAUsGAME_AGENT_INFO@@@util@@$0A@@stdext@@@stdext@@@util@@@std@@QBEIXZ 00406400 f i GameAgentInfoList.obj
 0001:00005420       ?max_size@?$vector@U_List_position@?$_Hash@V?$_Hmap_traits@KPAVGameAgentServerSession@@V?$hash_compare@KU?$less@K@std@@@stdext@@V?$CustomAllocator@PAVGameAgentServerSession@@@util@@$0A@@stdext@@@stdext@@V?$CustomAllocator@U_List_position@?$_Hash@V?$_Hmap_traits@KPAVGameAgentServerSession@@V?$hash_compare@KU?$less@K@std@@@stdext@@V?$CustomAllocator@PAVGameAgentServerSession@@@util@@$0A@@stdext@@@stdext@@@util@@@std@@QBEIXZ 00406420 f i GameAgentManager.obj
 0001:00005420       ?max_size@?$vector@U_List_position@?$_Hash@V?$_Hmap_traits@GPAUsGAME_AGENT_INFO@@V?$hash_compare@GU?$less@G@std@@@stdext@@V?$CustomAllocator@PAUsGAME_AGENT_INFO@@@util@@$0A@@stdext@@@stdext@@V?$CustomAllocator@U_List_position@?$_Hash@V?$_Hmap_traits@GPAUsGAME_AGENT_INFO@@V?$hash_compare@GU?$less@G@std@@@stdext@@V?$CustomAllocator@PAUsGAME_AGENT_INFO@@@util@@$0A@@stdext@@@stdext@@@util@@@std@@QBEIXZ 00406420 f i GameAgentInfoList.obj
 0001:00005440       ?assign@?$vector@U_List_position@?$_Hash@V?$_Hmap_traits@KPAVGameAgentServerSession@@V?$hash_compare@KU?$less@K@std@@@stdext@@V?$CustomAllocator@PAVGameAgentServerSession@@@util@@$0A@@stdext@@@stdext@@V?$CustomAllocator@U_List_position@?$_Hash@V?$_Hmap_traits@KPAVGameAgentServerSession@@V?$hash_compare@KU?$less@K@std@@@stdext@@V?$CustomAllocator@PAVGameAgentServerSession@@@util@@$0A@@stdext@@@stdext@@@util@@@std@@QAEXIABU_List_position@?$_Hash@V?$_Hmap_traits@KPAVGameAgentServerSession@@V?$hash_compare@KU?$less@K@std@@@stdext@@V?$CustomAllocator@PAVGameAgentServerSession@@@util@@$0A@@stdext@@@stdext@@@Z 00406440 f i GameAgentManager.obj
 0001:00005440       ?assign@?$vector@U_List_position@?$_Hash@V?$_Hmap_traits@GPAUsGAME_AGENT_INFO@@V?$hash_compare@GU?$less@G@std@@@stdext@@V?$CustomAllocator@PAUsGAME_AGENT_INFO@@@util@@$0A@@stdext@@@stdext@@V?$CustomAllocator@U_List_position@?$_Hash@V?$_Hmap_traits@GPAUsGAME_AGENT_INFO@@V?$hash_compare@GU?$less@G@std@@@stdext@@V?$CustomAllocator@PAUsGAME_AGENT_INFO@@@util@@$0A@@stdext@@@stdext@@@util@@@std@@QAEXIABU_List_position@?$_Hash@V?$_Hmap_traits@GPAUsGAME_AGENT_INFO@@V?$hash_compare@GU?$less@G@std@@@stdext@@V?$CustomAllocator@PAUsGAME_AGENT_INFO@@@util@@$0A@@stdext@@@stdext@@@Z 00406440 f i GameAgentInfoList.obj
 0001:00005460       ?_Tidy@?$vector@U_List_position@?$_Hash@V?$_Hmap_traits@KPAVGameAgentServerSession@@V?$hash_compare@KU?$less@K@std@@@stdext@@V?$CustomAllocator@PAVGameAgentServerSession@@@util@@$0A@@stdext@@@stdext@@V?$CustomAllocator@U_List_position@?$_Hash@V?$_Hmap_traits@KPAVGameAgentServerSession@@V?$hash_compare@KU?$less@K@std@@@stdext@@V?$CustomAllocator@PAVGameAgentServerSession@@@util@@$0A@@stdext@@@stdext@@@util@@@std@@IAEXXZ 00406460 f i GameAgentManager.obj
 0001:00005460       ?_Tidy@?$vector@U_List_position@?$_Hash@V?$_Hmap_traits@GPAUsGAME_AGENT_INFO@@V?$hash_compare@GU?$less@G@std@@@stdext@@V?$CustomAllocator@PAUsGAME_AGENT_INFO@@@util@@$0A@@stdext@@@stdext@@V?$CustomAllocator@U_List_position@?$_Hash@V?$_Hmap_traits@GPAUsGAME_AGENT_INFO@@V?$hash_compare@GU?$less@G@std@@@stdext@@V?$CustomAllocator@PAUsGAME_AGENT_INFO@@@util@@$0A@@stdext@@@stdext@@@util@@@std@@IAEXXZ 00406460 f i GameAgentInfoList.obj
 0001:000054d0       ??1?$_Container_base_aux_alloc_real@V?$CustomAllocator@U_List_position@?$_Hash@V?$_Hmap_traits@GPAUsGAME_AGENT_INFO@@V?$hash_compare@GU?$less@G@std@@@stdext@@V?$CustomAllocator@PAUsGAME_AGENT_INFO@@@util@@$0A@@stdext@@@stdext@@@util@@@std@@IAE@XZ 004064d0 f i GameAgentInfoList.obj
 0001:000054d0       ??1?$_Container_base_aux_alloc_real@V?$CustomAllocator@U_List_position@?$_Hash@V?$_Hmap_traits@KPAVGameAgentServerSession@@V?$hash_compare@KU?$less@K@std@@@stdext@@V?$CustomAllocator@PAVGameAgentServerSession@@@util@@$0A@@stdext@@@stdext@@@util@@@std@@IAE@XZ 004064d0 f i GameAgentManager.obj
 0001:000054d0       ??1?$_Container_base_aux_alloc_real@V?$CustomAllocator@U?$pair@$$CBKPAVGameAgentServerSession@@@std@@@util@@@std@@IAE@XZ 004064d0 f i GameAgentManager.obj
 0001:000054d0       ??1?$_Container_base_aux_alloc_real@V?$CustomAllocator@U?$pair@$$CBGPAUsGAME_AGENT_INFO@@@std@@@util@@@std@@IAE@XZ 004064d0 f i GameAgentInfoList.obj
 0001:00005530       ??0?$_Iterator@$00@?$list@U?$pair@$$CBGPAUsGAME_AGENT_INFO@@@std@@V?$CustomAllocator@U?$pair@$$CBGPAUsGAME_AGENT_INFO@@@std@@@util@@@std@@QAE@XZ 00406530 f i GameAgentInfoList.obj
 0001:00005530       ??0?$_Iterator@$00@?$list@U?$pair@$$CBKPAVGameAgentServerSession@@@std@@V?$CustomAllocator@U?$pair@$$CBKPAVGameAgentServerSession@@@std@@@util@@@std@@QAE@XZ 00406530 f i GameAgentManager.obj
 0001:00005550       ??0?$pair@V?$_Iterator@$00@?$list@U?$pair@$$CBKPAVGameAgentServerSession@@@std@@V?$CustomAllocator@U?$pair@$$CBKPAVGameAgentServerSession@@@std@@@util@@@std@@_N@std@@QAE@ABV?$_Iterator@$00@?$list@U?$pair@$$CBKPAVGameAgentServerSession@@@std@@V?$CustomAllocator@U?$pair@$$CBKPAVGameAgentServerSession@@@std@@@util@@@1@AB_N@Z 00406550 f i GameAgentManager.obj
 0001:00005550       ??0?$pair@V?$_Iterator@$00@?$list@U?$pair@$$CBGPAUsGAME_AGENT_INFO@@@std@@V?$CustomAllocator@U?$pair@$$CBGPAUsGAME_AGENT_INFO@@@std@@@util@@@std@@_N@std@@QAE@ABV?$_Iterator@$00@?$list@U?$pair@$$CBGPAUsGAME_AGENT_INFO@@@std@@V?$CustomAllocator@U?$pair@$$CBGPAUsGAME_AGENT_INFO@@@std@@@util@@@1@AB_N@Z 00406550 f i GameAgentInfoList.obj
 0001:00005580       ??0?$_Iterator@$0A@@?$list@U?$pair@$$CBKPAVGameAgentServerSession@@@std@@V?$CustomAllocator@U?$pair@$$CBKPAVGameAgentServerSession@@@std@@@util@@@std@@QAE@PAU_Node@?$_List_nod@U?$pair@$$CBKPAVGameAgentServerSession@@@std@@V?$CustomAllocator@U?$pair@$$CBKPAVGameAgentServerSession@@@std@@@util@@@2@PBV12@@Z 00406580 f i GameAgentManager.obj
 0001:00005580       ??0?$_Iterator@$0A@@?$list@U?$pair@$$CBGPAUsGAME_AGENT_INFO@@@std@@V?$CustomAllocator@U?$pair@$$CBGPAUsGAME_AGENT_INFO@@@std@@@util@@@std@@QAE@PAU_Node@?$_List_nod@U?$pair@$$CBGPAUsGAME_AGENT_INFO@@@std@@V?$CustomAllocator@U?$pair@$$CBGPAUsGAME_AGENT_INFO@@@std@@@util@@@2@PBV12@@Z 00406580 f i GameAgentInfoList.obj
 0001:000055a0       ??R?$less@G@std@@QBE_NABG0@Z 004065a0 f i GameAgentInfoList.obj
 0001:000055d0       ??0?$list@U?$pair@$$CBKPAVGameAgentServerSession@@@std@@V?$CustomAllocator@U?$pair@$$CBKPAVGameAgentServerSession@@@std@@@util@@@std@@QAE@ABV?$CustomAllocator@U?$pair@$$CBKPAVGameAgentServerSession@@@std@@@util@@@Z 004065d0 f i GameAgentManager.obj
 0001:000055d0       ??0?$list@U?$pair@$$CBGPAUsGAME_AGENT_INFO@@@std@@V?$CustomAllocator@U?$pair@$$CBGPAUsGAME_AGENT_INFO@@@std@@@util@@@std@@QAE@ABV?$CustomAllocator@U?$pair@$$CBGPAUsGAME_AGENT_INFO@@@std@@@util@@@Z 004065d0 f i GameAgentInfoList.obj
 0001:00005640       ?_Insert@?$list@U?$pair@$$CBGPAUsGAME_AGENT_INFO@@@std@@V?$CustomAllocator@U?$pair@$$CBGPAUsGAME_AGENT_INFO@@@std@@@util@@@std@@QAEXV?$_Const_iterator@$00@12@ABU?$pair@$$CBGPAUsGAME_AGENT_INFO@@@2@@Z 00406640 f i GameAgentInfoList.obj
 0001:00005640       ?_Insert@?$list@U?$pair@$$CBKPAVGameAgentServerSession@@@std@@V?$CustomAllocator@U?$pair@$$CBKPAVGameAgentServerSession@@@std@@@util@@@std@@QAEXV?$_Const_iterator@$00@12@ABU?$pair@$$CBKPAVGameAgentServerSession@@@2@@Z 00406640 f i GameAgentManager.obj
 0001:000056c0       ??0?$vector@U_List_position@?$_Hash@V?$_Hmap_traits@GPAUsGAME_AGENT_INFO@@V?$hash_compare@GU?$less@G@std@@@stdext@@V?$CustomAllocator@PAUsGAME_AGENT_INFO@@@util@@$0A@@stdext@@@stdext@@V?$CustomAllocator@U_List_position@?$_Hash@V?$_Hmap_traits@GPAUsGAME_AGENT_INFO@@V?$hash_compare@GU?$less@G@std@@@stdext@@V?$CustomAllocator@PAUsGAME_AGENT_INFO@@@util@@$0A@@stdext@@@stdext@@@util@@@std@@QAE@ABV?$CustomAllocator@U_List_position@?$_Hash@V?$_Hmap_traits@GPAUsGAME_AGENT_INFO@@V?$hash_compare@GU?$less@G@std@@@stdext@@V?$CustomAllocator@PAUsGAME_AGENT_INFO@@@util@@$0A@@stdext@@@stdext@@@util@@@Z 004066c0 f i GameAgentInfoList.obj
 0001:000056c0       ??0?$vector@U_List_position@?$_Hash@V?$_Hmap_traits@KPAVGameAgentServerSession@@V?$hash_compare@KU?$less@K@std@@@stdext@@V?$CustomAllocator@PAVGameAgentServerSession@@@util@@$0A@@stdext@@@stdext@@V?$CustomAllocator@U_List_position@?$_Hash@V?$_Hmap_traits@KPAVGameAgentServerSession@@V?$hash_compare@KU?$less@K@std@@@stdext@@V?$CustomAllocator@PAVGameAgentServerSession@@@util@@$0A@@stdext@@@stdext@@@util@@@std@@QAE@ABV?$CustomAllocator@U_List_position@?$_Hash@V?$_Hmap_traits@KPAVGameAgentServerSession@@V?$hash_compare@KU?$less@K@std@@@stdext@@V?$CustomAllocator@PAVGameAgentServerSession@@@util@@$0A@@stdext@@@stdext@@@util@@@Z 004066c0 f i GameAgentManager.obj
 0001:00005730       ?_Assign_n@?$vector@U_List_position@?$_Hash@V?$_Hmap_traits@GPAUsGAME_AGENT_INFO@@V?$hash_compare@GU?$less@G@std@@@stdext@@V?$CustomAllocator@PAUsGAME_AGENT_INFO@@@util@@$0A@@stdext@@@stdext@@V?$CustomAllocator@U_List_position@?$_Hash@V?$_Hmap_traits@GPAUsGAME_AGENT_INFO@@V?$hash_compare@GU?$less@G@std@@@stdext@@V?$CustomAllocator@PAUsGAME_AGENT_INFO@@@util@@$0A@@stdext@@@stdext@@@util@@@std@@IAEXIABU_List_position@?$_Hash@V?$_Hmap_traits@GPAUsGAME_AGENT_INFO@@V?$hash_compare@GU?$less@G@std@@@stdext@@V?$CustomAllocator@PAUsGAME_AGENT_INFO@@@util@@$0A@@stdext@@@stdext@@@Z 00406730 f i GameAgentInfoList.obj
 0001:00005730       ?_Assign_n@?$vector@U_List_position@?$_Hash@V?$_Hmap_traits@KPAVGameAgentServerSession@@V?$hash_compare@KU?$less@K@std@@@stdext@@V?$CustomAllocator@PAVGameAgentServerSession@@@util@@$0A@@stdext@@@stdext@@V?$CustomAllocator@U_List_position@?$_Hash@V?$_Hmap_traits@KPAVGameAgentServerSession@@V?$hash_compare@KU?$less@K@std@@@stdext@@V?$CustomAllocator@PAVGameAgentServerSession@@@util@@$0A@@stdext@@@stdext@@@util@@@std@@IAEXIABU_List_position@?$_Hash@V?$_Hmap_traits@KPAVGameAgentServerSession@@V?$hash_compare@KU?$less@K@std@@@stdext@@V?$CustomAllocator@PAVGameAgentServerSession@@@util@@$0A@@stdext@@@stdext@@@Z 00406730 f i GameAgentManager.obj
 0001:000057d0       ?_Destroy@?$vector@U_List_position@?$_Hash@V?$_Hmap_traits@KPAVGameAgentServerSession@@V?$hash_compare@KU?$less@K@std@@@stdext@@V?$CustomAllocator@PAVGameAgentServerSession@@@util@@$0A@@stdext@@@stdext@@V?$CustomAllocator@U_List_position@?$_Hash@V?$_Hmap_traits@KPAVGameAgentServerSession@@V?$hash_compare@KU?$less@K@std@@@stdext@@V?$CustomAllocator@PAVGameAgentServerSession@@@util@@$0A@@stdext@@@stdext@@@util@@@std@@IAEXPAU_List_position@?$_Hash@V?$_Hmap_traits@KPAVGameAgentServerSession@@V?$hash_compare@KU?$less@K@std@@@stdext@@V?$CustomAllocator@PAVGameAgentServerSession@@@util@@$0A@@stdext@@@stdext@@0@Z 004067d0 f i GameAgentManager.obj
 0001:000057d0       ?_Destroy@?$vector@U_List_position@?$_Hash@V?$_Hmap_traits@GPAUsGAME_AGENT_INFO@@V?$hash_compare@GU?$less@G@std@@@stdext@@V?$CustomAllocator@PAUsGAME_AGENT_INFO@@@util@@$0A@@stdext@@@stdext@@V?$CustomAllocator@U_List_position@?$_Hash@V?$_Hmap_traits@GPAUsGAME_AGENT_INFO@@V?$hash_compare@GU?$less@G@std@@@stdext@@V?$CustomAllocator@PAUsGAME_AGENT_INFO@@@util@@$0A@@stdext@@@stdext@@@util@@@std@@IAEXPAU_List_position@?$_Hash@V?$_Hmap_traits@GPAUsGAME_AGENT_INFO@@V?$hash_compare@GU?$less@G@std@@@stdext@@V?$CustomAllocator@PAUsGAME_AGENT_INFO@@@util@@$0A@@stdext@@@stdext@@0@Z 004067d0 f i GameAgentInfoList.obj
 0001:00005800       ??0?$_Const_iterator@$00@?$list@U?$pair@$$CBGPAUsGAME_AGENT_INFO@@@std@@V?$CustomAllocator@U?$pair@$$CBGPAUsGAME_AGENT_INFO@@@std@@@util@@@std@@QAE@XZ 00406800 f i GameAgentInfoList.obj
 0001:00005800       ??0?$_Const_iterator@$00@?$list@U?$pair@$$CBKPAVGameAgentServerSession@@@std@@V?$CustomAllocator@U?$pair@$$CBKPAVGameAgentServerSession@@@std@@@util@@@std@@QAE@XZ 00406800 f i GameAgentManager.obj
 0001:00005820       ??0?$_Const_iterator@$0A@@?$list@U?$pair@$$CBGPAUsGAME_AGENT_INFO@@@std@@V?$CustomAllocator@U?$pair@$$CBGPAUsGAME_AGENT_INFO@@@std@@@util@@@std@@QAE@PAU_Node@?$_List_nod@U?$pair@$$CBGPAUsGAME_AGENT_INFO@@@std@@V?$CustomAllocator@U?$pair@$$CBGPAUsGAME_AGENT_INFO@@@std@@@util@@@2@PBV12@@Z 00406820 f i GameAgentInfoList.obj
 0001:00005820       ??0?$_Const_iterator@$0A@@?$list@U?$pair@$$CBKPAVGameAgentServerSession@@@std@@V?$CustomAllocator@U?$pair@$$CBKPAVGameAgentServerSession@@@std@@@util@@@std@@QAE@PAU_Node@?$_List_nod@U?$pair@$$CBKPAVGameAgentServerSession@@@std@@V?$CustomAllocator@U?$pair@$$CBKPAVGameAgentServerSession@@@std@@@util@@@2@PBV12@@Z 00406820 f i GameAgentManager.obj
 0001:00005860       ?_Buynode@?$list@U?$pair@$$CBGPAUsGAME_AGENT_INFO@@@std@@V?$CustomAllocator@U?$pair@$$CBGPAUsGAME_AGENT_INFO@@@std@@@util@@@std@@IAEPAU_Node@?$_List_nod@U?$pair@$$CBGPAUsGAME_AGENT_INFO@@@std@@V?$CustomAllocator@U?$pair@$$CBGPAUsGAME_AGENT_INFO@@@std@@@util@@@2@XZ 00406860 f i GameAgentInfoList.obj
 0001:00005860       ?_Buynode@?$list@U?$pair@$$CBKPAVGameAgentServerSession@@@std@@V?$CustomAllocator@U?$pair@$$CBKPAVGameAgentServerSession@@@std@@@util@@@std@@IAEPAU_Node@?$_List_nod@U?$pair@$$CBKPAVGameAgentServerSession@@@std@@V?$CustomAllocator@U?$pair@$$CBKPAVGameAgentServerSession@@@std@@@util@@@2@XZ 00406860 f i GameAgentManager.obj
 0001:00005960       ?_Buynode@?$list@U?$pair@$$CBGPAUsGAME_AGENT_INFO@@@std@@V?$CustomAllocator@U?$pair@$$CBGPAUsGAME_AGENT_INFO@@@std@@@util@@@std@@IAEPAU_Node@?$_List_nod@U?$pair@$$CBGPAUsGAME_AGENT_INFO@@@std@@V?$CustomAllocator@U?$pair@$$CBGPAUsGAME_AGENT_INFO@@@std@@@util@@@2@PAU342@0ABU?$pair@$$CBGPAUsGAME_AGENT_INFO@@@2@@Z 00406960 f i GameAgentInfoList.obj
 0001:00005960       ?_Buynode@?$list@U?$pair@$$CBKPAVGameAgentServerSession@@@std@@V?$CustomAllocator@U?$pair@$$CBKPAVGameAgentServerSession@@@std@@@util@@@std@@IAEPAU_Node@?$_List_nod@U?$pair@$$CBKPAVGameAgentServerSession@@@std@@V?$CustomAllocator@U?$pair@$$CBKPAVGameAgentServerSession@@@std@@@util@@@2@PAU342@0ABU?$pair@$$CBKPAVGameAgentServerSession@@@2@@Z 00406960 f i GameAgentManager.obj
 0001:00005ab0       ?_Incsize@?$list@U?$pair@$$CBGPAUsGAME_AGENT_INFO@@@std@@V?$CustomAllocator@U?$pair@$$CBGPAUsGAME_AGENT_INFO@@@std@@@util@@@std@@IAEXI@Z 00406ab0 f i GameAgentInfoList.obj
 0001:00005ab0       ?_Incsize@?$list@U?$pair@$$CBKPAVGameAgentServerSession@@@std@@V?$CustomAllocator@U?$pair@$$CBKPAVGameAgentServerSession@@@std@@@util@@@std@@IAEXI@Z 00406ab0 f i GameAgentManager.obj
 0001:00005b50       ??0length_error@std@@QAE@ABV?$basic_string@DU?$char_traits@D@std@@V?$allocator@D@2@@1@@Z 00406b50 f i GameAgentInfoList.obj
 0001:00005b80       ??0logic_error@std@@QAE@ABV?$basic_string@DU?$char_traits@D@std@@V?$allocator@D@2@@1@@Z 00406b80 f i GameAgentInfoList.obj
 0001:00005bf0       ?what@logic_error@std@@UBEPBDXZ 00406bf0 f i GameAgentInfoList.obj
 0001:00005c10       ??_Glogic_error@std@@UAEPAXI@Z 00406c10 f i GameAgentInfoList.obj
 0001:00005c10       ??_Elogic_error@std@@UAEPAXI@Z 00406c10 f i GameAgentInfoList.obj
 0001:00005c40       ??1logic_error@std@@UAE@XZ 00406c40 f i GameAgentInfoList.obj
 0001:00005c70       ??1length_error@std@@UAE@XZ 00406c70 f i GameAgentInfoList.obj
 0001:00005c90       ??_Glength_error@std@@UAEPAXI@Z 00406c90 f i GameAgentInfoList.obj
 0001:00005c90       ??_Elength_error@std@@UAEPAXI@Z 00406c90 f i GameAgentInfoList.obj
 0001:00005cc0       ??0logic_error@std@@QAE@ABV01@@Z 00406cc0 f i GameAgentInfoList.obj
 0001:00005d30       ??0?$_List_val@U?$pair@$$CBGPAUsGAME_AGENT_INFO@@@std@@V?$CustomAllocator@U?$pair@$$CBGPAUsGAME_AGENT_INFO@@@std@@@util@@@std@@QAE@V?$CustomAllocator@U?$pair@$$CBGPAUsGAME_AGENT_INFO@@@std@@@util@@@Z 00406d30 f i GameAgentInfoList.obj
 0001:00005d30       ??0?$_List_val@U?$pair@$$CBKPAVGameAgentServerSession@@@std@@V?$CustomAllocator@U?$pair@$$CBKPAVGameAgentServerSession@@@std@@@util@@@std@@QAE@V?$CustomAllocator@U?$pair@$$CBKPAVGameAgentServerSession@@@std@@@util@@@Z 00406d30 f i GameAgentManager.obj
 0001:00005d50       ?end@?$vector@U_List_position@?$_Hash@V?$_Hmap_traits@KPAVGameAgentServerSession@@V?$hash_compare@KU?$less@K@std@@@stdext@@V?$CustomAllocator@PAVGameAgentServerSession@@@util@@$0A@@stdext@@@stdext@@V?$CustomAllocator@U_List_position@?$_Hash@V?$_Hmap_traits@KPAVGameAgentServerSession@@V?$hash_compare@KU?$less@K@std@@@stdext@@V?$CustomAllocator@PAVGameAgentServerSession@@@util@@$0A@@stdext@@@stdext@@@util@@@std@@QAE?AV?$_Vector_iterator@U_List_position@?$_Hash@V?$_Hmap_traits@KPAVGameAgentServerSession@@V?$hash_compare@KU?$less@K@std@@@stdext@@V?$CustomAllocator@PAVGameAgentServerSession@@@util@@$0A@@stdext@@@stdext@@V?$CustomAllocator@U_List_position@?$_Hash@V?$_Hmap_traits@KPAVGameAgentServerSession@@V?$hash_compare@KU?$less@K@std@@@stdext@@V?$CustomAllocator@PAVGameAgentServerSession@@@util@@$0A@@stdext@@@stdext@@@util@@@2@XZ 00406d50 f i GameAgentManager.obj
 0001:00005d50       ?end@?$vector@U_List_position@?$_Hash@V?$_Hmap_traits@GPAUsGAME_AGENT_INFO@@V?$hash_compare@GU?$less@G@std@@@stdext@@V?$CustomAllocator@PAUsGAME_AGENT_INFO@@@util@@$0A@@stdext@@@stdext@@V?$CustomAllocator@U_List_position@?$_Hash@V?$_Hmap_traits@GPAUsGAME_AGENT_INFO@@V?$hash_compare@GU?$less@G@std@@@stdext@@V?$CustomAllocator@PAUsGAME_AGENT_INFO@@@util@@$0A@@stdext@@@stdext@@@util@@@std@@QAE?AV?$_Vector_iterator@U_List_position@?$_Hash@V?$_Hmap_traits@GPAUsGAME_AGENT_INFO@@V?$hash_compare@GU?$less@G@std@@@stdext@@V?$CustomAllocator@PAUsGAME_AGENT_INFO@@@util@@$0A@@stdext@@@stdext@@V?$CustomAllocator@U_List_position@?$_Hash@V?$_Hmap_traits@GPAUsGAME_AGENT_INFO@@V?$hash_compare@GU?$less@G@std@@@stdext@@V?$CustomAllocator@PAUsGAME_AGENT_INFO@@@util@@$0A@@stdext@@@stdext@@@util@@@2@XZ 00406d50 f i GameAgentInfoList.obj
 0001:00005d80       ?insert@?$vector@U_List_position@?$_Hash@V?$_Hmap_traits@GPAUsGAME_AGENT_INFO@@V?$hash_compare@GU?$less@G@std@@@stdext@@V?$CustomAllocator@PAUsGAME_AGENT_INFO@@@util@@$0A@@stdext@@@stdext@@V?$CustomAllocator@U_List_position@?$_Hash@V?$_Hmap_traits@GPAUsGAME_AGENT_INFO@@V?$hash_compare@GU?$less@G@std@@@stdext@@V?$CustomAllocator@PAUsGAME_AGENT_INFO@@@util@@$0A@@stdext@@@stdext@@@util@@@std@@QAEXV?$_Vector_const_iterator@U_List_position@?$_Hash@V?$_Hmap_traits@GPAUsGAME_AGENT_INFO@@V?$hash_compare@GU?$less@G@std@@@stdext@@V?$CustomAllocator@PAUsGAME_AGENT_INFO@@@util@@$0A@@stdext@@@stdext@@V?$CustomAllocator@U_List_position@?$_Hash@V?$_Hmap_traits@GPAUsGAME_AGENT_INFO@@V?$hash_compare@GU?$less@G@std@@@stdext@@V?$CustomAllocator@PAUsGAME_AGENT_INFO@@@util@@$0A@@stdext@@@stdext@@@util@@@2@IABU_List_position@?$_Hash@V?$_Hmap_traits@GPAUsGAME_AGENT_INFO@@V?$hash_compare@GU?$less@G@std@@@stdext@@V?$CustomAllocator@PAUsGAME_AGENT_INFO@@@util@@$0A@@stdext@@@stdext@@@Z 00406d80 f i GameAgentInfoList.obj
 0001:00005d80       ?insert@?$vector@U_List_position@?$_Hash@V?$_Hmap_traits@KPAVGameAgentServerSession@@V?$hash_compare@KU?$less@K@std@@@stdext@@V?$CustomAllocator@PAVGameAgentServerSession@@@util@@$0A@@stdext@@@stdext@@V?$CustomAllocator@U_List_position@?$_Hash@V?$_Hmap_traits@KPAVGameAgentServerSession@@V?$hash_compare@KU?$less@K@std@@@stdext@@V?$CustomAllocator@PAVGameAgentServerSession@@@util@@$0A@@stdext@@@stdext@@@util@@@std@@QAEXV?$_Vector_const_iterator@U_List_position@?$_Hash@V?$_Hmap_traits@KPAVGameAgentServerSession@@V?$hash_compare@KU?$less@K@std@@@stdext@@V?$CustomAllocator@PAVGameAgentServerSession@@@util@@$0A@@stdext@@@stdext@@V?$CustomAllocator@U_List_position@?$_Hash@V?$_Hmap_traits@KPAVGameAgentServerSession@@V?$hash_compare@KU?$less@K@std@@@stdext@@V?$CustomAllocator@PAVGameAgentServerSession@@@util@@$0A@@stdext@@@stdext@@@util@@@2@IABU_List_position@?$_Hash@V?$_Hmap_traits@KPAVGameAgentServerSession@@V?$hash_compare@KU?$less@K@std@@@stdext@@V?$CustomAllocator@PAVGameAgentServerSession@@@util@@$0A@@stdext@@@stdext@@@Z 00406d80 f i GameAgentManager.obj
 0001:00005db0       ?_Buy@?$vector@U_List_position@?$_Hash@V?$_Hmap_traits@GPAUsGAME_AGENT_INFO@@V?$hash_compare@GU?$less@G@std@@@stdext@@V?$CustomAllocator@PAUsGAME_AGENT_INFO@@@util@@$0A@@stdext@@@stdext@@V?$CustomAllocator@U_List_position@?$_Hash@V?$_Hmap_traits@GPAUsGAME_AGENT_INFO@@V?$hash_compare@GU?$less@G@std@@@stdext@@V?$CustomAllocator@PAUsGAME_AGENT_INFO@@@util@@$0A@@stdext@@@stdext@@@util@@@std@@IAE_NI@Z 00406db0 f i GameAgentInfoList.obj
 0001:00005db0       ?_Buy@?$vector@U_List_position@?$_Hash@V?$_Hmap_traits@KPAVGameAgentServerSession@@V?$hash_compare@KU?$less@K@std@@@stdext@@V?$CustomAllocator@PAVGameAgentServerSession@@@util@@$0A@@stdext@@@stdext@@V?$CustomAllocator@U_List_position@?$_Hash@V?$_Hmap_traits@KPAVGameAgentServerSession@@V?$hash_compare@KU?$less@K@std@@@stdext@@V?$CustomAllocator@PAVGameAgentServerSession@@@util@@$0A@@stdext@@@stdext@@@util@@@std@@IAE_NI@Z 00406db0 f i GameAgentManager.obj
 0001:00005e40       ??0length_error@std@@QAE@ABV01@@Z 00406e40 f i GameAgentInfoList.obj
 0001:00005e70       ?max_size@?$list@U?$pair@$$CBGPAUsGAME_AGENT_INFO@@@std@@V?$CustomAllocator@U?$pair@$$CBGPAUsGAME_AGENT_INFO@@@std@@@util@@@std@@QBEIXZ 00406e70 f i GameAgentInfoList.obj
 0001:00005e70       ?max_size@?$list@U?$pair@$$CBKPAVGameAgentServerSession@@@std@@V?$CustomAllocator@U?$pair@$$CBKPAVGameAgentServerSession@@@std@@@util@@@std@@QBEIXZ 00406e70 f i GameAgentManager.obj
 0001:00005e90       ??0?$_List_ptr@U?$pair@$$CBGPAUsGAME_AGENT_INFO@@@std@@V?$CustomAllocator@U?$pair@$$CBGPAUsGAME_AGENT_INFO@@@std@@@util@@@std@@IAE@V?$CustomAllocator@U?$pair@$$CBGPAUsGAME_AGENT_INFO@@@std@@@util@@@Z 00406e90 f i GameAgentInfoList.obj
 0001:00005e90       ??0?$_List_ptr@U?$pair@$$CBKPAVGameAgentServerSession@@@std@@V?$CustomAllocator@U?$pair@$$CBKPAVGameAgentServerSession@@@std@@@util@@@std@@IAE@V?$CustomAllocator@U?$pair@$$CBKPAVGameAgentServerSession@@@std@@@util@@@Z 00406e90 f i GameAgentManager.obj
 0001:00005f00       ?_Make_iter@?$vector@U_List_position@?$_Hash@V?$_Hmap_traits@KPAVGameAgentServerSession@@V?$hash_compare@KU?$less@K@std@@@stdext@@V?$CustomAllocator@PAVGameAgentServerSession@@@util@@$0A@@stdext@@@stdext@@V?$CustomAllocator@U_List_position@?$_Hash@V?$_Hmap_traits@KPAVGameAgentServerSession@@V?$hash_compare@KU?$less@K@std@@@stdext@@V?$CustomAllocator@PAVGameAgentServerSession@@@util@@$0A@@stdext@@@stdext@@@util@@@std@@QBE?AV?$_Vector_iterator@U_List_position@?$_Hash@V?$_Hmap_traits@KPAVGameAgentServerSession@@V?$hash_compare@KU?$less@K@std@@@stdext@@V?$CustomAllocator@PAVGameAgentServerSession@@@util@@$0A@@stdext@@@stdext@@V?$CustomAllocator@U_List_position@?$_Hash@V?$_Hmap_traits@KPAVGameAgentServerSession@@V?$hash_compare@KU?$less@K@std@@@stdext@@V?$CustomAllocator@PAVGameAgentServerSession@@@util@@$0A@@stdext@@@stdext@@@util@@@2@V?$_Vector_const_iterator@U_List_position@?$_Hash@V?$_Hmap_traits@KPAVGameAgentServerSession@@V?$hash_compare@KU?$less@K@std@@@stdext@@V?$CustomAllocator@PAVGameAgentServerSession@@@util@@$0A@@stdext@@@stdext@@V?$CustomAllocator@U_List_position@?$_Hash@V?$_Hmap_traits@KPAVGameAgentServerSession@@V?$hash_compare@KU?$less@K@std@@@stdext@@V?$CustomAllocator@PAVGameAgentServerSession@@@util@@$0A@@stdext@@@stdext@@@util@@@2@@Z 00406f00 f i GameAgentManager.obj
 0001:00005f00       ?_Make_iter@?$vector@U_List_position@?$_Hash@V?$_Hmap_traits@GPAUsGAME_AGENT_INFO@@V?$hash_compare@GU?$less@G@std@@@stdext@@V?$CustomAllocator@PAUsGAME_AGENT_INFO@@@util@@$0A@@stdext@@@stdext@@V?$CustomAllocator@U_List_position@?$_Hash@V?$_Hmap_traits@GPAUsGAME_AGENT_INFO@@V?$hash_compare@GU?$less@G@std@@@stdext@@V?$CustomAllocator@PAUsGAME_AGENT_INFO@@@util@@$0A@@stdext@@@stdext@@@util@@@std@@QBE?AV?$_Vector_iterator@U_List_position@?$_Hash@V?$_Hmap_traits@GPAUsGAME_AGENT_INFO@@V?$hash_compare@GU?$less@G@std@@@stdext@@V?$CustomAllocator@PAUsGAME_AGENT_INFO@@@util@@$0A@@stdext@@@stdext@@V?$CustomAllocator@U_List_position@?$_Hash@V?$_Hmap_traits@GPAUsGAME_AGENT_INFO@@V?$hash_compare@GU?$less@G@std@@@stdext@@V?$CustomAllocator@PAUsGAME_AGENT_INFO@@@util@@$0A@@stdext@@@stdext@@@util@@@2@V?$_Vector_const_iterator@U_List_position@?$_Hash@V?$_Hmap_traits@GPAUsGAME_AGENT_INFO@@V?$hash_compare@GU?$less@G@std@@@stdext@@V?$CustomAllocator@PAUsGAME_AGENT_INFO@@@util@@$0A@@stdext@@@stdext@@V?$CustomAllocator@U_List_position@?$_Hash@V?$_Hmap_traits@GPAUsGAME_AGENT_INFO@@V?$hash_compare@GU?$less@G@std@@@stdext@@V?$CustomAllocator@PAUsGAME_AGENT_INFO@@@util@@$0A@@stdext@@@stdext@@@util@@@2@@Z 00406f00 f i GameAgentInfoList.obj
 0001:00005f20       ?_Insert_n@?$vector@U_List_position@?$_Hash@V?$_Hmap_traits@KPAVGameAgentServerSession@@V?$hash_compare@KU?$less@K@std@@@stdext@@V?$CustomAllocator@PAVGameAgentServerSession@@@util@@$0A@@stdext@@@stdext@@V?$CustomAllocator@U_List_position@?$_Hash@V?$_Hmap_traits@KPAVGameAgentServerSession@@V?$hash_compare@KU?$less@K@std@@@stdext@@V?$CustomAllocator@PAVGameAgentServerSession@@@util@@$0A@@stdext@@@stdext@@@util@@@std@@IAEXV?$_Vector_const_iterator@U_List_position@?$_Hash@V?$_Hmap_traits@KPAVGameAgentServerSession@@V?$hash_compare@KU?$less@K@std@@@stdext@@V?$CustomAllocator@PAVGameAgentServerSession@@@util@@$0A@@stdext@@@stdext@@V?$CustomAllocator@U_List_position@?$_Hash@V?$_Hmap_traits@KPAVGameAgentServerSession@@V?$hash_compare@KU?$less@K@std@@@stdext@@V?$CustomAllocator@PAVGameAgentServerSession@@@util@@$0A@@stdext@@@stdext@@@util@@@2@IABU_List_position@?$_Hash@V?$_Hmap_traits@KPAVGameAgentServerSession@@V?$hash_compare@KU?$less@K@std@@@stdext@@V?$CustomAllocator@PAVGameAgentServerSession@@@util@@$0A@@stdext@@@stdext@@@Z 00406f20 f i GameAgentManager.obj
 0001:00005f20       ?_Insert_n@?$vector@U_List_position@?$_Hash@V?$_Hmap_traits@GPAUsGAME_AGENT_INFO@@V?$hash_compare@GU?$less@G@std@@@stdext@@V?$CustomAllocator@PAUsGAME_AGENT_INFO@@@util@@$0A@@stdext@@@stdext@@V?$CustomAllocator@U_List_position@?$_Hash@V?$_Hmap_traits@GPAUsGAME_AGENT_INFO@@V?$hash_compare@GU?$less@G@std@@@stdext@@V?$CustomAllocator@PAUsGAME_AGENT_INFO@@@util@@$0A@@stdext@@@stdext@@@util@@@std@@IAEXV?$_Vector_const_iterator@U_List_position@?$_Hash@V?$_Hmap_traits@GPAUsGAME_AGENT_INFO@@V?$hash_compare@GU?$less@G@std@@@stdext@@V?$CustomAllocator@PAUsGAME_AGENT_INFO@@@util@@$0A@@stdext@@@stdext@@V?$CustomAllocator@U_List_position@?$_Hash@V?$_Hmap_traits@GPAUsGAME_AGENT_INFO@@V?$hash_compare@GU?$less@G@std@@@stdext@@V?$CustomAllocator@PAUsGAME_AGENT_INFO@@@util@@$0A@@stdext@@@stdext@@@util@@@2@IABU_List_position@?$_Hash@V?$_Hmap_traits@GPAUsGAME_AGENT_INFO@@V?$hash_compare@GU?$less@G@std@@@stdext@@V?$CustomAllocator@PAUsGAME_AGENT_INFO@@@util@@$0A@@stdext@@@stdext@@@Z 00406f20 f i GameAgentInfoList.obj
 0001:000062d0       ?_Xlen@?$vector@U_List_position@?$_Hash@V?$_Hmap_traits@KPAVGameAgentServerSession@@V?$hash_compare@KU?$less@K@std@@@stdext@@V?$CustomAllocator@PAVGameAgentServerSession@@@util@@$0A@@stdext@@@stdext@@V?$CustomAllocator@U_List_position@?$_Hash@V?$_Hmap_traits@KPAVGameAgentServerSession@@V?$hash_compare@KU?$less@K@std@@@stdext@@V?$CustomAllocator@PAVGameAgentServerSession@@@util@@$0A@@stdext@@@stdext@@@util@@@std@@KAXXZ 004072d0 f i GameAgentManager.obj
 0001:000062d0       ?_Xlen@?$vector@U_List_position@?$_Hash@V?$_Hmap_traits@GPAUsGAME_AGENT_INFO@@V?$hash_compare@GU?$less@G@std@@@stdext@@V?$CustomAllocator@PAUsGAME_AGENT_INFO@@@util@@$0A@@stdext@@@stdext@@V?$CustomAllocator@U_List_position@?$_Hash@V?$_Hmap_traits@GPAUsGAME_AGENT_INFO@@V?$hash_compare@GU?$less@G@std@@@stdext@@V?$CustomAllocator@PAUsGAME_AGENT_INFO@@@util@@$0A@@stdext@@@stdext@@@util@@@std@@KAXXZ 004072d0 f i GameAgentInfoList.obj
 0001:00006350       ??0?$_List_nod@U?$pair@$$CBKPAVGameAgentServerSession@@@std@@V?$CustomAllocator@U?$pair@$$CBKPAVGameAgentServerSession@@@std@@@util@@@std@@IAE@V?$CustomAllocator@U?$pair@$$CBKPAVGameAgentServerSession@@@std@@@util@@@Z 00407350 f i GameAgentManager.obj
 0001:00006350       ??0?$_List_nod@U?$pair@$$CBGPAUsGAME_AGENT_INFO@@@std@@V?$CustomAllocator@U?$pair@$$CBGPAUsGAME_AGENT_INFO@@@std@@@util@@@std@@IAE@V?$CustomAllocator@U?$pair@$$CBGPAUsGAME_AGENT_INFO@@@std@@@util@@@Z 00407350 f i GameAgentInfoList.obj
 0001:000063c0       ?_Ufill@?$vector@U_List_position@?$_Hash@V?$_Hmap_traits@GPAUsGAME_AGENT_INFO@@V?$hash_compare@GU?$less@G@std@@@stdext@@V?$CustomAllocator@PAUsGAME_AGENT_INFO@@@util@@$0A@@stdext@@@stdext@@V?$CustomAllocator@U_List_position@?$_Hash@V?$_Hmap_traits@GPAUsGAME_AGENT_INFO@@V?$hash_compare@GU?$less@G@std@@@stdext@@V?$CustomAllocator@PAUsGAME_AGENT_INFO@@@util@@$0A@@stdext@@@stdext@@@util@@@std@@IAEPAU_List_position@?$_Hash@V?$_Hmap_traits@GPAUsGAME_AGENT_INFO@@V?$hash_compare@GU?$less@G@std@@@stdext@@V?$CustomAllocator@PAUsGAME_AGENT_INFO@@@util@@$0A@@stdext@@@stdext@@PAU345@IABU345@@Z 004073c0 f i GameAgentInfoList.obj
 0001:000063c0       ?_Ufill@?$vector@U_List_position@?$_Hash@V?$_Hmap_traits@KPAVGameAgentServerSession@@V?$hash_compare@KU?$less@K@std@@@stdext@@V?$CustomAllocator@PAVGameAgentServerSession@@@util@@$0A@@stdext@@@stdext@@V?$CustomAllocator@U_List_position@?$_Hash@V?$_Hmap_traits@KPAVGameAgentServerSession@@V?$hash_compare@KU?$less@K@std@@@stdext@@V?$CustomAllocator@PAVGameAgentServerSession@@@util@@$0A@@stdext@@@stdext@@@util@@@std@@IAEPAU_List_position@?$_Hash@V?$_Hmap_traits@KPAVGameAgentServerSession@@V?$hash_compare@KU?$less@K@std@@@stdext@@V?$CustomAllocator@PAVGameAgentServerSession@@@util@@$0A@@stdext@@@stdext@@PAU345@IABU345@@Z 004073c0 f i GameAgentManager.obj
 0001:00006400       ??0?$_Iterator_with_base@Ubidirectional_iterator_tag@std@@U?$pair@$$CBGPAUsGAME_AGENT_INFO@@@2@HPBU32@ABU32@V_Iterator_base_aux@2@@std@@QAE@XZ 00407400 f i GameAgentInfoList.obj
 0001:00006400       ??0?$_Iterator_with_base@Urandom_access_iterator_tag@std@@U_List_position@?$_Hash@V?$_Hmap_traits@GPAUsGAME_AGENT_INFO@@V?$hash_compare@GU?$less@G@std@@@stdext@@V?$CustomAllocator@PAUsGAME_AGENT_INFO@@@util@@$0A@@stdext@@@stdext@@HPBU345@ABU345@V_Iterator_base_aux@2@@std@@QAE@XZ 00407400 f i GameAgentInfoList.obj
 0001:00006400       ??0?$_Iterator_with_base@Ubidirectional_iterator_tag@std@@U?$pair@$$CBKPAVGameAgentServerSession@@@2@HPBU32@ABU32@V_Iterator_base_aux@2@@std@@QAE@XZ 00407400 f i AuthServerSession.obj
 0001:00006400       ??0?$_Iterator_with_base@Urandom_access_iterator_tag@std@@U_List_position@?$_Hash@V?$_Hmap_traits@KPAVGameAgentServerSession@@V?$hash_compare@KU?$less@K@std@@@stdext@@V?$CustomAllocator@PAVGameAgentServerSession@@@util@@$0A@@stdext@@@stdext@@HPBU345@ABU345@V_Iterator_base_aux@2@@std@@QAE@XZ 00407400 f i GameAgentManager.obj
 0001:00006420       ??0?$_Container_base_aux_alloc_real@V?$CustomAllocator@U_List_position@?$_Hash@V?$_Hmap_traits@KPAVGameAgentServerSession@@V?$hash_compare@KU?$less@K@std@@@stdext@@V?$CustomAllocator@PAVGameAgentServerSession@@@util@@$0A@@stdext@@@stdext@@@util@@@std@@IAE@V?$CustomAllocator@U_List_position@?$_Hash@V?$_Hmap_traits@KPAVGameAgentServerSession@@V?$hash_compare@KU?$less@K@std@@@stdext@@V?$CustomAllocator@PAVGameAgentServerSession@@@util@@$0A@@stdext@@@stdext@@@util@@@Z 00407420 f i GameAgentManager.obj
 0001:00006420       ??0?$_Container_base_aux_alloc_real@V?$CustomAllocator@U?$pair@$$CBKPAVGameAgentServerSession@@@std@@@util@@@std@@IAE@V?$CustomAllocator@U?$pair@$$CBKPAVGameAgentServerSession@@@std@@@util@@@Z 00407420 f i GameAgentManager.obj
 0001:00006420       ??0?$_Container_base_aux_alloc_real@V?$CustomAllocator@U_List_position@?$_Hash@V?$_Hmap_traits@GPAUsGAME_AGENT_INFO@@V?$hash_compare@GU?$less@G@std@@@stdext@@V?$CustomAllocator@PAUsGAME_AGENT_INFO@@@util@@$0A@@stdext@@@stdext@@@util@@@std@@IAE@V?$CustomAllocator@U_List_position@?$_Hash@V?$_Hmap_traits@GPAUsGAME_AGENT_INFO@@V?$hash_compare@GU?$less@G@std@@@stdext@@V?$CustomAllocator@PAUsGAME_AGENT_INFO@@@util@@$0A@@stdext@@@stdext@@@util@@@Z 00407420 f i GameAgentInfoList.obj
 0001:00006420       ??0?$_Container_base_aux_alloc_real@V?$CustomAllocator@U?$pair@$$CBGPAUsGAME_AGENT_INFO@@@std@@@util@@@std@@IAE@V?$CustomAllocator@U?$pair@$$CBGPAUsGAME_AGENT_INFO@@@std@@@util@@@Z 00407420 f i GameAgentInfoList.obj
 0001:000064e0       ?construct@?$CustomAllocator@U?$pair@$$CBKPAVGameAgentServerSession@@@std@@@util@@QAEXPAU?$pair@$$CBKPAVGameAgentServerSession@@@std@@ABU34@@Z 004074e0 f i GameAgentManager.obj
 0001:000064e0       ?construct@?$CustomAllocator@U_List_position@?$_Hash@V?$_Hmap_traits@KPAVGameAgentServerSession@@V?$hash_compare@KU?$less@K@std@@@stdext@@V?$CustomAllocator@PAVGameAgentServerSession@@@util@@$0A@@stdext@@@stdext@@@util@@QAEXPAU_List_position@?$_Hash@V?$_Hmap_traits@KPAVGameAgentServerSession@@V?$hash_compare@KU?$less@K@std@@@stdext@@V?$CustomAllocator@PAVGameAgentServerSession@@@util@@$0A@@stdext@@@stdext@@ABU345@@Z 004074e0 f i GameAgentManager.obj
 0001:000064e0       ?construct@?$CustomAllocator@U_List_position@?$_Hash@V?$_Hmap_traits@GPAUsGAME_AGENT_INFO@@V?$hash_compare@GU?$less@G@std@@@stdext@@V?$CustomAllocator@PAUsGAME_AGENT_INFO@@@util@@$0A@@stdext@@@stdext@@@util@@QAEXPAU_List_position@?$_Hash@V?$_Hmap_traits@GPAUsGAME_AGENT_INFO@@V?$hash_compare@GU?$less@G@std@@@stdext@@V?$CustomAllocator@PAUsGAME_AGENT_INFO@@@util@@$0A@@stdext@@@stdext@@ABU345@@Z 004074e0 f i GameAgentInfoList.obj
 0001:000064e0       ?construct@?$CustomAllocator@U?$pair@$$CBGPAUsGAME_AGENT_INFO@@@std@@@util@@QAEXPAU?$pair@$$CBGPAUsGAME_AGENT_INFO@@@std@@ABU34@@Z 004074e0 f i GameAgentInfoList.obj
 0001:00006530       ?allocate@?$CustomAllocator@U_Node@?$_List_nod@U?$pair@$$CBGPAUsGAME_AGENT_INFO@@@std@@V?$CustomAllocator@U?$pair@$$CBGPAUsGAME_AGENT_INFO@@@std@@@util@@@std@@@util@@QAEPAU_Node@?$_List_nod@U?$pair@$$CBGPAUsGAME_AGENT_INFO@@@std@@V?$CustomAllocator@U?$pair@$$CBGPAUsGAME_AGENT_INFO@@@std@@@util@@@std@@IPBX@Z 00407530 f i GameAgentInfoList.obj
 0001:00006530       ?allocate@?$CustomAllocator@U_Node@?$_List_nod@U?$pair@$$CBKPAVGameAgentServerSession@@@std@@V?$CustomAllocator@U?$pair@$$CBKPAVGameAgentServerSession@@@std@@@util@@@std@@@util@@QAEPAU_Node@?$_List_nod@U?$pair@$$CBKPAVGameAgentServerSession@@@std@@V?$CustomAllocator@U?$pair@$$CBKPAVGameAgentServerSession@@@std@@@util@@@std@@IPBX@Z 00407530 f i GameAgentManager.obj
 0001:00006550       ?construct@?$CustomAllocator@PAU_Node@?$_List_nod@U?$pair@$$CBGPAUsGAME_AGENT_INFO@@@std@@V?$CustomAllocator@U?$pair@$$CBGPAUsGAME_AGENT_INFO@@@std@@@util@@@std@@@util@@QAEXPAPAU_Node@?$_List_nod@U?$pair@$$CBGPAUsGAME_AGENT_INFO@@@std@@V?$CustomAllocator@U?$pair@$$CBGPAUsGAME_AGENT_INFO@@@std@@@util@@@std@@ABQAU345@@Z 00407550 f i GameAgentInfoList.obj
 0001:00006550       ?construct@?$CustomAllocator@PAU_Node@?$_List_nod@U?$pair@$$CBKPAVGameAgentServerSession@@@std@@V?$CustomAllocator@U?$pair@$$CBKPAVGameAgentServerSession@@@std@@@util@@@std@@@util@@QAEXPAPAU_Node@?$_List_nod@U?$pair@$$CBKPAVGameAgentServerSession@@@std@@V?$CustomAllocator@U?$pair@$$CBKPAVGameAgentServerSession@@@std@@@util@@@std@@ABQAU345@@Z 00407550 f i GameAgentManager.obj
 0001:00006590       ??$make_pair@GPAUsGAME_AGENT_INFO@@@std@@YA?AU?$pair@GPAUsGAME_AGENT_INFO@@@0@GPAUsGAME_AGENT_INFO@@@Z 00407590 f i GameAgentInfoList.obj
 0001:000065b0       ??$?0GPAUsGAME_AGENT_INFO@@@?$pair@$$CBGPAUsGAME_AGENT_INFO@@@std@@QAE@ABU?$pair@GPAUsGAME_AGENT_INFO@@@1@@Z 004075b0 f i GameAgentInfoList.obj
 0001:000065e0       ??$hash_value@G@stdext@@YAIABG@Z 004075e0 f i GameAgentInfoList.obj
 0001:000065f0       ?allocate@?$CustomAllocator@V_Aux_cont@std@@@util@@QAEPAV_Aux_cont@std@@IPBX@Z 004075f0 f i GameAgentInfoList.obj
 0001:00006610       ?deallocate@?$CustomAllocator@V_Aux_cont@std@@@util@@QAEXPAXI@Z 00407610 f i GameAgentInfoList.obj
 0001:00006610       ?deallocate@?$CustomAllocator@U_Node@?$_List_nod@U?$pair@$$CBKPAVGameAgentServerSession@@@std@@V?$CustomAllocator@U?$pair@$$CBKPAVGameAgentServerSession@@@std@@@util@@@std@@@util@@QAEXPAXI@Z 00407610 f i GameAgentManager.obj
 0001:00006610       ?deallocate@?$CustomAllocator@U_Node@?$_List_nod@U?$pair@$$CBGPAUsGAME_AGENT_INFO@@@std@@V?$CustomAllocator@U?$pair@$$CBGPAUsGAME_AGENT_INFO@@@std@@@util@@@std@@@util@@QAEXPAXI@Z 00407610 f i GameAgentInfoList.obj
 0001:00006610       ?deallocate@?$CustomAllocator@U_List_position@?$_Hash@V?$_Hmap_traits@KPAVGameAgentServerSession@@V?$hash_compare@KU?$less@K@std@@@stdext@@V?$CustomAllocator@PAVGameAgentServerSession@@@util@@$0A@@stdext@@@stdext@@@util@@QAEXPAXI@Z 00407610 f i GameAgentManager.obj
 0001:00006610       ?deallocate@?$CustomAllocator@U_List_position@?$_Hash@V?$_Hmap_traits@GPAUsGAME_AGENT_INFO@@V?$hash_compare@GU?$less@G@std@@@stdext@@V?$CustomAllocator@PAUsGAME_AGENT_INFO@@@util@@$0A@@stdext@@@stdext@@@util@@QAEXPAXI@Z 00407610 f i GameAgentInfoList.obj
 0001:00006630       ??$insert@V?$_Const_iterator@$00@?$list@U?$pair@$$CBKPAVGameAgentServerSession@@@std@@V?$CustomAllocator@U?$pair@$$CBKPAVGameAgentServerSession@@@std@@@util@@@std@@@?$list@U?$pair@$$CBKPAVGameAgentServerSession@@@std@@V?$CustomAllocator@U?$pair@$$CBKPAVGameAgentServerSession@@@std@@@util@@@std@@QAEXV?$_Const_iterator@$00@01@00@Z 00407630 f i GameAgentManager.obj
 0001:00006630       ??$insert@V?$_Const_iterator@$00@?$list@U?$pair@$$CBGPAUsGAME_AGENT_INFO@@@std@@V?$CustomAllocator@U?$pair@$$CBGPAUsGAME_AGENT_INFO@@@std@@@util@@@std@@@?$list@U?$pair@$$CBGPAUsGAME_AGENT_INFO@@@std@@V?$CustomAllocator@U?$pair@$$CBGPAUsGAME_AGENT_INFO@@@std@@@util@@@std@@QAEXV?$_Const_iterator@$00@01@00@Z 00407630 f i GameAgentInfoList.obj
 0001:00006680       ??$_Destroy_range@V?$CustomAllocator@U_List_position@?$_Hash@V?$_Hmap_traits@GPAUsGAME_AGENT_INFO@@V?$hash_compare@GU?$less@G@std@@@stdext@@V?$CustomAllocator@PAUsGAME_AGENT_INFO@@@util@@$0A@@stdext@@@stdext@@@util@@@std@@YAXPAU_List_position@?$_Hash@V?$_Hmap_traits@GPAUsGAME_AGENT_INFO@@V?$hash_compare@GU?$less@G@std@@@stdext@@V?$CustomAllocator@PAUsGAME_AGENT_INFO@@@util@@$0A@@stdext@@@stdext@@0AAV?$CustomAllocator@U_List_position@?$_Hash@V?$_Hmap_traits@GPAUsGAME_AGENT_INFO@@V?$hash_compare@GU?$less@G@std@@@stdext@@V?$CustomAllocator@PAUsGAME_AGENT_INFO@@@util@@$0A@@stdext@@@stdext@@@util@@@Z 00407680 f i GameAgentInfoList.obj
 0001:00006680       ??$_Destroy_range@V?$CustomAllocator@U_List_position@?$_Hash@V?$_Hmap_traits@KPAVGameAgentServerSession@@V?$hash_compare@KU?$less@K@std@@@stdext@@V?$CustomAllocator@PAVGameAgentServerSession@@@util@@$0A@@stdext@@@stdext@@@util@@@std@@YAXPAU_List_position@?$_Hash@V?$_Hmap_traits@KPAVGameAgentServerSession@@V?$hash_compare@KU?$less@K@std@@@stdext@@V?$CustomAllocator@PAVGameAgentServerSession@@@util@@$0A@@stdext@@@stdext@@0AAV?$CustomAllocator@U_List_position@?$_Hash@V?$_Hmap_traits@KPAVGameAgentServerSession@@V?$hash_compare@KU?$less@K@std@@@stdext@@V?$CustomAllocator@PAVGameAgentServerSession@@@util@@$0A@@stdext@@@stdext@@@util@@@Z 00407680 f i GameAgentManager.obj
 0001:000066c0       ??$_Umove@PAU_List_position@?$_Hash@V?$_Hmap_traits@KPAVGameAgentServerSession@@V?$hash_compare@KU?$less@K@std@@@stdext@@V?$CustomAllocator@PAVGameAgentServerSession@@@util@@$0A@@stdext@@@stdext@@@?$vector@U_List_position@?$_Hash@V?$_Hmap_traits@KPAVGameAgentServerSession@@V?$hash_compare@KU?$less@K@std@@@stdext@@V?$CustomAllocator@PAVGameAgentServerSession@@@util@@$0A@@stdext@@@stdext@@V?$CustomAllocator@U_List_position@?$_Hash@V?$_Hmap_traits@KPAVGameAgentServerSession@@V?$hash_compare@KU?$less@K@std@@@stdext@@V?$CustomAllocator@PAVGameAgentServerSession@@@util@@$0A@@stdext@@@stdext@@@util@@@std@@IAEPAU_List_position@?$_Hash@V?$_Hmap_traits@KPAVGameAgentServerSession@@V?$hash_compare@KU?$less@K@std@@@stdext@@V?$CustomAllocator@PAVGameAgentServerSession@@@util@@$0A@@stdext@@@stdext@@PAU234@00@Z 004076c0 f i GameAgentManager.obj
 0001:000066c0       ??$_Umove@PAU_List_position@?$_Hash@V?$_Hmap_traits@GPAUsGAME_AGENT_INFO@@V?$hash_compare@GU?$less@G@std@@@stdext@@V?$CustomAllocator@PAUsGAME_AGENT_INFO@@@util@@$0A@@stdext@@@stdext@@@?$vector@U_List_position@?$_Hash@V?$_Hmap_traits@GPAUsGAME_AGENT_INFO@@V?$hash_compare@GU?$less@G@std@@@stdext@@V?$CustomAllocator@PAUsGAME_AGENT_INFO@@@util@@$0A@@stdext@@@stdext@@V?$CustomAllocator@U_List_position@?$_Hash@V?$_Hmap_traits@GPAUsGAME_AGENT_INFO@@V?$hash_compare@GU?$less@G@std@@@stdext@@V?$CustomAllocator@PAUsGAME_AGENT_INFO@@@util@@$0A@@stdext@@@stdext@@@util@@@std@@IAEPAU_List_position@?$_Hash@V?$_Hmap_traits@GPAUsGAME_AGENT_INFO@@V?$hash_compare@GU?$less@G@std@@@stdext@@V?$CustomAllocator@PAUsGAME_AGENT_INFO@@@util@@$0A@@stdext@@@stdext@@PAU234@00@Z 004076c0 f i GameAgentInfoList.obj
 0001:000066f0       ??$fill@PAU_List_position@?$_Hash@V?$_Hmap_traits@KPAVGameAgentServerSession@@V?$hash_compare@KU?$less@K@std@@@stdext@@V?$CustomAllocator@PAVGameAgentServerSession@@@util@@$0A@@stdext@@@stdext@@U123@@std@@YAXPAU_List_position@?$_Hash@V?$_Hmap_traits@KPAVGameAgentServerSession@@V?$hash_compare@KU?$less@K@std@@@stdext@@V?$CustomAllocator@PAVGameAgentServerSession@@@util@@$0A@@stdext@@@stdext@@0ABU123@@Z 004076f0 f i GameAgentManager.obj
 0001:000066f0       ??$fill@PAU_List_position@?$_Hash@V?$_Hmap_traits@GPAUsGAME_AGENT_INFO@@V?$hash_compare@GU?$less@G@std@@@stdext@@V?$CustomAllocator@PAUsGAME_AGENT_INFO@@@util@@$0A@@stdext@@@stdext@@U123@@std@@YAXPAU_List_position@?$_Hash@V?$_Hmap_traits@GPAUsGAME_AGENT_INFO@@V?$hash_compare@GU?$less@G@std@@@stdext@@V?$CustomAllocator@PAUsGAME_AGENT_INFO@@@util@@$0A@@stdext@@@stdext@@0ABU123@@Z 004076f0 f i GameAgentInfoList.obj
 0001:00006720       ??$unchecked_uninitialized_fill_n@PAU_List_position@?$_Hash@V?$_Hmap_traits@GPAUsGAME_AGENT_INFO@@V?$hash_compare@GU?$less@G@std@@@stdext@@V?$CustomAllocator@PAUsGAME_AGENT_INFO@@@util@@$0A@@stdext@@@stdext@@IU123@V?$CustomAllocator@U_List_position@?$_Hash@V?$_Hmap_traits@GPAUsGAME_AGENT_INFO@@V?$hash_compare@GU?$less@G@std@@@stdext@@V?$CustomAllocator@PAUsGAME_AGENT_INFO@@@util@@$0A@@stdext@@@stdext@@@util@@@stdext@@YAXPAU_List_position@?$_Hash@V?$_Hmap_traits@GPAUsGAME_AGENT_INFO@@V?$hash_compare@GU?$less@G@std@@@stdext@@V?$CustomAllocator@PAUsGAME_AGENT_INFO@@@util@@$0A@@stdext@@@0@IABU120@AAV?$CustomAllocator@U_List_position@?$_Hash@V?$_Hmap_traits@GPAUsGAME_AGENT_INFO@@V?$hash_compare@GU?$less@G@std@@@stdext@@V?$CustomAllocator@PAUsGAME_AGENT_INFO@@@util@@$0A@@stdext@@@stdext@@@util@@@Z 00407720 f i GameAgentInfoList.obj
 0001:00006720       ??$unchecked_uninitialized_fill_n@PAU_List_position@?$_Hash@V?$_Hmap_traits@KPAVGameAgentServerSession@@V?$hash_compare@KU?$less@K@std@@@stdext@@V?$CustomAllocator@PAVGameAgentServerSession@@@util@@$0A@@stdext@@@stdext@@IU123@V?$CustomAllocator@U_List_position@?$_Hash@V?$_Hmap_traits@KPAVGameAgentServerSession@@V?$hash_compare@KU?$less@K@std@@@stdext@@V?$CustomAllocator@PAVGameAgentServerSession@@@util@@$0A@@stdext@@@stdext@@@util@@@stdext@@YAXPAU_List_position@?$_Hash@V?$_Hmap_traits@KPAVGameAgentServerSession@@V?$hash_compare@KU?$less@K@std@@@stdext@@V?$CustomAllocator@PAVGameAgentServerSession@@@util@@$0A@@stdext@@@0@IABU120@AAV?$CustomAllocator@U_List_position@?$_Hash@V?$_Hmap_traits@KPAVGameAgentServerSession@@V?$hash_compare@KU?$less@K@std@@@stdext@@V?$CustomAllocator@PAVGameAgentServerSession@@@util@@$0A@@stdext@@@stdext@@@util@@@Z 00407720 f i GameAgentManager.obj
 0001:00006770       ??0?$pair@GPAUsGAME_AGENT_INFO@@@std@@QAE@ABGABQAUsGAME_AGENT_INFO@@@Z 00407770 f i GameAgentInfoList.obj
 0001:000067a0       ??$_Insert@V?$_Const_iterator@$00@?$list@U?$pair@$$CBKPAVGameAgentServerSession@@@std@@V?$CustomAllocator@U?$pair@$$CBKPAVGameAgentServerSession@@@std@@@util@@@std@@@?$list@U?$pair@$$CBKPAVGameAgentServerSession@@@std@@V?$CustomAllocator@U?$pair@$$CBKPAVGameAgentServerSession@@@std@@@util@@@std@@QAEXV?$_Const_iterator@$00@01@00Uforward_iterator_tag@1@@Z 004077a0 f i GameAgentManager.obj
 0001:000067a0       ??$_Insert@V?$_Const_iterator@$00@?$list@U?$pair@$$CBGPAUsGAME_AGENT_INFO@@@std@@V?$CustomAllocator@U?$pair@$$CBGPAUsGAME_AGENT_INFO@@@std@@@util@@@std@@@?$list@U?$pair@$$CBGPAUsGAME_AGENT_INFO@@@std@@V?$CustomAllocator@U?$pair@$$CBGPAUsGAME_AGENT_INFO@@@std@@@util@@@std@@QAEXV?$_Const_iterator@$00@01@00Uforward_iterator_tag@1@@Z 004077a0 f i GameAgentInfoList.obj
 0001:000068a0       ??$_Destroy_range@V?$CustomAllocator@U_List_position@?$_Hash@V?$_Hmap_traits@KPAVGameAgentServerSession@@V?$hash_compare@KU?$less@K@std@@@stdext@@V?$CustomAllocator@PAVGameAgentServerSession@@@util@@$0A@@stdext@@@stdext@@@util@@@std@@YAXPAU_List_position@?$_Hash@V?$_Hmap_traits@KPAVGameAgentServerSession@@V?$hash_compare@KU?$less@K@std@@@stdext@@V?$CustomAllocator@PAVGameAgentServerSession@@@util@@$0A@@stdext@@@stdext@@0AAV?$CustomAllocator@U_List_position@?$_Hash@V?$_Hmap_traits@KPAVGameAgentServerSession@@V?$hash_compare@KU?$less@K@std@@@stdext@@V?$CustomAllocator@PAVGameAgentServerSession@@@util@@$0A@@stdext@@@stdext@@@util@@U_Nonscalar_ptr_iterator_tag@0@@Z 004078a0 f i GameAgentManager.obj
 0001:000068a0       ??$_Destroy_range@V?$CustomAllocator@U_List_position@?$_Hash@V?$_Hmap_traits@GPAUsGAME_AGENT_INFO@@V?$hash_compare@GU?$less@G@std@@@stdext@@V?$CustomAllocator@PAUsGAME_AGENT_INFO@@@util@@$0A@@stdext@@@stdext@@@util@@@std@@YAXPAU_List_position@?$_Hash@V?$_Hmap_traits@GPAUsGAME_AGENT_INFO@@V?$hash_compare@GU?$less@G@std@@@stdext@@V?$CustomAllocator@PAUsGAME_AGENT_INFO@@@util@@$0A@@stdext@@@stdext@@0AAV?$CustomAllocator@U_List_position@?$_Hash@V?$_Hmap_traits@GPAUsGAME_AGENT_INFO@@V?$hash_compare@GU?$less@G@std@@@stdext@@V?$CustomAllocator@PAUsGAME_AGENT_INFO@@@util@@$0A@@stdext@@@stdext@@@util@@U_Nonscalar_ptr_iterator_tag@0@@Z 004078a0 f i GameAgentInfoList.obj
 0001:000068d0       ??$_Copy_opt@PAU_List_position@?$_Hash@V?$_Hmap_traits@KPAVGameAgentServerSession@@V?$hash_compare@KU?$less@K@std@@@stdext@@V?$CustomAllocator@PAVGameAgentServerSession@@@util@@$0A@@stdext@@@stdext@@PAU123@@std@@YAPAU_List_position@?$_Hash@V?$_Hmap_traits@KPAVGameAgentServerSession@@V?$hash_compare@KU?$less@K@std@@@stdext@@V?$CustomAllocator@PAVGameAgentServerSession@@@util@@$0A@@stdext@@@stdext@@PAU123@00Urandom_access_iterator_tag@0@U_Nonscalar_ptr_iterator_tag@0@U_Range_checked_iterator_tag@0@@Z 004078d0 f i GameAgentManager.obj
 0001:000068d0       ??$_Copy_opt@PAU_List_position@?$_Hash@V?$_Hmap_traits@GPAUsGAME_AGENT_INFO@@V?$hash_compare@GU?$less@G@std@@@stdext@@V?$CustomAllocator@PAUsGAME_AGENT_INFO@@@util@@$0A@@stdext@@@stdext@@PAU123@@std@@YAPAU_List_position@?$_Hash@V?$_Hmap_traits@GPAUsGAME_AGENT_INFO@@V?$hash_compare@GU?$less@G@std@@@stdext@@V?$CustomAllocator@PAUsGAME_AGENT_INFO@@@util@@$0A@@stdext@@@stdext@@PAU123@00Urandom_access_iterator_tag@0@U_Nonscalar_ptr_iterator_tag@0@U_Range_checked_iterator_tag@0@@Z 004078d0 f i GameAgentInfoList.obj
 0001:00006930       ??$_Unchecked_uninitialized_move@PAU_List_position@?$_Hash@V?$_Hmap_traits@GPAUsGAME_AGENT_INFO@@V?$hash_compare@GU?$less@G@std@@@stdext@@V?$CustomAllocator@PAUsGAME_AGENT_INFO@@@util@@$0A@@stdext@@@stdext@@PAU123@V?$CustomAllocator@U_List_position@?$_Hash@V?$_Hmap_traits@GPAUsGAME_AGENT_INFO@@V?$hash_compare@GU?$less@G@std@@@stdext@@V?$CustomAllocator@PAUsGAME_AGENT_INFO@@@util@@$0A@@stdext@@@stdext@@@util@@@stdext@@YAPAU_List_position@?$_Hash@V?$_Hmap_traits@GPAUsGAME_AGENT_INFO@@V?$hash_compare@GU?$less@G@std@@@stdext@@V?$CustomAllocator@PAUsGAME_AGENT_INFO@@@util@@$0A@@stdext@@@0@PAU120@00AAV?$CustomAllocator@U_List_position@?$_Hash@V?$_Hmap_traits@GPAUsGAME_AGENT_INFO@@V?$hash_compare@GU?$less@G@std@@@stdext@@V?$CustomAllocator@PAUsGAME_AGENT_INFO@@@util@@$0A@@stdext@@@stdext@@@util@@@Z 00407930 f i GameAgentInfoList.obj
 0001:00006930       ??$_Unchecked_uninitialized_move@PAU_List_position@?$_Hash@V?$_Hmap_traits@KPAVGameAgentServerSession@@V?$hash_compare@KU?$less@K@std@@@stdext@@V?$CustomAllocator@PAVGameAgentServerSession@@@util@@$0A@@stdext@@@stdext@@PAU123@V?$CustomAllocator@U_List_position@?$_Hash@V?$_Hmap_traits@KPAVGameAgentServerSession@@V?$hash_compare@KU?$less@K@std@@@stdext@@V?$CustomAllocator@PAVGameAgentServerSession@@@util@@$0A@@stdext@@@stdext@@@util@@@stdext@@YAPAU_List_position@?$_Hash@V?$_Hmap_traits@KPAVGameAgentServerSession@@V?$hash_compare@KU?$less@K@std@@@stdext@@V?$CustomAllocator@PAVGameAgentServerSession@@@util@@$0A@@stdext@@@0@PAU120@00AAV?$CustomAllocator@U_List_position@?$_Hash@V?$_Hmap_traits@KPAVGameAgentServerSession@@V?$hash_compare@KU?$less@K@std@@@stdext@@V?$CustomAllocator@PAVGameAgentServerSession@@@util@@$0A@@stdext@@@stdext@@@util@@@Z 00407930 f i GameAgentManager.obj
 0001:00006980       ??$_Fill@PAU_List_position@?$_Hash@V?$_Hmap_traits@GPAUsGAME_AGENT_INFO@@V?$hash_compare@GU?$less@G@std@@@stdext@@V?$CustomAllocator@PAUsGAME_AGENT_INFO@@@util@@$0A@@stdext@@@stdext@@U123@@std@@YAXPAU_List_position@?$_Hash@V?$_Hmap_traits@GPAUsGAME_AGENT_INFO@@V?$hash_compare@GU?$less@G@std@@@stdext@@V?$CustomAllocator@PAUsGAME_AGENT_INFO@@@util@@$0A@@stdext@@@stdext@@0ABU123@@Z 00407980 f i GameAgentInfoList.obj
 0001:00006980       ??$_Fill@PAU_List_position@?$_Hash@V?$_Hmap_traits@KPAVGameAgentServerSession@@V?$hash_compare@KU?$less@K@std@@@stdext@@V?$CustomAllocator@PAVGameAgentServerSession@@@util@@$0A@@stdext@@@stdext@@U123@@std@@YAXPAU_List_position@?$_Hash@V?$_Hmap_traits@KPAVGameAgentServerSession@@V?$hash_compare@KU?$less@K@std@@@stdext@@V?$CustomAllocator@PAVGameAgentServerSession@@@util@@$0A@@stdext@@@stdext@@0ABU123@@Z 00407980 f i GameAgentManager.obj
 0001:000069b0       ??$_Move_backward_opt@PAU_List_position@?$_Hash@V?$_Hmap_traits@GPAUsGAME_AGENT_INFO@@V?$hash_compare@GU?$less@G@std@@@stdext@@V?$CustomAllocator@PAUsGAME_AGENT_INFO@@@util@@$0A@@stdext@@@stdext@@PAU123@Urandom_access_iterator_tag@std@@U_Undefined_move_tag@5@@std@@YAPAU_List_position@?$_Hash@V?$_Hmap_traits@GPAUsGAME_AGENT_INFO@@V?$hash_compare@GU?$less@G@std@@@stdext@@V?$CustomAllocator@PAUsGAME_AGENT_INFO@@@util@@$0A@@stdext@@@stdext@@PAU123@00Urandom_access_iterator_tag@0@U_Undefined_move_tag@0@U_Range_checked_iterator_tag@0@@Z 004079b0 f i GameAgentInfoList.obj
 0001:000069b0       ??$_Move_backward_opt@PAU_List_position@?$_Hash@V?$_Hmap_traits@KPAVGameAgentServerSession@@V?$hash_compare@KU?$less@K@std@@@stdext@@V?$CustomAllocator@PAVGameAgentServerSession@@@util@@$0A@@stdext@@@stdext@@PAU123@Urandom_access_iterator_tag@std@@U_Undefined_move_tag@5@@std@@YAPAU_List_position@?$_Hash@V?$_Hmap_traits@KPAVGameAgentServerSession@@V?$hash_compare@KU?$less@K@std@@@stdext@@V?$CustomAllocator@PAVGameAgentServerSession@@@util@@$0A@@stdext@@@stdext@@PAU123@00Urandom_access_iterator_tag@0@U_Undefined_move_tag@0@U_Range_checked_iterator_tag@0@@Z 004079b0 f i GameAgentManager.obj
 0001:00006a00       ??$_Uninit_fill_n@PAU_List_position@?$_Hash@V?$_Hmap_traits@GPAUsGAME_AGENT_INFO@@V?$hash_compare@GU?$less@G@std@@@stdext@@V?$CustomAllocator@PAUsGAME_AGENT_INFO@@@util@@$0A@@stdext@@@stdext@@IU123@V?$CustomAllocator@U_List_position@?$_Hash@V?$_Hmap_traits@GPAUsGAME_AGENT_INFO@@V?$hash_compare@GU?$less@G@std@@@stdext@@V?$CustomAllocator@PAUsGAME_AGENT_INFO@@@util@@$0A@@stdext@@@stdext@@@util@@@std@@YAXPAU_List_position@?$_Hash@V?$_Hmap_traits@GPAUsGAME_AGENT_INFO@@V?$hash_compare@GU?$less@G@std@@@stdext@@V?$CustomAllocator@PAUsGAME_AGENT_INFO@@@util@@$0A@@stdext@@@stdext@@IABU123@AAV?$CustomAllocator@U_List_position@?$_Hash@V?$_Hmap_traits@GPAUsGAME_AGENT_INFO@@V?$hash_compare@GU?$less@G@std@@@stdext@@V?$CustomAllocator@PAUsGAME_AGENT_INFO@@@util@@$0A@@stdext@@@stdext@@@util@@U_Nonscalar_ptr_iterator_tag@0@U_Range_checked_iterator_tag@0@@Z 00407a00 f i GameAgentInfoList.obj
 0001:00006a00       ??$_Uninit_fill_n@PAU_List_position@?$_Hash@V?$_Hmap_traits@KPAVGameAgentServerSession@@V?$hash_compare@KU?$less@K@std@@@stdext@@V?$CustomAllocator@PAVGameAgentServerSession@@@util@@$0A@@stdext@@@stdext@@IU123@V?$CustomAllocator@U_List_position@?$_Hash@V?$_Hmap_traits@KPAVGameAgentServerSession@@V?$hash_compare@KU?$less@K@std@@@stdext@@V?$CustomAllocator@PAVGameAgentServerSession@@@util@@$0A@@stdext@@@stdext@@@util@@@std@@YAXPAU_List_position@?$_Hash@V?$_Hmap_traits@KPAVGameAgentServerSession@@V?$hash_compare@KU?$less@K@std@@@stdext@@V?$CustomAllocator@PAVGameAgentServerSession@@@util@@$0A@@stdext@@@stdext@@IABU123@AAV?$CustomAllocator@U_List_position@?$_Hash@V?$_Hmap_traits@KPAVGameAgentServerSession@@V?$hash_compare@KU?$less@K@std@@@stdext@@V?$CustomAllocator@PAVGameAgentServerSession@@@util@@$0A@@stdext@@@stdext@@@util@@U_Nonscalar_ptr_iterator_tag@0@U_Range_checked_iterator_tag@0@@Z 00407a00 f i GameAgentManager.obj
 0001:00006ac0       ??$_Checked_base@PAU_List_position@?$_Hash@V?$_Hmap_traits@GPAUsGAME_AGENT_INFO@@V?$hash_compare@GU?$less@G@std@@@stdext@@V?$CustomAllocator@PAUsGAME_AGENT_INFO@@@util@@$0A@@stdext@@@stdext@@@std@@YAPAU_List_position@?$_Hash@V?$_Hmap_traits@GPAUsGAME_AGENT_INFO@@V?$hash_compare@GU?$less@G@std@@@stdext@@V?$CustomAllocator@PAUsGAME_AGENT_INFO@@@util@@$0A@@stdext@@@stdext@@AAPAU123@U_Unchanged_checked_iterator_base_type_tag@0@@Z 00407ac0 f i GameAgentInfoList.obj
 0001:00006ac0       ??$_Checked_base@PAU_List_position@?$_Hash@V?$_Hmap_traits@KPAVGameAgentServerSession@@V?$hash_compare@KU?$less@K@std@@@stdext@@V?$CustomAllocator@PAVGameAgentServerSession@@@util@@$0A@@stdext@@@stdext@@@std@@YAPAU_List_position@?$_Hash@V?$_Hmap_traits@KPAVGameAgentServerSession@@V?$hash_compare@KU?$less@K@std@@@stdext@@V?$CustomAllocator@PAVGameAgentServerSession@@@util@@$0A@@stdext@@@stdext@@AAPAU123@U_Unchanged_checked_iterator_base_type_tag@0@@Z 00407ac0 f i GameAgentManager.obj
 0001:00006ad0       ??$_Uninit_move@PAU_List_position@?$_Hash@V?$_Hmap_traits@KPAVGameAgentServerSession@@V?$hash_compare@KU?$less@K@std@@@stdext@@V?$CustomAllocator@PAVGameAgentServerSession@@@util@@$0A@@stdext@@@stdext@@PAU123@V?$CustomAllocator@U_List_position@?$_Hash@V?$_Hmap_traits@KPAVGameAgentServerSession@@V?$hash_compare@KU?$less@K@std@@@stdext@@V?$CustomAllocator@PAVGameAgentServerSession@@@util@@$0A@@stdext@@@stdext@@@util@@U_Undefined_move_tag@std@@@std@@YAPAU_List_position@?$_Hash@V?$_Hmap_traits@KPAVGameAgentServerSession@@V?$hash_compare@KU?$less@K@std@@@stdext@@V?$CustomAllocator@PAVGameAgentServerSession@@@util@@$0A@@stdext@@@stdext@@PAU123@00AAV?$CustomAllocator@U_List_position@?$_Hash@V?$_Hmap_traits@KPAVGameAgentServerSession@@V?$hash_compare@KU?$less@K@std@@@stdext@@V?$CustomAllocator@PAVGameAgentServerSession@@@util@@$0A@@stdext@@@stdext@@@util@@U_Undefined_move_tag@0@U_Range_checked_iterator_tag@0@@Z 00407ad0 f i GameAgentManager.obj
 0001:00006ad0       ??$_Uninit_move@PAU_List_position@?$_Hash@V?$_Hmap_traits@GPAUsGAME_AGENT_INFO@@V?$hash_compare@GU?$less@G@std@@@stdext@@V?$CustomAllocator@PAUsGAME_AGENT_INFO@@@util@@$0A@@stdext@@@stdext@@PAU123@V?$CustomAllocator@U_List_position@?$_Hash@V?$_Hmap_traits@GPAUsGAME_AGENT_INFO@@V?$hash_compare@GU?$less@G@std@@@stdext@@V?$CustomAllocator@PAUsGAME_AGENT_INFO@@@util@@$0A@@stdext@@@stdext@@@util@@U_Undefined_move_tag@std@@@std@@YAPAU_List_position@?$_Hash@V?$_Hmap_traits@GPAUsGAME_AGENT_INFO@@V?$hash_compare@GU?$less@G@std@@@stdext@@V?$CustomAllocator@PAUsGAME_AGENT_INFO@@@util@@$0A@@stdext@@@stdext@@PAU123@00AAV?$CustomAllocator@U_List_position@?$_Hash@V?$_Hmap_traits@GPAUsGAME_AGENT_INFO@@V?$hash_compare@GU?$less@G@std@@@stdext@@V?$CustomAllocator@PAUsGAME_AGENT_INFO@@@util@@$0A@@stdext@@@stdext@@@util@@U_Undefined_move_tag@0@U_Range_checked_iterator_tag@0@@Z 00407ad0 f i GameAgentInfoList.obj
 0001:00006af0       ??$_Copy_backward_opt@PAU_List_position@?$_Hash@V?$_Hmap_traits@GPAUsGAME_AGENT_INFO@@V?$hash_compare@GU?$less@G@std@@@stdext@@V?$CustomAllocator@PAUsGAME_AGENT_INFO@@@util@@$0A@@stdext@@@stdext@@PAU123@@std@@YAPAU_List_position@?$_Hash@V?$_Hmap_traits@GPAUsGAME_AGENT_INFO@@V?$hash_compare@GU?$less@G@std@@@stdext@@V?$CustomAllocator@PAUsGAME_AGENT_INFO@@@util@@$0A@@stdext@@@stdext@@PAU123@00Urandom_access_iterator_tag@0@U_Nonscalar_ptr_iterator_tag@0@U_Range_checked_iterator_tag@0@@Z 00407af0 f i GameAgentInfoList.obj
 0001:00006af0       ??$_Copy_backward_opt@PAU_List_position@?$_Hash@V?$_Hmap_traits@KPAVGameAgentServerSession@@V?$hash_compare@KU?$less@K@std@@@stdext@@V?$CustomAllocator@PAVGameAgentServerSession@@@util@@$0A@@stdext@@@stdext@@PAU123@@std@@YAPAU_List_position@?$_Hash@V?$_Hmap_traits@KPAVGameAgentServerSession@@V?$hash_compare@KU?$less@K@std@@@stdext@@V?$CustomAllocator@PAVGameAgentServerSession@@@util@@$0A@@stdext@@@stdext@@PAU123@00Urandom_access_iterator_tag@0@U_Nonscalar_ptr_iterator_tag@0@U_Range_checked_iterator_tag@0@@Z 00407af0 f i GameAgentManager.obj
 0001:00006b50       ??$unchecked_uninitialized_copy@PAU_List_position@?$_Hash@V?$_Hmap_traits@KPAVGameAgentServerSession@@V?$hash_compare@KU?$less@K@std@@@stdext@@V?$CustomAllocator@PAVGameAgentServerSession@@@util@@$0A@@stdext@@@stdext@@PAU123@V?$CustomAllocator@U_List_position@?$_Hash@V?$_Hmap_traits@KPAVGameAgentServerSession@@V?$hash_compare@KU?$less@K@std@@@stdext@@V?$CustomAllocator@PAVGameAgentServerSession@@@util@@$0A@@stdext@@@stdext@@@util@@@stdext@@YAPAU_List_position@?$_Hash@V?$_Hmap_traits@KPAVGameAgentServerSession@@V?$hash_compare@KU?$less@K@std@@@stdext@@V?$CustomAllocator@PAVGameAgentServerSession@@@util@@$0A@@stdext@@@0@PAU120@00AAV?$CustomAllocator@U_List_position@?$_Hash@V?$_Hmap_traits@KPAVGameAgentServerSession@@V?$hash_compare@KU?$less@K@std@@@stdext@@V?$CustomAllocator@PAVGameAgentServerSession@@@util@@$0A@@stdext@@@stdext@@@util@@@Z 00407b50 f i GameAgentManager.obj
 0001:00006b50       ??$unchecked_uninitialized_copy@PAU_List_position@?$_Hash@V?$_Hmap_traits@GPAUsGAME_AGENT_INFO@@V?$hash_compare@GU?$less@G@std@@@stdext@@V?$CustomAllocator@PAUsGAME_AGENT_INFO@@@util@@$0A@@stdext@@@stdext@@PAU123@V?$CustomAllocator@U_List_position@?$_Hash@V?$_Hmap_traits@GPAUsGAME_AGENT_INFO@@V?$hash_compare@GU?$less@G@std@@@stdext@@V?$CustomAllocator@PAUsGAME_AGENT_INFO@@@util@@$0A@@stdext@@@stdext@@@util@@@stdext@@YAPAU_List_position@?$_Hash@V?$_Hmap_traits@GPAUsGAME_AGENT_INFO@@V?$hash_compare@GU?$less@G@std@@@stdext@@V?$CustomAllocator@PAUsGAME_AGENT_INFO@@@util@@$0A@@stdext@@@0@PAU120@00AAV?$CustomAllocator@U_List_position@?$_Hash@V?$_Hmap_traits@GPAUsGAME_AGENT_INFO@@V?$hash_compare@GU?$less@G@std@@@stdext@@V?$CustomAllocator@PAUsGAME_AGENT_INFO@@@util@@$0A@@stdext@@@stdext@@@util@@@Z 00407b50 f i GameAgentInfoList.obj
 0001:00006bb0       ??$_Uninit_copy@PAU_List_position@?$_Hash@V?$_Hmap_traits@GPAUsGAME_AGENT_INFO@@V?$hash_compare@GU?$less@G@std@@@stdext@@V?$CustomAllocator@PAUsGAME_AGENT_INFO@@@util@@$0A@@stdext@@@stdext@@PAU123@V?$CustomAllocator@U_List_position@?$_Hash@V?$_Hmap_traits@GPAUsGAME_AGENT_INFO@@V?$hash_compare@GU?$less@G@std@@@stdext@@V?$CustomAllocator@PAUsGAME_AGENT_INFO@@@util@@$0A@@stdext@@@stdext@@@util@@@std@@YAPAU_List_position@?$_Hash@V?$_Hmap_traits@GPAUsGAME_AGENT_INFO@@V?$hash_compare@GU?$less@G@std@@@stdext@@V?$CustomAllocator@PAUsGAME_AGENT_INFO@@@util@@$0A@@stdext@@@stdext@@PAU123@00AAV?$CustomAllocator@U_List_position@?$_Hash@V?$_Hmap_traits@GPAUsGAME_AGENT_INFO@@V?$hash_compare@GU?$less@G@std@@@stdext@@V?$CustomAllocator@PAUsGAME_AGENT_INFO@@@util@@$0A@@stdext@@@stdext@@@util@@U_Nonscalar_ptr_iterator_tag@0@U_Range_checked_iterator_tag@0@@Z 00407bb0 f i GameAgentInfoList.obj
 0001:00006bb0       ??$_Uninit_copy@PAU_List_position@?$_Hash@V?$_Hmap_traits@KPAVGameAgentServerSession@@V?$hash_compare@KU?$less@K@std@@@stdext@@V?$CustomAllocator@PAVGameAgentServerSession@@@util@@$0A@@stdext@@@stdext@@PAU123@V?$CustomAllocator@U_List_position@?$_Hash@V?$_Hmap_traits@KPAVGameAgentServerSession@@V?$hash_compare@KU?$less@K@std@@@stdext@@V?$CustomAllocator@PAVGameAgentServerSession@@@util@@$0A@@stdext@@@stdext@@@util@@@std@@YAPAU_List_position@?$_Hash@V?$_Hmap_traits@KPAVGameAgentServerSession@@V?$hash_compare@KU?$less@K@std@@@stdext@@V?$CustomAllocator@PAVGameAgentServerSession@@@util@@$0A@@stdext@@@stdext@@PAU123@00AAV?$CustomAllocator@U_List_position@?$_Hash@V?$_Hmap_traits@KPAVGameAgentServerSession@@V?$hash_compare@KU?$less@K@std@@@stdext@@V?$CustomAllocator@PAVGameAgentServerSession@@@util@@$0A@@stdext@@@stdext@@@util@@U_Nonscalar_ptr_iterator_tag@0@U_Range_checked_iterator_tag@0@@Z 00407bb0 f i GameAgentManager.obj
 0001:00006c70       ?ConvertStrIP2DWORD@IPOperation@@SAKPBD@Z 00407c70 f i GameAgentInfoList.obj
 0001:00006ca0       ??0?$basic_string@DU?$char_traits@D@std@@V?$allocator@D@2@@std@@QAE@PBD@Z 00407ca0 f i GameAgentInfoList.obj
 0001:00006ce0       ??0?$basic_string@DU?$char_traits@D@std@@V?$allocator@D@2@@std@@QAE@ABV01@@Z 00407ce0 f i GameAgentInfoList.obj
 0001:00006d20       ??1?$basic_string@DU?$char_traits@D@std@@V?$allocator@D@2@@std@@QAE@XZ 00407d20 f i GameAgentInfoList.obj
 0001:00006d40       ?c_str@?$basic_string@DU?$char_traits@D@std@@V?$allocator@D@2@@std@@QBEPBDXZ 00407d40 f i GameAgentInfoList.obj
 0001:00006d60       ?assign@?$basic_string@DU?$char_traits@D@std@@V?$allocator@D@2@@std@@QAEAAV12@ABV12@II@Z 00407d60 f i GameAgentInfoList.obj
 0001:00006e20       ?size@?$basic_string@DU?$char_traits@D@std@@V?$allocator@D@2@@std@@QBEIXZ 00407e20 f i GameAgentInfoList.obj
 0001:00006e40       ?assign@?$basic_string@DU?$char_traits@D@std@@V?$allocator@D@2@@std@@QAEAAV12@PBD@Z 00407e40 f i GameAgentInfoList.obj
 0001:00006e70       ?length@?$char_traits@D@std@@SAIPBD@Z 00407e70 f i GameAgentInfoList.obj
 0001:00006eb0       ?_Tidy@?$basic_string@DU?$char_traits@D@std@@V?$allocator@D@2@@std@@IAEX_NI@Z 00407eb0 f i GameAgentInfoList.obj
 0001:00006f30       ?_Myptr@?$basic_string@DU?$char_traits@D@std@@V?$allocator@D@2@@std@@IBEPBDXZ 00407f30 f i GameAgentInfoList.obj
 0001:00006f30       ?_Myptr@?$basic_string@DU?$char_traits@D@std@@V?$allocator@D@2@@std@@IAEPADXZ 00407f30 f i GameAgentInfoList.obj
 0001:00006f60       ??0?$_String_val@DV?$allocator@D@std@@@std@@IAE@V?$allocator@D@1@@Z 00407f60 f i GameAgentInfoList.obj
 0001:00006f80       ??0?$_String_val@DV?$allocator@D@std@@@std@@QAE@ABV01@@Z 00407f80 f i GameAgentInfoList.obj
 0001:00006fa0       ?assign@?$basic_string@DU?$char_traits@D@std@@V?$allocator@D@2@@std@@QAEAAV12@PBDI@Z 00407fa0 f i GameAgentInfoList.obj
 0001:00007030       ?erase@?$basic_string@DU?$char_traits@D@std@@V?$allocator@D@2@@std@@QAEAAV12@II@Z 00408030 f i GameAgentInfoList.obj
 0001:000070d0       ?_Eos@?$basic_string@DU?$char_traits@D@std@@V?$allocator@D@2@@std@@IAEXI@Z 004080d0 f i GameAgentInfoList.obj
 0001:00007110       ?assign@?$char_traits@D@std@@SAXAADABD@Z 00408110 f i GameAgentInfoList.obj
 0001:00007120       ?_Grow@?$basic_string@DU?$char_traits@D@std@@V?$allocator@D@2@@std@@IAE_NI_N@Z 00408120 f i GameAgentInfoList.obj
 0001:000071c0       ?deallocate@?$allocator@D@std@@QAEXPADI@Z 004081c0 f i GameAgentInfoList.obj
 0001:000071e0       ?max_size@?$basic_string@DU?$char_traits@D@std@@V?$allocator@D@2@@std@@QBEIXZ 004081e0 f i GameAgentInfoList.obj
 0001:00007220       ?_Copy@?$basic_string@DU?$char_traits@D@std@@V?$allocator@D@2@@std@@IAEXII@Z 00408220 f i GameAgentInfoList.obj
 0001:000073a0       ?_Inside@?$basic_string@DU?$char_traits@D@std@@V?$allocator@D@2@@std@@IAE_NPBD@Z 004083a0 f i GameAgentInfoList.obj
 0001:000073e0       ?allocate@?$allocator@D@std@@QAEPADI@Z 004083e0 f i GameAgentInfoList.obj
 0001:00007400       ?max_size@?$allocator@D@std@@QBEIXZ 00408400 f i GameAgentInfoList.obj
 0001:00007430       ??$copy_s@U?$char_traits@D@std@@@_Traits_helper@std@@YAPADPADIPBDI@Z 00408430 f i GameAgentInfoList.obj
 0001:00007460       ??$move_s@U?$char_traits@D@std@@@_Traits_helper@std@@YAPADPADIPBDI@Z 00408460 f i GameAgentInfoList.obj
 0001:00007490       ??$_Allocate@D@std@@YAPADIPAD@Z 00408490 f i GameAgentInfoList.obj
 0001:000074e0       ??0bad_alloc@std@@QAE@PBD@Z 004084e0 f i GameAgentInfoList.obj
 0001:00007510       ??1bad_alloc@std@@UAE@XZ   00408510 f i GameAgentInfoList.obj
 0001:00007530       ??_Ebad_alloc@std@@UAEPAXI@Z 00408530 f i GameAgentInfoList.obj
 0001:00007530       ??_Gbad_alloc@std@@UAEPAXI@Z 00408530 f i GameAgentInfoList.obj
 0001:00007560       ??0bad_alloc@std@@QAE@ABV01@@Z 00408560 f i GameAgentInfoList.obj
 0001:00007590       ??$copy_s@U?$char_traits@D@std@@@_Traits_helper@std@@YAPADPADIPBDIU_Secure_char_traits_tag@1@@Z 00408590 f i GameAgentInfoList.obj
 0001:000075b0       ?_Copy_s@?$char_traits@D@std@@SAPADPADIPBDI@Z 004085b0 f i GameAgentInfoList.obj
 0001:000075d0       ??$move_s@U?$char_traits@D@std@@@_Traits_helper@std@@YAPADPADIPBDIU_Secure_char_traits_tag@1@@Z 004085d0 f i GameAgentInfoList.obj
 0001:000075f0       ?_Move_s@?$char_traits@D@std@@SAPADPADIPBDI@Z 004085f0 f i GameAgentInfoList.obj
 0001:00007610       ??0GameAgentManager@@QAE@XZ 00408610 f   GameAgentManager.obj
 0001:00007680       ??1GameAgentManager@@QAE@XZ 00408680 f   GameAgentManager.obj
 0001:000076e0       ?AddAgent@GameAgentManager@@QAEHKPAVGameAgentServerSession@@@Z 004086e0 f   GameAgentManager.obj
 0001:00007710       ?RemoveAgent@GameAgentManager@@QAEXK@Z 00408710 f   GameAgentManager.obj
 0001:00007770       ?FindAgent@GameAgentManager@@QAEPAVGameAgentServerSession@@K@Z 00408770 f   GameAgentManager.obj
 0001:000077c0       ?insert@?$_Hash@V?$_Hmap_traits@KPAVGameAgentServerSession@@V?$hash_compare@KU?$less@K@std@@@stdext@@V?$CustomAllocator@PAVGameAgentServerSession@@@util@@$0A@@stdext@@@stdext@@QAE?AU?$pair@V?$_Iterator@$00@?$list@U?$pair@$$CBKPAVGameAgentServerSession@@@std@@V?$CustomAllocator@U?$pair@$$CBKPAVGameAgentServerSession@@@std@@@util@@@std@@_N@std@@ABU?$pair@$$CBKPAVGameAgentServerSession@@@4@@Z 004087c0 f i GameAgentManager.obj
 0001:00007800       ?erase@?$_Hash@V?$_Hmap_traits@KPAVGameAgentServerSession@@V?$hash_compare@KU?$less@K@std@@@stdext@@V?$CustomAllocator@PAVGameAgentServerSession@@@util@@$0A@@stdext@@@stdext@@QAE?AV?$_Iterator@$00@?$list@U?$pair@$$CBKPAVGameAgentServerSession@@@std@@V?$CustomAllocator@U?$pair@$$CBKPAVGameAgentServerSession@@@std@@@util@@@std@@V?$_Const_iterator@$00@45@@Z 00408800 f i GameAgentManager.obj
 0001:000078d0       ?find@?$_Hash@V?$_Hmap_traits@KPAVGameAgentServerSession@@V?$hash_compare@KU?$less@K@std@@@stdext@@V?$CustomAllocator@PAVGameAgentServerSession@@@util@@$0A@@stdext@@@stdext@@QAE?AV?$_Iterator@$00@?$list@U?$pair@$$CBKPAVGameAgentServerSession@@@std@@V?$CustomAllocator@U?$pair@$$CBKPAVGameAgentServerSession@@@std@@@util@@@std@@ABK@Z 004088d0 f i GameAgentManager.obj
 0001:000078f0       ??0?$pair@$$CBKPAVGameAgentServerSession@@@std@@QAE@ABKABQAVGameAgentServerSession@@@Z 004088f0 f i GameAgentManager.obj
 0001:00007920       ??1?$_Hmap_traits@KPAVGameAgentServerSession@@V?$hash_compare@KU?$less@K@std@@@stdext@@V?$CustomAllocator@PAVGameAgentServerSession@@@util@@$0A@@stdext@@QAE@XZ 00408920 f i GameAgentManager.obj
 0001:00007920       ??1?$_Hmap_traits@GPAUsGAME_AGENT_INFO@@V?$hash_compare@GU?$less@G@std@@@stdext@@V?$CustomAllocator@PAUsGAME_AGENT_INFO@@@util@@$0A@@stdext@@QAE@XZ 00408920 f i GameAgentInfoList.obj
 0001:00007940       ?_Get_iter_from_vec@?$_Hash@V?$_Hmap_traits@KPAVGameAgentServerSession@@V?$hash_compare@KU?$less@K@std@@@stdext@@V?$CustomAllocator@PAVGameAgentServerSession@@@util@@$0A@@stdext@@@stdext@@QBE?AV?$_Iterator@$00@?$list@U?$pair@$$CBKPAVGameAgentServerSession@@@std@@V?$CustomAllocator@U?$pair@$$CBKPAVGameAgentServerSession@@@std@@@util@@@std@@ABU_List_position@12@@Z 00408940 f i GameAgentManager.obj
 0001:00007940       ?_Get_iter_from_vec@?$_Hash@V?$_Hmap_traits@GPAUsGAME_AGENT_INFO@@V?$hash_compare@GU?$less@G@std@@@stdext@@V?$CustomAllocator@PAUsGAME_AGENT_INFO@@@util@@$0A@@stdext@@@stdext@@QBE?AV?$_Iterator@$00@?$list@U?$pair@$$CBGPAUsGAME_AGENT_INFO@@@std@@V?$CustomAllocator@U?$pair@$$CBGPAUsGAME_AGENT_INFO@@@std@@@util@@@std@@ABU_List_position@12@@Z 00408940 f i GameAgentInfoList.obj
 0001:00007970       ?lower_bound@?$_Hash@V?$_Hmap_traits@KPAVGameAgentServerSession@@V?$hash_compare@KU?$less@K@std@@@stdext@@V?$CustomAllocator@PAVGameAgentServerSession@@@util@@$0A@@stdext@@@stdext@@QAE?AV?$_Iterator@$00@?$list@U?$pair@$$CBKPAVGameAgentServerSession@@@std@@V?$CustomAllocator@U?$pair@$$CBKPAVGameAgentServerSession@@@std@@@util@@@std@@ABK@Z 00408970 f i GameAgentManager.obj
 0001:00007a90       ?_Hashval@?$_Hash@V?$_Hmap_traits@KPAVGameAgentServerSession@@V?$hash_compare@KU?$less@K@std@@@stdext@@V?$CustomAllocator@PAVGameAgentServerSession@@@util@@$0A@@stdext@@@stdext@@IBEIABK@Z 00408a90 f i GameAgentManager.obj
 0001:00007ae0       ?_Insert@?$_Hash@V?$_Hmap_traits@KPAVGameAgentServerSession@@V?$hash_compare@KU?$less@K@std@@@stdext@@V?$CustomAllocator@PAVGameAgentServerSession@@@util@@$0A@@stdext@@@stdext@@IAE?AU?$pair@V?$_Iterator@$00@?$list@U?$pair@$$CBKPAVGameAgentServerSession@@@std@@V?$CustomAllocator@U?$pair@$$CBKPAVGameAgentServerSession@@@std@@@util@@@std@@_N@std@@ABU?$pair@$$CBKPAVGameAgentServerSession@@@4@V?$_Iterator@$00@?$list@U?$pair@$$CBKPAVGameAgentServerSession@@@std@@V?$CustomAllocator@U?$pair@$$CBKPAVGameAgentServerSession@@@std@@@util@@@4@@Z 00408ae0 f i GameAgentManager.obj
 0001:00007dc0       ??A?$vector@U_List_position@?$_Hash@V?$_Hmap_traits@GPAUsGAME_AGENT_INFO@@V?$hash_compare@GU?$less@G@std@@@stdext@@V?$CustomAllocator@PAUsGAME_AGENT_INFO@@@util@@$0A@@stdext@@@stdext@@V?$CustomAllocator@U_List_position@?$_Hash@V?$_Hmap_traits@GPAUsGAME_AGENT_INFO@@V?$hash_compare@GU?$less@G@std@@@stdext@@V?$CustomAllocator@PAUsGAME_AGENT_INFO@@@util@@$0A@@stdext@@@stdext@@@util@@@std@@QAEAAU_List_position@?$_Hash@V?$_Hmap_traits@GPAUsGAME_AGENT_INFO@@V?$hash_compare@GU?$less@G@std@@@stdext@@V?$CustomAllocator@PAUsGAME_AGENT_INFO@@@util@@$0A@@stdext@@@stdext@@I@Z 00408dc0 f i GameAgentInfoList.obj
 0001:00007dc0       ??A?$vector@U_List_position@?$_Hash@V?$_Hmap_traits@KPAVGameAgentServerSession@@V?$hash_compare@KU?$less@K@std@@@stdext@@V?$CustomAllocator@PAVGameAgentServerSession@@@util@@$0A@@stdext@@@stdext@@V?$CustomAllocator@U_List_position@?$_Hash@V?$_Hmap_traits@KPAVGameAgentServerSession@@V?$hash_compare@KU?$less@K@std@@@stdext@@V?$CustomAllocator@PAVGameAgentServerSession@@@util@@$0A@@stdext@@@stdext@@@util@@@std@@QAEAAU_List_position@?$_Hash@V?$_Hmap_traits@KPAVGameAgentServerSession@@V?$hash_compare@KU?$less@K@std@@@stdext@@V?$CustomAllocator@PAVGameAgentServerSession@@@util@@$0A@@stdext@@@stdext@@I@Z 00408dc0 f i GameAgentManager.obj
 0001:00007df0       ??8_List_position@?$_Hash@V?$_Hmap_traits@GPAUsGAME_AGENT_INFO@@V?$hash_compare@GU?$less@G@std@@@stdext@@V?$CustomAllocator@PAUsGAME_AGENT_INFO@@@util@@$0A@@stdext@@@stdext@@QBE_NABV?$_Const_iterator@$00@?$list@U?$pair@$$CBGPAUsGAME_AGENT_INFO@@@std@@V?$CustomAllocator@U?$pair@$$CBGPAUsGAME_AGENT_INFO@@@std@@@util@@@std@@@Z 00408df0 f i GameAgentInfoList.obj
 0001:00007df0       ??8_List_position@?$_Hash@V?$_Hmap_traits@KPAVGameAgentServerSession@@V?$hash_compare@KU?$less@K@std@@@stdext@@V?$CustomAllocator@PAVGameAgentServerSession@@@util@@$0A@@stdext@@@stdext@@QBE_NABV?$_Const_iterator@$00@?$list@U?$pair@$$CBKPAVGameAgentServerSession@@@std@@V?$CustomAllocator@U?$pair@$$CBKPAVGameAgentServerSession@@@std@@@util@@@std@@@Z 00408df0 f i GameAgentManager.obj
 0001:00007e20       ?max_load_factor@?$_Hash@V?$_Hmap_traits@KPAVGameAgentServerSession@@V?$hash_compare@KU?$less@K@std@@@stdext@@V?$CustomAllocator@PAVGameAgentServerSession@@@util@@$0A@@stdext@@@stdext@@QBEMXZ 00408e20 f i GameAgentManager.obj
 0001:00007e20       ?max_load_factor@?$_Hash@V?$_Hmap_traits@GPAUsGAME_AGENT_INFO@@V?$hash_compare@GU?$less@G@std@@@stdext@@V?$CustomAllocator@PAUsGAME_AGENT_INFO@@@util@@$0A@@stdext@@@stdext@@QBEMXZ 00408e20 f i GameAgentInfoList.obj
 0001:00007e40       ?_Reinsert@?$_Hash@V?$_Hmap_traits@KPAVGameAgentServerSession@@V?$hash_compare@KU?$less@K@std@@@stdext@@V?$CustomAllocator@PAVGameAgentServerSession@@@util@@$0A@@stdext@@@stdext@@IAEXXZ 00408e40 f i GameAgentManager.obj
 0001:00007ec0       ??R?$hash_compare@KU?$less@K@std@@@stdext@@QBEIABK@Z 00408ec0 f i GameAgentManager.obj
 0001:00007f30       ??R?$hash_compare@KU?$less@K@std@@@stdext@@QBE_NABK0@Z 00408f30 f i GameAgentManager.obj
 0001:00007f50       ?insert@?$list@U?$pair@$$CBKPAVGameAgentServerSession@@@std@@V?$CustomAllocator@U?$pair@$$CBKPAVGameAgentServerSession@@@std@@@util@@@std@@QAE?AV?$_Iterator@$00@12@V?$_Const_iterator@$00@12@ABU?$pair@$$CBKPAVGameAgentServerSession@@@2@@Z 00408f50 f i GameAgentManager.obj
 0001:00007f50       ?insert@?$list@U?$pair@$$CBGPAUsGAME_AGENT_INFO@@@std@@V?$CustomAllocator@U?$pair@$$CBGPAUsGAME_AGENT_INFO@@@std@@@util@@@std@@QAE?AV?$_Iterator@$00@12@V?$_Const_iterator@$00@12@ABU?$pair@$$CBGPAUsGAME_AGENT_INFO@@@2@@Z 00408f50 f i GameAgentInfoList.obj
 0001:00007f90       ?splice@?$list@U?$pair@$$CBGPAUsGAME_AGENT_INFO@@@std@@V?$CustomAllocator@U?$pair@$$CBGPAUsGAME_AGENT_INFO@@@std@@@util@@@std@@QAEXV?$_Const_iterator@$00@12@AAV12@0@Z 00408f90 f i GameAgentInfoList.obj
 0001:00007f90       ?splice@?$list@U?$pair@$$CBKPAVGameAgentServerSession@@@std@@V?$CustomAllocator@U?$pair@$$CBKPAVGameAgentServerSession@@@std@@@util@@@std@@QAEXV?$_Const_iterator@$00@12@AAV12@0@Z 00408f90 f i GameAgentManager.obj
 0001:00008030       ??F?$_Iterator@$00@?$list@U?$pair@$$CBKPAVGameAgentServerSession@@@std@@V?$CustomAllocator@U?$pair@$$CBKPAVGameAgentServerSession@@@std@@@util@@@std@@QAEAAV012@XZ 00409030 f i GameAgentManager.obj
 0001:00008030       ??F?$_Iterator@$00@?$list@U?$pair@$$CBGPAUsGAME_AGENT_INFO@@@std@@V?$CustomAllocator@U?$pair@$$CBGPAUsGAME_AGENT_INFO@@@std@@@util@@@std@@QAEAAV012@XZ 00409030 f i GameAgentInfoList.obj
 0001:00008050       ??E?$_Const_iterator@$00@?$list@U?$pair@$$CBGPAUsGAME_AGENT_INFO@@@std@@V?$CustomAllocator@U?$pair@$$CBGPAUsGAME_AGENT_INFO@@@std@@@util@@@std@@QAE?AV012@H@Z 00409050 f i GameAgentInfoList.obj
 0001:00008050       ??E?$_Const_iterator@$00@?$list@U?$pair@$$CBKPAVGameAgentServerSession@@@std@@V?$CustomAllocator@U?$pair@$$CBKPAVGameAgentServerSession@@@std@@@util@@@std@@QAE?AV012@H@Z 00409050 f i GameAgentManager.obj
 0001:00008090       ?_Get_iter@_List_position@?$_Hash@V?$_Hmap_traits@KPAVGameAgentServerSession@@V?$hash_compare@KU?$less@K@std@@@stdext@@V?$CustomAllocator@PAVGameAgentServerSession@@@util@@$0A@@stdext@@@stdext@@QBE?AV?$_Iterator@$00@?$list@U?$pair@$$CBKPAVGameAgentServerSession@@@std@@V?$CustomAllocator@U?$pair@$$CBKPAVGameAgentServerSession@@@std@@@util@@@std@@ABV56@@Z 00409090 f i GameAgentManager.obj
 0001:00008090       ?_Get_iter@_List_position@?$_Hash@V?$_Hmap_traits@GPAUsGAME_AGENT_INFO@@V?$hash_compare@GU?$less@G@std@@@stdext@@V?$CustomAllocator@PAUsGAME_AGENT_INFO@@@util@@$0A@@stdext@@@stdext@@QBE?AV?$_Iterator@$00@?$list@U?$pair@$$CBGPAUsGAME_AGENT_INFO@@@std@@V?$CustomAllocator@U?$pair@$$CBGPAUsGAME_AGENT_INFO@@@std@@@util@@@std@@ABV56@@Z 00409090 f i GameAgentInfoList.obj
 0001:000080c0       ??9_List_position@?$_Hash@V?$_Hmap_traits@GPAUsGAME_AGENT_INFO@@V?$hash_compare@GU?$less@G@std@@@stdext@@V?$CustomAllocator@PAUsGAME_AGENT_INFO@@@util@@$0A@@stdext@@@stdext@@QBE_NABV?$_Const_iterator@$00@?$list@U?$pair@$$CBGPAUsGAME_AGENT_INFO@@@std@@V?$CustomAllocator@U?$pair@$$CBGPAUsGAME_AGENT_INFO@@@std@@@util@@@std@@@Z 004090c0 f i GameAgentInfoList.obj
 0001:000080c0       ??9_List_position@?$_Hash@V?$_Hmap_traits@KPAVGameAgentServerSession@@V?$hash_compare@KU?$less@K@std@@@stdext@@V?$CustomAllocator@PAVGameAgentServerSession@@@util@@$0A@@stdext@@@stdext@@QBE_NABV?$_Const_iterator@$00@?$list@U?$pair@$$CBKPAVGameAgentServerSession@@@std@@V?$CustomAllocator@U?$pair@$$CBKPAVGameAgentServerSession@@@std@@@util@@@std@@@Z 004090c0 f i GameAgentManager.obj
 0001:000080f0       ?_Mynode@?$_Const_iterator@$00@?$list@U?$pair@$$CBGPAUsGAME_AGENT_INFO@@@std@@V?$CustomAllocator@U?$pair@$$CBGPAUsGAME_AGENT_INFO@@@std@@@util@@@std@@QBEPAU_Node@?$_List_nod@U?$pair@$$CBGPAUsGAME_AGENT_INFO@@@std@@V?$CustomAllocator@U?$pair@$$CBGPAUsGAME_AGENT_INFO@@@std@@@util@@@3@XZ 004090f0 f i GameAgentInfoList.obj
 0001:000080f0       ?_Mynode@?$_Const_iterator@$00@?$list@U?$pair@$$CBKPAVGameAgentServerSession@@@std@@V?$CustomAllocator@U?$pair@$$CBKPAVGameAgentServerSession@@@std@@@util@@@std@@QBEPAU_Node@?$_List_nod@U?$pair@$$CBKPAVGameAgentServerSession@@@std@@V?$CustomAllocator@U?$pair@$$CBKPAVGameAgentServerSession@@@std@@@util@@@3@XZ 004090f0 f i GameAgentManager.obj
 0001:000080f0       ?total_size@?$PODptr@I@details@boost@@QBEIXZ 004090f0 f i AuthAgentFrame.obj
 0001:000080f0       ?_Mynode@?$_Const_iterator@$0A@@?$list@U?$pair@$$CBGPAUsGAME_AGENT_INFO@@@std@@V?$CustomAllocator@U?$pair@$$CBGPAUsGAME_AGENT_INFO@@@std@@@util@@@std@@QBEPAU_Node@?$_List_nod@U?$pair@$$CBGPAUsGAME_AGENT_INFO@@@std@@V?$CustomAllocator@U?$pair@$$CBGPAUsGAME_AGENT_INFO@@@std@@@util@@@3@XZ 004090f0 f i GameAgentInfoList.obj
 0001:000080f0       ?_Mynode@?$_Const_iterator@$0A@@?$list@U?$pair@$$CBKPAVGameAgentServerSession@@@std@@V?$CustomAllocator@U?$pair@$$CBKPAVGameAgentServerSession@@@std@@@util@@@std@@QBEPAU_Node@?$_List_nod@U?$pair@$$CBKPAVGameAgentServerSession@@@std@@V?$CustomAllocator@U?$pair@$$CBKPAVGameAgentServerSession@@@std@@@util@@@3@XZ 004090f0 f i GameAgentManager.obj
 0001:00008110       ?size@?$_Hash@V?$_Hmap_traits@GPAUsGAME_AGENT_INFO@@V?$hash_compare@GU?$less@G@std@@@stdext@@V?$CustomAllocator@PAUsGAME_AGENT_INFO@@@util@@$0A@@stdext@@@stdext@@QBEIXZ 00409110 f i GameAgentInfoList.obj
 0001:00008110       ?size@?$_Hash@V?$_Hmap_traits@KPAVGameAgentServerSession@@V?$hash_compare@KU?$less@K@std@@@stdext@@V?$CustomAllocator@PAVGameAgentServerSession@@@util@@$0A@@stdext@@@stdext@@QBEIXZ 00409110 f i GameAgentManager.obj
 0001:00008130       ??0?$_Hmap_traits@KPAVGameAgentServerSession@@V?$hash_compare@KU?$less@K@std@@@stdext@@V?$CustomAllocator@PAVGameAgentServerSession@@@util@@$0A@@stdext@@QAE@ABV?$hash_compare@KU?$less@K@std@@@1@@Z 00409130 f i GameAgentManager.obj
 0001:00008130       ??0?$_Hmap_traits@GPAUsGAME_AGENT_INFO@@V?$hash_compare@GU?$less@G@std@@@stdext@@V?$CustomAllocator@PAUsGAME_AGENT_INFO@@@util@@$0A@@stdext@@QAE@ABV?$hash_compare@GU?$less@G@std@@@1@@Z 00409130 f i GameAgentInfoList.obj
 0001:00008160       ?_Splice@?$list@U?$pair@$$CBKPAVGameAgentServerSession@@@std@@V?$CustomAllocator@U?$pair@$$CBKPAVGameAgentServerSession@@@std@@@util@@@std@@QAEXV?$_Const_iterator@$00@12@AAV12@00I_N@Z 00409160 f i GameAgentManager.obj
 0001:00008160       ?_Splice@?$list@U?$pair@$$CBGPAUsGAME_AGENT_INFO@@@std@@V?$CustomAllocator@U?$pair@$$CBGPAUsGAME_AGENT_INFO@@@std@@@util@@@std@@QAEXV?$_Const_iterator@$00@12@AAV12@00I_N@Z 00409160 f i GameAgentInfoList.obj
 0001:000082f0       ??F?$_Const_iterator@$00@?$list@U?$pair@$$CBGPAUsGAME_AGENT_INFO@@@std@@V?$CustomAllocator@U?$pair@$$CBGPAUsGAME_AGENT_INFO@@@std@@@util@@@std@@QAEAAV012@XZ 004092f0 f i GameAgentInfoList.obj
 0001:000082f0       ??F?$_Const_iterator@$00@?$list@U?$pair@$$CBKPAVGameAgentServerSession@@@std@@V?$CustomAllocator@U?$pair@$$CBKPAVGameAgentServerSession@@@std@@@util@@@std@@QAEAAV012@XZ 004092f0 f i GameAgentManager.obj
 0001:00008360       ?erase@?$list@U?$pair@$$CBKPAVGameAgentServerSession@@@std@@V?$CustomAllocator@U?$pair@$$CBKPAVGameAgentServerSession@@@std@@@util@@@std@@QAE?AV?$_Iterator@$00@12@V?$_Const_iterator@$00@12@0@Z 00409360 f i GameAgentManager.obj
 0001:00008360       ?erase@?$list@U?$pair@$$CBGPAUsGAME_AGENT_INFO@@@std@@V?$CustomAllocator@U?$pair@$$CBGPAUsGAME_AGENT_INFO@@@std@@@util@@@std@@QAE?AV?$_Iterator@$00@12@V?$_Const_iterator@$00@12@0@Z 00409360 f i GameAgentInfoList.obj
 0001:00008410       ??0?$_Vector_val@U_List_position@?$_Hash@V?$_Hmap_traits@GPAUsGAME_AGENT_INFO@@V?$hash_compare@GU?$less@G@std@@@stdext@@V?$CustomAllocator@PAUsGAME_AGENT_INFO@@@util@@$0A@@stdext@@@stdext@@V?$CustomAllocator@U_List_position@?$_Hash@V?$_Hmap_traits@GPAUsGAME_AGENT_INFO@@V?$hash_compare@GU?$less@G@std@@@stdext@@V?$CustomAllocator@PAUsGAME_AGENT_INFO@@@util@@$0A@@stdext@@@stdext@@@util@@@std@@IAE@V?$CustomAllocator@U_List_position@?$_Hash@V?$_Hmap_traits@GPAUsGAME_AGENT_INFO@@V?$hash_compare@GU?$less@G@std@@@stdext@@V?$CustomAllocator@PAUsGAME_AGENT_INFO@@@util@@$0A@@stdext@@@stdext@@@util@@@Z 00409410 f i GameAgentInfoList.obj
 0001:00008410       ??0?$_Vector_val@U_List_position@?$_Hash@V?$_Hmap_traits@KPAVGameAgentServerSession@@V?$hash_compare@KU?$less@K@std@@@stdext@@V?$CustomAllocator@PAVGameAgentServerSession@@@util@@$0A@@stdext@@@stdext@@V?$CustomAllocator@U_List_position@?$_Hash@V?$_Hmap_traits@KPAVGameAgentServerSession@@V?$hash_compare@KU?$less@K@std@@@stdext@@V?$CustomAllocator@PAVGameAgentServerSession@@@util@@$0A@@stdext@@@stdext@@@util@@@std@@IAE@V?$CustomAllocator@U_List_position@?$_Hash@V?$_Hmap_traits@KPAVGameAgentServerSession@@V?$hash_compare@KU?$less@K@std@@@stdext@@V?$CustomAllocator@PAVGameAgentServerSession@@@util@@$0A@@stdext@@@stdext@@@util@@@Z 00409410 f i GameAgentManager.obj
 0001:00008430       ?begin@?$vector@U_List_position@?$_Hash@V?$_Hmap_traits@KPAVGameAgentServerSession@@V?$hash_compare@KU?$less@K@std@@@stdext@@V?$CustomAllocator@PAVGameAgentServerSession@@@util@@$0A@@stdext@@@stdext@@V?$CustomAllocator@U_List_position@?$_Hash@V?$_Hmap_traits@KPAVGameAgentServerSession@@V?$hash_compare@KU?$less@K@std@@@stdext@@V?$CustomAllocator@PAVGameAgentServerSession@@@util@@$0A@@stdext@@@stdext@@@util@@@std@@QAE?AV?$_Vector_iterator@U_List_position@?$_Hash@V?$_Hmap_traits@KPAVGameAgentServerSession@@V?$hash_compare@KU?$less@K@std@@@stdext@@V?$CustomAllocator@PAVGameAgentServerSession@@@util@@$0A@@stdext@@@stdext@@V?$CustomAllocator@U_List_position@?$_Hash@V?$_Hmap_traits@KPAVGameAgentServerSession@@V?$hash_compare@KU?$less@K@std@@@stdext@@V?$CustomAllocator@PAVGameAgentServerSession@@@util@@$0A@@stdext@@@stdext@@@util@@@2@XZ 00409430 f i GameAgentManager.obj
 0001:00008430       ?begin@?$vector@U_List_position@?$_Hash@V?$_Hmap_traits@GPAUsGAME_AGENT_INFO@@V?$hash_compare@GU?$less@G@std@@@stdext@@V?$CustomAllocator@PAUsGAME_AGENT_INFO@@@util@@$0A@@stdext@@@stdext@@V?$CustomAllocator@U_List_position@?$_Hash@V?$_Hmap_traits@GPAUsGAME_AGENT_INFO@@V?$hash_compare@GU?$less@G@std@@@stdext@@V?$CustomAllocator@PAUsGAME_AGENT_INFO@@@util@@$0A@@stdext@@@stdext@@@util@@@std@@QAE?AV?$_Vector_iterator@U_List_position@?$_Hash@V?$_Hmap_traits@GPAUsGAME_AGENT_INFO@@V?$hash_compare@GU?$less@G@std@@@stdext@@V?$CustomAllocator@PAUsGAME_AGENT_INFO@@@util@@$0A@@stdext@@@stdext@@V?$CustomAllocator@U_List_position@?$_Hash@V?$_Hmap_traits@GPAUsGAME_AGENT_INFO@@V?$hash_compare@GU?$less@G@std@@@stdext@@V?$CustomAllocator@PAUsGAME_AGENT_INFO@@@util@@$0A@@stdext@@@stdext@@@util@@@2@XZ 00409430 f i GameAgentInfoList.obj
 0001:00008460       ?erase@?$vector@U_List_position@?$_Hash@V?$_Hmap_traits@KPAVGameAgentServerSession@@V?$hash_compare@KU?$less@K@std@@@stdext@@V?$CustomAllocator@PAVGameAgentServerSession@@@util@@$0A@@stdext@@@stdext@@V?$CustomAllocator@U_List_position@?$_Hash@V?$_Hmap_traits@KPAVGameAgentServerSession@@V?$hash_compare@KU?$less@K@std@@@stdext@@V?$CustomAllocator@PAVGameAgentServerSession@@@util@@$0A@@stdext@@@stdext@@@util@@@std@@QAE?AV?$_Vector_iterator@U_List_position@?$_Hash@V?$_Hmap_traits@KPAVGameAgentServerSession@@V?$hash_compare@KU?$less@K@std@@@stdext@@V?$CustomAllocator@PAVGameAgentServerSession@@@util@@$0A@@stdext@@@stdext@@V?$CustomAllocator@U_List_position@?$_Hash@V?$_Hmap_traits@KPAVGameAgentServerSession@@V?$hash_compare@KU?$less@K@std@@@stdext@@V?$CustomAllocator@PAVGameAgentServerSession@@@util@@$0A@@stdext@@@stdext@@@util@@@2@V?$_Vector_const_iterator@U_List_position@?$_Hash@V?$_Hmap_traits@KPAVGameAgentServerSession@@V?$hash_compare@KU?$less@K@std@@@stdext@@V?$CustomAllocator@PAVGameAgentServerSession@@@util@@$0A@@stdext@@@stdext@@V?$CustomAllocator@U_List_position@?$_Hash@V?$_Hmap_traits@KPAVGameAgentServerSession@@V?$hash_compare@KU?$less@K@std@@@stdext@@V?$CustomAllocator@PAVGameAgentServerSession@@@util@@$0A@@stdext@@@stdext@@@util@@@2@0@Z 00409460 f i GameAgentManager.obj
 0001:00008460       ?erase@?$vector@U_List_position@?$_Hash@V?$_Hmap_traits@GPAUsGAME_AGENT_INFO@@V?$hash_compare@GU?$less@G@std@@@stdext@@V?$CustomAllocator@PAUsGAME_AGENT_INFO@@@util@@$0A@@stdext@@@stdext@@V?$CustomAllocator@U_List_position@?$_Hash@V?$_Hmap_traits@GPAUsGAME_AGENT_INFO@@V?$hash_compare@GU?$less@G@std@@@stdext@@V?$CustomAllocator@PAUsGAME_AGENT_INFO@@@util@@$0A@@stdext@@@stdext@@@util@@@std@@QAE?AV?$_Vector_iterator@U_List_position@?$_Hash@V?$_Hmap_traits@GPAUsGAME_AGENT_INFO@@V?$hash_compare@GU?$less@G@std@@@stdext@@V?$CustomAllocator@PAUsGAME_AGENT_INFO@@@util@@$0A@@stdext@@@stdext@@V?$CustomAllocator@U_List_position@?$_Hash@V?$_Hmap_traits@GPAUsGAME_AGENT_INFO@@V?$hash_compare@GU?$less@G@std@@@stdext@@V?$CustomAllocator@PAUsGAME_AGENT_INFO@@@util@@$0A@@stdext@@@stdext@@@util@@@2@V?$_Vector_const_iterator@U_List_position@?$_Hash@V?$_Hmap_traits@GPAUsGAME_AGENT_INFO@@V?$hash_compare@GU?$less@G@std@@@stdext@@V?$CustomAllocator@PAUsGAME_AGENT_INFO@@@util@@$0A@@stdext@@@stdext@@V?$CustomAllocator@U_List_position@?$_Hash@V?$_Hmap_traits@GPAUsGAME_AGENT_INFO@@V?$hash_compare@GU?$less@G@std@@@stdext@@V?$CustomAllocator@PAUsGAME_AGENT_INFO@@@util@@$0A@@stdext@@@stdext@@@util@@@2@0@Z 00409460 f i GameAgentInfoList.obj
 0001:00008500       ??0?$_Vector_iterator@U_List_position@?$_Hash@V?$_Hmap_traits@KPAVGameAgentServerSession@@V?$hash_compare@KU?$less@K@std@@@stdext@@V?$CustomAllocator@PAVGameAgentServerSession@@@util@@$0A@@stdext@@@stdext@@V?$CustomAllocator@U_List_position@?$_Hash@V?$_Hmap_traits@KPAVGameAgentServerSession@@V?$hash_compare@KU?$less@K@std@@@stdext@@V?$CustomAllocator@PAVGameAgentServerSession@@@util@@$0A@@stdext@@@stdext@@@util@@@std@@QAE@PAU_List_position@?$_Hash@V?$_Hmap_traits@KPAVGameAgentServerSession@@V?$hash_compare@KU?$less@K@std@@@stdext@@V?$CustomAllocator@PAVGameAgentServerSession@@@util@@$0A@@stdext@@@stdext@@PBV_Container_base_aux@1@@Z 00409500 f i GameAgentManager.obj
 0001:00008500       ??0?$_Vector_iterator@U_List_position@?$_Hash@V?$_Hmap_traits@GPAUsGAME_AGENT_INFO@@V?$hash_compare@GU?$less@G@std@@@stdext@@V?$CustomAllocator@PAUsGAME_AGENT_INFO@@@util@@$0A@@stdext@@@stdext@@V?$CustomAllocator@U_List_position@?$_Hash@V?$_Hmap_traits@GPAUsGAME_AGENT_INFO@@V?$hash_compare@GU?$less@G@std@@@stdext@@V?$CustomAllocator@PAUsGAME_AGENT_INFO@@@util@@$0A@@stdext@@@stdext@@@util@@@std@@QAE@PAU_List_position@?$_Hash@V?$_Hmap_traits@GPAUsGAME_AGENT_INFO@@V?$hash_compare@GU?$less@G@std@@@stdext@@V?$CustomAllocator@PAUsGAME_AGENT_INFO@@@util@@$0A@@stdext@@@stdext@@PBV_Container_base_aux@1@@Z 00409500 f i GameAgentInfoList.obj
 0001:00008520       ??9?$_Vector_const_iterator@U_List_position@?$_Hash@V?$_Hmap_traits@GPAUsGAME_AGENT_INFO@@V?$hash_compare@GU?$less@G@std@@@stdext@@V?$CustomAllocator@PAUsGAME_AGENT_INFO@@@util@@$0A@@stdext@@@stdext@@V?$CustomAllocator@U_List_position@?$_Hash@V?$_Hmap_traits@GPAUsGAME_AGENT_INFO@@V?$hash_compare@GU?$less@G@std@@@stdext@@V?$CustomAllocator@PAUsGAME_AGENT_INFO@@@util@@$0A@@stdext@@@stdext@@@util@@@std@@QBE_NABV01@@Z 00409520 f i GameAgentInfoList.obj
 0001:00008520       ??9?$_Vector_const_iterator@U_List_position@?$_Hash@V?$_Hmap_traits@KPAVGameAgentServerSession@@V?$hash_compare@KU?$less@K@std@@@stdext@@V?$CustomAllocator@PAVGameAgentServerSession@@@util@@$0A@@stdext@@@stdext@@V?$CustomAllocator@U_List_position@?$_Hash@V?$_Hmap_traits@KPAVGameAgentServerSession@@V?$hash_compare@KU?$less@K@std@@@stdext@@V?$CustomAllocator@PAVGameAgentServerSession@@@util@@$0A@@stdext@@@stdext@@@util@@@std@@QBE_NABV01@@Z 00409520 f i GameAgentManager.obj
 0001:00008550       ?capacity@?$vector@U_List_position@?$_Hash@V?$_Hmap_traits@GPAUsGAME_AGENT_INFO@@V?$hash_compare@GU?$less@G@std@@@stdext@@V?$CustomAllocator@PAUsGAME_AGENT_INFO@@@util@@$0A@@stdext@@@stdext@@V?$CustomAllocator@U_List_position@?$_Hash@V?$_Hmap_traits@GPAUsGAME_AGENT_INFO@@V?$hash_compare@GU?$less@G@std@@@stdext@@V?$CustomAllocator@PAUsGAME_AGENT_INFO@@@util@@$0A@@stdext@@@stdext@@@util@@@std@@QBEIXZ 00409550 f i GameAgentInfoList.obj
 0001:00008550       ?capacity@?$vector@U_List_position@?$_Hash@V?$_Hmap_traits@KPAVGameAgentServerSession@@V?$hash_compare@KU?$less@K@std@@@stdext@@V?$CustomAllocator@PAVGameAgentServerSession@@@util@@$0A@@stdext@@@stdext@@V?$CustomAllocator@U_List_position@?$_Hash@V?$_Hmap_traits@KPAVGameAgentServerSession@@V?$hash_compare@KU?$less@K@std@@@stdext@@V?$CustomAllocator@PAVGameAgentServerSession@@@util@@$0A@@stdext@@@stdext@@@util@@@std@@QBEIXZ 00409550 f i GameAgentManager.obj
 0001:00008590       ??0?$_Vector_const_iterator@U_List_position@?$_Hash@V?$_Hmap_traits@GPAUsGAME_AGENT_INFO@@V?$hash_compare@GU?$less@G@std@@@stdext@@V?$CustomAllocator@PAUsGAME_AGENT_INFO@@@util@@$0A@@stdext@@@stdext@@V?$CustomAllocator@U_List_position@?$_Hash@V?$_Hmap_traits@GPAUsGAME_AGENT_INFO@@V?$hash_compare@GU?$less@G@std@@@stdext@@V?$CustomAllocator@PAUsGAME_AGENT_INFO@@@util@@$0A@@stdext@@@stdext@@@util@@@std@@QAE@PAU_List_position@?$_Hash@V?$_Hmap_traits@GPAUsGAME_AGENT_INFO@@V?$hash_compare@GU?$less@G@std@@@stdext@@V?$CustomAllocator@PAUsGAME_AGENT_INFO@@@util@@$0A@@stdext@@@stdext@@PBV_Container_base_aux@1@@Z 00409590 f i GameAgentInfoList.obj
 0001:00008590       ??0?$_Vector_const_iterator@U_List_position@?$_Hash@V?$_Hmap_traits@KPAVGameAgentServerSession@@V?$hash_compare@KU?$less@K@std@@@stdext@@V?$CustomAllocator@PAVGameAgentServerSession@@@util@@$0A@@stdext@@@stdext@@V?$CustomAllocator@U_List_position@?$_Hash@V?$_Hmap_traits@KPAVGameAgentServerSession@@V?$hash_compare@KU?$less@K@std@@@stdext@@V?$CustomAllocator@PAVGameAgentServerSession@@@util@@$0A@@stdext@@@stdext@@@util@@@std@@QAE@PAU_List_position@?$_Hash@V?$_Hmap_traits@KPAVGameAgentServerSession@@V?$hash_compare@KU?$less@K@std@@@stdext@@V?$CustomAllocator@PAVGameAgentServerSession@@@util@@$0A@@stdext@@@stdext@@PBV_Container_base_aux@1@@Z 00409590 f i GameAgentManager.obj
 0001:000085e0       ??8?$_Vector_const_iterator@U_List_position@?$_Hash@V?$_Hmap_traits@KPAVGameAgentServerSession@@V?$hash_compare@KU?$less@K@std@@@stdext@@V?$CustomAllocator@PAVGameAgentServerSession@@@util@@$0A@@stdext@@@stdext@@V?$CustomAllocator@U_List_position@?$_Hash@V?$_Hmap_traits@KPAVGameAgentServerSession@@V?$hash_compare@KU?$less@K@std@@@stdext@@V?$CustomAllocator@PAVGameAgentServerSession@@@util@@$0A@@stdext@@@stdext@@@util@@@std@@QBE_NABV01@@Z 004095e0 f i GameAgentManager.obj
 0001:000085e0       ??8?$_Vector_const_iterator@U_List_position@?$_Hash@V?$_Hmap_traits@GPAUsGAME_AGENT_INFO@@V?$hash_compare@GU?$less@G@std@@@stdext@@V?$CustomAllocator@PAUsGAME_AGENT_INFO@@@util@@$0A@@stdext@@@stdext@@V?$CustomAllocator@U_List_position@?$_Hash@V?$_Hmap_traits@GPAUsGAME_AGENT_INFO@@V?$hash_compare@GU?$less@G@std@@@stdext@@V?$CustomAllocator@PAUsGAME_AGENT_INFO@@@util@@$0A@@stdext@@@stdext@@@util@@@std@@QBE_NABV01@@Z 004095e0 f i GameAgentInfoList.obj
 0001:00008630       ??0?$_Bidit@U?$pair@$$CBGPAUsGAME_AGENT_INFO@@@std@@HPBU12@ABU12@@std@@QAE@XZ 00409630 f i GameAgentInfoList.obj
 0001:00008630       ??0?$_Ranit@U_List_position@?$_Hash@V?$_Hmap_traits@KPAVGameAgentServerSession@@V?$hash_compare@KU?$less@K@std@@@stdext@@V?$CustomAllocator@PAVGameAgentServerSession@@@util@@$0A@@stdext@@@stdext@@HPBU123@ABU123@@std@@QAE@XZ 00409630 f i GameAgentManager.obj
 0001:00008630       ??0?$_Bidit@U?$pair@$$CBKPAVGameAgentServerSession@@@std@@HPBU12@ABU12@@std@@QAE@XZ 00409630 f i AuthServerSession.obj
 0001:00008630       ??0?$_Ranit@U_List_position@?$_Hash@V?$_Hmap_traits@GPAUsGAME_AGENT_INFO@@V?$hash_compare@GU?$less@G@std@@@stdext@@V?$CustomAllocator@PAUsGAME_AGENT_INFO@@@util@@$0A@@stdext@@@stdext@@HPBU123@ABU123@@std@@QAE@XZ 00409630 f i GameAgentInfoList.obj
 0001:00008650       ?destroy@?$CustomAllocator@PAU_Node@?$_List_nod@U?$pair@$$CBGPAUsGAME_AGENT_INFO@@@std@@V?$CustomAllocator@U?$pair@$$CBGPAUsGAME_AGENT_INFO@@@std@@@util@@@std@@@util@@QAEXPAPAU_Node@?$_List_nod@U?$pair@$$CBGPAUsGAME_AGENT_INFO@@@std@@V?$CustomAllocator@U?$pair@$$CBGPAUsGAME_AGENT_INFO@@@std@@@util@@@std@@@Z 00409650 f i GameAgentInfoList.obj
 0001:00008650       ?destroy@?$CustomAllocator@U_Node@?$_List_nod@U?$pair@$$CBGPAUsGAME_AGENT_INFO@@@std@@V?$CustomAllocator@U?$pair@$$CBGPAUsGAME_AGENT_INFO@@@std@@@util@@@std@@@util@@QAEXPAU_Node@?$_List_nod@U?$pair@$$CBGPAUsGAME_AGENT_INFO@@@std@@V?$CustomAllocator@U?$pair@$$CBGPAUsGAME_AGENT_INFO@@@std@@@util@@@std@@@Z 00409650 f i GameAgentInfoList.obj
 0001:00008650       ?destroy@?$CustomAllocator@PAU_Node@?$_List_nod@U?$pair@$$CBKPAVGameAgentServerSession@@@std@@V?$CustomAllocator@U?$pair@$$CBKPAVGameAgentServerSession@@@std@@@util@@@std@@@util@@QAEXPAPAU_Node@?$_List_nod@U?$pair@$$CBKPAVGameAgentServerSession@@@std@@V?$CustomAllocator@U?$pair@$$CBKPAVGameAgentServerSession@@@std@@@util@@@std@@@Z 00409650 f i GameAgentManager.obj
 0001:00008650       ?destroy@?$CustomAllocator@U_Node@?$_List_nod@U?$pair@$$CBKPAVGameAgentServerSession@@@std@@V?$CustomAllocator@U?$pair@$$CBKPAVGameAgentServerSession@@@std@@@util@@@std@@@util@@QAEXPAU_Node@?$_List_nod@U?$pair@$$CBKPAVGameAgentServerSession@@@std@@V?$CustomAllocator@U?$pair@$$CBKPAVGameAgentServerSession@@@std@@@util@@@std@@@Z 00409650 f i GameAgentManager.obj
 0001:00008650       ?destroy@?$CustomAllocator@U_List_position@?$_Hash@V?$_Hmap_traits@GPAUsGAME_AGENT_INFO@@V?$hash_compare@GU?$less@G@std@@@stdext@@V?$CustomAllocator@PAUsGAME_AGENT_INFO@@@util@@$0A@@stdext@@@stdext@@@util@@QAEXPAU_List_position@?$_Hash@V?$_Hmap_traits@GPAUsGAME_AGENT_INFO@@V?$hash_compare@GU?$less@G@std@@@stdext@@V?$CustomAllocator@PAUsGAME_AGENT_INFO@@@util@@$0A@@stdext@@@stdext@@@Z 00409650 f i GameAgentInfoList.obj
 0001:00008650       ?SetTypeName@IMemoryPoolFactoryImpl@internal@util@@UAEXPBD@Z 00409650 f i AuthAgentFrame.obj
 0001:00008650       ?destroy@?$CustomAllocator@U_List_position@?$_Hash@V?$_Hmap_traits@KPAVGameAgentServerSession@@V?$hash_compare@KU?$less@K@std@@@stdext@@V?$CustomAllocator@PAVGameAgentServerSession@@@util@@$0A@@stdext@@@stdext@@@util@@QAEXPAU_List_position@?$_Hash@V?$_Hmap_traits@KPAVGameAgentServerSession@@V?$hash_compare@KU?$less@K@std@@@stdext@@V?$CustomAllocator@PAVGameAgentServerSession@@@util@@$0A@@stdext@@@stdext@@@Z 00409650 f i GameAgentManager.obj
 0001:00008660       ?allocate@?$CustomAllocator@U_List_position@?$_Hash@V?$_Hmap_traits@GPAUsGAME_AGENT_INFO@@V?$hash_compare@GU?$less@G@std@@@stdext@@V?$CustomAllocator@PAUsGAME_AGENT_INFO@@@util@@$0A@@stdext@@@stdext@@@util@@QAEPAU_List_position@?$_Hash@V?$_Hmap_traits@GPAUsGAME_AGENT_INFO@@V?$hash_compare@GU?$less@G@std@@@stdext@@V?$CustomAllocator@PAUsGAME_AGENT_INFO@@@util@@$0A@@stdext@@@stdext@@IPBX@Z 00409660 f i GameAgentInfoList.obj
 0001:00008660       ?allocate@?$CustomAllocator@U_List_position@?$_Hash@V?$_Hmap_traits@KPAVGameAgentServerSession@@V?$hash_compare@KU?$less@K@std@@@stdext@@V?$CustomAllocator@PAVGameAgentServerSession@@@util@@$0A@@stdext@@@stdext@@@util@@QAEPAU_List_position@?$_Hash@V?$_Hmap_traits@KPAVGameAgentServerSession@@V?$hash_compare@KU?$less@K@std@@@stdext@@V?$CustomAllocator@PAVGameAgentServerSession@@@util@@$0A@@stdext@@@stdext@@IPBX@Z 00409660 f i GameAgentManager.obj
 0001:00008680       ?max_size@?$CustomAllocator@U?$pair@$$CBKPAVGameAgentServerSession@@@std@@@util@@QBEIXZ 00409680 f i GameAgentManager.obj
 0001:00008680       ?max_size@?$CustomAllocator@U_List_position@?$_Hash@V?$_Hmap_traits@GPAUsGAME_AGENT_INFO@@V?$hash_compare@GU?$less@G@std@@@stdext@@V?$CustomAllocator@PAUsGAME_AGENT_INFO@@@util@@$0A@@stdext@@@stdext@@@util@@QBEIXZ 00409680 f i GameAgentInfoList.obj
 0001:00008680       ?max_size@?$CustomAllocator@U_List_position@?$_Hash@V?$_Hmap_traits@KPAVGameAgentServerSession@@V?$hash_compare@KU?$less@K@std@@@stdext@@V?$CustomAllocator@PAVGameAgentServerSession@@@util@@$0A@@stdext@@@stdext@@@util@@QBEIXZ 00409680 f i GameAgentManager.obj
 0001:00008680       ?max_size@?$CustomAllocator@U?$pair@$$CBGPAUsGAME_AGENT_INFO@@@std@@@util@@QBEIXZ 00409680 f i GameAgentInfoList.obj
 0001:000086b0       ??$hash_value@K@stdext@@YAIABK@Z 004096b0 f i GameAgentManager.obj
 0001:000086c0       ??$?8U?$pair@$$CBGPAUsGAME_AGENT_INFO@@@std@@U01@@util@@YA_NABV?$CustomAllocator@U?$pair@$$CBGPAUsGAME_AGENT_INFO@@@std@@@0@0@Z 004096c0 f i GameAgentInfoList.obj
 0001:000086c0       ??$?8U?$pair@$$CBKPAVGameAgentServerSession@@@std@@U01@@util@@YA_NABV?$CustomAllocator@U?$pair@$$CBKPAVGameAgentServerSession@@@std@@@0@0@Z 004096c0 f i GameAgentManager.obj
 0001:000086d0       ??$unchecked_copy@PAU_List_position@?$_Hash@V?$_Hmap_traits@GPAUsGAME_AGENT_INFO@@V?$hash_compare@GU?$less@G@std@@@stdext@@V?$CustomAllocator@PAUsGAME_AGENT_INFO@@@util@@$0A@@stdext@@@stdext@@PAU123@@stdext@@YAPAU_List_position@?$_Hash@V?$_Hmap_traits@GPAUsGAME_AGENT_INFO@@V?$hash_compare@GU?$less@G@std@@@stdext@@V?$CustomAllocator@PAUsGAME_AGENT_INFO@@@util@@$0A@@stdext@@@0@PAU120@00@Z 004096d0 f i GameAgentInfoList.obj
 0001:000086d0       ??$unchecked_copy@PAU_List_position@?$_Hash@V?$_Hmap_traits@KPAVGameAgentServerSession@@V?$hash_compare@KU?$less@K@std@@@stdext@@V?$CustomAllocator@PAVGameAgentServerSession@@@util@@$0A@@stdext@@@stdext@@PAU123@@stdext@@YAPAU_List_position@?$_Hash@V?$_Hmap_traits@KPAVGameAgentServerSession@@V?$hash_compare@KU?$less@K@std@@@stdext@@V?$CustomAllocator@PAVGameAgentServerSession@@@util@@$0A@@stdext@@@0@PAU120@00@Z 004096d0 f i GameAgentManager.obj
 0001:00008740       ??$?0U?$pair@$$CBKPAVGameAgentServerSession@@@std@@@?$CustomAllocator@U_Node@?$_List_nod@U?$pair@$$CBKPAVGameAgentServerSession@@@std@@V?$CustomAllocator@U?$pair@$$CBKPAVGameAgentServerSession@@@std@@@util@@@std@@@util@@QAE@ABV?$CustomAllocator@U?$pair@$$CBKPAVGameAgentServerSession@@@std@@@1@@Z 00409740 f i GameAgentManager.obj
 0001:00008740       ??$?0U?$pair@$$CBKPAVGameAgentServerSession@@@std@@@?$CustomAllocator@V_Aux_cont@std@@@util@@QAE@ABV?$CustomAllocator@U?$pair@$$CBKPAVGameAgentServerSession@@@std@@@1@@Z 00409740 f i GameAgentManager.obj
 0001:00008740       ??$?0U?$pair@$$CBGPAUsGAME_AGENT_INFO@@@std@@@?$CustomAllocator@U_Node@?$_List_nod@U?$pair@$$CBGPAUsGAME_AGENT_INFO@@@std@@V?$CustomAllocator@U?$pair@$$CBGPAUsGAME_AGENT_INFO@@@std@@@util@@@std@@@util@@QAE@ABV?$CustomAllocator@U?$pair@$$CBGPAUsGAME_AGENT_INFO@@@std@@@1@@Z 00409740 f i GameAgentInfoList.obj
 0001:00008740       ??$?0U_List_position@?$_Hash@V?$_Hmap_traits@GPAUsGAME_AGENT_INFO@@V?$hash_compare@GU?$less@G@std@@@stdext@@V?$CustomAllocator@PAUsGAME_AGENT_INFO@@@util@@$0A@@stdext@@@stdext@@@?$CustomAllocator@V_Aux_cont@std@@@util@@QAE@ABV?$CustomAllocator@U_List_position@?$_Hash@V?$_Hmap_traits@GPAUsGAME_AGENT_INFO@@V?$hash_compare@GU?$less@G@std@@@stdext@@V?$CustomAllocator@PAUsGAME_AGENT_INFO@@@util@@$0A@@stdext@@@stdext@@@1@@Z 00409740 f i GameAgentInfoList.obj
 0001:00008740       ??$?0U?$pair@$$CBGPAUsGAME_AGENT_INFO@@@std@@@?$CustomAllocator@V_Aux_cont@std@@@util@@QAE@ABV?$CustomAllocator@U?$pair@$$CBGPAUsGAME_AGENT_INFO@@@std@@@1@@Z 00409740 f i GameAgentInfoList.obj
 0001:00008740       ??$?0U_List_position@?$_Hash@V?$_Hmap_traits@KPAVGameAgentServerSession@@V?$hash_compare@KU?$less@K@std@@@stdext@@V?$CustomAllocator@PAVGameAgentServerSession@@@util@@$0A@@stdext@@@stdext@@@?$CustomAllocator@V_Aux_cont@std@@@util@@QAE@ABV?$CustomAllocator@U_List_position@?$_Hash@V?$_Hmap_traits@KPAVGameAgentServerSession@@V?$hash_compare@KU?$less@K@std@@@stdext@@V?$CustomAllocator@PAVGameAgentServerSession@@@util@@$0A@@stdext@@@stdext@@@1@@Z 00409740 f i GameAgentManager.obj
 0001:00008740       ??0?$allocator@D@std@@QAE@ABV01@@Z 00409740 f i GameAgentInfoList.obj
 0001:00008740       ??$?0U?$pair@$$CBKPAVGameAgentServerSession@@@std@@@?$CustomAllocator@PAU_Node@?$_List_nod@U?$pair@$$CBKPAVGameAgentServerSession@@@std@@V?$CustomAllocator@U?$pair@$$CBKPAVGameAgentServerSession@@@std@@@util@@@std@@@util@@QAE@ABV?$CustomAllocator@U?$pair@$$CBKPAVGameAgentServerSession@@@std@@@1@@Z 00409740 f i GameAgentManager.obj
 0001:00008740       ??$?0U?$pair@$$CBKPAVGameAgentServerSession@@@std@@@?$CustomAllocator@U_List_position@?$_Hash@V?$_Hmap_traits@KPAVGameAgentServerSession@@V?$hash_compare@KU?$less@K@std@@@stdext@@V?$CustomAllocator@PAVGameAgentServerSession@@@util@@$0A@@stdext@@@stdext@@@util@@QAE@ABV?$CustomAllocator@U?$pair@$$CBKPAVGameAgentServerSession@@@std@@@1@@Z 00409740 f i GameAgentManager.obj
 0001:00008740       ??$?0U?$pair@$$CBGPAUsGAME_AGENT_INFO@@@std@@@?$CustomAllocator@PAU_Node@?$_List_nod@U?$pair@$$CBGPAUsGAME_AGENT_INFO@@@std@@V?$CustomAllocator@U?$pair@$$CBGPAUsGAME_AGENT_INFO@@@std@@@util@@@std@@@util@@QAE@ABV?$CustomAllocator@U?$pair@$$CBGPAUsGAME_AGENT_INFO@@@std@@@1@@Z 00409740 f i GameAgentInfoList.obj
 0001:00008740       ??$?0U?$pair@$$CBGPAUsGAME_AGENT_INFO@@@std@@@?$CustomAllocator@U_List_position@?$_Hash@V?$_Hmap_traits@GPAUsGAME_AGENT_INFO@@V?$hash_compare@GU?$less@G@std@@@stdext@@V?$CustomAllocator@PAUsGAME_AGENT_INFO@@@util@@$0A@@stdext@@@stdext@@@util@@QAE@ABV?$CustomAllocator@U?$pair@$$CBGPAUsGAME_AGENT_INFO@@@std@@@1@@Z 00409740 f i GameAgentInfoList.obj
 0001:00008750       ??$_Unchecked_move_backward@PAU_List_position@?$_Hash@V?$_Hmap_traits@GPAUsGAME_AGENT_INFO@@V?$hash_compare@GU?$less@G@std@@@stdext@@V?$CustomAllocator@PAUsGAME_AGENT_INFO@@@util@@$0A@@stdext@@@stdext@@PAU123@@stdext@@YAPAU_List_position@?$_Hash@V?$_Hmap_traits@GPAUsGAME_AGENT_INFO@@V?$hash_compare@GU?$less@G@std@@@stdext@@V?$CustomAllocator@PAUsGAME_AGENT_INFO@@@util@@$0A@@stdext@@@0@PAU120@00@Z 00409750 f i GameAgentInfoList.obj
 0001:00008750       ??$_Unchecked_move_backward@PAU_List_position@?$_Hash@V?$_Hmap_traits@KPAVGameAgentServerSession@@V?$hash_compare@KU?$less@K@std@@@stdext@@V?$CustomAllocator@PAVGameAgentServerSession@@@util@@$0A@@stdext@@@stdext@@PAU123@@stdext@@YAPAU_List_position@?$_Hash@V?$_Hmap_traits@KPAVGameAgentServerSession@@V?$hash_compare@KU?$less@K@std@@@stdext@@V?$CustomAllocator@PAVGameAgentServerSession@@@util@@$0A@@stdext@@@0@PAU120@00@Z 00409750 f i GameAgentManager.obj
 0001:000087c0       ??$_Iter_random@PAU_List_position@?$_Hash@V?$_Hmap_traits@GPAUsGAME_AGENT_INFO@@V?$hash_compare@GU?$less@G@std@@@stdext@@V?$CustomAllocator@PAUsGAME_AGENT_INFO@@@util@@$0A@@stdext@@@stdext@@PAU123@@std@@YA?AUrandom_access_iterator_tag@0@ABQAU_List_position@?$_Hash@V?$_Hmap_traits@GPAUsGAME_AGENT_INFO@@V?$hash_compare@GU?$less@G@std@@@stdext@@V?$CustomAllocator@PAUsGAME_AGENT_INFO@@@util@@$0A@@stdext@@@stdext@@0@Z 004097c0 f i GameAgentInfoList.obj
 0001:000087c0       ??$_Iter_random@PAU_List_position@?$_Hash@V?$_Hmap_traits@KPAVGameAgentServerSession@@V?$hash_compare@KU?$less@K@std@@@stdext@@V?$CustomAllocator@PAVGameAgentServerSession@@@util@@$0A@@stdext@@@stdext@@PAU123@@std@@YA?AUrandom_access_iterator_tag@0@ABQAU_List_position@?$_Hash@V?$_Hmap_traits@KPAVGameAgentServerSession@@V?$hash_compare@KU?$less@K@std@@@stdext@@V?$CustomAllocator@PAVGameAgentServerSession@@@util@@$0A@@stdext@@@stdext@@0@Z 004097c0 f i GameAgentManager.obj
 0001:000087c0       ??$_Iter_cat@V?$_Const_iterator@$00@?$list@U?$pair@$$CBGPAUsGAME_AGENT_INFO@@@std@@V?$CustomAllocator@U?$pair@$$CBGPAUsGAME_AGENT_INFO@@@std@@@util@@@std@@@std@@YA?AUbidirectional_iterator_tag@0@ABV?$_Const_iterator@$00@?$list@U?$pair@$$CBGPAUsGAME_AGENT_INFO@@@std@@V?$CustomAllocator@U?$pair@$$CBGPAUsGAME_AGENT_INFO@@@std@@@util@@@0@@Z 004097c0 f i GameAgentInfoList.obj
 0001:000087c0       ??$_Iter_cat@V?$_Const_iterator@$00@?$list@U?$pair@$$CBKPAVGameAgentServerSession@@@std@@V?$CustomAllocator@U?$pair@$$CBKPAVGameAgentServerSession@@@std@@@util@@@std@@@std@@YA?AUbidirectional_iterator_tag@0@ABV?$_Const_iterator@$00@?$list@U?$pair@$$CBKPAVGameAgentServerSession@@@std@@V?$CustomAllocator@U?$pair@$$CBKPAVGameAgentServerSession@@@std@@@util@@@0@@Z 004097c0 f i GameAgentManager.obj
 0001:000087d0       ??$_Move_cat@PAU_List_position@?$_Hash@V?$_Hmap_traits@KPAVGameAgentServerSession@@V?$hash_compare@KU?$less@K@std@@@stdext@@V?$CustomAllocator@PAVGameAgentServerSession@@@util@@$0A@@stdext@@@stdext@@@std@@YA?AU_Undefined_move_tag@0@ABQAU_List_position@?$_Hash@V?$_Hmap_traits@KPAVGameAgentServerSession@@V?$hash_compare@KU?$less@K@std@@@stdext@@V?$CustomAllocator@PAVGameAgentServerSession@@@util@@$0A@@stdext@@@stdext@@@Z 004097d0 f i GameAgentManager.obj
 0001:000087d0       ??$_Char_traits_cat@U?$char_traits@D@std@@@std@@YA?AU_Secure_char_traits_tag@0@XZ 004097d0 f i GameAgentInfoList.obj
 0001:000087d0       ??$_Ptr_cat@PAU_List_position@?$_Hash@V?$_Hmap_traits@GPAUsGAME_AGENT_INFO@@V?$hash_compare@GU?$less@G@std@@@stdext@@V?$CustomAllocator@PAUsGAME_AGENT_INFO@@@util@@$0A@@stdext@@@stdext@@PAU123@@std@@YA?AU_Nonscalar_ptr_iterator_tag@0@AAPAU_List_position@?$_Hash@V?$_Hmap_traits@GPAUsGAME_AGENT_INFO@@V?$hash_compare@GU?$less@G@std@@@stdext@@V?$CustomAllocator@PAUsGAME_AGENT_INFO@@@util@@$0A@@stdext@@@stdext@@0@Z 004097d0 f i GameAgentInfoList.obj
 0001:000087d0       ??$_Move_cat@PAU_List_position@?$_Hash@V?$_Hmap_traits@GPAUsGAME_AGENT_INFO@@V?$hash_compare@GU?$less@G@std@@@stdext@@V?$CustomAllocator@PAUsGAME_AGENT_INFO@@@util@@$0A@@stdext@@@stdext@@@std@@YA?AU_Undefined_move_tag@0@ABQAU_List_position@?$_Hash@V?$_Hmap_traits@GPAUsGAME_AGENT_INFO@@V?$hash_compare@GU?$less@G@std@@@stdext@@V?$CustomAllocator@PAUsGAME_AGENT_INFO@@@util@@$0A@@stdext@@@stdext@@@Z 004097d0 f i GameAgentInfoList.obj
 0001:000087d0       ??$_Ptr_cat@PAU_List_position@?$_Hash@V?$_Hmap_traits@KPAVGameAgentServerSession@@V?$hash_compare@KU?$less@K@std@@@stdext@@V?$CustomAllocator@PAVGameAgentServerSession@@@util@@$0A@@stdext@@@stdext@@PAU123@@std@@YA?AU_Nonscalar_ptr_iterator_tag@0@AAPAU_List_position@?$_Hash@V?$_Hmap_traits@KPAVGameAgentServerSession@@V?$hash_compare@KU?$less@K@std@@@stdext@@V?$CustomAllocator@PAVGameAgentServerSession@@@util@@$0A@@stdext@@@stdext@@0@Z 004097d0 f i GameAgentManager.obj
 0001:000087e0       ??$_Checked_base@PAU_List_position@?$_Hash@V?$_Hmap_traits@GPAUsGAME_AGENT_INFO@@V?$hash_compare@GU?$less@G@std@@@stdext@@V?$CustomAllocator@PAUsGAME_AGENT_INFO@@@util@@$0A@@stdext@@@stdext@@@std@@YAPAU_List_position@?$_Hash@V?$_Hmap_traits@GPAUsGAME_AGENT_INFO@@V?$hash_compare@GU?$less@G@std@@@stdext@@V?$CustomAllocator@PAUsGAME_AGENT_INFO@@@util@@$0A@@stdext@@@stdext@@AAPAU123@@Z 004097e0 f i GameAgentInfoList.obj
 0001:000087e0       ??$_Checked_base@PAU_List_position@?$_Hash@V?$_Hmap_traits@KPAVGameAgentServerSession@@V?$hash_compare@KU?$less@K@std@@@stdext@@V?$CustomAllocator@PAVGameAgentServerSession@@@util@@$0A@@stdext@@@stdext@@@std@@YAPAU_List_position@?$_Hash@V?$_Hmap_traits@KPAVGameAgentServerSession@@V?$hash_compare@KU?$less@K@std@@@stdext@@V?$CustomAllocator@PAVGameAgentServerSession@@@util@@$0A@@stdext@@@stdext@@AAPAU123@@Z 004097e0 f i GameAgentManager.obj
 0001:00008800       ??$_Copy_opt@PAU_List_position@?$_Hash@V?$_Hmap_traits@GPAUsGAME_AGENT_INFO@@V?$hash_compare@GU?$less@G@std@@@stdext@@V?$CustomAllocator@PAUsGAME_AGENT_INFO@@@util@@$0A@@stdext@@@stdext@@PAU123@Uforward_iterator_tag@std@@@std@@YAPAU_List_position@?$_Hash@V?$_Hmap_traits@GPAUsGAME_AGENT_INFO@@V?$hash_compare@GU?$less@G@std@@@stdext@@V?$CustomAllocator@PAUsGAME_AGENT_INFO@@@util@@$0A@@stdext@@@stdext@@PAU123@00Uforward_iterator_tag@0@U_Nonscalar_ptr_iterator_tag@0@U_Range_checked_iterator_tag@0@@Z 00409800 f i GameAgentInfoList.obj
 0001:00008800       ??$_Copy_opt@PAU_List_position@?$_Hash@V?$_Hmap_traits@KPAVGameAgentServerSession@@V?$hash_compare@KU?$less@K@std@@@stdext@@V?$CustomAllocator@PAVGameAgentServerSession@@@util@@$0A@@stdext@@@stdext@@PAU123@Uforward_iterator_tag@std@@@std@@YAPAU_List_position@?$_Hash@V?$_Hmap_traits@KPAVGameAgentServerSession@@V?$hash_compare@KU?$less@K@std@@@stdext@@V?$CustomAllocator@PAVGameAgentServerSession@@@util@@$0A@@stdext@@@stdext@@PAU123@00Uforward_iterator_tag@0@U_Nonscalar_ptr_iterator_tag@0@U_Range_checked_iterator_tag@0@@Z 00409800 f i GameAgentManager.obj
 0001:00008840       ??$_Copy_backward_opt@PAU_List_position@?$_Hash@V?$_Hmap_traits@GPAUsGAME_AGENT_INFO@@V?$hash_compare@GU?$less@G@std@@@stdext@@V?$CustomAllocator@PAUsGAME_AGENT_INFO@@@util@@$0A@@stdext@@@stdext@@PAU123@Uforward_iterator_tag@std@@@std@@YAPAU_List_position@?$_Hash@V?$_Hmap_traits@GPAUsGAME_AGENT_INFO@@V?$hash_compare@GU?$less@G@std@@@stdext@@V?$CustomAllocator@PAUsGAME_AGENT_INFO@@@util@@$0A@@stdext@@@stdext@@PAU123@00Uforward_iterator_tag@0@U_Nonscalar_ptr_iterator_tag@0@U_Range_checked_iterator_tag@0@@Z 00409840 f i GameAgentInfoList.obj
 0001:00008840       ??$_Copy_backward_opt@PAU_List_position@?$_Hash@V?$_Hmap_traits@KPAVGameAgentServerSession@@V?$hash_compare@KU?$less@K@std@@@stdext@@V?$CustomAllocator@PAVGameAgentServerSession@@@util@@$0A@@stdext@@@stdext@@PAU123@Uforward_iterator_tag@std@@@std@@YAPAU_List_position@?$_Hash@V?$_Hmap_traits@KPAVGameAgentServerSession@@V?$hash_compare@KU?$less@K@std@@@stdext@@V?$CustomAllocator@PAVGameAgentServerSession@@@util@@$0A@@stdext@@@stdext@@PAU123@00Uforward_iterator_tag@0@U_Nonscalar_ptr_iterator_tag@0@U_Range_checked_iterator_tag@0@@Z 00409840 f i GameAgentManager.obj
 0001:00008880       ?Finalize@@YAXXZ           00409880 f   extreme:eXtreme.obj
 0001:000088a0       ??1SolarSimpleConsole@@QAE@XZ 004098a0 f   utility_s:SolarSimpleConsole.obj
 0001:000088a0       ?DefaultErrorHandler@@YAXKPAD@Z 004098a0 f   extreme:eXtreme.obj
 0001:000088b0       ?Initialize@eXtreme@@YA_NPADP6AXK0@Z@Z 004098b0 f   extreme:eXtreme.obj
 0001:00008970       ?Init@ServerTimeInfoPerFrame@util@@QAEXXZ 00409970 f   servercommon:ServerFrame.obj
 0001:000089b0       ?Update@ServerTimeInfoPerFrame@util@@QAEXXZ 004099b0 f   servercommon:ServerFrame.obj
 0001:00008aa0       ?IsListening@ServerFrame@@QAEHK@Z 00409aa0 f   servercommon:ServerFrame.obj
 0001:00008ab0       ?SuspendListenThread@ServerFrame@@QAEXK@Z 00409ab0 f   servercommon:ServerFrame.obj
 0001:00008ac0       ?ResumeListenThread@ServerFrame@@QAEXK@Z 00409ac0 f   servercommon:ServerFrame.obj
 0001:00008ad0       ?Listen@ServerFrame@@IAEXKPBDG@Z 00409ad0 f   servercommon:ServerFrame.obj
 0001:00008b40       ?UpdateAppTitle@ServerFrame@@QAEXXZ 00409b40 f   servercommon:ServerFrame.obj
 0001:00008b90       ?FrameCheck@ServerFrame@@IAEXXZ 00409b90 f   servercommon:ServerFrame.obj
 0001:00008c20       ?SendServerType@ServerFrame@@UAEXPAVServerSession@@@Z 00409c20 f   servercommon:ServerFrame.obj
 0001:00008c50       ?RunUnitTest@ServerFrame@@IAEXXZ 00409c50 f   servercommon:ServerFrame.obj
 0001:00008d90       ?Listen@ServerFrame@@QAEXK@Z 00409d90 f   servercommon:ServerFrame.obj
 0001:00008dd0       ?Connect@ServerFrame@@IAEXPAVServerSession@@@Z 00409dd0 f   servercommon:ServerFrame.obj
 0001:00008e90       ?MaintainConnection@ServerFrame@@IAEXXZ 00409e90 f   servercommon:ServerFrame.obj
 0001:00008f60       ?_Update@ServerFrame@@AAEHXZ 00409f60 f   servercommon:ServerFrame.obj
 0001:00009080       ?DisplayAppInfo@ServerFrame@@IAEXH@Z 0040a080 f   servercommon:ServerFrame.obj
 0001:00009250       ?DisplayServerList@ServerFrame@@IAEXXZ 0040a250 f   servercommon:ServerFrame.obj
 0001:00009420       ?SendToSessionType@ServerFrame@@QAEXW4eSERVER_TYPE@@PAUMSG_BASE@@GK@Z 0040a420 f   servercommon:ServerFrame.obj
 0001:000094d0       ?ProcessConsole@ServerFrame@@IAEHXZ 0040a4d0 f   servercommon:ServerFrame.obj
 0001:00009560       ?SendToSessionType@ServerFrame@@QAEXW4eSERVER_TYPE@@PAUMSG_BASE_INTERNAL@@GK@Z 0040a560 f   servercommon:ServerFrame.obj
 0001:00009570       ?SendToSession@ServerFrame@@QAEHKPAUMSG_BASE@@G@Z 0040a570 f   servercommon:ServerFrame.obj
 0001:00009600       ??1ServerFrame@@UAE@XZ     0040a600 f   servercommon:ServerFrame.obj
 0001:000096f0       ?DoProcess@ServerFrame@@QAEXXZ 0040a6f0 f   servercommon:ServerFrame.obj
 0001:00009730       ?DoUpdate@ServerFrame@@QAEHXZ 0040a730 f   servercommon:ServerFrame.obj
 0001:00009760       ?SendToSession@ServerFrame@@QAEHKPAUMSG_BASE_INTERNAL@@G@Z 0040a760 f   servercommon:ServerFrame.obj
 0001:00009770       ?DoRelease@ServerFrame@@QAEXXZ 0040a770 f   servercommon:ServerFrame.obj
 0001:00009850       ?AddConnectionlessConnector@ServerFrame@@QAEXPAVServerSession@@@Z 0040a850 f   servercommon:ServerFrame.obj
 0001:000098c0       ??0ServerFrame@@QAE@XZ     0040a8c0 f   servercommon:ServerFrame.obj
 0001:000099d0       ?InitConnectSession@ServerFrame@@QAEPAVServerSession@@W4eSERVER_TYPE@@PADG@Z 0040a9d0 f   servercommon:ServerFrame.obj
 0001:00009a60       ?Connect@ServerFrame@@IAEXH@Z 0040aa60 f   servercommon:ServerFrame.obj
 0001:00009b90       ?DoInit@ServerFrame@@QAEHPBDP6APAVNetworkObject@@XZP6AXPAV2@@Z3133@Z 0040ab90 f   servercommon:ServerFrame.obj
 0001:00009f90       ??$_Uninit_copy@PAU_List_position@?$_Hash@V?$_Hmap_traits@KPAVServerSession@@V?$hash_compare@KU?$less@K@std@@@stdext@@V?$CustomAllocator@PAVServerSession@@@util@@$0A@@stdext@@@stdext@@PAU123@V?$CustomAllocator@U_List_position@?$_Hash@V?$_Hmap_traits@KPAVServerSession@@V?$hash_compare@KU?$less@K@std@@@stdext@@V?$CustomAllocator@PAVServerSession@@@util@@$0A@@stdext@@@stdext@@@util@@@std@@YAPAU_List_position@?$_Hash@V?$_Hmap_traits@KPAVServerSession@@V?$hash_compare@KU?$less@K@std@@@stdext@@V?$CustomAllocator@PAVServerSession@@@util@@$0A@@stdext@@@stdext@@PAU123@00AAV?$CustomAllocator@U_List_position@?$_Hash@V?$_Hmap_traits@KPAVServerSession@@V?$hash_compare@KU?$less@K@std@@@stdext@@V?$CustomAllocator@PAVServerSession@@@util@@$0A@@stdext@@@stdext@@@util@@U_Nonscalar_ptr_iterator_tag@0@U_Range_checked_iterator_tag@0@@Z 0040af90 f i servercommon:ServerFrame.obj
 0001:00009fc0       ?_Tidy@?$list@U?$pair@$$CBKPAVServerSession@@@std@@V?$CustomAllocator@U?$pair@$$CBKPAVServerSession@@@std@@@util@@@std@@IAEXXZ 0040afc0 f i servercommon:ServerFrame.obj
 0001:00009fc0       ?_Tidy@?$list@PAVSession@@V?$RedirectedAllocator@PAVSession@@@module@@@std@@IAEXXZ 0040afc0 f i Network:SessionList.obj
 0001:0000a010       ?_Buynode@?$list@U?$pair@$$CBKPAVServerSession@@@std@@V?$CustomAllocator@U?$pair@$$CBKPAVServerSession@@@std@@@util@@@std@@IAEPAU_Node@?$_List_nod@U?$pair@$$CBKPAVServerSession@@@std@@V?$CustomAllocator@U?$pair@$$CBKPAVServerSession@@@std@@@util@@@2@XZ 0040b010 f i servercommon:ServerFrame.obj
 0001:0000a030       ?_Buynode@?$list@U?$pair@$$CBKPAVServerSession@@@std@@V?$CustomAllocator@U?$pair@$$CBKPAVServerSession@@@std@@@util@@@std@@IAEPAU_Node@?$_List_nod@U?$pair@$$CBKPAVServerSession@@@std@@V?$CustomAllocator@U?$pair@$$CBKPAVServerSession@@@std@@@util@@@2@PAU342@0ABU?$pair@$$CBKPAVServerSession@@@2@@Z 0040b030 f i servercommon:ServerFrame.obj
 0001:0000a070       ??$_Uninit_fill_n@PAU_List_position@?$_Hash@V?$_Hmap_traits@KPAVServerSession@@V?$hash_compare@KU?$less@K@std@@@stdext@@V?$CustomAllocator@PAVServerSession@@@util@@$0A@@stdext@@@stdext@@IU123@V?$CustomAllocator@U_List_position@?$_Hash@V?$_Hmap_traits@KPAVServerSession@@V?$hash_compare@KU?$less@K@std@@@stdext@@V?$CustomAllocator@PAVServerSession@@@util@@$0A@@stdext@@@stdext@@@util@@@std@@YAXPAU_List_position@?$_Hash@V?$_Hmap_traits@KPAVServerSession@@V?$hash_compare@KU?$less@K@std@@@stdext@@V?$CustomAllocator@PAVServerSession@@@util@@$0A@@stdext@@@stdext@@IABU123@AAV?$CustomAllocator@U_List_position@?$_Hash@V?$_Hmap_traits@KPAVServerSession@@V?$hash_compare@KU?$less@K@std@@@stdext@@V?$CustomAllocator@PAVServerSession@@@util@@$0A@@stdext@@@stdext@@@util@@U_Nonscalar_ptr_iterator_tag@0@U_Range_checked_iterator_tag@0@@Z 0040b070 f i servercommon:ServerFrame.obj
 0001:0000a0a0       ?_Hashval@?$_Hash@V?$_Hmap_traits@KPAVServerSession@@V?$hash_compare@KU?$less@K@std@@@stdext@@V?$CustomAllocator@PAVServerSession@@@util@@$0A@@stdext@@@stdext@@IBEIABK@Z 0040b0a0 f i servercommon:ServerFrame.obj
 0001:0000a100       ??$fill@PAU_List_position@?$_Hash@V?$_Hmap_traits@KPAVServerSession@@V?$hash_compare@KU?$less@K@std@@@stdext@@V?$CustomAllocator@PAVServerSession@@@util@@$0A@@stdext@@@stdext@@U123@@std@@YAXPAU_List_position@?$_Hash@V?$_Hmap_traits@KPAVServerSession@@V?$hash_compare@KU?$less@K@std@@@stdext@@V?$CustomAllocator@PAVServerSession@@@util@@$0A@@stdext@@@stdext@@0ABU123@@Z 0040b100 f i servercommon:ServerFrame.obj
 0001:0000a130       ?_Ufill@?$vector@U_List_position@?$_Hash@V?$_Hmap_traits@KPAVServerSession@@V?$hash_compare@KU?$less@K@std@@@stdext@@V?$CustomAllocator@PAVServerSession@@@util@@$0A@@stdext@@@stdext@@V?$CustomAllocator@U_List_position@?$_Hash@V?$_Hmap_traits@KPAVServerSession@@V?$hash_compare@KU?$less@K@std@@@stdext@@V?$CustomAllocator@PAVServerSession@@@util@@$0A@@stdext@@@stdext@@@util@@@std@@IAEPAU_List_position@?$_Hash@V?$_Hmap_traits@KPAVServerSession@@V?$hash_compare@KU?$less@K@std@@@stdext@@V?$CustomAllocator@PAVServerSession@@@util@@$0A@@stdext@@@stdext@@PAU345@IABU345@@Z 0040b130 f i servercommon:ServerFrame.obj
 0001:0000a170       ??$_Unchecked_move_backward@PAU_List_position@?$_Hash@V?$_Hmap_traits@KPAVServerSession@@V?$hash_compare@KU?$less@K@std@@@stdext@@V?$CustomAllocator@PAVServerSession@@@util@@$0A@@stdext@@@stdext@@PAU123@@stdext@@YAPAU_List_position@?$_Hash@V?$_Hmap_traits@KPAVServerSession@@V?$hash_compare@KU?$less@K@std@@@stdext@@V?$CustomAllocator@PAVServerSession@@@util@@$0A@@stdext@@@0@PAU120@00@Z 0040b170 f i servercommon:ServerFrame.obj
 0001:0000a1b0       ?erase@?$list@PAVSession@@V?$RedirectedAllocator@PAVSession@@@module@@@std@@QAE?AV?$_Iterator@$00@12@V?$_Const_iterator@$00@12@@Z 0040b1b0 f i Network:IoHandler.obj
 0001:0000a1b0       ?erase@?$list@U?$pair@$$CBKPAVServerSession@@@std@@V?$CustomAllocator@U?$pair@$$CBKPAVServerSession@@@std@@@util@@@std@@QAE?AV?$_Iterator@$00@12@V?$_Const_iterator@$00@12@@Z 0040b1b0 f i servercommon:ServerFrame.obj
 0001:0000a230       ??$_Umove@PAU_List_position@?$_Hash@V?$_Hmap_traits@KPAVServerSession@@V?$hash_compare@KU?$less@K@std@@@stdext@@V?$CustomAllocator@PAVServerSession@@@util@@$0A@@stdext@@@stdext@@@?$vector@U_List_position@?$_Hash@V?$_Hmap_traits@KPAVServerSession@@V?$hash_compare@KU?$less@K@std@@@stdext@@V?$CustomAllocator@PAVServerSession@@@util@@$0A@@stdext@@@stdext@@V?$CustomAllocator@U_List_position@?$_Hash@V?$_Hmap_traits@KPAVServerSession@@V?$hash_compare@KU?$less@K@std@@@stdext@@V?$CustomAllocator@PAVServerSession@@@util@@$0A@@stdext@@@stdext@@@util@@@std@@IAEPAU_List_position@?$_Hash@V?$_Hmap_traits@KPAVServerSession@@V?$hash_compare@KU?$less@K@std@@@stdext@@V?$CustomAllocator@PAVServerSession@@@util@@$0A@@stdext@@@stdext@@PAU234@00@Z 0040b230 f i servercommon:ServerFrame.obj
 0001:0000a260       ?lower_bound@?$_Hash@V?$_Hmap_traits@KPAVServerSession@@V?$hash_compare@KU?$less@K@std@@@stdext@@V?$CustomAllocator@PAVServerSession@@@util@@$0A@@stdext@@@stdext@@QAE?AV?$_Iterator@$00@?$list@U?$pair@$$CBKPAVServerSession@@@std@@V?$CustomAllocator@U?$pair@$$CBKPAVServerSession@@@std@@@util@@@std@@ABK@Z 0040b260 f i servercommon:ServerFrame.obj
 0001:0000a3b0       ??1?$list@PAVSession@@V?$RedirectedAllocator@PAVSession@@@module@@@std@@QAE@XZ 0040b3b0 f i Network:SessionList.obj
 0001:0000a3b0       ??1?$list@U?$pair@$$CBKPAVServerSession@@@std@@V?$CustomAllocator@U?$pair@$$CBKPAVServerSession@@@std@@@util@@@std@@QAE@XZ 0040b3b0 f i servercommon:ServerFrame.obj
 0001:0000a3d0       ??1?$vector@U_List_position@?$_Hash@V?$_Hmap_traits@KPAVServerSession@@V?$hash_compare@KU?$less@K@std@@@stdext@@V?$CustomAllocator@PAVServerSession@@@util@@$0A@@stdext@@@stdext@@V?$CustomAllocator@U_List_position@?$_Hash@V?$_Hmap_traits@KPAVServerSession@@V?$hash_compare@KU?$less@K@std@@@stdext@@V?$CustomAllocator@PAVServerSession@@@util@@$0A@@stdext@@@stdext@@@util@@@std@@QAE@XZ 0040b3d0 f i servercommon:ServerFrame.obj
 0001:0000a410       ??0?$list@U?$pair@$$CBKPAVServerSession@@@std@@V?$CustomAllocator@U?$pair@$$CBKPAVServerSession@@@std@@@util@@@std@@QAE@ABV?$CustomAllocator@U?$pair@$$CBKPAVServerSession@@@std@@@util@@@Z 0040b410 f i servercommon:ServerFrame.obj
 0001:0000a480       ?erase@?$vector@U_List_position@?$_Hash@V?$_Hmap_traits@KPAVServerSession@@V?$hash_compare@KU?$less@K@std@@@stdext@@V?$CustomAllocator@PAVServerSession@@@util@@$0A@@stdext@@@stdext@@V?$CustomAllocator@U_List_position@?$_Hash@V?$_Hmap_traits@KPAVServerSession@@V?$hash_compare@KU?$less@K@std@@@stdext@@V?$CustomAllocator@PAVServerSession@@@util@@$0A@@stdext@@@stdext@@@util@@@std@@QAE?AV?$_Vector_iterator@U_List_position@?$_Hash@V?$_Hmap_traits@KPAVServerSession@@V?$hash_compare@KU?$less@K@std@@@stdext@@V?$CustomAllocator@PAVServerSession@@@util@@$0A@@stdext@@@stdext@@V?$CustomAllocator@U_List_position@?$_Hash@V?$_Hmap_traits@KPAVServerSession@@V?$hash_compare@KU?$less@K@std@@@stdext@@V?$CustomAllocator@PAVServerSession@@@util@@$0A@@stdext@@@stdext@@@util@@@2@V?$_Vector_const_iterator@U_List_position@?$_Hash@V?$_Hmap_traits@KPAVServerSession@@V?$hash_compare@KU?$less@K@std@@@stdext@@V?$CustomAllocator@PAVServerSession@@@util@@$0A@@stdext@@@stdext@@V?$CustomAllocator@U_List_position@?$_Hash@V?$_Hmap_traits@KPAVServerSession@@V?$hash_compare@KU?$less@K@std@@@stdext@@V?$CustomAllocator@PAVServerSession@@@util@@$0A@@stdext@@@stdext@@@util@@@2@0@Z 0040b480 f i servercommon:ServerFrame.obj
 0001:0000a520       ?_Incsize@?$list@U?$pair@$$CBKPAVServerSession@@@std@@V?$CustomAllocator@U?$pair@$$CBKPAVServerSession@@@std@@@util@@@std@@IAEXI@Z 0040b520 f i servercommon:ServerFrame.obj
 0001:0000a5c0       ?_Xlen@?$vector@U_List_position@?$_Hash@V?$_Hmap_traits@KPAVServerSession@@V?$hash_compare@KU?$less@K@std@@@stdext@@V?$CustomAllocator@PAVServerSession@@@util@@$0A@@stdext@@@stdext@@V?$CustomAllocator@U_List_position@?$_Hash@V?$_Hmap_traits@KPAVServerSession@@V?$hash_compare@KU?$less@K@std@@@stdext@@V?$CustomAllocator@PAVServerSession@@@util@@$0A@@stdext@@@stdext@@@util@@@std@@KAXXZ 0040b5c0 f i servercommon:ServerFrame.obj
 0001:0000a640       ??1?$chunk_hash_map@KPAVServerSession@@V?$hash_compare@KU?$less@K@std@@@stdext@@@util@@QAE@XZ 0040b640 f i servercommon:ServerFrame.obj
 0001:0000a690       ?KeyEvent@ServerFrame@@MAEHD@Z 0040b690 f i servercommon:ServerFrame.obj
 0001:0000a6a0       ?_Insert_n@?$vector@U_List_position@?$_Hash@V?$_Hmap_traits@KPAVServerSession@@V?$hash_compare@KU?$less@K@std@@@stdext@@V?$CustomAllocator@PAVServerSession@@@util@@$0A@@stdext@@@stdext@@V?$CustomAllocator@U_List_position@?$_Hash@V?$_Hmap_traits@KPAVServerSession@@V?$hash_compare@KU?$less@K@std@@@stdext@@V?$CustomAllocator@PAVServerSession@@@util@@$0A@@stdext@@@stdext@@@util@@@std@@IAEXV?$_Vector_const_iterator@U_List_position@?$_Hash@V?$_Hmap_traits@KPAVServerSession@@V?$hash_compare@KU?$less@K@std@@@stdext@@V?$CustomAllocator@PAVServerSession@@@util@@$0A@@stdext@@@stdext@@V?$CustomAllocator@U_List_position@?$_Hash@V?$_Hmap_traits@KPAVServerSession@@V?$hash_compare@KU?$less@K@std@@@stdext@@V?$CustomAllocator@PAVServerSession@@@util@@$0A@@stdext@@@stdext@@@util@@@2@IABU_List_position@?$_Hash@V?$_Hmap_traits@KPAVServerSession@@V?$hash_compare@KU?$less@K@std@@@stdext@@V?$CustomAllocator@PAVServerSession@@@util@@$0A@@stdext@@@stdext@@@Z 0040b6a0 f i servercommon:ServerFrame.obj
 0001:0000a8f0       ??_EServerFrame@@UAEPAXI@Z 0040b8f0 f i servercommon:ServerFrame.obj
 0001:0000a8f0       ??_GServerFrame@@UAEPAXI@Z 0040b8f0 f i servercommon:ServerFrame.obj
 0001:0000a910       ?insert@?$list@U?$pair@$$CBKPAVServerSession@@@std@@V?$CustomAllocator@U?$pair@$$CBKPAVServerSession@@@std@@@util@@@std@@QAE?AV?$_Iterator@$00@12@V?$_Const_iterator@$00@12@ABU?$pair@$$CBKPAVServerSession@@@2@@Z 0040b910 f i servercommon:ServerFrame.obj
 0001:0000a9a0       ??0?$vector@U_List_position@?$_Hash@V?$_Hmap_traits@KPAVServerSession@@V?$hash_compare@KU?$less@K@std@@@stdext@@V?$CustomAllocator@PAVServerSession@@@util@@$0A@@stdext@@@stdext@@V?$CustomAllocator@U_List_position@?$_Hash@V?$_Hmap_traits@KPAVServerSession@@V?$hash_compare@KU?$less@K@std@@@stdext@@V?$CustomAllocator@PAVServerSession@@@util@@$0A@@stdext@@@stdext@@@util@@@std@@QAE@ABV?$CustomAllocator@U_List_position@?$_Hash@V?$_Hmap_traits@KPAVServerSession@@V?$hash_compare@KU?$less@K@std@@@stdext@@V?$CustomAllocator@PAVServerSession@@@util@@$0A@@stdext@@@stdext@@@util@@@Z 0040b9a0 f i servercommon:ServerFrame.obj
 0001:0000aa00       ?_Splice@?$list@U?$pair@$$CBKPAVServerSession@@@std@@V?$CustomAllocator@U?$pair@$$CBKPAVServerSession@@@std@@@util@@@std@@QAEXV?$_Const_iterator@$00@12@AAV12@00I_N@Z 0040ba00 f i servercommon:ServerFrame.obj
 0001:0000aa70       ?_Assign_n@?$vector@U_List_position@?$_Hash@V?$_Hmap_traits@KPAVServerSession@@V?$hash_compare@KU?$less@K@std@@@stdext@@V?$CustomAllocator@PAVServerSession@@@util@@$0A@@stdext@@@stdext@@V?$CustomAllocator@U_List_position@?$_Hash@V?$_Hmap_traits@KPAVServerSession@@V?$hash_compare@KU?$less@K@std@@@stdext@@V?$CustomAllocator@PAVServerSession@@@util@@$0A@@stdext@@@stdext@@@util@@@std@@IAEXIABU_List_position@?$_Hash@V?$_Hmap_traits@KPAVServerSession@@V?$hash_compare@KU?$less@K@std@@@stdext@@V?$CustomAllocator@PAVServerSession@@@util@@$0A@@stdext@@@stdext@@@Z 0040ba70 f i servercommon:ServerFrame.obj
 0001:0000aaf0       ?splice@?$list@U?$pair@$$CBKPAVServerSession@@@std@@V?$CustomAllocator@U?$pair@$$CBKPAVServerSession@@@std@@@util@@@std@@QAEXV?$_Const_iterator@$00@12@AAV12@0@Z 0040baf0 f i servercommon:ServerFrame.obj
 0001:0000abb0       ?_Insert@?$_Hash@V?$_Hmap_traits@KPAVServerSession@@V?$hash_compare@KU?$less@K@std@@@stdext@@V?$CustomAllocator@PAVServerSession@@@util@@$0A@@stdext@@@stdext@@IAE?AU?$pair@V?$_Iterator@$00@?$list@U?$pair@$$CBKPAVServerSession@@@std@@V?$CustomAllocator@U?$pair@$$CBKPAVServerSession@@@std@@@util@@@std@@_N@std@@ABU?$pair@$$CBKPAVServerSession@@@4@V?$_Iterator@$00@?$list@U?$pair@$$CBKPAVServerSession@@@std@@V?$CustomAllocator@U?$pair@$$CBKPAVServerSession@@@std@@@util@@@4@@Z 0040bbb0 f i servercommon:ServerFrame.obj
 0001:0000af30       ??0?$_Hash@V?$_Hmap_traits@KPAVServerSession@@V?$hash_compare@KU?$less@K@std@@@stdext@@V?$CustomAllocator@PAVServerSession@@@util@@$0A@@stdext@@@stdext@@QAE@ABV?$hash_compare@KU?$less@K@std@@@1@ABV?$CustomAllocator@U?$pair@$$CBKPAVServerSession@@@std@@@util@@@Z 0040bf30 f i servercommon:ServerFrame.obj
 0001:0000aff0       ?_Reinsert@?$_Hash@V?$_Hmap_traits@KPAVServerSession@@V?$hash_compare@KU?$less@K@std@@@stdext@@V?$CustomAllocator@PAVServerSession@@@util@@$0A@@stdext@@@stdext@@IAEXXZ 0040bff0 f i servercommon:ServerFrame.obj
 0001:0000b080       ?clear@?$_Hash@V?$_Hmap_traits@KPAVServerSession@@V?$hash_compare@KU?$less@K@std@@@stdext@@V?$CustomAllocator@PAVServerSession@@@util@@$0A@@stdext@@@stdext@@QAEXXZ 0040c080 f i servercommon:ServerFrame.obj
 0001:0000b0f0       ??0ReadyState@@QAE@XZ      0040c0f0 f   servercommon:ReadyState.obj
 0001:0000b100       ??1ReadyState@@QAE@XZ      0040c100 f   servercommon:ReadyState.obj
 0001:0000b120       ?Init@ReadyState@@QAEXE@Z  0040c120 f   servercommon:ReadyState.obj
 0001:0000b160       ?SetReadyState@ReadyState@@QAEXEH@Z 0040c160 f   servercommon:ReadyState.obj
 0001:0000b180       ?IsReady@ReadyState@@AAEHE@Z 0040c180 f   servercommon:ReadyState.obj
 0001:0000b1a0       ?IsAllReady@ReadyState@@AAE?AW4READY_STATE@@XZ 0040c1a0 f   servercommon:ReadyState.obj
 0001:0000b1d0       ?Update@ReadyState@@QAE?AW4READY_STATE@@XZ 0040c1d0 f   servercommon:ReadyState.obj
 0001:0000b210       ?MessageOut@@YA_NW4eSUN_LOG_LEVEL@@PBDZZ 0040c210 f   servercommon:SunLog.Interfaces.obj
 0001:0000b2d0       ?ConsoleOut@@YA_NW4eSUN_LOG_LEVEL@@PBDZZ 0040c2d0 f   servercommon:SunLog.Interfaces.obj
 0001:0000b390       ?MessageOutEx@@YA_NPAVCSunLog@@W4eLOGLEVEL@1@W4eLOGOPTION@1@W4eLOGCATEGORY@1@PBDZZ 0040c390 f   servercommon:SunLog.Interfaces.obj
 0001:0000b450       ?MessageSecure@@YAHKKPBD00W4eABUSE_TYPE@@W4eABUSE_SUB_TYPE@@0ZZ 0040c450 f   servercommon:SunLog.Interfaces.obj
 0001:0000b5f0       ?AssertionLogger4Pool_Server@@YAXXZ 0040c5f0 f   servercommon:SunLog.Interfaces.obj
 0001:0000b600       ??0CSunLog@@QAE@XZ         0040c600 f   servercommon:SunLog.obj
 0001:0000b620       ?SetLogLevel@CSunLog@@QAEXE@Z 0040c620 f   servercommon:SunLog.obj
 0001:0000b640       ?RegisterHandler@CSunLog@@QAEXP6AHPBV1@PBDPAD@Z@Z 0040c640 f   servercommon:SunLog.obj
 0001:0000b650       ?WriteMessage_IO@CSunLog@@SAHPAXPBEK@Z 0040c650 f   servercommon:SunLog.obj
 0001:0000b6f0       ?WriteMessage_Console@CSunLog@@SAHPBV1@PBDPAD@Z 0040c6f0 f   servercommon:SunLog.obj
 0001:0000b770       ?WriteMessage_File@CSunLog@@SAHPBV1@PBDPAD@Z 0040c770 f   servercommon:SunLog.obj
 0001:0000b810       ?WriteMessage_Console2@CSunLog@@SAHPBV1@PBDPAD@Z 0040c810 f   servercommon:SunLog.obj
 0001:0000b820       ?WriteMessage_Console3@CSunLog@@SAHPBV1@PBDPAD@Z 0040c820 f   servercommon:SunLog.obj
 0001:0000b880       ?GetCategoryNameByCode@@YA?AUCHAR_WRAPPER@@W4eLOGCATEGORY@CSunLog@@@Z 0040c880 f   servercommon:SunLog.obj
 0001:0000b8b0       ?MakePrefixFormat@CSunLog@@CAHW4ePREFIX@1@PADKW4eLOGCATEGORY@1@@Z 0040c8b0 f   servercommon:SunLog.obj
 0001:0000b980       ??0CSunLogInfo@CSunLog@@QAE@XZ 0040c980 f   servercommon:SunLog.obj
 0001:0000b9f0       ??1CSunLogInfo@CSunLog@@QAE@XZ 0040c9f0 f   servercommon:SunLog.obj
 0001:0000ba40       ?CheckHandler@CSunLog@@AAEHAAP6AHPBV1@PBDPAD@Z3@Z 0040ca40 f   servercommon:SunLog.obj
 0001:0000bab0       ?Flush@CSunLog@@QAEXW4eLOGOPTION@1@@Z 0040cab0 f   servercommon:SunLog.obj
 0001:0000bb00       ?LOGGINGwithARG@CSunLog@@SAHPAV1@W4eLOGOPTION@1@W4eLOGLEVEL@1@W4eLOGCATEGORY@1@PBDPAD@Z 0040cb00 f   servercommon:SunLog.obj
 0001:0000bbb0       ??1CSunLog@@QAE@XZ         0040cbb0 f   servercommon:SunLog.obj
 0001:0000bc40       ?Init@CSunLog@@UAEHEEPBD0H@Z 0040cc40 f   servercommon:SunLog.obj
 0001:0000be30       ?Update@CSunLog@@QAEXXZ    0040ce30 f   servercommon:SunLog.obj
 0001:0000be90       ?OnAccept@NetworkObject@@MAEXK@Z 0040ce90 f i servercommon:ServerSession.obj
 0001:0000be90       ?OnLogString@NetworkObject@@EAEXPAD@Z 0040ce90 f i Network:NetworkObject.obj
 0001:0000bea0       ?OnConnect@ServerSession@@MAEXHK@Z 0040cea0 f   servercommon:ServerSession.obj
 0001:0000bed0       ?SendHeartbeatPacket@ServerSession@@MAEXXZ 0040ced0 f   servercommon:ServerSession.obj
 0001:0000bee0       ?OnLogString@ServerSession@@MAEXPAD@Z 0040cee0 f   servercommon:ServerSession.obj
 0001:0000bf10       ?Update@ServerSession@@UAEXXZ 0040cf10 f   servercommon:ServerSession.obj
 0001:0000bf50       ?Clear@ServerSession@@QAEXXZ 0040cf50 f   servercommon:ServerSession.obj
 0001:0000bf90       ?Init@ServerSession@@MAEXXZ 0040cf90 f   servercommon:ServerSession.obj
 0001:0000bfd0       ?Release@ServerSession@@UAEXXZ 0040cfd0 f   servercommon:ServerSession.obj
 0001:0000c010       ??0ServerSession@@QAE@XZ   0040d010 f   servercommon:ServerSession.obj
 0001:0000c080       ??1ServerSession@@UAE@XZ   0040d080 f   servercommon:ServerSession.obj
 0001:0000c0c0       ?OnRedirect@ServerSession@@UAEXKQAUMSG_SERVER_TYPE@@@Z 0040d0c0 f   servercommon:ServerSession.obj
 0001:0000c110       ?OnAccept@ServerSession@@MAEXK@Z 0040d110 f   servercommon:ServerSession.obj
 0001:0000c170       ?OnConnectSuccess@ServerSession@@MAEXK@Z 0040d170 f   servercommon:ServerSession.obj
 0001:0000c200       ?OnDisconnect@ServerSession@@MAEXXZ 0040d200 f   servercommon:ServerSession.obj
 0001:0000c280       ??$_Distance2@V?$_Iterator@$00@?$list@U?$pair@$$CBKPAVServerSession@@@std@@V?$CustomAllocator@U?$pair@$$CBKPAVServerSession@@@std@@@util@@@std@@I@std@@YAXV?$_Iterator@$00@?$list@U?$pair@$$CBKPAVServerSession@@@std@@V?$CustomAllocator@U?$pair@$$CBKPAVServerSession@@@std@@@util@@@0@0AAIUbidirectional_iterator_tag@0@@Z 0040d280 f i servercommon:ServerSession.obj
 0001:0000c2f0       ?OnRecv@ServerSession@@MAEXPAEG@Z 0040d2f0 f i servercommon:ServerSession.obj
 0001:0000c2f0       ?OnConnect@NetworkObject@@MAEXHK@Z 0040d2f0 f i servercommon:ServerSession.obj
 0001:0000c300       ?GetServerType@ServerSession@@UAE?AW4eSERVER_TYPE@@XZ 0040d300 f i servercommon:ServerSession.obj
 0001:0000c310       ??_GServerSession@@UAEPAXI@Z 0040d310 f i servercommon:ServerSession.obj
 0001:0000c310       ??_EServerSession@@UAEPAXI@Z 0040d310 f i servercommon:ServerSession.obj
 0001:0000c360       ?equal_range@?$_Hash@V?$_Hmap_traits@KPAVServerSession@@V?$hash_compare@KU?$less@K@std@@@stdext@@V?$CustomAllocator@PAVServerSession@@@util@@$0A@@stdext@@@stdext@@QAE?AU?$pair@V?$_Iterator@$00@?$list@U?$pair@$$CBKPAVServerSession@@@std@@V?$CustomAllocator@U?$pair@$$CBKPAVServerSession@@@std@@@util@@@std@@V123@@std@@ABK@Z 0040d360 f i servercommon:ServerSession.obj
 0001:0000c4d0       ?erase@?$_Hash@V?$_Hmap_traits@KPAVServerSession@@V?$hash_compare@KU?$less@K@std@@@stdext@@V?$CustomAllocator@PAVServerSession@@@util@@$0A@@stdext@@@stdext@@QAE?AV?$_Iterator@$00@?$list@U?$pair@$$CBKPAVServerSession@@@std@@V?$CustomAllocator@U?$pair@$$CBKPAVServerSession@@@std@@@util@@@std@@V?$_Const_iterator@$00@45@@Z 0040d4d0 f i servercommon:ServerSession.obj
 0001:0000c5d0       ?erase@?$_Hash@V?$_Hmap_traits@KPAVServerSession@@V?$hash_compare@KU?$less@K@std@@@stdext@@V?$CustomAllocator@PAVServerSession@@@util@@$0A@@stdext@@@stdext@@QAE?AV?$_Iterator@$00@?$list@U?$pair@$$CBKPAVServerSession@@@std@@V?$CustomAllocator@U?$pair@$$CBKPAVServerSession@@@std@@@util@@@std@@V?$_Const_iterator@$00@45@0@Z 0040d5d0 f i servercommon:ServerSession.obj
 0001:0000c6d0       ?AddSession@ServerFrame@@QAEXKPAVServerSession@@@Z 0040d6d0 f i servercommon:ServerSession.obj
 0001:0000c730       ?erase@?$_Hash@V?$_Hmap_traits@KPAVServerSession@@V?$hash_compare@KU?$less@K@std@@@stdext@@V?$CustomAllocator@PAVServerSession@@@util@@$0A@@stdext@@@stdext@@QAEIABK@Z 0040d730 f i servercommon:ServerSession.obj
 0001:0000c7a0       ?GetServerType2String@@YAPADW4eSERVER_TYPE@@@Z 0040d7a0 f   servercommon:ServerGlobal.obj
 0001:0000c7c0       ?GetCommandLineArg@@YAHHPAD0H@Z 0040d7c0 f   servercommon:ServerGlobal.obj
 0001:0000c890       ?DisplayDebugInfo@@YAXW4eSERVER_TYPE@@HHKKKKGGG@Z 0040d890 f   servercommon:ServerGlobal.obj
 0001:0000ca10       ?SetApplicationDirectory@@YAXXZ 0040da10 f   servercommon:ServerGlobal.obj
 0001:0000cab0       ?ParseArguments@@YAHPAD@Z  0040dab0 f   servercommon:ServerGlobal.obj
 0001:0000cb20       ?BASE_NUMBER@SERVER_VERSION_INFO@@SAKXZ 0040db20 f   servercommon:ServerBuildVersion.obj
 0001:0000cb30       ?RELEASE_BUILD_NUMBER@SERVER_VERSION_INFO@@SAKXZ 0040db30 f   servercommon:ServerBuildVersion.obj
 0001:0000cb40       ?IsCategoryPacked@CategoryConverter@nsPacket@@SAEE@Z 0040db40 f i servercommon:PacketControlS2S.obj
 0001:0000cc70       ?Init@Environment@Server@nsPacket@@SAEXZ 0040dc70 f   servercommon:PacketControlS2S.obj
 0001:0000cc90       ?MakeStream@?$SubControl@$0BL@$00@PacketControl@Server@nsPacket@@SA?AUPacketInfo@4@QAUMSG_BASE@@G@Z 0040dc90 f   servercommon:PacketControlS2S.obj
 0001:0000cdd0       ?Init@Environment@nsPacket@@SAEXZ 0040ddd0 f   programcommon_s:PacketControl.obj
 0001:0000ce00       ?MakeStream@PacketControl@nsPacket@@CA?AUPacketInfo@2@EQAUMSG_BASE@@G@Z 0040de00 f   programcommon_s:PacketControl.obj
 0001:0000ceb0       ?Pack@PacketControl@nsPacket@@SA?AUPacketInfo@2@QAUMSG_BASE@@G@Z 0040deb0 f   programcommon_s:PacketControl.obj
 0001:0000ced0       ?UnPack@PacketControl@nsPacket@@SA?AUPacketInfo@2@QAUMSG_BASE@@G@Z 0040ded0 f   programcommon_s:PacketControl.obj
 0001:0000cef0       ?SetPackInfo@CategoryConverter@nsPacket@@SAEQAUMSG_BASE@@@Z 0040def0 f i programcommon_s:PacketControl_Compress.obj
 0001:0000d190       ?MakeStream@CompressUtil@nsPacket@@SA?AUPacketInfo@2@EPAEQAUMSG_BASE@@G@Z 0040e190 f   programcommon_s:PacketControl_Compress.obj
 0001:0000d260       ?memfree_handler@CompressUtil@nsPacket@@CAXPAXH@Z 0040e260 f   programcommon_s:PacketControl_Compress.obj
 0001:0000d270       ?memalloc_handler@CompressUtil@nsPacket@@CAPAXIH@Z 0040e270 f   programcommon_s:PacketControl_Compress.obj
 0001:0000d3c0       ??1IVMemoryPool@util@@UAE@XZ 0040e3c0 f   utility_s:MemoryPoolFactory.obj
 0001:0000d3d0       ??0MemoryPoolSizeBased@internal@util@@QAE@IP6AXPAX@Z1@Z 0040e3d0 f   utility_s:MemoryPoolFactory.obj
 0001:0000d420       ?AddBlock@MemoryPoolSizeBased@internal@util@@AAEXI@Z 0040e420 f   utility_s:MemoryPoolFactory.obj
 0001:0000d4c0       ?Initialize@MemoryPoolSizeBased@internal@util@@QAEXIIPBD@Z 0040e4c0 f   utility_s:MemoryPoolFactory.obj
 0001:0000d500       ?Allocate@MemoryPoolSizeBased@internal@util@@QAEPAXXZ 0040e500 f   utility_s:MemoryPoolFactory.obj
 0001:0000d550       ?Deallocate@MemoryPoolSizeBased@internal@util@@QAEXPAX@Z 0040e550 f   utility_s:MemoryPoolFactory.obj
 0001:0000d600       ?FreeAllElements@MemoryPoolSizeBased@internal@util@@QAEXXZ 0040e600 f   utility_s:MemoryPoolFactory.obj
 0001:0000d770       ??1MemoryPoolSizeBased@internal@util@@QAE@XZ 0040e770 f   utility_s:MemoryPoolFactory.obj
 0001:0000d7a0       ??0SolarSimpleConsole@@QAE@XZ 0040e7a0 f   utility_s:SolarSimpleConsole.obj
 0001:0000d7c0       ?Print@SolarSimpleConsole@@QAAXPADZZ 0040e7c0 f   utility_s:SolarSimpleConsole.obj
 0001:0000d840       ?Release@SolarSimpleConsole@@QAEHXZ 0040e840 f   utility_s:SolarSimpleConsole.obj
 0001:0000d870       ?_redirectToConsole@SolarSimpleConsole@@AAEXXZ 0040e870 f   utility_s:SolarSimpleConsole.obj
 0001:0000da50       ?Init@SolarSimpleConsole@@QAEHPAUtagCONSOLE_DESC@@@Z 0040ea50 f   utility_s:SolarSimpleConsole.obj
 0001:0000db90       ?CheckNodeHeader@SharedMemoryPoolSizeBased@memory@util@@SAPAUMemoryForUse@123@PAXQAW4eCheckMemoryNodeResult@23@@Z 0040eb90 f   utility_s:SharedMemoryPool.obj
 0001:0000dc70       ?AddBlock@SharedMemoryPoolSizeBased@memory@util@@AAEXQAUSharedMemoryTable@23@@Z 0040ec70 f   utility_s:SharedMemoryPool.obj
 0001:0000dd50       ??0SharedMemoryTable@memory@util@@QAE@XZ 0040ed50 f   utility_s:SharedMemoryPool.obj
 0001:0000e520       ?ReportRuntimeFailedObject@SharedMemoryTable@memory@util@@SAXW4eCheckMemoryNodeResult@23@PAXPAUMemoryForUse@SharedMemoryPoolSizeBased@23@@Z 0040f520 f   utility_s:SharedMemoryPool.obj
 0001:0000e6d0       ??0SharedMemoryPool@@AAE@XZ 0040f6d0 f   utility_s:SharedMemoryPool.obj
 0001:0000e710       ?Allocate@SharedMemoryPoolSizeBased@memory@util@@QAEPAXQAUSharedMemoryTable@23@IPBDH@Z 0040f710 f   utility_s:SharedMemoryPool.obj
 0001:0000e7c0       ?Deallocate@SharedMemoryPoolSizeBased@memory@util@@QAEXQAUSharedMemoryTable@23@PAUMemoryForUse@123@@Z 0040f7c0 f   utility_s:SharedMemoryPool.obj
 0001:0000e8b0       ?FreeAllElements@SharedMemoryPoolSizeBased@memory@util@@QAEXQAUSharedMemoryTable@23@@Z 0040f8b0 f   utility_s:SharedMemoryPool.obj
 0001:0000e980       ?Allocate@SharedMemoryTable@memory@util@@QAEPAXIPBDH@Z 0040f980 f   utility_s:SharedMemoryPool.obj
 0001:0000ead0       ?Deallocate@SharedMemoryTable@memory@util@@QAEXPAX@Z 0040fad0 f   utility_s:SharedMemoryPool.obj
 0001:0000eba0       ??1SharedMemoryTable@memory@util@@QAE@XZ 0040fba0 f   utility_s:SharedMemoryPool.obj
 0001:0000eda0       ?CreateInstance@SharedMemoryPool@@SA_NXZ 0040fda0 f   utility_s:SharedMemoryPool.obj
 0001:0000edc0       ?MemoryAllocate@SharedMemoryPool@@SAPAXIPBDH@Z 0040fdc0 f   utility_s:SharedMemoryPool.obj
 0001:0000ee00       ?CheckValidAllocatedMemory@SharedMemoryPool@@SA_NPAX@Z 0040fe00 f   utility_s:SharedMemoryPool.obj
 0001:0000ee50       ?MemoryDeAllocate@SharedMemoryPool@@SAXPAX@Z 0040fe50 f   utility_s:SharedMemoryPool.obj
 0001:0000eec0       ?CreateInstance@TimeSync@util@@CAPAV12@XZ 0040fec0 f   utility_s:SolarDateTime.obj
 0001:0000ef40       ?Command_ClientRecv@TimeSync@util@@SA_NABUTimeSyncNode@2@@Z 0040ff40 f   utility_s:SolarDateTime.obj
 0001:0000f0a0       ?Command_Standalone@TimeSync@util@@SAXXZ 004100a0 f   utility_s:SolarDateTime.obj
 0001:0000f130       ?CalculateTime@TimeSync@util@@AAEXXZ 00410130 f   utility_s:SolarDateTime.obj
 0001:0000f1d0       ?GetLocalTime@TimeSync@util@@SAXPAU_SYSTEMTIME@@@Z 004101d0 f   utility_s:SolarDateTime.obj
 0001:0000f270       ?UpdateTimeInfoPerFrame@TimeSync@util@@SAXPAUTimeInfoPerFrame@2@@Z 00410270 f   utility_s:SolarDateTime.obj
 0001:0000f350       ?RegisterLoggingHandler@SafeMemoryPoolFactoryShared@util@@SAXP6AXPBDPAXI@Z@Z 00410350 f   utility_s:SafeMemoryPoolFactory.obj
 0001:0000f35a       ??0out_of_range@std@@QAE@ABV?$basic_string@DU?$char_traits@D@std@@V?$allocator@D@2@@1@@Z 0041035a f i libcpmt:string.obj
 0001:0000f377       ??1out_of_range@std@@UAE@XZ 00410377 f i libcpmt:string.obj
 0001:0000f382       ??_Gout_of_range@std@@UAEPAXI@Z 00410382 f i libcpmt:string.obj
 0001:0000f382       ??_Eout_of_range@std@@UAEPAXI@Z 00410382 f i libcpmt:string.obj
 0001:0000f3a9       ?_Xlen@_String_base@std@@SAXXZ 004103a9 f   libcpmt:string.obj
 0001:0000f3e1       ?_Xran@_String_base@std@@SAXXZ 004103e1 f   libcpmt:string.obj
 0001:0000f419       ??0out_of_range@std@@QAE@ABV01@@Z 00410419 f i libcpmt:string.obj
 0001:0000f436       ??_U@YAPAXI@Z              00410436 f   libcpmt:newaop.obj
 0001:0000f441       ??0_Init_locks@std@@QAE@XZ 00410441 f   libcpmt:xlock.obj
 0001:0000f472       ??1_Init_locks@std@@QAE@XZ 00410472 f   libcpmt:xlock.obj
 0001:0000f49b       ??0_Lockit@std@@QAE@H@Z    0041049b f   libcpmt:xlock.obj
 0001:0000f4c3       ??1_Lockit@std@@QAE@XZ     004104c3 f   libcpmt:xlock.obj
 0001:0000f4da       __Mtxinit                  004104da f   libcpmt:xmtx.obj
 0001:0000f4ea       __Mtxdst                   004104ea f   libcpmt:xmtx.obj
 0001:0000f4fa       __Mtxlock                  004104fa f   libcpmt:xmtx.obj
 0001:0000f50a       __Mtxunlock                0041050a f   libcpmt:xmtx.obj
 0001:0000f520       ?default_error_condition@error_category@system@boost@@UBE?AVerror_condition@23@H@Z 00410520 f i libboost_system-vc90-mt-s-1_60:error_code.obj
 0001:0000f530       ?equivalent@error_category@system@boost@@UBE_NHABVerror_condition@23@@Z 00410530 f i libboost_system-vc90-mt-s-1_60:error_code.obj
 0001:0000f570       ?equivalent@error_category@system@boost@@UBE_NABVerror_code@23@H@Z 00410570 f i libboost_system-vc90-mt-s-1_60:error_code.obj
 0001:0000f590       ??1local_free_on_destruction@detail@system@boost@@QAE@XZ 00410590 f i libboost_system-vc90-mt-s-1_60:error_code.obj
 0001:0000f5a0       ?name@generic_error_category@?A0xa00a0bbd@system@boost@@UBEPBDXZ 004105a0 f   libboost_system-vc90-mt-s-1_60:error_code.obj
 0001:0000f5b0       ?name@system_error_category@?A0xa00a0bbd@system@boost@@UBEPBDXZ 004105b0 f   libboost_system-vc90-mt-s-1_60:error_code.obj
 0001:0000f5c0       ??_Eerror_category@system@boost@@UAEPAXI@Z 004105c0 f i libboost_system-vc90-mt-s-1_60:error_code.obj
 0001:0000f5c0       ??_Esystem_error_category@?A0xa00a0bbd@system@boost@@UAEPAXI@Z 004105c0 f i libboost_system-vc90-mt-s-1_60:error_code.obj
 0001:0000f5c0       ??_Gsystem_error_category@?A0xa00a0bbd@system@boost@@UAEPAXI@Z 004105c0 f i libboost_system-vc90-mt-s-1_60:error_code.obj
 0001:0000f5c0       ??_Gerror_category@system@boost@@UAEPAXI@Z 004105c0 f i libboost_system-vc90-mt-s-1_60:error_code.obj
 0001:0000f5c0       ??_Ggeneric_error_category@?A0xa00a0bbd@system@boost@@UAEPAXI@Z 004105c0 f i libboost_system-vc90-mt-s-1_60:error_code.obj
 0001:0000f5c0       ??_Egeneric_error_category@?A0xa00a0bbd@system@boost@@UAEPAXI@Z 004105c0 f i libboost_system-vc90-mt-s-1_60:error_code.obj
 0001:0000f5e0       ?system_category@system@boost@@YAABVerror_category@12@XZ 004105e0 f   libboost_system-vc90-mt-s-1_60:error_code.obj
 0001:0000f650       ?generic_category@system@boost@@YAABVerror_category@12@XZ 00410650 f   libboost_system-vc90-mt-s-1_60:error_code.obj
 0001:0000f6c0       ?default_error_condition@system_error_category@?A0xa00a0bbd@system@boost@@UBE?AVerror_condition@34@H@Z 004106c0 f   libboost_system-vc90-mt-s-1_60:error_code.obj
 0001:0000fdb0       ?message@generic_error_category@?A0xa00a0bbd@system@boost@@UBE?AV?$basic_string@DU?$char_traits@D@std@@V?$allocator@D@2@@std@@H@Z 00410db0 f   libboost_system-vc90-mt-s-1_60:error_code.obj
 0001:0000fee0       ?message@system_error_category@?A0xa00a0bbd@system@boost@@UBE?AV?$basic_string@DU?$char_traits@D@std@@V?$allocator@D@2@@std@@H@Z 00410ee0 f   libboost_system-vc90-mt-s-1_60:error_code.obj
 0001:000100c0       _zcalloc                   004110c0 f   zlib:zutil.obj
 0001:00010100       _zcfree                    00411100 f   zlib:zutil.obj
 0001:00010130       ___zlib_register_malloc    00411130 f   zlib:zutil.obj
 0001:00010140       ___zlib_register_free      00411140 f   zlib:zutil.obj
 0001:00010150       _compress2                 00411150 f   zlib:compress.obj
 0001:00010290       _deflate                   00411290 f   zlib:deflate.obj
 0001:00010500       _deflateEnd                00411500 f   zlib:deflate.obj
 0001:00011240       _deflateReset              00412240 f   zlib:deflate.obj
 0001:000112b0       _deflateInit2_             004122b0 f   zlib:deflate.obj
 0001:000114b0       _deflateInit_              004124b0 f   zlib:deflate.obj
 0001:000114e0       _adler32                   004124e0 f   zlib:adler32.obj
 0001:00012810       __tr_init                  00413810 f   zlib:trees.obj
 0001:00012be0       __tr_stored_block          00413be0 f   zlib:trees.obj
 0001:00012c90       __tr_align                 00413c90 f   zlib:trees.obj
 0001:00012e80       __tr_flush_block           00413e80 f   zlib:trees.obj
 0001:00013070       ??0SMTPClient@@QAE@XZ      00414070 f   CrashHandler:SMTPClient.obj
 0001:00013110       ??1SMTPClient@@QAE@XZ      00414110 f   CrashHandler:SMTPClient.obj
 0001:00013130       ?CheckResponse@SMTPClient@@AAEHE@Z 00414130 f   CrashHandler:SMTPClient.obj
 0001:000131f0       ?MailLogin@SMTPClient@@AAEHPBD0@Z 004141f0 f   CrashHandler:SMTPClient.obj
 0001:00013360       ?MailFrom@SMTPClient@@QAEHPBD0@Z 00414360 f   CrashHandler:SMTPClient.obj
 0001:00013410       ?MailTo@SMTPClient@@QAEHPBD@Z 00414410 f   CrashHandler:SMTPClient.obj
 0001:000134e0       ?MailContents@SMTPClient@@QAEHPBD0@Z 004144e0 f   CrashHandler:SMTPClient.obj
 0001:00013840       ?MailAttachFile@SMTPClient@@QAEHPAD@Z 00414840 f   CrashHandler:SMTPClient.obj
 0001:00013b70       ?MailSubmit@SMTPClient@@QAEHXZ 00414b70 f   CrashHandler:SMTPClient.obj
 0001:00013c70       ?Connect@SMTPClient@@QAEHPBD00G@Z 00414c70 f   CrashHandler:SMTPClient.obj
 0001:00013dd0       ?_exception_code@CrashHandler@@CAXPADK@Z 00414dd0 f   CrashHandler:CrashHandler.obj
 0001:00014070       ?HandleException@CrashHandler@@SGJPAU_EXCEPTION_POINTERS@@@Z 00415070 f   CrashHandler:CrashHandler.obj
 0001:000147a0       ?Install@CrashHandler@@SAX_NP6APBDXZP6AXPBD2@Z@Z 004157a0 f   CrashHandler:CrashHandler.obj
 0001:000147d0       ?CreateMimeBoundary@Mime@@QAEPADXZ 004157d0 f   CrashHandler:Mime.obj
 0001:00014800       ?GetContentType@Mime@@QAEPADPBD@Z 00415800 f   CrashHandler:Mime.obj
 0001:00014d10       ??0Mime@@QAE@XZ            00415d10 f   CrashHandler:Mime.obj
 0001:00014d30       ??0ClientSocket@@QAE@XZ    00415d30 f   CrashHandler:ClientSocket.obj
 0001:00014d80       ?Connect@ClientSocket@@QAE_NPBDG@Z 00415d80 f   CrashHandler:ClientSocket.obj
 0001:00014e50       ?Close@ClientSocket@@QAEXXZ 00415e50 f   CrashHandler:ClientSocket.obj
 0001:00014e70       ?Send@ClientSocket@@QAEHPAXH@Z 00415e70 f   CrashHandler:ClientSocket.obj
 0001:00014e90       ?Recv@ClientSocket@@QAEHPAXH@Z 00415e90 f   CrashHandler:ClientSocket.obj
 0001:00014eb0       ?Base64Encode@@YAXPBDHPADH@Z 00415eb0 f   CrashHandler:Base64.obj
 0001:00015190       ?GenerateMiniDump@MiniDump@@SA_NPAU_EXCEPTION_POINTERS@@PBD@Z 00416190 f   CrashHandler:MiniDump.obj
 0001:000152c0       ??0NetworkObject@@QAE@XZ   004162c0 f   Network:NetworkObject.obj
 0001:000152e0       ??1NetworkObject@@UAE@XZ   004162e0 f   Network:NetworkObject.obj
 0001:000152f0       ?Disconnect@NetworkObject@@QAEXH@Z 004162f0 f   Network:NetworkObject.obj
 0001:00015310       ?OnDisconnect@NetworkObject@@MAEXXZ 00416310 f   Network:NetworkObject.obj
 0001:00015320       ?Send@NetworkObject@@QAEHPAEG@Z 00416320 f   Network:NetworkObject.obj
 0001:00015350       ?SendEx@NetworkObject@@QAEHKPAPAEPAG@Z 00416350 f   Network:NetworkObject.obj
 0001:00015390       ?Redirect@NetworkObject@@QAEXPAV1@@Z 00416390 f   Network:NetworkObject.obj
 0001:000153a0       ?GetIP@NetworkObject@@QAEPADXZ 004163a0 f   Network:NetworkObject.obj
 0001:000153c0       ?GetIPAddress@NetworkObject@@QAEKXZ 004163c0 f   Network:NetworkObject.obj
 0001:000153e0       ?GetPort@NetworkObject@@QAEGXZ 004163e0 f   Network:NetworkObject.obj
 0001:00015400       ?GetSendBufferInfo@NetworkObject@@QAEXAAUBUFFER_INFO@1@@Z 00416400 f   Network:NetworkObject.obj
 0001:00015430       ?GetRecvBufferInfo@NetworkObject@@QAEXAAUBUFFER_INFO@1@@Z 00416430 f   Network:NetworkObject.obj
 0001:00015460       ?SetSockOpt@NetworkObject@@QAEHHHPBDH@Z 00416460 f   Network:NetworkObject.obj
 0001:00015480       ?SetSession@NetworkObject@@AAEXPAVSession@@@Z 00416480 f   Network:NetworkObject.obj
 0001:000154a0       ?UseSendPendingBuffer@NetworkObject@@QAE_NK@Z 004164a0 f   Network:NetworkObject.obj
 0001:000154c0       ?UseRecvDualBuffer@NetworkObject@@QAE_NK@Z 004164c0 f   Network:NetworkObject.obj
 0001:000154e0       ??_GNetworkObject@@UAEPAXI@Z 004164e0 f i Network:NetworkObject.obj
 0001:000154e0       ??_ENetworkObject@@UAEPAXI@Z 004164e0 f i Network:NetworkObject.obj
 0001:00015500       ?InitWinsock@IOCPServer@@AAEHXZ 00416500 f   Network:IOCPServer.obj
 0001:00015570       ?send_thread@@YGIPAX@Z     00416570 f   Network:IOCPServer.obj
 0001:00015610       ?Shutdown@IOCPServer@@QAEXXZ 00416610 f   Network:IOCPServer.obj
 0001:00015700       ?Update@IOCPServer@@QAEXXZ 00416700 f   Network:IOCPServer.obj
 0001:00015770       ?GetIoHandler@IOCPServer@@AAEPAVIoHandler@@K@Z 00416770 f   Network:IOCPServer.obj
 0001:000157e0       ?StartListen@IOCPServer@@QAEHKPADG@Z 004167e0 f   Network:IOCPServer.obj
 0001:00015860       ?Connect@IOCPServer@@QAEKKPAVNetworkObject@@PADG@Z 00416860 f   Network:IOCPServer.obj
 0001:00015900       ?IsListening@IOCPServer@@QAEHK@Z 00416900 f   Network:IOCPServer.obj
 0001:00015980       ?SuspendListenThread@IOCPServer@@QAEXK@Z 00416980 f   Network:IOCPServer.obj
 0001:000159f0       ?ResumeListenThread@IOCPServer@@QAEXK@Z 004169f0 f   Network:IOCPServer.obj
 0001:00015a60       ?GetNumberOfConnections@IOCPServer@@QAEKK@Z 00416a60 f   Network:IOCPServer.obj
 0001:00015ae0       ?GetMaxBuffer@IOCPServer@@AAEKKKHH@Z 00416ae0 f   Network:IOCPServer.obj
 0001:00015b50       ?Display@IOCPServer@@QAEXKK@Z 00416b50 f   Network:IOCPServer.obj
 0001:00015c60       ?CreateIoHandler@IOCPServer@@AAEXPAUtagIOHANDLER_DESC@@@Z 00416c60 f   Network:IOCPServer.obj
 0001:00015d00       ?Init@IOCPServer@@QAEHPAUtagIOHANDLER_DESC@@K@Z 00416d00 f   Network:IOCPServer.obj
 0001:00015d60       ??0IOCPServer@@QAE@XZ      00416d60 f   Network:IOCPServer.obj
 0001:00015df0       ??1IOCPServer@@UAE@XZ      00416df0 f   Network:IOCPServer.obj
 0001:00015e40       ?_Min@?$_Tree@V?$_Tmap_traits@KPAVIoHandler@@U?$less@K@std@@V?$RedirectedAllocator@PAVIoHandler@@@module@@$0A@@std@@@std@@KAPAU_Node@?$_Tree_nod@V?$_Tmap_traits@KPAVIoHandler@@U?$less@K@std@@V?$RedirectedAllocator@PAVIoHandler@@@module@@$0A@@std@@@2@PAU342@@Z 00416e40 f i Network:IOCPServer.obj
 0001:00015e60       ?_Max@?$_Tree@V?$_Tmap_traits@KPAVIoHandler@@U?$less@K@std@@V?$RedirectedAllocator@PAVIoHandler@@@module@@$0A@@std@@@std@@KAPAU_Node@?$_Tree_nod@V?$_Tmap_traits@KPAVIoHandler@@U?$less@K@std@@V?$RedirectedAllocator@PAVIoHandler@@@module@@$0A@@std@@@2@PAU342@@Z 00416e60 f i Network:IOCPServer.obj
 0001:00015e80       ??E?$_Const_iterator@$00@?$list@PAVSession@@V?$RedirectedAllocator@PAVSession@@@module@@@std@@QAEAAV012@XZ 00416e80 f i Network:IOCPServer.obj
 0001:00015ec0       ??9?$_Const_iterator@$00@?$list@PAVSession@@V?$RedirectedAllocator@PAVSession@@@module@@@std@@QBE_NABV012@@Z 00416ec0 f i Network:IOCPServer.obj
 0001:00015ef0       ?_Erase@?$_Tree@V?$_Tmap_traits@KPAVIoHandler@@U?$less@K@std@@V?$RedirectedAllocator@PAVIoHandler@@@module@@$0A@@std@@@std@@IAEXPAU_Node@?$_Tree_nod@V?$_Tmap_traits@KPAVIoHandler@@U?$less@K@std@@V?$RedirectedAllocator@PAVIoHandler@@@module@@$0A@@std@@@2@@Z 00416ef0 f i Network:IOCPServer.obj
 0001:00015f30       ?_Inc@const_iterator@?$_Tree@V?$_Tmap_traits@KPAVIoHandler@@U?$less@K@std@@V?$RedirectedAllocator@PAVIoHandler@@@module@@$0A@@std@@@std@@QAEXXZ 00416f30 f i Network:IOCPServer.obj
 0001:00015fa0       ?_Lrotate@?$_Tree@V?$_Tmap_traits@KPAVIoHandler@@U?$less@K@std@@V?$RedirectedAllocator@PAVIoHandler@@@module@@$0A@@std@@@std@@IAEXPAU_Node@?$_Tree_nod@V?$_Tmap_traits@KPAVIoHandler@@U?$less@K@std@@V?$RedirectedAllocator@PAVIoHandler@@@module@@$0A@@std@@@2@@Z 00416fa0 f i Network:IOCPServer.obj
 0001:00015ff0       ?_Rrotate@?$_Tree@V?$_Tmap_traits@KPAVIoHandler@@U?$less@K@std@@V?$RedirectedAllocator@PAVIoHandler@@@module@@$0A@@std@@@std@@IAEXPAU_Node@?$_Tree_nod@V?$_Tmap_traits@KPAVIoHandler@@U?$less@K@std@@V?$RedirectedAllocator@PAVIoHandler@@@module@@$0A@@std@@@2@@Z 00416ff0 f i Network:IOCPServer.obj
 0001:00016050       ?_Buynode@?$_Tree@V?$_Tmap_traits@KPAVIoHandler@@U?$less@K@std@@V?$RedirectedAllocator@PAVIoHandler@@@module@@$0A@@std@@@std@@IAEPAU_Node@?$_Tree_nod@V?$_Tmap_traits@KPAVIoHandler@@U?$less@K@std@@V?$RedirectedAllocator@PAVIoHandler@@@module@@$0A@@std@@@2@PAU342@00ABU?$pair@$$CBKPAVIoHandler@@@2@D@Z 00417050 f i Network:IOCPServer.obj
 0001:00016090       ?_Buynode@?$_Tree@V?$_Tmap_traits@KPAVIoHandler@@U?$less@K@std@@V?$RedirectedAllocator@PAVIoHandler@@@module@@$0A@@std@@@std@@IAEPAU_Node@?$_Tree_nod@V?$_Tmap_traits@KPAVIoHandler@@U?$less@K@std@@V?$RedirectedAllocator@PAVIoHandler@@@module@@$0A@@std@@@2@XZ 00417090 f i Network:IOCPServer.obj
 0001:000160d0       ?_Dec@const_iterator@?$_Tree@V?$_Tmap_traits@KPAVIoHandler@@U?$less@K@std@@V?$RedirectedAllocator@PAVIoHandler@@@module@@$0A@@std@@@std@@QAEXXZ 004170d0 f i Network:IOCPServer.obj
 0001:00016160       ?find@?$_Tree@V?$_Tmap_traits@KPAVIoHandler@@U?$less@K@std@@V?$RedirectedAllocator@PAVIoHandler@@@module@@$0A@@std@@@std@@QBE?AVconst_iterator@12@ABK@Z 00417160 f i Network:IOCPServer.obj
 0001:00016160       ?find@?$_Tree@V?$_Tmap_traits@KPAVIoHandler@@U?$less@K@std@@V?$RedirectedAllocator@PAVIoHandler@@@module@@$0A@@std@@@std@@QAE?AViterator@12@ABK@Z 00417160 f i Network:IOCPServer.obj
 0001:000161f0       ??0?$_Tree@V?$_Tmap_traits@KPAVIoHandler@@U?$less@K@std@@V?$RedirectedAllocator@PAVIoHandler@@@module@@$0A@@std@@@std@@QAE@ABU?$less@K@1@ABV?$RedirectedAllocator@U?$pair@$$CBKPAVIoHandler@@@std@@@module@@@Z 004171f0 f i Network:IOCPServer.obj
 0001:00016280       ?_Insert@?$_Tree@V?$_Tmap_traits@KPAVIoHandler@@U?$less@K@std@@V?$RedirectedAllocator@PAVIoHandler@@@module@@$0A@@std@@@std@@IAE?AViterator@12@_NPAU_Node@?$_Tree_nod@V?$_Tmap_traits@KPAVIoHandler@@U?$less@K@std@@V?$RedirectedAllocator@PAVIoHandler@@@module@@$0A@@std@@@2@ABU?$pair@$$CBKPAVIoHandler@@@2@@Z 00417280 f i Network:IOCPServer.obj
 0001:00016480       ?erase@?$_Tree@V?$_Tmap_traits@KPAVIoHandler@@U?$less@K@std@@V?$RedirectedAllocator@PAVIoHandler@@@module@@$0A@@std@@@std@@QAE?AViterator@12@Vconst_iterator@12@@Z 00417480 f i Network:IOCPServer.obj
 0001:00016750       ?insert@?$_Tree@V?$_Tmap_traits@KPAVIoHandler@@U?$less@K@std@@V?$RedirectedAllocator@PAVIoHandler@@@module@@$0A@@std@@@std@@QAE?AU?$pair@Viterator@?$_Tree@V?$_Tmap_traits@KPAVIoHandler@@U?$less@K@std@@V?$RedirectedAllocator@PAVIoHandler@@@module@@$0A@@std@@@std@@_N@2@ABU?$pair@$$CBKPAVIoHandler@@@2@@Z 00417750 f i Network:IOCPServer.obj
 0001:00016840       ?erase@?$_Tree@V?$_Tmap_traits@KPAVIoHandler@@U?$less@K@std@@V?$RedirectedAllocator@PAVIoHandler@@@module@@$0A@@std@@@std@@QAE?AViterator@12@Vconst_iterator@12@0@Z 00417840 f i Network:IOCPServer.obj
 0001:00016920       ??1?$_Tree@V?$_Tmap_traits@KPAVIoHandler@@U?$less@K@std@@V?$RedirectedAllocator@PAVIoHandler@@@module@@$0A@@std@@@std@@QAE@XZ 00417920 f i Network:IOCPServer.obj
 0001:000169a0       ??_GIOCPServer@@UAEPAXI@Z  004179a0 f i Network:IOCPServer.obj
 0001:000169a0       ??_EIOCPServer@@UAEPAXI@Z  004179a0 f i Network:IOCPServer.obj
 0001:000169c0       ?Init@Session@@QAEXXZ      004179c0 f   Network:Session.obj
 0001:00016a00       ?Reuse@Session@@QAEXPAX@Z  00417a00 f   Network:Session.obj
 0001:00016a90       ?PreSend@Session@@QAE_NXZ  00417a90 f   Network:Session.obj
 0001:00016b10       ?CreateSocket@Session@@QAEIXZ 00417b10 f   Network:Session.obj
 0001:00016b30       ?BindNetworkObject@Session@@QAEXPAVNetworkObject@@@Z 00417b30 f   Network:Session.obj
 0001:00016b50       ?UnbindNetworkObject@Session@@QAEXXZ 00417b50 f   Network:Session.obj
 0001:00016b70       ?OnAccept@Session@@QAEXXZ  00417b70 f   Network:Session.obj
 0001:00016bb0       ?OnConnect@Session@@QAEX_N@Z 00417bb0 f   Network:Session.obj
 0001:00016bf0       ?OnLogString@Session@@QAAXPBDZZ 00417bf0 f   Network:Session.obj
 0001:00016c60       ?Disconnect@Session@@QAEX_N@Z 00417c60 f   Network:Session.obj
 0001:00016c80       ?SetSockOpt@Session@@QAEHHHPBDH@Z 00417c80 f   Network:Session.obj
 0001:00016cb0       ??0Session@@QAE@KKKK@Z     00417cb0 f   Network:Session.obj
 0001:00016d20       ??1Session@@UAE@XZ         00417d20 f   Network:Session.obj
 0001:00016d80       ?Send@Session@@QAE_NPAEG@Z 00417d80 f   Network:Session.obj
 0001:00016df0       ?SendEx@Session@@QAE_NKPAPAEPAG@Z 00417df0 f   Network:Session.obj
 0001:00016e70       ?ProcessReceivedPacket@Session@@QAE_NH@Z 00417e70 f   Network:Session.obj
 0001:00016f70       ?PreRecv@Session@@QAE_NXZ  00417f70 f   Network:Session.obj
 0001:00017010       ?PreAccept@Session@@QAE_NI@Z 00418010 f   Network:Session.obj
 0001:000170f0       ?Allocate@?$TAllocator@VSendBuffer@@@module@@SAPAVSendBuffer@@XZ 004180f0 f i Network:Session.obj
 0001:00017160       ?Allocate@?$TAllocator@VRecvBuffer@@@module@@SAPAVRecvBuffer@@XZ 00418160 f i Network:Session.obj
 0001:000171d0       ??_ESession@@UAEPAXI@Z     004181d0 f i Network:Session.obj
 0001:000171d0       ??_GSession@@UAEPAXI@Z     004181d0 f i Network:Session.obj
 0001:000171f0       ??0SendBuffer@@QAE@XZ      004181f0 f   Network:SendBuffer.obj
 0001:00017280       ?PumpPendingBuffer@SendBuffer@@AAEXXZ 00418280 f   Network:SendBuffer.obj
 0001:00017320       ?WriteMessages@SendBuffer@@QAE_NPAPBEPAGKW4HEADER_SIZE_TYPE@@@Z 00418320 f   Network:SendBuffer.obj
 0001:00017400       ??1SendBuffer@@QAE@XZ      00418400 f   Network:SendBuffer.obj
 0001:00017450       ?Create@SendBuffer@@QAEXKK@Z 00418450 f   Network:SendBuffer.obj
 0001:000174e0       ?UsePendingBuffer@SendBuffer@@QAE_NK@Z 004184e0 f   Network:SendBuffer.obj
 0001:000175e0       ?Clear@SendBuffer@@QAEXXZ  004185e0 f   Network:SendBuffer.obj
 0001:00017620       ?PrepareSend@SendBuffer@@QAE_NQAURingBufferInfo@module@@@Z 00418620 f   Network:SendBuffer.obj
 0001:000176f0       ?IsEmpty@SendBuffer@@QBE_NXZ 004186f0 f   Network:SendBuffer.obj
 0001:00017710       ?GetBufferSizeInfo@SendBuffer@@QBEXAAK0@Z 00418710 f   Network:SendBuffer.obj
 0001:00017760       ??0RecvBuffer@@QAE@XZ      00418760 f   Network:RecvBuffer.obj
 0001:00017800       ?PumpTo2ndBuffer@RecvBuffer@@AAEXXZ 00418800 f   Network:RecvBuffer.obj
 0001:000178a0       ?GetRecvParam@RecvBuffer@@QAEXPAPAEAAH@Z 004188a0 f   Network:RecvBuffer.obj
 0001:000178d0       ?PopHeadMessage@RecvBuffer@@QAE_NH@Z 004188d0 f   Network:RecvBuffer.obj
 0001:00017900       ?GetFirstPacketPtr@RecvBuffer@@QAEPAEW4HEADER_SIZE_TYPE@@PAK@Z 00418900 f   Network:RecvBuffer.obj
 0001:000179b0       ??1RecvBuffer@@QAE@XZ      004189b0 f   Network:RecvBuffer.obj
 0001:00017a20       ?Create@RecvBuffer@@QAEXHK@Z 00418a20 f   Network:RecvBuffer.obj
 0001:00017ab0       ?Clear@RecvBuffer@@QAEXXZ  00418ab0 f   Network:RecvBuffer.obj
 0001:00017b00       ?UseDualBuffer@RecvBuffer@@QAE_NK@Z 00418b00 f   Network:RecvBuffer.obj
 0001:00017bf0       ?GetReceivableInfo@RecvBuffer@@AAE_NQAURingBufferInfo@module@@@Z 00418bf0 f   Network:RecvBuffer.obj
 0001:00017c60       ?PrepareRecv@RecvBuffer@@QAE_NQAURingBufferInfo@module@@@Z 00418c60 f   Network:RecvBuffer.obj
 0001:00017d20       ?GetBufferSizeInfo@RecvBuffer@@QBEXAAK0@Z 00418d20 f   Network:RecvBuffer.obj
 0001:00017d70       ??0IoHandler@@QAE@XZ       00418d70 f   Network:IoHandler.obj
 0001:00017d90       ?Init@IoHandler@@QAEXPAVIOCPServer@@PAUtagIOHANDLER_DESC@@@Z 00418d90 f   Network:IoHandler.obj
 0001:000180d0       ?IsListening@IoHandler@@QAEHXZ 004190d0 f   Network:IoHandler.obj
 0001:000180e0       ?SuspendListenThread@IoHandler@@QAEXXZ 004190e0 f   Network:IoHandler.obj
 0001:000180f0       ?ResumeListenThread@IoHandler@@QAEXXZ 004190f0 f   Network:IoHandler.obj
 0001:00018100       ?AllocAcceptSession@IoHandler@@AAEPAVSession@@XZ 00419100 f   Network:IoHandler.obj
 0001:00018120       ?AllocConnectSession@IoHandler@@AAEPAVSession@@XZ 00419120 f   Network:IoHandler.obj
 0001:00018140       ?FreeSession@IoHandler@@AAEXPAVSession@@@Z 00419140 f   Network:IoHandler.obj
 0001:00018180       ?ReuseSession@IoHandler@@AAEXPAVSession@@@Z 00419180 f   Network:IoHandler.obj
 0001:00018190       ?ProcessSend@IoHandler@@AAEXXZ 00419190 f   Network:IoHandler.obj
 0001:000181e0       ?Connect@IoHandler@@QAEKPAVNetworkObject@@PADG@Z 004191e0 f   Network:IoHandler.obj
 0001:000182c0       ?StartListen@IoHandler@@QAEHPADG@Z 004192c0 f   Network:IoHandler.obj
 0001:00018320       ?GetSession@IoHandler@@QAEPAVSession@@K@Z 00419320 f   Network:IoHandler.obj
 0001:00018390       ?ProcessConnectFailList@IoHandler@@AAEXXZ 00419390 f   Network:IoHandler.obj
 0001:00018480       ?ProcessActiveSessionList@IoHandler@@AAEXXZ 00419480 f   Network:IoHandler.obj
 0001:00018580       ?KickAllSessions@IoHandler@@AAEXXZ 00419580 f   Network:IoHandler.obj
 0001:00018600       ?ProcessConnectSuccessList@IoHandler@@AAEXXZ 00419600 f   Network:IoHandler.obj
 0001:000187b0       ?ProcessAcceptedSessionList@IoHandler@@AAEXXZ 004197b0 f   Network:IoHandler.obj
 0001:00018980       ?KickDeadSessions@IoHandler@@AAEXXZ 00419980 f   Network:IoHandler.obj
 0001:00018c50       ?Update@IoHandler@@QAEXXZ  00419c50 f   Network:IoHandler.obj
 0001:00018c90       ?Shutdown@IoHandler@@QAEXXZ 00419c90 f   Network:IoHandler.obj
 0001:00018cf0       ??1IoHandler@@QAE@XZ       00419cf0 f   Network:IoHandler.obj
 0001:00018e60       ??F?$_Const_iterator@$00@?$list@PAVSession@@V?$RedirectedAllocator@PAVSession@@@module@@@std@@QAEAAV012@XZ 00419e60 f i Network:IoHandler.obj
 0001:00018e90       ?clear@?$list@PAVSession@@V?$RedirectedAllocator@PAVSession@@@module@@@std@@QAEXXZ 00419e90 f i Network:IoHandler.obj
 0001:00018ed0       ?_Buynode@?$list@PAVSession@@V?$RedirectedAllocator@PAVSession@@@module@@@std@@IAEPAU_Node@?$_List_nod@PAVSession@@V?$RedirectedAllocator@PAVSession@@@module@@@2@PAU342@0ABQAVSession@@@Z 00419ed0 f i Network:IoHandler.obj
 0001:00018f10       ?erase@?$list@PAVSession@@V?$RedirectedAllocator@PAVSession@@@module@@@std@@QAE?AV?$_Iterator@$00@12@V?$_Const_iterator@$00@12@0@Z 00419f10 f i Network:IoHandler.obj
 0001:00018fd0       ?_Incsize@?$list@PAVSession@@V?$RedirectedAllocator@PAVSession@@@module@@@std@@IAEXI@Z 00419fd0 f i Network:IoHandler.obj
 0001:00019070       ??$_Insert@V?$_Const_iterator@$00@?$list@PAVSession@@V?$RedirectedAllocator@PAVSession@@@module@@@std@@@?$list@PAVSession@@V?$RedirectedAllocator@PAVSession@@@module@@@std@@QAEXV?$_Const_iterator@$00@01@00Uforward_iterator_tag@1@@Z 0041a070 f i Network:IoHandler.obj
 0001:000191d0       ?_Splice@?$list@PAVSession@@V?$RedirectedAllocator@PAVSession@@@module@@@std@@QAEXV?$_Const_iterator@$00@12@AAV12@00I_N@Z 0041a1d0 f i Network:IoHandler.obj
 0001:000192a0       ?LoadExtensionFunction@MsWinsockUtil@@CA_NIU_GUID@@PAPAX@Z 0041a2a0 f   Network:MsWinsockUtil.obj
 0001:00019310       ?LoadExtensionFunction@MsWinsockUtil@@SAXI@Z 0041a310 f   Network:MsWinsockUtil.obj
 0001:000194f0       ??0WxRingBuffer@module@@QAE@K@Z 0041a4f0 f   Network:WxRingBuffer.obj
 0001:00019510       ??0WxRingBuffer@module@@QAE@KK@Z 0041a510 f   Network:WxRingBuffer.obj
 0001:00019550       ??0WxRingBuffer@module@@QAE@KPAEK@Z 0041a550 f   Network:WxRingBuffer.obj
 0001:00019580       ??1WxRingBuffer@module@@UAE@XZ 0041a580 f   Network:WxRingBuffer.obj
 0001:000195b0       ?Reset@WxRingBuffer@module@@QAEXXZ 0041a5b0 f   Network:WxRingBuffer.obj
 0001:000195c0       ?Enqueue@WxRingBuffer@module@@QAEEPBEK@Z 0041a5c0 f   Network:WxRingBuffer.obj
 0001:000196f0       ?Dequeue@WxRingBuffer@module@@QAEEPAEK@Z 0041a6f0 f   Network:WxRingBuffer.obj
 0001:00019820       ?Peek@WxRingBuffer@module@@QAEEPAEK@Z 0041a820 f   Network:WxRingBuffer.obj
 0001:000198d0       ?WritableInfo@WxRingBuffer@module@@QBEEPAURingBufferInfo@2@@Z 0041a8d0 f   Network:WxRingBuffer.obj
 0001:00019980       ?ReadableInfo@WxRingBuffer@module@@QBEEPAURingBufferInfo@2@@Z 0041a980 f   Network:WxRingBuffer.obj
 0001:00019a20       ??_GWxRingBuffer@module@@UAEPAXI@Z 0041aa20 f i Network:WxRingBuffer.obj
 0001:00019a20       ??_EWxRingBuffer@module@@UAEPAXI@Z 0041aa20 f i Network:WxRingBuffer.obj
 0001:00019a60       ?Allocate@?$TAllocator@VSessionList@@@module@@SAPAVSessionList@@XZ 0041aa60 f i Network:SessionPool.obj
 0001:00019ad0       ??1SessionPool@@QAE@XZ     0041aad0 f   Network:SessionPool.obj
 0001:00019b00       ?GetLength@SessionPool@@QAEHXZ 0041ab00 f   Network:SessionPool.obj
 0001:00019b30       ?Alloc@SessionPool@@QAEPAVSession@@XZ 0041ab30 f   Network:SessionPool.obj
 0001:00019bb0       ?Create@SessionPool@@AAEXKKKKKKH@Z 0041abb0 f   Network:SessionPool.obj
 0001:00019cb0       ?Free@SessionPool@@QAEXPAVSession@@@Z 0041acb0 f   Network:SessionPool.obj
 0001:00019d10       ??0SessionPool@@QAE@KKKKKKH@Z 0041ad10 f   Network:SessionPool.obj
 0001:00019d50       ??0Acceptor@@QAE@XZ        0041ad50 f   Network:Acceptor.obj
 0001:00019da0       ?Init@Acceptor@@QAEXPAVIoHandler@@K@Z 0041ada0 f   Network:Acceptor.obj
 0001:00019e00       ?CreateListenSocket@Acceptor@@AAEHPBDG@Z 0041ae00 f   Network:Acceptor.obj
 0001:00019ed0       ?SuspendListenThread@Acceptor@@QAEXXZ 0041aed0 f   Network:Acceptor.obj
 0001:00019f00       ?ResumeListenThread@Acceptor@@QAEXXZ 0041af00 f   Network:Acceptor.obj
 0001:00019f30       ?Shutdown@Acceptor@@QAEXXZ 0041af30 f   Network:Acceptor.obj
 0001:00019fa0       ??1Acceptor@@QAE@XZ        0041afa0 f   Network:Acceptor.obj
 0001:00019fe0       ?StartListen@Acceptor@@QAEHPBDG@Z 0041afe0 f   Network:Acceptor.obj
 0001:0001a050       ??0Connector@@QAE@XZ       0041b050 f   Network:Connector.obj
 0001:0001a0d0       ?Init@Connector@@QAEXPAVIoHandler@@K@Z 0041b0d0 f   Network:Connector.obj
 0001:0001a190       ?Shutdown@Connector@@QAEXXZ 0041b190 f   Network:Connector.obj
 0001:0001a1d0       ??1Connector@@QAE@XZ       0041b1d0 f   Network:Connector.obj
 0001:0001a240       ?Connect@Connector@@QAEXPAVSession@@@Z 0041b240 f   Network:Connector.obj
 0001:0001a2a0       ?_Buynode@?$list@PAVSession@@V?$RedirectedAllocator@PAVSession@@@module@@@std@@IAEPAU_Node@?$_List_nod@PAVSession@@V?$RedirectedAllocator@PAVSession@@@module@@@2@XZ 0041b2a0 f i Network:SessionList.obj
 0001:0001a2c0       ??1?$_List_val@PAVSession@@V?$RedirectedAllocator@PAVSession@@@module@@@std@@QAE@XZ 0041b2c0 f i Network:SessionList.obj
 0001:0001a2c0       ??1?$_Tree_val@V?$_Tmap_traits@KPAVIoHandler@@U?$less@K@std@@V?$RedirectedAllocator@PAVIoHandler@@@module@@$0A@@std@@@std@@QAE@XZ 0041b2c0 f i Network:IOCPServer.obj
 0001:0001a2c0       ??1?$_List_val@U?$pair@$$CBKPAVServerSession@@@std@@V?$CustomAllocator@U?$pair@$$CBKPAVServerSession@@@std@@@util@@@std@@QAE@XZ 0041b2c0 f i servercommon:ServerFrame.obj
 0001:0001a2c0       ??1?$_Vector_val@U_List_position@?$_Hash@V?$_Hmap_traits@KPAVServerSession@@V?$hash_compare@KU?$less@K@std@@@stdext@@V?$CustomAllocator@PAVServerSession@@@util@@$0A@@stdext@@@stdext@@V?$CustomAllocator@U_List_position@?$_Hash@V?$_Hmap_traits@KPAVServerSession@@V?$hash_compare@KU?$less@K@std@@@stdext@@V?$CustomAllocator@PAVServerSession@@@util@@$0A@@stdext@@@stdext@@@util@@@std@@QAE@XZ 0041b2c0 f i servercommon:ServerFrame.obj
 0001:0001a2d0       ?Clear@SessionList@@QAEXXZ 0041b2d0 f   Network:SessionList.obj
 0001:0001a390       ??0SessionList@@QAE@XZ     0041b390 f   Network:SessionList.obj
 0001:0001a3b0       ??1SessionList@@QAE@XZ     0041b3b0 f   Network:SessionList.obj
 0001:0001a420       ??0?$list@PAVSession@@V?$RedirectedAllocator@PAVSession@@@module@@@std@@QAE@XZ 0041b420 f i Network:SessionList.obj
 0001:0001a490       ?io_thread@@YGIPAX@Z       0041b490 f   Network:IoHandler_Worker.obj
 0001:0001a5b0       ?accept_thread@@YGIPAX@Z   0041b5b0 f   Network:Acceptor_Worker.obj
 0001:0001a720       ?connect_thread@@YGIPAX@Z  0041b720 f   Network:Connector_Worker.obj
 0001:0001a880       ?CheckSkipType@ns_formula@@YA_NW4eATTR_TYPE@@_N@Z 0041b880 f   SolarSlot_s:ItemOptionHeader.obj
 0001:0001a8b0       ?CheckAttrValidity@ns_formula@@YA_NW4eATTR_TYPE@@HH@Z 0041b8b0 f   SolarSlot_s:ItemOptionHeader.obj
 0001:0001a8d0       ?CheckStatsRelatedOption@ns_formula@@YA_NG@Z 0041b8d0 f   SolarSlot_s:ItemOptionHeader.obj
 0001:0001a905       ?_JumpToContinuation@@YGXPAXPAUEHRegistrationNode@@@Z 0041b905 f   LIBCMT:_trnsctrl_.obj
 0001:0001a937       ?_CallMemberFunction2@@YGXPAX00H@Z 0041b937 f   LIBCMT:_trnsctrl_.obj
 0001:0001a937       ?_CallMemberFunction0@@YGXPAX0@Z 0041b937 f   LIBCMT:_trnsctrl_.obj
 0001:0001a937       ?_CallMemberFunction1@@YGXPAX00@Z 0041b937 f   LIBCMT:_trnsctrl_.obj
 0001:0001a93e       ?_UnwindNestedFrames@@YGXPAUEHRegistrationNode@@PAUEHExceptionRecord@@@Z 0041b93e f   LIBCMT:_trnsctrl_.obj
 0001:0001a992       ___CxxFrameHandler         0041b992 f   LIBCMT:_trnsctrl_.obj
 0001:0001a992       ___CxxFrameHandler3        0041b992 f   LIBCMT:_trnsctrl_.obj
 0001:0001a9fb       ?_CallSETranslator@@YAHPAUEHExceptionRecord@@PAUEHRegistrationNode@@PAX2PBU_s_FuncInfo@@H1@Z 0041b9fb f   LIBCMT:_trnsctrl_.obj
 0001:0001ab71       ?_GetRangeOfTrysToCheck@@YAPBU_s_TryBlockMapEntry@@PBU_s_FuncInfo@@HHPAI1@Z 0041bb71 f   LIBCMT:_trnsctrl_.obj
 0001:0001abe6       __CreateFrameInfo          0041bbe6 f   LIBCMT:_trnsctrl_.obj
 0001:0001ac12       __IsExceptionObjectToBeDestroyed 0041bc12 f   LIBCMT:_trnsctrl_.obj
 0001:0001ac39       __FindAndUnlinkFrame       0041bc39 f   LIBCMT:_trnsctrl_.obj
 0001:0001ac8b       ?_CallCatchBlock2@@YAPAXPAUEHRegistrationNode@@PBU_s_FuncInfo@@PAXHK@Z 0041bc8b f   LIBCMT:_trnsctrl_.obj
 0001:0001aceb       @__security_check_cookie@4 0041bceb f   LIBCMT:secchk.obj
 0001:0001acfa       ??1type_info@@UAE@XZ       0041bcfa f   LIBCMT:typinfo.obj
 0001:0001ad0a       ??_Gtype_info@@UAEPAXI@Z   0041bd0a f i LIBCMT:typinfo.obj
 0001:0001ad0a       ??_Etype_info@@UAEPAXI@Z   0041bd0a f i LIBCMT:typinfo.obj
 0001:0001ad2b       ??8type_info@@QBE_NABV0@@Z 0041bd2b f   LIBCMT:typinfo.obj
 0001:0001ad4b       ??3@YAXPAX@Z               0041bd4b f   LIBCMT:delete.obj
 0001:0001ad56       _printf                    0041bd56 f   LIBCMT:printf.obj
 0001:0001ae05       __get_printf_count_output  0041be05 f   LIBCMT:printf.obj
 0001:0001ae1b       ??0bad_alloc@std@@QAE@XZ   0041be1b f i LIBCMT:new.obj
 0001:0001ae36       ??2@YAPAXI@Z               0041be36 f   LIBCMT:new.obj
 0001:0001ae9b       __purecall                 0041be9b f   LIBCMT:purevirt.obj
 0001:0001aec5       _V6_HeapAlloc              0041bec5 f   LIBCMT:malloc.obj
 0001:0001af14       _malloc                    0041bf14 f   LIBCMT:malloc.obj
 0001:0001afde       _free                      0041bfde f   LIBCMT:free.obj
 0001:0001b06c       ??_U@YAPAXIABUnothrow_t@std@@@Z 0041c06c f   LIBCMT:newaopnt.obj
 0001:0001b077       ??_V@YAXPAX@Z              0041c077 f   LIBCMT:delete2.obj
 0001:0001b082       __fclose_nolock            0041c082 f   LIBCMT:fclose.obj
 0001:0001b0f9       _fclose                    0041c0f9 f   LIBCMT:fclose.obj
 0001:0001b175       _fprintf                   0041c175 f   LIBCMT:fprintf.obj
 0001:0001b291       __fsopen                   0041c291 f   LIBCMT:fopen.obj
 0001:0001b355       _fopen                     0041c355 f   LIBCMT:fopen.obj
 0001:0001b36c       _sprintf                   0041c36c f   LIBCMT:sprintf.obj
 0001:0001b3f0       __alloca_probe             0041c3f0     LIBCMT:chkstk.obj
 0001:0001b3f0       __chkstk                   0041c3f0 f   LIBCMT:chkstk.obj
 0001:0001b4d5       ___onexitinit              0041c4d5 f   LIBCMT:onexit.obj
 0001:0001b506       __onexit                   0041c506 f   LIBCMT:onexit.obj
 0001:0001b542       _atexit                    0041c542 f   LIBCMT:onexit.obj
 0001:0001b559       __initp_misc_invarg        0041c559 f   LIBCMT:invarg.obj
 0001:0001b568       __invoke_watson            0041c568 f   LIBCMT:invarg.obj
 0001:0001b690       __invalid_parameter        0041c690 f   LIBCMT:invarg.obj
 0001:0001b6b6       __invalid_parameter_noinfo 0041c6b6 f   LIBCMT:invarg.obj
 0001:0001b6c6       ??0_LocaleUpdate@@QAE@PAUlocaleinfo_struct@@@Z 0041c6c6 f i LIBCMT:mbsnbcpy.obj
 0001:0001b74d       __mbsnbcpy_l               0041c74d f   LIBCMT:mbsnbcpy.obj
 0001:0001b830       __mbsnbcpy                 0041c830 f   LIBCMT:mbsnbcpy.obj
 0001:0001b84a       __cfltcvt_init             0041c84a f   LIBCMT:_fpinit_.obj
 0001:0001b8aa       __fpmath                   0041c8aa f   LIBCMT:_fpinit_.obj
 0001:0001b8cd       _ldiv                      0041c8cd f   LIBCMT:ldiv.obj
 0001:0001b8db       __CxxThrowException@8      0041c8db f   LIBCMT:throw.obj
 0001:0001b927       ??0exception@std@@QAE@XZ   0041c927 f   LIBCMT:stdexcpt.obj
 0001:0001b938       ??0exception@std@@QAE@ABQBD@Z 0041c938 f   LIBCMT:stdexcpt.obj
 0001:0001b98b       ??0exception@std@@QAE@ABQBDH@Z 0041c98b f   LIBCMT:stdexcpt.obj
 0001:0001b9a8       ??0exception@std@@QAE@ABV01@@Z 0041c9a8 f   LIBCMT:stdexcpt.obj
 0001:0001ba05       ??1exception@std@@UAE@XZ   0041ca05 f   LIBCMT:stdexcpt.obj
 0001:0001ba1b       ?what@exception@std@@UBEPBDXZ 0041ca1b f   LIBCMT:stdexcpt.obj
 0001:0001ba28       ??_Eexception@std@@UAEPAXI@Z 0041ca28 f i LIBCMT:stdexcpt.obj
 0001:0001ba28       ??_Gexception@std@@UAEPAXI@Z 0041ca28 f i LIBCMT:stdexcpt.obj
 0001:0001ba49       _memcpy_s                  0041ca49 f   LIBCMT:memcpy_s.obj
 0001:0001bac6       _memmove_s                 0041cac6 f   LIBCMT:memmove_s.obj
 0001:0001bc9e       _mainCRTStartup            0041cc9e f   LIBCMT:crt0.obj
 0001:0001bcb0       __aulldiv                  0041ccb0 f   LIBCMT:ulldiv.obj
 0001:0001bd20       __aulldvrm                 0041cd20 f   LIBCMT:ulldvrm.obj
 0001:0001bdc0       __allmul                   0041cdc0 f   LIBCMT:llmul.obj
 0001:0001bdf4       __time32                   0041cdf4 f   LIBCMT:time.obj
 0001:0001be42       _puts                      0041ce42 f   LIBCMT:puts.obj
 0001:0001bfa1       __snprintf                 0041cfa1 f   LIBCMT:snprintf.obj
 0001:0001c050       __toupper_l                0041d050 f   LIBCMT:toupper.obj
 0001:0001c166       _toupper                   0041d166 f   LIBCMT:toupper.obj
 0001:0001c192       __freea                    0041d192 f i LIBCMT:getch.obj
 0001:0001c1b2       __getextendedkeycode       0041d1b2 f   LIBCMT:getch.obj
 0001:0001c265       __getch_nolock             0041d265 f   LIBCMT:getch.obj
 0001:0001c32a       __kbhit_nolock             0041d32a f   LIBCMT:getch.obj
 0001:0001c454       __getch                    0041d454 f   LIBCMT:getch.obj
 0001:0001c454       _getch                     0041d454 f   LIBCMT:getch.obj
 0001:0001c492       __kbhit                    0041d492 f   LIBCMT:getch.obj
 0001:0001c4d0       _srand                     0041d4d0 f   LIBCMT:rand.obj
 0001:0001c4e2       _system                    0041d4e2 f   LIBCMT:system.obj
 0001:0001c5d0       _strncpy                   0041d5d0 f   LIBCMT:strncpy.obj
 0001:0001c700       _memset                    0041d700 f   LIBCMT:memset.obj
 0001:0001c77a       __vsnprintf_l              0041d77a f   LIBCMT:vsnprint.obj
 0001:0001c82d       __vsnprintf                0041d82d f   LIBCMT:vsnprint.obj
 0001:0001c84a       __get_sys_err_msg          0041d84a f i LIBCMT:perror.obj
 0001:0001c872       _perror                    0041d872 f   LIBCMT:perror.obj
 0001:0001c900       __access_s                 0041d900 f   LIBCMT:access.obj
 0001:0001c989       __access                   0041d989 f   LIBCMT:access.obj
 0001:0001c9a1       _strtok                    0041d9a1 f   LIBCMT:strtok.obj
 0001:0001ca70       _strrchr                   0041da70 f   LIBCMT:strrchr.obj
 0001:0001caa0       _memcpy                    0041daa0 f   LIBCMT:memcpy.obj
 0001:0001ce05       _setvbuf                   0041de05 f   LIBCMT:setvbuf.obj
 0001:0001cf03       ___iob_func                0041df03 f   LIBCMT:_file.obj
 0001:0001cf09       ___initstdio               0041df09 f   LIBCMT:_file.obj
 0001:0001cfba       ___endstdio                0041dfba f   LIBCMT:_file.obj
 0001:0001cfda       __lock_file                0041dfda f   LIBCMT:_file.obj
 0001:0001d01b       __lock_file2               0041e01b f   LIBCMT:_file.obj
 0001:0001d04d       __unlock_file              0041e04d f   LIBCMT:_file.obj
 0001:0001d089       __unlock_file2             0041e089 f   LIBCMT:_file.obj
 0001:0001d0b8       __fdopen                   0041e0b8 f   LIBCMT:fdopen.obj
 0001:0001d23e       __set_osfhnd               0041e23e f   LIBCMT:osfinfo.obj
 0001:0001d2bf       __free_osfhnd              0041e2bf f   LIBCMT:osfinfo.obj
 0001:0001d345       __get_osfhandle            0041e345 f   LIBCMT:osfinfo.obj
 0001:0001d3bc       ___lock_fhandle            0041e3bc f   LIBCMT:osfinfo.obj
 0001:0001d45c       __unlock_fhandle           0041e45c f   LIBCMT:osfinfo.obj
 0001:0001d483       __alloc_osfhnd             0041e483 f   LIBCMT:osfinfo.obj
 0001:0001d61d       __open_osfhandle           0041e61d f   LIBCMT:osfinfo.obj
 0001:0001d733       __localtime64_s            0041e733 f   LIBCMT:loctim64.obj
 0001:0001d9eb       __localtime64              0041e9eb f   LIBCMT:loctim64.obj
 0001:0001dcc7       __mktime64                 0041ecc7 f   LIBCMT:mktime64.obj
 0001:0001dcd9       __gmtime64_s               0041ecd9 f   LIBCMT:gmtime64.obj
 0001:0001df1c       _atol                      0041ef1c f   LIBCMT:atox.obj
 0001:0001df32       _atoi                      0041ef32 f   LIBCMT:atox.obj
 0001:0001df40       _strlen                    0041ef40 f   LIBCMT:strlen.obj
 0001:0001dfcb       __EH_prolog3               0041efcb f   LIBCMT:ehprolg3.obj
 0001:0001dffe       __EH_prolog3_catch         0041effe f   LIBCMT:ehprolg3.obj
 0001:0001e034       __EH_epilog3               0041f034 f   LIBCMT:ehprolg3.obj
 0001:0001e048       _strerror                  0041f048 f   LIBCMT:strerror.obj
 0001:0001e0b4       _calloc                    0041f0b4 f   LIBCMT:calloc.obj
 0001:0001e0f4       __global_unwind2           0041f0f4 f   LIBCMT:exsup.obj
 0001:0001e159       __local_unwind2            0041f159 f   LIBCMT:exsup.obj
 0001:0001e1dd       __abnormal_termination     0041f1dd f   LIBCMT:exsup.obj
 0001:0001e200       __NLG_Notify1              0041f200 f   LIBCMT:exsup.obj
 0001:0001e209       __NLG_Notify               0041f209 f   LIBCMT:exsup.obj
 0001:0001e220       __NLG_Dispatch2            0041f220     LIBCMT:exsup.obj
 0001:0001e220       __NLG_Dispatch             0041f220     LIBCMT:exsup.obj
 0001:0001e228       __NLG_Call                 0041f228 f   LIBCMT:exsup.obj
 0001:0001e22a       __NLG_Return2              0041f22a     LIBCMT:exsup.obj
 0001:0001e230       __ftol2_sse                0041f230 f   LIBCMT:ftol2.obj
 0001:0001e239       __ftol2_pentium4           0041f239 f   LIBCMT:ftol2.obj
 0001:0001e24c       __ftol2_sse_excpt          0041f24c f   LIBCMT:ftol2.obj
 0001:0001e266       __ftol2                    0041f266 f   LIBCMT:ftol2.obj
 0001:0001e4cd       __splitpath                0041f4cd f   LIBCMT:splitpat.obj
 0001:0001e519       __endthreadex              0041f519 f   LIBCMT:threadex.obj
 0001:0001e61a       __beginthreadex            0041f61a f   LIBCMT:threadex.obj
 0001:0001e6ca       ??0bad_exception@std@@QAE@PBD@Z 0041f6ca f i LIBCMT:frame.obj
 0001:0001e6e8       ??1bad_exception@std@@UAE@XZ 0041f6e8 f i LIBCMT:frame.obj
 0001:0001e6f3       ??_Ebad_exception@std@@UAEPAXI@Z 0041f6f3 f i LIBCMT:frame.obj
 0001:0001e6f3       ??_Gbad_exception@std@@UAEPAXI@Z 0041f6f3 f i LIBCMT:frame.obj
 0001:0001e71a       ___TypeMatch               0041f71a f   LIBCMT:frame.obj
 0001:0001e779       ___FrameUnwindFilter       0041f779 f   LIBCMT:frame.obj
 0001:0001e7c2       ___FrameUnwindToState      0041f7c2 f   LIBCMT:frame.obj
 0001:0001e8e8       ___DestructExceptionObject 0041f8e8 f   LIBCMT:frame.obj
 0001:0001e93d       ___AdjustPointer           0041f93d f   LIBCMT:frame.obj
 0001:0001ebc6       ___BuildCatchObjectHelper  0041fbc6 f   LIBCMT:frame.obj
 0001:0001ed45       ___BuildCatchObject        0041fd45 f   LIBCMT:frame.obj
 0001:0001f280       ??0bad_exception@std@@QAE@ABV01@@Z 00420280 f i LIBCMT:frame.obj
 0001:0001f29d       ___InternalCxxFrameHandler 0042029d f   LIBCMT:frame.obj
 0001:0001f383       __encode_pointer           00420383 f   LIBCMT:tidtable.obj
 0001:0001f3f5       __encoded_null             004203f5 f   LIBCMT:tidtable.obj
 0001:0001f3fe       __decode_pointer           004203fe f   LIBCMT:tidtable.obj
 0001:0001f470       ___crtTlsAlloc@4           00420470 f   LIBCMT:tidtable.obj
 0001:0001f479       ___fls_getvalue@4          00420479 f   LIBCMT:tidtable.obj
 0001:0001f493       ___get_flsindex            00420493 f   LIBCMT:tidtable.obj
 0001:0001f499       ___set_flsgetvalue         00420499 f   LIBCMT:tidtable.obj
 0001:0001f4cd       ___fls_setvalue@8          004204cd f   LIBCMT:tidtable.obj
 0001:0001f4ea       __mtterm                   004204ea f   LIBCMT:tidtable.obj
 0001:0001f527       __initptd                  00420527 f   LIBCMT:tidtable.obj
 0001:0001f60e       __getptd_noexit            0042060e f   LIBCMT:tidtable.obj
 0001:0001f687       __getptd                   00420687 f   LIBCMT:tidtable.obj
 0001:0001f6a1       __freefls@4                004206a1 f   LIBCMT:tidtable.obj
 0001:0001f7d0       __freeptd                  004207d0 f   LIBCMT:tidtable.obj
 0001:0001f83e       __mtinit                   0042083e f   LIBCMT:tidtable.obj
 0001:0001f9cb       ?terminate@@YAXXZ          004209cb f   LIBCMT:hooks.obj
 0001:0001fa04       ?unexpected@@YAXXZ         00420a04 f   LIBCMT:hooks.obj
 0001:0001fa17       ?_inconsistency@@YAXXZ     00420a17 f   LIBCMT:hooks.obj
 0001:0001fa4f       __initp_eh_hooks           00420a4f f   LIBCMT:hooks.obj
 0001:0001fa60       __CallSettingFrame@12      00420a60 f   LIBCMT:lowhelpr.obj
 0001:0001fa87       __NLG_Return               00420a87     LIBCMT:lowhelpr.obj
 0001:0001faac       ___report_gsfailure        00420aac f   LIBCMT:gs_report.obj
 0001:0001fbb2       ?_Type_info_dtor@type_info@@CAXPAV1@@Z 00420bb2 f   LIBCMT:typname.obj
 0001:0001fc30       _strcmp                    00420c30 f   LIBCMT:strcmp.obj
 0001:0001fcb8       __stbuf                    00420cb8 f   LIBCMT:_sftbuf.obj
 0001:0001fd54       __ftbuf                    00420d54 f   LIBCMT:_sftbuf.obj
 0001:0001fe2e       __output_l                 00420e2e f   LIBCMT:output.obj
 0001:000209c6       __get_errno_from_oserr     004219c6 f   LIBCMT:dosmap.obj
 0001:00020a08       __errno                    00421a08 f   LIBCMT:dosmap.obj
 0001:00020a1b       ___doserrno                00421a1b f   LIBCMT:dosmap.obj
 0001:00020a2e       __dosmaperr                00421a2e f   LIBCMT:dosmap.obj
 0001:00020a54       __SEH_prolog4              00421a54 f   LIBCMT:sehprolg4.obj
 0001:00020a99       __SEH_epilog4              00421a99 f   LIBCMT:sehprolg4.obj
 0001:00020ab0       __except_handler4          00421ab0 f   LIBCMT:chandler4.obj
 0001:00020c3c       __initp_heap_handler       00421c3c f   LIBCMT:handler.obj
 0001:00020c4b       __callnewh                 00421c4b f   LIBCMT:handler.obj
 0001:00020c73       _abort                     00421c73 f   LIBCMT:abort.obj
 0001:00020d8a       __set_abort_behavior       00421d8a f   LIBCMT:abort.obj
 0001:00020dab       __NMSG_WRITE               00421dab f   LIBCMT:crt0msg.obj
 0001:00020f56       __FF_MSGBANNER             00421f56 f   LIBCMT:crt0msg.obj
 0001:00020f8f       __initp_misc_purevirt      00421f8f f   LIBCMT:inithelp.obj
 0001:00020f9e       __mtinitlocks              00421f9e f   LIBCMT:mlock.obj
 0001:00020fe9       __mtdeletelocks            00421fe9 f   LIBCMT:mlock.obj
 0001:00021040       __unlock                   00422040 f   LIBCMT:mlock.obj
 0001:00021057       __mtinitlocknum            00422057 f   LIBCMT:mlock.obj
 0001:0002111a       __lock                     0042211a f   LIBCMT:mlock.obj
 0001:0002114d       ___sbh_find_block          0042214d f   LIBCMT:sbheap.obj
 0001:0002117d       ___sbh_free_block          0042217d f   LIBCMT:sbheap.obj
 0001:00021493       ___sbh_alloc_new_region    00422493 f   LIBCMT:sbheap.obj
 0001:00021543       ___sbh_alloc_new_group     00422543 f   LIBCMT:sbheap.obj
 0001:0002164b       ___sbh_resize_block        0042264b f   LIBCMT:sbheap.obj
 0001:0002192c       ___sbh_alloc_block         0042292c f   LIBCMT:sbheap.obj
 0001:00021c11       __heap_init                00422c11 f   LIBCMT:heapinit.obj
 0001:00021c41       __crt_waiting_on_module_handle 00422c41 f   LIBCMT:crt0dat.obj
 0001:00021c71       __amsg_exit                00422c71 f   LIBCMT:crt0dat.obj
 0001:00021c9a       ___crtCorExitProcess       00422c9a f   LIBCMT:crt0dat.obj
 0001:00021cc5       ___crtExitProcess          00422cc5 f   LIBCMT:crt0dat.obj
 0001:00021cdd       __lockexit                 00422cdd f   LIBCMT:crt0dat.obj
 0001:00021ce6       __unlockexit               00422ce6 f   LIBCMT:crt0dat.obj
 0001:00021d0c       __initterm_e               00422d0c f   LIBCMT:crt0dat.obj
 0001:00021d30       __cinit                    00422d30 f   LIBCMT:crt0dat.obj
 0001:00021ee1       _exit                      00422ee1 f   LIBCMT:crt0dat.obj
 0001:00021ef7       __exit                     00422ef7 f   LIBCMT:crt0dat.obj
 0001:00021f0d       __cexit                    00422f0d f   LIBCMT:crt0dat.obj
 0001:00021f1c       __c_exit                   00422f1c f   LIBCMT:crt0dat.obj
 0001:00021f2b       __init_pointers            00422f2b f   LIBCMT:crt0dat.obj
 0001:00021f79       ??2@YAPAXIABUnothrow_t@std@@@Z 00422f79 f   LIBCMT:newopnt.obj
 0001:00021fa8       __close_nolock             00422fa8 f   LIBCMT:close.obj
 0001:00022044       __close                    00423044 f   LIBCMT:close.obj
 0001:00022111       __fileno                   00423111 f   LIBCMT:fileno.obj
 0001:00022143       __freebuf                  00423143 f   LIBCMT:_freebuf.obj
 0001:00022174       __flush                    00423174 f   LIBCMT:fflush.obj
 0001:000221dc       __fflush_nolock            004231dc f   LIBCMT:fflush.obj
 0001:000222fe       __flushall                 004232fe f   LIBCMT:fflush.obj
 0001:00022307       __ioinit                   00423307 f   LIBCMT:ioinit.obj
 0001:0002255b       __openfile                 0042355b f   LIBCMT:_open.obj
 0001:00022824       __getstream                00423824 f   LIBCMT:stream.obj
 0001:0002295c       __local_unwind4            0042395c f   LIBCMT:exsup4.obj
 0001:00022a32       __seh_longjmp_unwind4@4    00423a32 f   LIBCMT:exsup4.obj
 0001:00022a4e       @_EH4_CallFilterFunc@8     00423a4e f   LIBCMT:exsup4.obj
 0001:00022a65       @_EH4_TransferToHandler@8  00423a65 f   LIBCMT:exsup4.obj
 0001:00022a7e       @_EH4_GlobalUnwind@4       00423a7e f   LIBCMT:exsup4.obj
 0001:00022a98       @_EH4_LocalUnwind@16       00423a98 f   LIBCMT:exsup4.obj
 0001:00022aaf       __flsbuf                   00423aaf f   LIBCMT:_flsbuf.obj
 0001:00022c13       __malloc_crt               00423c13 f   LIBCMT:crtheap.obj
 0001:00022c58       __calloc_crt               00423c58 f   LIBCMT:crtheap.obj
 0001:00022ca4       __realloc_crt              00423ca4 f   LIBCMT:crtheap.obj
 0001:00022cf2       __recalloc_crt             00423cf2 f   LIBCMT:crtheap.obj
 0001:00022d44       __msize                    00423d44 f   LIBCMT:msize.obj
 0001:00022de7       __crt_debugger_hook        00423de7 f   LIBCMT:dbghook.obj
 0001:00023015       ___updatetmbcinfo          00424015 f   LIBCMT:mbctype.obj
 0001:00023135       __setmbcp_nolock           00424135 f   LIBCMT:mbctype.obj
 0001:0002331a       __setmbcp                  0042431a f   LIBCMT:mbctype.obj
 0001:000234b4       ___initmbctable            004244b4 f   LIBCMT:mbctype.obj
 0001:000234d2       ___freetlocinfo            004244d2 f   LIBCMT:setlocal.obj
 0001:0002361b       ___addlocaleref            0042461b f   LIBCMT:setlocal.obj
 0001:000236aa       ___removelocaleref         004246aa f   LIBCMT:setlocal.obj
 0001:00023781       ___updatetlocinfo          00424781 f   LIBCMT:setlocal.obj
 0001:000237f7       __forcdecpt_l              004247f7 f   LIBCMT:cvt.obj
 0001:0002386a       __cropzeros_l              0042486a f   LIBCMT:cvt.obj
 0001:000238ec       __positive                 004248ec f   LIBCMT:cvt.obj
 0001:00023908       __fassign_l                00424908 f   LIBCMT:cvt.obj
 0001:0002394a       __fassign                  0042494a f   LIBCMT:cvt.obj
 0001:00023983       __forcdecpt                00424983 f   LIBCMT:cvt.obj
 0001:00023996       __cropzeros                00424996 f   LIBCMT:cvt.obj
 0001:00023b18       __cftoe_l                  00424b18 f   LIBCMT:cvt.obj
 0001:00023be8       __cftoe                    00424be8 f   LIBCMT:cvt.obj
 0001:00023c08       __cftoa_l                  00424c08 f   LIBCMT:cvt.obj
 0001:00024072       __cftof_l                  00425072 f   LIBCMT:cvt.obj
 0001:0002412d       __cftog_l                  0042512d f   LIBCMT:cvt.obj
 0001:00024227       __cfltcvt_l                00425227 f   LIBCMT:cvt.obj
 0001:000242af       __cfltcvt                  004252af f   LIBCMT:cvt.obj
 0001:000242d2       __initp_misc_cfltcvt_tab   004252d2 f   LIBCMT:cmiscdat.obj
 0001:000242f3       __setdefaultprecision      004252f3 f   LIBCMT:fp8.obj
 0001:0002431e       __ms_p5_test_fdiv          0042531e f   LIBCMT:_testfdiv_.obj
 0001:0002435c       __ms_p5_mp_test_fdiv       0042535c f   LIBCMT:_testfdiv_.obj
 0001:00024385       _strcpy_s                  00425385 f   LIBCMT:strcpy_s.obj
 0001:000243f0       _memmove                   004253f0 f   LIBCMT:memmove.obj
 0001:00024755       ?__CxxUnhandledExceptionFilter@@YGJPAU_EXCEPTION_POINTERS@@@Z 00425755 f   LIBCMT:unhandld.obj
 0001:00024797       ___CxxSetUnhandledExceptionFilter 00425797 f   LIBCMT:unhandld.obj
 0001:000247a5       __fpclear                  004257a5 f   LIBCMT:_fpinit_.obj
 0001:000247a5       __initp_misc_winxfltr      004257a5 f   LIBCMT:winxfltr.obj
 0001:000247a6       __XcptFilter               004257a6 f   LIBCMT:winxfltr.obj
 0001:00024906       __setenvp                  00425906 f   LIBCMT:stdenvp.obj
 0001:00024b7e       __setargv                  00425b7e f   LIBCMT:stdargv.obj
 0001:00024c39       ___crtGetEnvironmentStringsA 00425c39 f   LIBCMT:a_env.obj
 0001:00024d70       __RTC_Initialize           00425d70 f   LIBCMT:_initsect_.obj
 0001:00024d96       __RTC_Terminate            00425d96 f   LIBCMT:_initsect_.obj
 0001:00024dbc       ___security_init_cookie    00425dbc f   LIBCMT:gs_support.obj
 0001:00024e52       __fwrite_nolock            00425e52 f   LIBCMT:fwrite.obj
 0001:00025359       ___crtLCMapStringA         00426359 f   LIBCMT:a_map.obj
 0001:0002539e       __isleadbyte_l             0042639e f i LIBCMT:_wctype.obj
 0001:000253d6       _isleadbyte                004263d6 f i LIBCMT:_wctype.obj
 0001:000253e9       __isctype_l                004263e9 f   LIBCMT:isctype.obj
 0001:000254a1       ___initconin               004264a1 f   LIBCMT:initcon.obj
 0001:000254c0       ___initconout              004264c0 f   LIBCMT:initcon.obj
 0001:000254df       ___termcon                 004264df f   LIBCMT:initcon.obj
 0001:00025510       __alloca_probe_16          00426510 f   LIBCMT:alloca16.obj
 0001:00025526       __alloca_probe_8           00426526     LIBCMT:alloca16.obj
 0001:0002553c       __spawnvpe                 0042653c f   LIBCMT:spawnvpe.obj
 0001:0002582e       __spawnve                  0042682e f   LIBCMT:spawnve.obj
 0001:00025a4f       __getenv_helper_nolock     00426a4f f   LIBCMT:getenv.obj
 0001:00025ad6       __dupenv_s                 00426ad6 f   LIBCMT:getenv.obj
 0001:00025c13       __VEC_memzero              00426c13 f   LIBCMT:p4_memset.obj
 0001:00025cf2       __get_sse2_info            00426cf2 f   LIBCMT:cpu_disp.obj
 0001:00025d54       ___sse2_available_init     00426d54 f   LIBCMT:cpu_disp.obj
 0001:00025d61       ___sys_nerr                00426d61 f   LIBCMT:syserr.obj
 0001:00025d67       ___sys_errlist             00426d67 f   LIBCMT:syserr.obj
 0001:00025d6d       __write_nolock             00426d6d f   LIBCMT:write.obj
 0001:000264a0       __write                    004274a0 f   LIBCMT:write.obj
 0001:00026603       __VEC_memcpy               00427603 f   LIBCMT:p4_memcpy.obj
 0001:000266e6       __fcloseall                004276e6 f   LIBCMT:closeall.obj
 0001:00026785       __initp_misc_initcrit      00427785 f   LIBCMT:initcrit.obj
 0001:00026794       ___crtInitCritSecAndSpinCount 00427794 f   LIBCMT:initcrit.obj
 0001:000267f4       __set_daylight             004277f4 f i LIBCMT:tzset.obj
 0001:00026805       __set_dstbias              00427805 f i LIBCMT:tzset.obj
 0001:00026816       __set_timezone             00427816 f i LIBCMT:tzset.obj
 0001:00026f3c       ___tzset                   00427f3c f   LIBCMT:tzset.obj
 0001:00026f8b       __isindst                  00427f8b f   LIBCMT:tzset.obj
 0001:00026fcc       __get_daylight             00427fcc f   LIBCMT:timeset.obj
 0001:00027005       __get_dstbias              00428005 f   LIBCMT:timeset.obj
 0001:0002703e       __get_timezone             0042803e f   LIBCMT:timeset.obj
 0001:00027077       ___daylight                00428077 f   LIBCMT:timeset.obj
 0001:0002707d       ___dstbias                 0042807d f   LIBCMT:timeset.obj
 0001:00027083       ___timezone                00428083 f   LIBCMT:timeset.obj
 0001:00027089       ___tzname                  00428089 f   LIBCMT:timeset.obj
 0001:00027090       __alldiv                   00428090 f   LIBCMT:lldiv.obj
 0001:00027140       __allrem                   00428140 f   LIBCMT:llrem.obj
 0001:000271f2       ___getgmtimebuf            004281f2 f   LIBCMT:gmtime.obj
 0001:00027458       _strtol                    00428458 f   LIBCMT:strtol.obj
 0001:00027483       _strncpy_s                 00428483 f   LIBCMT:strncpy_s.obj
 0001:00027538       __calloc_impl              00428538 f   LIBCMT:calloc_impl.obj
 0001:000276a9       __ismbblead_l              004286a9 f   LIBCMT:ismbbyte.obj
 0001:000276c2       __ismbblead                004286c2 f   LIBCMT:ismbbyte.obj
 0001:000276da       __mbsnbcpy_s               004286da f   LIBCMT:mbsnbcpy_s.obj
 0001:00027700       __ValidateImageBase        00428700 f   LIBCMT:pesect.obj
 0001:00027740       __FindPESection            00428740 f   LIBCMT:pesect.obj
 0001:00027790       __IsNonwritableInCurrentImage 00428790 f   LIBCMT:pesect.obj
 0001:0002784d       ?_ValidateRead@@YAHPBXI@Z  0042884d f   LIBCMT:validate.obj
 0001:0002784d       ?_ValidateExecute@@YAHP6GHXZ@Z 0042884d f   LIBCMT:validate.obj
 0001:0002784d       ?_ValidateWrite@@YAHPAXI@Z 0042884d f   LIBCMT:validate.obj
 0001:0002785f       __isatty                   0042885f f   LIBCMT:isatty.obj
 0001:000278c3       __wctomb_s_l               004288c3 f   LIBCMT:wctomb.obj
 0001:00027a2f       _wctomb_s                  00428a2f f   LIBCMT:wctomb.obj
 0001:00027a4c       __initp_misc_winsig        00428a4c f   LIBCMT:winsig.obj
 0001:00027aa1       ___get_sigabrt             00428aa1 f   LIBCMT:winsig.obj
 0001:00027aae       _raise                     00428aae f   LIBCMT:winsig.obj
 0001:00027c5e       ___crtMessageBoxA          00428c5e f   LIBCMT:crtmbox.obj
 0001:00027dc7       _strcat_s                  00428dc7 f   LIBCMT:strcat_s.obj
 0001:00027e3b       __set_error_mode           00428e3b f   LIBCMT:errmode.obj
 0001:00027e86       __isdigit_l                00428e86 f i LIBCMT:_ctype.obj
 0001:00027ed7       _isdigit                   00428ed7 f i LIBCMT:_ctype.obj
 0001:00027f05       __initp_misc_rand_s        00428f05 f   LIBCMT:rand_s.obj
 0001:00027f14       __commit                   00428f14 f   LIBCMT:commit.obj
 0001:00028714       __sopen_helper             00429714 f   LIBCMT:open.obj
 0001:000287e0       __sopen_s                  004297e0 f   LIBCMT:open.obj
 0001:00028800       __mbsnbicmp_l              00429800 f   LIBCMT:mbsnbicm.obj
 0001:00028a2b       __mbsnbicmp                00429a2b f   LIBCMT:mbsnbicm.obj
 0001:00028a45       __mbsnbcmp_l               00429a45 f   LIBCMT:mbsnbcmp.obj
 0001:00028baf       __mbsnbcmp                 00429baf f   LIBCMT:mbsnbcmp.obj
 0001:00028bc9       __lseeki64_nolock          00429bc9 f   LIBCMT:lseeki64.obj
 0001:00028c4e       __lseeki64                 00429c4e f   LIBCMT:lseeki64.obj
 0001:00028d67       __getbuf                   00429d67 f   LIBCMT:_getbuf.obj
 0001:00028db0       _realloc                   00429db0 f   LIBCMT:realloc.obj
 0001:00028fcb       __recalloc                 00429fcb f   LIBCMT:recalloc.obj
 0001:00029200       ___crtGetStringTypeA       0042a200 f   LIBCMT:a_str.obj
 0001:00029242       ___free_lc_time            0042a242 f   LIBCMT:inittime.obj
 0001:000293d7       ___free_lconv_num          0042a3d7 f   LIBCMT:initnum.obj
 0001:0002941c       ___free_lconv_mon          0042a41c f   LIBCMT:initmon.obj
 0001:000294aa       ____lc_codepage_func       0042a4aa f   LIBCMT:initctyp.obj
 0001:000294d0       _strcspn                   0042a4d0 f   LIBCMT:strcspn.obj
 0001:00029516       _strncmp                   0042a516 f   LIBCMT:strncmp.obj
 0001:000295e0       _strpbrk                   0042a5e0 f   LIBCMT:strpbrk.obj
 0001:00029620       __tolower_l                0042a620 f   LIBCMT:tolower.obj
 0001:00029735       _tolower                   0042a735 f   LIBCMT:tolower.obj
 0001:00029761       __atodbl_l                 0042a761 f   LIBCMT:atodbl.obj
 0001:00029809       __atoflt_l                 0042a809 f   LIBCMT:atodbl.obj
 0001:000298b1       __fptostr                  0042a8b1 f   LIBCMT:_fptostr.obj
 0001:00029970       ___dtold                   0042a970 f   LIBCMT:_cfout_.obj
 0001:00029a2d       __fltout2                  0042aa2d f   LIBCMT:_cfout_.obj
 0001:00029ac0       __alldvrm                  0042aac0 f   LIBCMT:lldvrm.obj
 0001:00029ba0       __aullshr                  0042aba0 f   LIBCMT:ullshr.obj
 0001:00029bbf       __fptrap                   0042abbf f   LIBCMT:crt0fp.obj
 0001:00029bc8       __controlfp_s              0042abc8 f   LIBCMT:_contrlfp_.obj
 0001:00029c34       ___ansicp                  0042ac34 f   LIBCMT:convrtcp.obj
 0001:00029c7d       ___convertcp               0042ac7d f   LIBCMT:convrtcp.obj
 0001:00029e31       __putwch_nolock            0042ae31 f   LIBCMT:putwch.obj
 0001:00029ef6       __mbtowc_l                 0042aef6 f   LIBCMT:mbtowc.obj
 0001:0002a00d       _mbtowc                    0042b00d f   LIBCMT:mbtowc.obj
 0001:0002a027       __getpath                  0042b027 f   LIBCMT:getpath.obj
 0001:0002a0bc       __mbsrchr_l                0042b0bc f   LIBCMT:mbsrchr.obj
 0001:0002a178       __mbsrchr                  0042b178 f   LIBCMT:mbsrchr.obj
 0001:0002a18f       __mbschr_l                 0042b18f f   LIBCMT:mbschr.obj
 0001:0002a24b       __mbschr                   0042b24b f   LIBCMT:mbschr.obj
 0001:0002a262       __dospawn                  0042b262 f   LIBCMT:dospawn.obj
 0001:0002a471       __cenvarg                  0042b471 f   LIBCMT:cenvarg.obj
 0001:0002a84a       __mbsnbicoll_l             0042b84a f   LIBCMT:mbsnbico.obj
 0001:0002a938       __mbsnbicoll               0042b938 f   LIBCMT:mbsnbico.obj
 0001:0002a952       ___wtomb_environ           0042b952 f   LIBCMT:wtombenv.obj
 0001:0002a9e9       __mbsnbcpy_s_l             0042b9e9 f   LIBCMT:mbsnbcpy_s_l.obj
 0001:0002abf8       __chsize_nolock            0042bbf8 f   LIBCMT:chsize.obj
 0001:0002adae       __read_nolock              0042bdae f   LIBCMT:read.obj
 0001:0002b370       __lseek_nolock             0042c370 f   LIBCMT:lseek.obj
 0001:0002b3e5       __setmode_nolock           0042c3e5 f   LIBCMT:setmode.obj
 0001:0002b4a1       __get_fmode                0042c4a1 f   LIBCMT:setmode.obj
 0001:0002b4da       __strnicmp_l               0042c4da f   LIBCMT:strnicmp.obj
 0001:0002b5cc       __strnicmp                 0042c5cc f   LIBCMT:strnicmp.obj
 0001:0002b62a       ___ascii_stricmp           0042c62a f   LIBCMT:stricmp.obj
 0001:0002b663       __stricmp_l                0042c663 f   LIBCMT:stricmp.obj
 0001:0002b738       _stricmp                   0042c738 f   LIBCMT:stricmp.obj
 0001:0002b738       __stricmp                  0042c738 f   LIBCMT:stricmp.obj
 0001:0002b78a       __ld12tod                  0042c78a f   LIBCMT:_intrncvt_.obj
 0001:0002bcce       __ld12tof                  0042ccce f   LIBCMT:_intrncvt_.obj
 0001:0002c212       ___strgtold12_l            0042d212 f   LIBCMT:_strgtold_.obj
 0001:0002c90a       _$I10_OUTPUT               0042d90a f   LIBCMT:_x10fout_.obj
 0001:0002d35c       __control87                0042e35c f i LIBCMT:_ieee87_.obj
 0001:0002d680       _strchr                    0042e680 f   LIBCMT:strchr.obj
 0001:0002d686       ___from_strstr_to_strchr   0042e686     LIBCMT:strchr.obj
 0001:0002d73e       __mbsnicmp_l               0042e73e f   LIBCMT:mbsnicmp.obj
 0001:0002d906       __mbsnicmp                 0042e906 f   LIBCMT:mbsnicmp.obj
 0001:0002dcae       ___crtCompareStringA       0042ecae f   LIBCMT:a_cmp.obj
 0001:0002dcf0       __strnicoll_l              0042ecf0 f   LIBCMT:strnicol.obj
 0001:0002de96       ___crtsetenv               0042ee96 f   LIBCMT:setenv.obj
 0001:0002e0f0       ___ascii_strnicmp          0042f0f0 f   LIBCMT:_strnicm.obj
 0001:0002e151       ___mtold12                 0042f151 f   LIBCMT:_mantold_.obj
 0001:0002e31f       ___set_fpsr_sse2           0042f31f f   LIBCMT:_fpctrl_.obj
 0001:0002e391       __strdup                   0042f391 f   LIBCMT:strdup.obj
 0001:0002e3e6       _RtlUnwind@16              0042f3e6 f   kernel32:KERNEL32.dll
 0002:00000000       __imp__GetPrivateProfileStringA@24 00431000     kernel32:KERNEL32.dll
 0002:00000004       __imp__GetPrivateProfileIntA@16 00431004     kernel32:KERNEL32.dll
 0002:00000008       __imp__GetLocalTime@4      00431008     kernel32:KERNEL32.dll
 0002:0000000c       __imp__SetCurrentDirectoryA@4 0043100c     kernel32:KERNEL32.dll
 0002:00000010       __imp__GetModuleFileNameA@12 00431010     kernel32:KERNEL32.dll
 0002:00000014       __imp__SetEnvironmentVariableA@8 00431014     kernel32:KERNEL32.dll
 0002:00000018       __imp__CompareStringW@24   00431018     kernel32:KERNEL32.dll
 0002:0000001c       __imp__CompareStringA@24   0043101c     kernel32:KERNEL32.dll
 0002:00000020       __imp__SetEndOfFile@4      00431020     kernel32:KERNEL32.dll
 0002:00000024       __imp__CreateProcessA@40   00431024     kernel32:KERNEL32.dll
 0002:00000028       __imp__GetExitCodeProcess@8 00431028     kernel32:KERNEL32.dll
 0002:0000002c       __imp__WriteConsoleW@20    0043102c     kernel32:KERNEL32.dll
 0002:00000030       __imp__GetConsoleOutputCP@0 00431030     kernel32:KERNEL32.dll
 0002:00000034       __imp__GetStringTypeW@16   00431034     kernel32:KERNEL32.dll
 0002:00000038       __imp__GetStringTypeA@20   00431038     kernel32:KERNEL32.dll
 0002:0000003c       __imp__SetFilePointer@16   0043103c     kernel32:KERNEL32.dll
 0002:00000040       __imp__GetLocaleInfoA@16   00431040     kernel32:KERNEL32.dll
 0002:00000044       __imp__CloseHandle@4       00431044     kernel32:KERNEL32.dll
 0002:00000048       __imp__CreateMutexA@12     00431048     kernel32:KERNEL32.dll
 0002:0000004c       __imp__OpenMutexA@12       0043104c     kernel32:KERNEL32.dll
 0002:00000050       __imp__QueryPerformanceFrequency@4 00431050     kernel32:KERNEL32.dll
 0002:00000054       __imp__QueryPerformanceCounter@4 00431054     kernel32:KERNEL32.dll
 0002:00000058       __imp__GetTickCount@0      00431058     kernel32:KERNEL32.dll
 0002:0000005c       __imp__Sleep@4             0043105c     kernel32:KERNEL32.dll
 0002:00000060       __imp__WriteFile@20        00431060     kernel32:KERNEL32.dll
 0002:00000064       __imp__InitializeCriticalSection@4 00431064     kernel32:KERNEL32.dll
 0002:00000068       __imp__LeaveCriticalSection@4 00431068     kernel32:KERNEL32.dll
 0002:0000006c       __imp__EnterCriticalSection@4 0043106c     kernel32:KERNEL32.dll
 0002:00000070       __imp__GetStdHandle@4      00431070     kernel32:KERNEL32.dll
 0002:00000074       __imp__CreateDirectoryA@8  00431074     kernel32:KERNEL32.dll
 0002:00000078       __imp__SetConsoleTitleA@4  00431078     kernel32:KERNEL32.dll
 0002:0000007c       __imp__WriteConsoleA@20    0043107c     kernel32:KERNEL32.dll
 0002:00000080       __imp__FreeConsole@0       00431080     kernel32:KERNEL32.dll
 0002:00000084       __imp__SetConsoleMode@8    00431084     kernel32:KERNEL32.dll
 0002:00000088       __imp__ReadConsoleInputA@16 00431088     kernel32:KERNEL32.dll
 0002:0000008c       __imp__SetConsoleScreenBufferSize@8 0043108c     kernel32:KERNEL32.dll
 0002:00000090       __imp__SetConsoleWindowInfo@12 00431090     kernel32:KERNEL32.dll
 0002:00000094       __imp__GetConsoleScreenBufferInfo@8 00431094     kernel32:KERNEL32.dll
 0002:00000098       __imp__GetConsoleMode@8    00431098     kernel32:KERNEL32.dll
 0002:0000009c       __imp__AllocConsole@0      0043109c     kernel32:KERNEL32.dll
 0002:000000a0       __imp__CreateFileA@28      004310a0     kernel32:KERNEL32.dll
 0002:000000a4       __imp__FlushFileBuffers@4  004310a4     kernel32:KERNEL32.dll
 0002:000000a8       __imp__HeapAlloc@12        004310a8     kernel32:KERNEL32.dll
 0002:000000ac       __imp__GetProcessHeap@0    004310ac     kernel32:KERNEL32.dll
 0002:000000b0       __imp__IsBadReadPtr@8      004310b0     kernel32:KERNEL32.dll
 0002:000000b4       __imp__HeapFree@12         004310b4     kernel32:KERNEL32.dll
 0002:000000b8       __imp__GetCurrentThreadId@0 004310b8     kernel32:KERNEL32.dll
 0002:000000bc       __imp__InterlockedIncrement@4 004310bc     kernel32:KERNEL32.dll
 0002:000000c0       __imp__InterlockedDecrement@4 004310c0     kernel32:KERNEL32.dll
 0002:000000c4       __imp__InterlockedExchange@8 004310c4     kernel32:KERNEL32.dll
 0002:000000c8       __imp__DeleteCriticalSection@4 004310c8     kernel32:KERNEL32.dll
 0002:000000cc       __imp__LocalFree@4         004310cc     kernel32:KERNEL32.dll
 0002:000000d0       __imp__FormatMessageA@28   004310d0     kernel32:KERNEL32.dll
 0002:000000d4       __imp__ReadFile@20         004310d4     kernel32:KERNEL32.dll
 0002:000000d8       __imp__SetUnhandledExceptionFilter@4 004310d8     kernel32:KERNEL32.dll
 0002:000000dc       __imp__GetLastError@0      004310dc     kernel32:KERNEL32.dll
 0002:000000e0       __imp__GetCurrentThread@0  004310e0     kernel32:KERNEL32.dll
 0002:000000e4       __imp__GetCurrentProcess@0 004310e4     kernel32:KERNEL32.dll
 0002:000000e8       __imp__GetCurrentProcessId@0 004310e8     kernel32:KERNEL32.dll
 0002:000000ec       __imp__GetProcAddress@8    004310ec     kernel32:KERNEL32.dll
 0002:000000f0       __imp__LoadLibraryA@4      004310f0     kernel32:KERNEL32.dll
 0002:000000f4       __imp__WaitForSingleObject@8 004310f4     kernel32:KERNEL32.dll
 0002:000000f8       __imp__PostQueuedCompletionStatus@16 004310f8     kernel32:KERNEL32.dll
 0002:000000fc       __imp__InterlockedCompareExchange@12 004310fc     kernel32:KERNEL32.dll
 0002:00000100       __imp__CreateIoCompletionPort@16 00431100     kernel32:KERNEL32.dll
 0002:00000104       __imp__WaitForMultipleObjects@16 00431104     kernel32:KERNEL32.dll
 0002:00000108       __imp__SuspendThread@4     00431108     kernel32:KERNEL32.dll
 0002:0000010c       __imp__ResumeThread@4      0043110c     kernel32:KERNEL32.dll
 0002:00000110       __imp__CreateEventA@16     00431110     kernel32:KERNEL32.dll
 0002:00000114       __imp__SetEvent@4          00431114     kernel32:KERNEL32.dll
 0002:00000118       __imp__InitializeCriticalSectionAndSpinCount@8 00431118     kernel32:KERNEL32.dll
 0002:0000011c       __imp__GetQueuedCompletionStatus@20 0043111c     kernel32:KERNEL32.dll
 0002:00000120       __imp__RtlUnwind@16        00431120     kernel32:KERNEL32.dll
 0002:00000124       __imp__TerminateProcess@8  00431124     kernel32:KERNEL32.dll
 0002:00000128       __imp__UnhandledExceptionFilter@4 00431128     kernel32:KERNEL32.dll
 0002:0000012c       __imp__IsDebuggerPresent@0 0043112c     kernel32:KERNEL32.dll
 0002:00000130       __imp__RaiseException@16   00431130     kernel32:KERNEL32.dll
 0002:00000134       __imp__GetCommandLineA@0   00431134     kernel32:KERNEL32.dll
 0002:00000138       __imp__GetSystemTimeAsFileTime@4 00431138     kernel32:KERNEL32.dll
 0002:0000013c       __imp__PeekConsoleInputA@16 0043113c     kernel32:KERNEL32.dll
 0002:00000140       __imp__GetNumberOfConsoleInputEvents@8 00431140     kernel32:KERNEL32.dll
 0002:00000144       __imp__GetFileAttributesA@4 00431144     kernel32:KERNEL32.dll
 0002:00000148       __imp__SetStdHandle@8      00431148     kernel32:KERNEL32.dll
 0002:0000014c       __imp__GetFileType@4       0043114c     kernel32:KERNEL32.dll
 0002:00000150       __imp__ExitThread@4        00431150     kernel32:KERNEL32.dll
 0002:00000154       __imp__CreateThread@24     00431154     kernel32:KERNEL32.dll
 0002:00000158       __imp__GetModuleHandleW@4  00431158     kernel32:KERNEL32.dll
 0002:0000015c       __imp__TlsGetValue@4       0043115c     kernel32:KERNEL32.dll
 0002:00000160       __imp__TlsAlloc@0          00431160     kernel32:KERNEL32.dll
 0002:00000164       __imp__TlsSetValue@8       00431164     kernel32:KERNEL32.dll
 0002:00000168       __imp__TlsFree@4           00431168     kernel32:KERNEL32.dll
 0002:0000016c       __imp__SetLastError@4      0043116c     kernel32:KERNEL32.dll
 0002:00000170       __imp__VirtualFree@12      00431170     kernel32:KERNEL32.dll
 0002:00000174       __imp__VirtualAlloc@16     00431174     kernel32:KERNEL32.dll
 0002:00000178       __imp__HeapReAlloc@16      00431178     kernel32:KERNEL32.dll
 0002:0000017c       __imp__HeapCreate@12       0043117c     kernel32:KERNEL32.dll
 0002:00000180       __imp__ExitProcess@4       00431180     kernel32:KERNEL32.dll
 0002:00000184       __imp__SetHandleCount@4    00431184     kernel32:KERNEL32.dll
 0002:00000188       __imp__GetStartupInfoA@4   00431188     kernel32:KERNEL32.dll
 0002:0000018c       __imp__HeapSize@12         0043118c     kernel32:KERNEL32.dll
 0002:00000190       __imp__GetCPInfo@8         00431190     kernel32:KERNEL32.dll
 0002:00000194       __imp__GetACP@0            00431194     kernel32:KERNEL32.dll
 0002:00000198       __imp__GetOEMCP@0          00431198     kernel32:KERNEL32.dll
 0002:0000019c       __imp__IsValidCodePage@4   0043119c     kernel32:KERNEL32.dll
 0002:000001a0       __imp__GetModuleHandleA@4  004311a0     kernel32:KERNEL32.dll
 0002:000001a4       __imp__FreeEnvironmentStringsA@4 004311a4     kernel32:KERNEL32.dll
 0002:000001a8       __imp__GetEnvironmentStrings@0 004311a8     kernel32:KERNEL32.dll
 0002:000001ac       __imp__FreeEnvironmentStringsW@4 004311ac     kernel32:KERNEL32.dll
 0002:000001b0       __imp__WideCharToMultiByte@32 004311b0     kernel32:KERNEL32.dll
 0002:000001b4       __imp__GetEnvironmentStringsW@0 004311b4     kernel32:KERNEL32.dll
 0002:000001b8       __imp__LCMapStringA@24     004311b8     kernel32:KERNEL32.dll
 0002:000001bc       __imp__MultiByteToWideChar@24 004311bc     kernel32:KERNEL32.dll
 0002:000001c0       __imp__LCMapStringW@24     004311c0     kernel32:KERNEL32.dll
 0002:000001c4       __imp__GetConsoleCP@0      004311c4     kernel32:KERNEL32.dll
 0002:000001c8       __imp__GetTimeZoneInformation@4 004311c8     kernel32:KERNEL32.dll
 0002:000001cc       \177KERNEL32_NULL_THUNK_DATA 004311cc     kernel32:KERNEL32.dll
 0002:000001d0       __imp_??1SolarLog@@QAE@XZ  004311d0     SolarLog:SolarLog.dll
 0002:000001d4       __imp_?Create@SolarLog@@QAEHPAD0@Z 004311d4     SolarLog:SolarLog.dll
 0002:000001d8       __imp_??0SolarLog@@QAE@XZ  004311d8     SolarLog:SolarLog.dll
 0002:000001dc       __imp_?LOG@SolarLog@@QAEHPAEK@Z 004311dc     SolarLog:SolarLog.dll
 0002:000001e0       \177SolarLog_NULL_THUNK_DATA 004311e0     SolarLog:SolarLog.dll
 0002:000001e4       __imp__WSASend@28          004311e4     ws2_32:WS2_32.dll
 0002:000001e8       __imp__send@16             004311e8     ws2_32:WS2_32.dll
 0002:000001ec       __imp__closesocket@4       004311ec     ws2_32:WS2_32.dll
 0002:000001f0       __imp__WSASocketA@24       004311f0     ws2_32:WS2_32.dll
 0002:000001f4       __imp__setsockopt@20       004311f4     ws2_32:WS2_32.dll
 0002:000001f8       __imp__WSARecv@28          004311f8     ws2_32:WS2_32.dll
 0002:000001fc       __imp__recv@16             004311fc     ws2_32:WS2_32.dll
 0002:00000200       __imp__WSAGetLastError@0   00431200     ws2_32:WS2_32.dll
 0002:00000204       __imp__htonl@4             00431204     ws2_32:WS2_32.dll
 0002:00000208       __imp__inet_ntoa@4         00431208     ws2_32:WS2_32.dll
 0002:0000020c       __imp__WSAStartup@8        0043120c     ws2_32:WS2_32.dll
 0002:00000210       __imp__WSACleanup@0        00431210     ws2_32:WS2_32.dll
 0002:00000214       __imp__inet_addr@4         00431214     ws2_32:WS2_32.dll
 0002:00000218       __imp__socket@12           00431218     ws2_32:WS2_32.dll
 0002:0000021c       __imp__bind@12             0043121c     ws2_32:WS2_32.dll
 0002:00000220       __imp__listen@8            00431220     ws2_32:WS2_32.dll
 0002:00000224       __imp__gethostname@8       00431224     ws2_32:WS2_32.dll
 0002:00000228       __imp__connect@12          00431228     ws2_32:WS2_32.dll
 0002:0000022c       __imp__gethostbyname@4     0043122c     ws2_32:WS2_32.dll
 0002:00000230       __imp__htons@4             00431230     ws2_32:WS2_32.dll
 0002:00000234       __imp__WSAIoctl@36         00431234     ws2_32:WS2_32.dll
 0002:00000238       \177WS2_32_NULL_THUNK_DATA 00431238     ws2_32:WS2_32.dll
 0002:0000023c       __imp__SymCleanup@4        0043123c     dbghelp:dbghelp.dll
 0002:00000240       __imp__SymGetLineFromAddr64@20 00431240     dbghelp:dbghelp.dll
 0002:00000244       __imp__SymFromAddr@20      00431244     dbghelp:dbghelp.dll
 0002:00000248       __imp__StackWalk@36        00431248     dbghelp:dbghelp.dll
 0002:0000024c       __imp__SymFunctionTableAccess@8 0043124c     dbghelp:dbghelp.dll
 0002:00000250       __imp__SymGetModuleBase@8  00431250     dbghelp:dbghelp.dll
 0002:00000254       __imp__SymInitialize@12    00431254     dbghelp:dbghelp.dll
 0002:00000258       __imp__SymSetOptions@4     00431258     dbghelp:dbghelp.dll
 0002:0000025c       \177dbghelp_NULL_THUNK_DATA 0043125c     dbghelp:dbghelp.dll
 0002:00000260       __imp__CoInitializeEx@8    00431260     ole32:ole32.dll
 0002:00000264       __imp__CoUninitialize@0    00431264     ole32:ole32.dll
 0002:00000268       \177ole32_NULL_THUNK_DATA  00431268     ole32:ole32.dll
 0002:0000026c       ___xc_a                    0043126c     LIBCMT:crt0init.obj
 0002:000003e0       ___xc_z                    004313e0     LIBCMT:crt0init.obj
 0002:000003e4       ___xi_a                    004313e4     LIBCMT:crt0init.obj
 0002:000003fc       ___xi_z                    004313fc     LIBCMT:crt0init.obj
 0002:00000400       ___xp_a                    00431400     LIBCMT:crt0init.obj
 0002:0000040c       ___xp_z                    0043140c     LIBCMT:crt0init.obj
 0002:00000410       ___xt_a                    00431410     LIBCMT:crt0init.obj
 0002:00000414       ___xt_z                    00431414     LIBCMT:crt0init.obj
 0002:0000043c       ??_C@_0P@GHFPNOJB@bad?5allocation?$AA@ 0043143c     AuthAgentFrame.obj
 0002:0000044c       ?min_alloc_size@?$pool@Udefault_user_allocator_new_delete@boost@@@boost@@0IB 0043144c     AuthAgentFrame.obj
 0002:0000064c       ??_7AuthAgentFrame@@6B@    0043164c     AuthAgentFrame.obj
 0002:00000670       ??_C@_0BI@NIDALFOJ@?5Create?5SunLog?5Failed?4?4?$AA@ 00431670     AuthAgentFrame.obj
 0002:00000688       ??_C@_00CNPNBAHC@?$AA@     00431688     AuthAgentFrame.obj
 0002:0000068c       ??_C@_0BC@GLDCIGCL@AuthServerSession?$AA@ 0043168c     AuthAgentFrame.obj
 0002:000006a0       ??_C@_0BH@FKPHLMKB@GameAgentServerSession?$AA@ 004316a0     AuthAgentFrame.obj
 0002:000006b8       ??_C@_0CB@EMNJGPHC@?$CB?$CC?A?$LI?$MA?g?G?O?A?v?5?$LO?J?$LE?B?5?$LM?$KN?$LJ?v?E?$LI?$MA?T?$MA?T?$LE?O?$LE?Y?4?$CC@ 004316b8     AuthAgentFrame.obj
 0002:000006dc       ??_C@_0BF@NPHCGCEK@?4?2AuthAgentFrame?4cpp?$AA@ 004316dc     AuthAgentFrame.obj
 0002:000006f4       ??_C@_0BO@KNDKBDGG@?A?$LI?$MA?g?G?O?A?v?5?$LO?J?$LE?B?5?$LM?$KN?$LJ?v?E?$LI?$MA?T?$MA?T?$LE?O?$LE?Y?4?$AA@ 004316f4     AuthAgentFrame.obj
 0002:00000714       ??_C@_0CB@FHPNAKMF@?$CB?$CC?$LM?$KN?$LJ?v?E?$LI?$MA?T?$MA?L?5?A?$LI?$MA?g?G?O?A?v?5?$LO?J?$LN?$MA?$LE?O?$LE?Y?4?$CC@ 00431714     AuthAgentFrame.obj
 0002:00000738       ??_C@_0BO@IIPKNPDD@?$LM?$KN?$LJ?v?E?$LI?$MA?T?$MA?L?5?A?$LI?$MA?g?G?O?A?v?5?$LO?J?$LN?$MA?$LE?O?$LE?Y?4?$AA@ 00431738     AuthAgentFrame.obj
 0002:00000758       ??_C@_0BF@MHGEBKHM@?$CB?$CC?A?$NP?$LK?$LJ?5Connect?5?$LN?C?$LF?$LF?$CC?$AA@ 00431758     AuthAgentFrame.obj
 0002:00000770       ??_C@_0BC@CDLHMGPH@?A?$NP?$LK?$LJ?5Connect?5?$LN?C?$LF?$LF?$AA@ 00431770     AuthAgentFrame.obj
 0002:00000784       ??_C@_09KNIOMPBI@AuthAgent?$AA@ 00431784     AuthAgentFrame.obj
 0002:00000790       ??_C@_0BB@GNNLOKPE@SUN_LOGFILE_PATH?$AA@ 00431790     AuthAgentFrame.obj
 0002:000007a4       ??_C@_0BC@MFDENCBO@SUN_LOGFILE_LEVEL?$AA@ 004317a4     AuthAgentFrame.obj
 0002:000007b8       ??_C@_07IBNALNMK@LOGFILE?$AA@ 004317b8     AuthAgentFrame.obj
 0002:000007c0       ??_C@_0BD@MEJDLAAO@SUN_LOGFILE_OPTION?$AA@ 004317c0     AuthAgentFrame.obj
 0002:000007d8       ??_7?$CMemoryPoolFactory@VAuthServerSession@@@util@@6B@ 004317d8     AuthAgentFrame.obj
 0002:000007f0       ??_7?$CMemoryPoolFactory@VGameAgentServerSession@@@util@@6B@ 004317f0     AuthAgentFrame.obj
 0002:00000808       ??_7IVMemoryPool@util@@6B@ 00431808     AuthAgentFrame.obj
 0002:00000820       ??_7?$NotUseChunkImpl@VAuthServerSession@@@internal@util@@6B@ 00431820     AuthAgentFrame.obj
 0002:0000084c       ??_7?$VariableSizeChunkImpl@VAuthServerSession@@@internal@util@@6B@ 0043184c     AuthAgentFrame.obj
 0002:00000878       ??_7?$FixedSizeChunkImpl@VAuthServerSession@@@internal@util@@6B@ 00431878     AuthAgentFrame.obj
 0002:000008a4       ??_7?$NotUseChunkImpl@VGameAgentServerSession@@@internal@util@@6B@ 004318a4     AuthAgentFrame.obj
 0002:000008d0       ??_7?$VariableSizeChunkImpl@VGameAgentServerSession@@@internal@util@@6B@ 004318d0     AuthAgentFrame.obj
 0002:000008fc       ??_7?$FixedSizeChunkImpl@VGameAgentServerSession@@@internal@util@@6B@ 004318fc     AuthAgentFrame.obj
 0002:00000928       ??_7IMemoryPoolFactoryImpl@internal@util@@6B@ 00431928     AuthAgentFrame.obj
 0002:00000b48       ??_C@_0N@MAJGAMNL@Crash?5Report?$AA@ 00431b48     main.obj
 0002:00000b58       ??_C@_0BD@CGHJEMHO@poong?$EAwebzen?4co?4kr?$AA@ 00431b58     main.obj
 0002:00000b6c       ??_C@_0BK@OLFLLJAI@CrashHandler?$EAwebzen?4co?4kr?$AA@ 00431b6c     main.obj
 0002:00000b88       ??_C@_0BC@MDBPPMFN@mail?4webzen?4co?4kr?$AA@ 00431b88     main.obj
 0002:00000b9c       ??_C@_0BI@EEEILDKE@Dump?5file?5path?5?3?5?$CFs?$AN?6?$AN?6?$AA@ 00431b9c     main.obj
 0002:00000bb4       ??_C@_01NOFIACDB@w?$AA@    00431bb4     main.obj
 0002:00000bb8       ??_C@_0CI@PMIEIAOC@?$CFs_CrashLog_?$CFd?$CF02d?$CF02d_?$CF02d?$CF02d?$CF@ 00431bb8     main.obj
 0002:00000be0       ??_C@_0BF@BENMOGJL@?$CFs_?$CFd?$CFd?$CFd_?$CFd?$CFd?$CFd?4dmp?$AA@ 00431be0     main.obj
 0002:00000bf8       ??_C@_0BB@LEJECHKG@Error?5?$DN?5?$CFd?0?5?5?$CFs?6?$AA@ 00431bf8     main.obj
 0002:00000c0c       ??_C@_0BA@BKGAJJPC@?4?1AuthAgent?4ini?$AA@ 00431c0c     main.obj
 0002:00000c1c       ??_C@_0BO@GBFGBFPK@Already?5same?5server?5running?4?6?$AA@ 00431c1c     main.obj
 0002:00001034       ??_7AuthServerSession@@6B@ 00432034     AuthServerSession.obj
 0002:00001078       ??_C@_0EG@DHFEOAOD@?$FLAuthServerSession?$FNInvalid?5Packe@ 00432078     AuthServerSession.obj
 0002:000010c0       ??_C@_0GJ@FILIGFEK@?$HM?$FLAuthServerSession?3?3OnSA_AUTH_A@ 004320c0     AuthServerSession.obj
 0002:0000112c       ??_C@_0DP@BKCGBCLI@?$FLOnSA_AUTH_NEWCLIENT_TO_GAMEAGEN@ 0043212c     AuthServerSession.obj
 0002:0000116c       ??_C@_0DG@FKKMENHC@?$FLOnSA_AUTH_ASK_PC_LOGOUT_SYN?$FN?5pG@ 0043216c     AuthServerSession.obj
 0002:000011a4       ??_C@_0DN@PFJHDPCK@?$FLOnSA_AUTH_BILLING_ALARM_CMD?$FN?5Ga@ 004321a4     AuthServerSession.obj
 0002:000013e4       ??_7GameAgentServerSession@@6B@ 004323e4     GameAgentServerSession.obj
 0002:00001428       ??_C@_0EG@LAHFNLBN@?$FLGameAgentServerSession?3?3OnAccep@ 00432428     GameAgentServerSession.obj
 0002:00001470       ??_C@_0GJ@PFJPJDDM@?$FLGameAgentServerSession?3?3Authent@ 00432470     GameAgentServerSession.obj
 0002:000014e0       ??_C@_0FC@OIEGHDKE@?$FLGameAgentServerSession?3?3Authent@ 004324e0     GameAgentServerSession.obj
 0002:00001534       ??_C@_0DN@FBDNGJFK@?$FLGameAgentServerSession?3?3OnDisco@ 00432534     GameAgentServerSession.obj
 0002:00001578       ??_C@_0FD@CPLLHLJI@?$FLGameAgentServerSession?$FN?5Invalid@ 00432578     GameAgentServerSession.obj
 0002:000015d0       ??_C@_0GO@FILGGNED@?$HM?$FLGameAgentServerSession?3?3OnAU_A@ 004325d0     GameAgentServerSession.obj
 0002:00001640       ??_C@_0DA@JHCDFDAH@?$FLOnGA_AUTH_NEWCLIENT_TO_GAMEAGEN@ 00432640     GameAgentServerSession.obj
 0002:00001670       ??_C@_0EK@DMPGGGLF@?$FLOnGA_AUTH_BILLING_ALARM_ACK?$FN?5Ga@ 00432670     GameAgentServerSession.obj
 0002:000018b8       ??_C@_0BN@BNMLILCO@?$CFd?5?5?5?5?$CFu?5?5?5?5?$CFs?5?5?5?5?$CFs?5?5?5?5?$CFd?5?6?$AA@ 004328b8     GameAgentInfoList.obj
 0002:000018d8       ??_C@_0FJ@KBCPCKPK@?$FLGAMEAGENTID?$FN?5?$FLPort?$FN?5?$FLGameAgentP@ 004328d8     GameAgentInfoList.obj
 0002:00001934       __real@40800000            00432934     GameAgentInfoList.obj
 0002:00001938       ??_C@_0BB@MOGOBHAF@list?$DMT?$DO?5too?5long?$AA@ 00432938     GameAgentInfoList.obj
 0002:00001950       ??_7length_error@std@@6B@  00432950     GameAgentInfoList.obj
 0002:0000195c       ??_7logic_error@std@@6B@   0043295c     GameAgentInfoList.obj
 0002:00001964       ??_C@_0BD@OLBABOEK@vector?$DMT?$DO?5too?5long?$AA@ 00432964     GameAgentInfoList.obj
 0002:00001978       ??_C@_04HIBGFPH@NULL?$AA@  00432978     GameAgentInfoList.obj
 0002:00001980       ?npos@?$basic_string@DU?$char_traits@D@std@@V?$allocator@D@2@@std@@2IB 00432980     GameAgentInfoList.obj
 0002:00001988       ??_7bad_alloc@std@@6B@     00432988     GameAgentInfoList.obj
 0002:00001d80       ??_C@_09JOJMEOME@SUCCESS?$CB?6?$AA@ 00432d80     servercommon:ServerFrame.obj
 0002:00001d8c       ??_C@_08LPEFHFBM@FAILED?$CB?6?$AA@ 00432d8c     servercommon:ServerFrame.obj
 0002:00001d98       ??_C@_0CD@EMAPKKEP@?$FLListen?$FN?5Starting?5listen?$CI?$CFs?3?$CFd?$CJ?4@ 00432d98     servercommon:ServerFrame.obj
 0002:00001dbc       ??_C@_0CA@LNPDLONP@?$FLWarning?$CB?$CB?$CB?5Frame?5Rate?5Low?$FL?$CFd?$FN?6?$AA@ 00432dbc     servercommon:ServerFrame.obj
 0002:00001ddc       ??_C@_0DO@EKICPBDN@?$DN?$DN?$DN?$DN?$DN?$DN?$DN?$DN?$DN?$DN?$DN?$DN?$DN?$DN?$DN?$DN?$DN?$DN?$DN?$DN?$DN?$DN?$DN?$DN?$DN?$DN?$DN?$DN?$DN?$DN?$DN?$DN@ 00432ddc     servercommon:ServerFrame.obj
 0002:00001e1c       ??_C@_0BF@HJOBFOF@NUMBER_OF_IO_THREADS?$AA@ 00432e1c     servercommon:ServerFrame.obj
 0002:00001e34       ??_C@_0BK@OOEKLBCM@NUMBER_OF_CONNECT_THREADS?$AA@ 00432e34     servercommon:ServerFrame.obj
 0002:00001e50       ??_C@_0BJ@JLEKNJOM@NUMBER_OF_ACCEPT_THREADS?$AA@ 00432e50     servercommon:ServerFrame.obj
 0002:00001e6c       ??_C@_08LHEHMJPB@TIME_OUT?$AA@ 00432e6c     servercommon:ServerFrame.obj
 0002:00001e78       ??_C@_0BA@EBJKCDKM@MAX_PACKET_SIZE?$AA@ 00432e78     servercommon:ServerFrame.obj
 0002:00001e88       ??_C@_0BB@GAFBFDFH@RECV_BUFFER_SIZE?$AA@ 00432e88     servercommon:ServerFrame.obj
 0002:00001e9c       ??_C@_0BB@JMCFBCNJ@SEND_BUFFER_SIZE?$AA@ 00432e9c     servercommon:ServerFrame.obj
 0002:00001eb0       ??_C@_0BE@IDGCOPPA@MAX_CONNECT_SESSION?$AA@ 00432eb0     servercommon:ServerFrame.obj
 0002:00001ec4       ??_C@_0BD@KIFJHELM@MAX_ACCEPT_SESSION?$AA@ 00432ec4     servercommon:ServerFrame.obj
 0002:00001ed8       ??_C@_0CL@BHBLBHDN@AssertionMessage?3?5?$CFs?5?$FLfile?3?5?$CFs?5?3@ 00432ed8     servercommon:ServerFrame.obj
 0002:00001f08       ??_C@_0GF@GHBDHHJB@?$FLMemory?5Report?$FN?$HMRelease?5resource@ 00432f08     servercommon:ServerFrame.obj
 0002:00001f70       __real@4f800000            00432f70     servercommon:ServerFrame.obj
 0002:00001f74       ??_C@_0BM@FDKOEACE@?$CBpNetObject?9?$DOIsConnecting?$CI?$CJ?$AA@ 00432f74     servercommon:ServerFrame.obj
 0002:00001f90       ??_C@_0O@LLAJJOCK@m_pIOCPServer?$AA@ 00432f90     servercommon:ServerFrame.obj
 0002:00001fa0       ??_C@_0L@PNAAHKOF@pNetObject?$AA@ 00432fa0     servercommon:ServerFrame.obj
 0002:00001fac       ??_C@_0BC@FLEDPKMF@?4?2ServerFrame?4cpp?$AA@ 00432fac     servercommon:ServerFrame.obj
 0002:00001fc0       ??_C@_0BJ@FHLFMIJK@?$CBpSession?9?$DOIsConnected?$CI?$CJ?$AA@ 00432fc0     servercommon:ServerFrame.obj
 0002:00001fdc       ??_C@_0CB@HCBOHMFK@?$DO?$DO?5Warning?3?5Not?5connected?5to?5?$CFs?6@ 00432fdc     servercommon:ServerFrame.obj
 0002:00002000       ??_C@_0BK@JHPPMMEL@Client?5Connections?7?7?3?5?$CFd?6?$AA@ 00433000     servercommon:ServerFrame.obj
 0002:0000201c       ??_C@_0BK@EAMEEPNG@Server?5Connections?7?7?3?5?$CFd?6?$AA@ 0043301c     servercommon:ServerFrame.obj
 0002:00002038       ??_C@_0BI@IIKELJKK@Frame?5Per?5Second?7?7?3?5?$CFd?6?$AA@ 00433038     servercommon:ServerFrame.obj
 0002:00002050       ??_C@_0CC@BBHIDBKJ@?$DN?$DN?$DN?$DN?$DN?$DN?$DN?$DN?$DN?$DN?$DN?$DN?$DN?$DN?5?$CFs?5?$DN?$DN?$DN?$DN?$DN?$DN?$DN?$DN?$DN?$DN?$DN?$DN?$DN?$DN@ 00433050     servercommon:ServerFrame.obj
 0002:00002074       ??_C@_0BJ@MNMACKBF@Client?5Connections?7?7?3?5?$CFd?$AA@ 00433074     servercommon:ServerFrame.obj
 0002:00002090       ??_C@_0BJ@PLJBFJPE@Server?5Connections?7?7?3?5?$CFd?$AA@ 00433090     servercommon:ServerFrame.obj
 0002:000020ac       ??_C@_0BH@EMDGKFMG@Frame?5Per?5Second?7?7?3?5?$CFd?$AA@ 004330ac     servercommon:ServerFrame.obj
 0002:000020c4       ??_C@_0CB@JJOPBMMF@?$DN?$DN?$DN?$DN?$DN?$DN?$DN?$DN?$DN?$DN?$DN?$DN?$DN?$DN?5?$CFs?5?$DN?$DN?$DN?$DN?$DN?$DN?$DN?$DN?$DN?$DN?$DN?$DN?$DN?$DN@ 004330c4     servercommon:ServerFrame.obj
 0002:000020e8       ??_C@_0EC@JMAMGNNO@?$DN?$DN?$DN?$DN?$DN?$DN?$DN?$DN?$DN?$DN?$DN?$DN?$DN?$DN?$DN?$DN?$DN?$DN?$DN?$DN?$DN?$DN?$DN?$DN?$DN?$DN?$DN?$DN?$DN?$DN?$DN?$DN@ 004330e8     servercommon:ServerFrame.obj
 0002:0000212c       ??_C@_0CA@KLNOGAEC@?5Connected?5Server?5Counts?5?3?5?$CF3d?6?$AA@ 0043312c     servercommon:ServerFrame.obj
 0002:0000214c       ??_C@_0CB@JPIAHHPB@?$FL?$CF02u?$FN?5?$CF?924s?3?5?5?$CFu?4?$CFu?4?$CFu?4?$CFu?3?$CF05u?6@ 0043314c     servercommon:ServerFrame.obj
 0002:00002170       ??_C@_0BL@JOEMAOAP@?$FL?$CF02u?$FN?5?$CF?924s?3?5?5?$CF?916s?3?$CF05u?6?$AA@ 00433170     servercommon:ServerFrame.obj
 0002:00002190       ??_C@_0EB@NLLJINAF@?$DN?$DN?$DN?$DN?$DN?$DN?$DN?$DN?$DN?$DN?$DN?$DN?$DN?$DN?$DN?$DN?$DN?$DN?$DN?5?5Connected?5S@ 00433190     servercommon:ServerFrame.obj
 0002:000021d4       ??_C@_0CN@LCHNOAMF@Press?5?8ESC?8?5Key?0?5Start?5Server?5Te@ 004331d4     servercommon:ServerFrame.obj
 0002:00002208       ??_7ServerFrame@@6B@       00433208     servercommon:ServerFrame.obj
 0002:0000222c       ??_C@_09NEMMNGIP@rt?4second?$AA@ 0043322c     servercommon:ServerFrame.obj
 0002:00002238       ??_C@_0BL@JBGOLBON@ServerType?$FL?$CFd?$FN?5wPort?5is?50?$CB?$AA@ 00433238     servercommon:ServerFrame.obj
 0002:00002254       ??_C@_0DB@CKOHPKL@wPort?5?$CB?$DN?50?5?$CG?$CG?5?$CC?5?F?w?F?$KO?$LA?$KB?50?$MA?T?$LE?O?$LE?Y?4S@ 00433254     servercommon:ServerFrame.obj
 0002:00002288       ??_C@_0DJ@KOGDNFPC@pSession?5?$CG?$CG?5?$CC?$LM?$KN?$LJ?v?E?$LI?$MA?T?$MA?L?5?$MA?$NP?$LI?x?$LF?G?$LO?z@ 00433288     servercommon:ServerFrame.obj
 0002:000022c4       ??_C@_0P@NIHGLCCD@MANUAL_CONNECT?$AA@ 004332c4     servercommon:ServerFrame.obj
 0002:000022d4       ??_C@_04KDPJLEDB@TYPE?$AA@ 004332d4     servercommon:ServerFrame.obj
 0002:000022dc       ??_C@_04HDFGONMM@PORT?$AA@ 004332dc     servercommon:ServerFrame.obj
 0002:000022e4       ??_C@_02MFEOMNPG@IP?$AA@   004332e4     servercommon:ServerFrame.obj
 0002:000022e8       ??_C@_0O@POMKBDPG@CONNECTION_?$CFd?$AA@ 004332e8     servercommon:ServerFrame.obj
 0002:000022f8       ??_C@_0P@KJOLPHNJ@CONEECTION_NUM?$AA@ 004332f8     servercommon:ServerFrame.obj
 0002:00002308       ??_C@_0M@JDFMPMAA@AUTO_LISTEN?$AA@ 00433308     servercommon:ServerFrame.obj
 0002:00002314       ??_C@_0BB@JHOMHAMA@CLIENT_IOHANDLER?$AA@ 00433314     servercommon:ServerFrame.obj
 0002:00002328       ??_C@_0CH@PKICADOO@desc?$FLnHandler?$FN?4dwMaxPacketSize?5?$DO@ 00433328     servercommon:ServerFrame.obj
 0002:00002350       ??_C@_0BB@NFHHNNCG@SERVER_IOHANDLER?$AA@ 00433350     servercommon:ServerFrame.obj
 0002:00002364       ??_C@_0BG@OFCBKKPH@IOCP?5Initialize?4?4?4?4?4?4?$AA@ 00433364     servercommon:ServerFrame.obj
 0002:0000237c       ??_C@_05PDJBBECF@pause?$AA@ 0043337c     servercommon:ServerFrame.obj
 0002:00002388       ??_C@_0EC@PAPGPOCI@?7?$FLATTRIBUTES?$FN?5RECONNECT_DELAY_TI@ 00433388     servercommon:ServerFrame.obj
 0002:000023cc       ??_C@_0DO@HIGKOJJB@?7?$FLATTRIBUTES?$FN?5Check?5value?5?3?5SERV@ 004333cc     servercommon:ServerFrame.obj
 0002:0000240c       ??_C@_0CD@PMNAEOOJ@?7?$FLATTRIBUTES?$FN?5Is?5exact?5tab?5name?$DP@ 0043340c     servercommon:ServerFrame.obj
 0002:00002430       ??_C@_0BM@EOMPOOP@Please?5Check?5xxxServer?4ini?6?$AA@ 00433430     servercommon:ServerFrame.obj
 0002:0000244c       ??_C@_0BF@FOMHOBCB@RECONNECT_DELAY_TIME?$AA@ 0043344c     servercommon:ServerFrame.obj
 0002:00002464       ??_C@_0BA@LOHPHMMO@IO_HANDLER_MASK?$AA@ 00433464     servercommon:ServerFrame.obj
 0002:00002474       ??_C@_0BJ@DKELMEGC@GET_SERVERINFO_FROM_FILE?$AA@ 00433474     servercommon:ServerFrame.obj
 0002:00002490       ??_C@_0L@MLKEEIPA@ATTRIBUTES?$AA@ 00433490     servercommon:ServerFrame.obj
 0002:0000249c       ??_C@_0M@GFBPKOLC@SERVER_MODE?$AA@ 0043349c     servercommon:ServerFrame.obj
 0002:000026a0       ??_C@_0BA@BMAICKCL@CATE_CONNECTION?$AA@ 004336a0     servercommon:SunLog.Interfaces.obj
 0002:000026b4       ??_7CSunLog@@6B@           004336b4     servercommon:SunLog.obj
 0002:000026b8       ??_C@_0DC@FHHLKBL@FAILED?5LOGGING?5IO?7Handle?5?$FL?$CFu?$FN?3PT@ 004336b8     servercommon:SunLog.obj
 0002:000026ec       ??_C@_04LIFAFMCE@?$FL?$CFs?$FN?$AA@ 004336ec     servercommon:SunLog.obj
 0002:000026f4       ??_C@_0BO@GIGHDGCH@?$FL?$CF04d?$CF02d?$CF02d_?$CF02d?3?$CF02d?3?$CF02d?$FN?$AA@ 004336f4     servercommon:SunLog.obj
 0002:00002714       ??_C@_0BC@NGBHFLFM@g_pSUNLOG?5?$DN?$DN?5NULL?$AA@ 00433714     servercommon:SunLog.obj
 0002:00002728       ??_C@_0N@NPGOEKBI@?4?2SunLog?4cpp?$AA@ 00433728     servercommon:SunLog.obj
 0002:00002738       ??_C@_0BC@PNADHPDI@g_pSUNLOG?5?$CB?$DN?5NULL?$AA@ 00433738     servercommon:SunLog.obj
 0002:0000274c       ??_C@_0DP@FLOGFMII@CSunLog?5Initialization?5Failed?$CB?5C@ 0043374c     servercommon:SunLog.obj
 0002:00002790       ??_C@_0EC@MFEJJFJG@CSunLog?5Initialization?5Failed?$CB?5C@ 00433790     servercommon:SunLog.obj
 0002:000027d4       ??_C@_0BI@OELKKAKL@?$CB?$CCCan?8t?5Create?5LogFile?$CC?$AA@ 004337d4     servercommon:SunLog.obj
 0002:000027ec       ??_C@_0CC@PMMACCB@CreateDirectory?5Fail?0?5path?5?$DN?5?$CFs?5@ 004337ec     servercommon:SunLog.obj
 0002:00002810       ??_C@_06OJHGLDPL@?$CInull?$CJ?$AA@ 00433810     servercommon:SunLog.obj
 0002:00002818       ??_C@_0L@DPGIJBEM@CONNECTION?$AA@ 00433818     servercommon:SunLog.obj
 0002:00002824       ??_C@_09KJOLCADJ@WAREHOUSE?$AA@ 00433824     servercommon:SunLog.obj
 0002:00002830       ??_C@_05ECMECJBC@TRADE?$AA@ 00433830     servercommon:SunLog.obj
 0002:00002838       ??_C@_04BLNHNEEM@ITEM?$AA@ 00433838     servercommon:SunLog.obj
 0002:00002840       ??_C@_07PPFPLHID@MISSION?$AA@ 00433840     servercommon:SunLog.obj
 0002:00002848       ??_C@_07KMKOMEFF@ABUSING?$AA@ 00433848     servercommon:SunLog.obj
 0002:00002850       ??_C@_0L@BJPOGJHN@DATARELOAD?$AA@ 00433850     servercommon:SunLog.obj
 0002:00002a58       ??_C@_0BL@EAFGPIBE@?$FLSessionLog?$FN?5Server?$FL?$CFs?$FN?5?$CFs?$AA@ 00433a58     servercommon:ServerSession.obj
 0002:00002a7c       ??_7ServerSession@@6B@     00433a7c     servercommon:ServerSession.obj
 0002:00002abc       ??_C@_0CM@FIHMJAHN@f?3?2sun?2src_2008?2server?2common?2Se@ 00433abc     servercommon:ServerSession.obj
 0002:00002ae8       ??_C@_0CC@GEOBJHAI@?$FLOnRedirect?$FN?$FL?$CFu?$FN?5?$CFs?$FL?$CFs?$FN?5Redirect@ 00433ae8     servercommon:ServerSession.obj
 0002:00002b0c       ??_C@_0CG@FOFKCLC@?$FLOnAccept?$FN?$FL?$CFu?$FN?5?$CFs?$FL?$CFs?$FN?5Accept?5Suc@ 00433b0c     servercommon:ServerSession.obj
 0002:00002b34       ??_C@_0CE@KHGKEFIB@?$FLOnConnect?$FN?$FL?$CFu?$FN?5?$CFs?5Connect?5Succe@ 00433b34     servercommon:ServerSession.obj
 0002:00002b58       ??_C@_0CG@BKKKJDBD@?$FLOnDisconnect?$FN?$FL?$CFu?$FN?5?$CFs?$FL?$CFs?$FN?5Discon@ 00433b58     servercommon:ServerSession.obj
 0002:00002b80       ??_C@_0O@CHEFGFA@CLIENT_SERVER?$AA@ 00433b80     servercommon:ServerGlobal.obj
 0002:00002b90       ??_C@_0P@LDKCKHGE@BILLING_SERVER?$AA@ 00433b90     servercommon:ServerGlobal.obj
 0002:00002ba0       ??_C@_0BD@KIJAJGDN@LOGIN_FRONT_SERVER?$AA@ 00433ba0     servercommon:ServerGlobal.obj
 0002:00002bb4       ??_C@_0M@GAHHABPD@AUTH_SERVER?$AA@ 00433bb4     servercommon:ServerGlobal.obj
 0002:00002bc0       ??_C@_0M@LLJBFOCP@GAME_SERVER?$AA@ 00433bc0     servercommon:ServerGlobal.obj
 0002:00002bcc       ??_C@_0M@JGJJBFJP@TEMP_SERVER?$AA@ 00433bcc     servercommon:ServerGlobal.obj
 0002:00002bd8       ??_C@_09JCFBLPGF@OP_SERVER?$AA@ 00433bd8     servercommon:ServerGlobal.obj
 0002:00002be4       ??_C@_0M@CNGAGBCK@SHOP_SERVER?$AA@ 00433be4     servercommon:ServerGlobal.obj
 0002:00002bf0       ??_C@_0BB@FBDKEGMI@SOLARAUTH_SERVER?$AA@ 00433bf0     servercommon:ServerGlobal.obj
 0002:00002c04       ??_C@_0O@FBIMMKDE@PORTAL_SERVER?$AA@ 00433c04     servercommon:ServerGlobal.obj
 0002:00002c14       ??_C@_0BC@KEPCBLGG@AUTH_AGENT_SERVER?$AA@ 00433c14     servercommon:ServerGlobal.obj
 0002:00002c28       ??_C@_0BC@NHFJCGAO@TOURNAMENT_SERVER?$AA@ 00433c28     servercommon:ServerGlobal.obj
 0002:00002c3c       ??_C@_0BA@CILMAOHE@ACCOUNT_DBPROXY?$AA@ 00433c3c     servercommon:ServerGlobal.obj
 0002:00002c4c       ??_C@_0N@KNJHKEGK@GUILD_SERVER?$AA@ 00433c4c     servercommon:ServerGlobal.obj
 0002:00002c5c       ??_C@_0O@IMGOPPEF@MASTER_SERVER?$AA@ 00433c5c     servercommon:ServerGlobal.obj
 0002:00002c6c       ??_C@_0N@HCGIEEKC@WORLD_SERVER?$AA@ 00433c6c     servercommon:ServerGlobal.obj
 0002:00002c7c       ??_C@_0N@KJKICONP@GAME_DBPROXY?$AA@ 00433c7c     servercommon:ServerGlobal.obj
 0002:00002c8c       ??_C@_0O@JKNGKGEO@BATTLE_SERVER?$AA@ 00433c8c     servercommon:ServerGlobal.obj
 0002:00002c9c       ??_C@_0N@HDAJEPFF@FIELD_SERVER?$AA@ 00433c9c     servercommon:ServerGlobal.obj
 0002:00002cac       ??_C@_0N@EPHOAIFP@AGENT_SERVER?$AA@ 00433cac     servercommon:ServerGlobal.obj
 0002:00002cbc       ??_C@_0P@HOJNDAM@UNKNOWN_SERVER?$AA@ 00433cbc     servercommon:ServerGlobal.obj
 0002:00002cd0       ??_C@_0ED@OEGFFIKE@?$CFs?9?$CFs?9?$CFs?9?$CIVer?3?$CFu?9?$CFu?9?$CFu?$CJ?0Build?3?$CI?$CF@ 00433cd0     servercommon:ServerGlobal.obj
 0002:00002d14       ??_C@_05KOLFGEDA@DEBUG?$AA@ 00433d14     servercommon:ServerGlobal.obj
 0002:00002d1c       ??_C@_08EMDHMFNE@TESTLIVE?$AA@ 00433d1c     servercommon:ServerGlobal.obj
 0002:00002d28       ??_C@_04KHPNEDFP@LIVE?$AA@ 00433d28     servercommon:ServerGlobal.obj
 0002:00002d30       ??_C@_0M@BINNFMP@INTRAOFFICE?$AA@ 00433d30     servercommon:ServerGlobal.obj
 0002:00002d3c       ??_C@_03FAHNFKHA@DEV?$AA@  00433d3c     servercommon:ServerGlobal.obj
 0002:00002d40       ??_C@_07NFANNNEC@UNKNOWN?$AA@ 00433d40     servercommon:ServerGlobal.obj
 0002:00002d48       ??_C@_07LDDIIHCM@RELEASE?$AA@ 00433d48     servercommon:ServerGlobal.obj
 0002:00002d50       ??_C@_0BN@NCJAHCEF@Current?5Work?5Directory?5?$DN?5?$CFs?6?$AA@ 00433d50     servercommon:ServerGlobal.obj
 0002:00003358       ?COMPRESS_LEVEL@CompressUtil@nsPacket@@0HB 00434358     programcommon_s:PacketControl_Compress.obj
 0002:0000335c       ??_C@_0BL@KPPLHGGD@?$CB?$CCUnexpected?5Request?5Size?$CC?$AA@ 0043435c     programcommon_s:PacketControl_Compress.obj
 0002:00003378       ??_C@_0M@OFBFOKGB@len?5?$DN?$DN?55816?$AA@ 00434378     programcommon_s:PacketControl_Compress.obj
 0002:00003384       ??_C@_0N@EEOBDGPC@len?5?$DN?$DN?565536?$AA@ 00434384     programcommon_s:PacketControl_Compress.obj
 0002:00003394       ??_C@_0CL@OLKLMEPA@?4?2PacketControl?2PacketControl_Co@ 00434394     programcommon_s:PacketControl_Compress.obj
 0002:000033c0       ??_C@_0BD@NIJKBACD@token?9?$DOptr_?5?$DN?$DN?5hdr?$AA@ 004343c0     utility_s:MemoryPoolFactory.obj
 0002:000033d4       ??_C@_0DB@FAGBJGFF@SharedMemoryPool?3?3CheckValidAllo@ 004343d4     utility_s:MemoryPoolFactory.obj
 0002:00003408       ??_C@_0CM@LDMGFLPM@util?3?3LList?3?3IsEmpty?$CI?$CGalloc_list@ 00434408     utility_s:MemoryPoolFactory.obj
 0002:00003434       ??_C@_0BI@FBDKBNLO@?4?2MemoryPoolFactory?4cpp?$AA@ 00434434     utility_s:MemoryPoolFactory.obj
 0002:0000344c       ??_C@_0DK@MGGCBPEB@?$HMMsg?$DNmismatched?5token?5block?5node@ 0043444c     utility_s:MemoryPoolFactory.obj
 0002:00003488       ??_C@_0CO@GMKMCAPJ@statistics_?4number_of_total_bloc@ 00434488     utility_s:MemoryPoolFactory.obj
 0002:000034b8       ??_C@_0DI@JHEPMMNF@?$HMMsg?$DNmismatched?5allocated?5nodes?5@ 004344b8     utility_s:MemoryPoolFactory.obj
 0002:000034f0       ??_C@_0CN@HGAMJAEI@statistics_?4number_of_alloc_node@ 004344f0     utility_s:MemoryPoolFactory.obj
 0002:00003520       ??_C@_0DD@HJMCCMHH@?$HMMsg?$DNmismatched?5free?5nodes?5?$CI?$CFu?3?$CF@ 00434520     utility_s:MemoryPoolFactory.obj
 0002:00003554       ??_C@_0CM@LPLMDKBM@statistics_?4number_of_free_nodes@ 00434554     utility_s:MemoryPoolFactory.obj
 0002:00003580       ??_C@_0CM@KCJALPIM@AssertionMessage?3?5?$CFs?5?$FLfile?3?5?$CFs?5?3@ 00434580     utility_s:ErrorControl.obj
 0002:000035ac       ??_C@_0DI@DFNCIKAF@SolarSimpleConsole?5?3?5SetConsoleM@ 004345ac     utility_s:SolarSimpleConsole.obj
 0002:000035e4       ??_C@_01KDCPPGHE@r?$AA@    004345e4     utility_s:SolarSimpleConsole.obj
 0002:000035e8       ??_C@_0DI@PCLCJNOM@SolarSimpleConsole?5?3?5GetConsoleM@ 004345e8     utility_s:SolarSimpleConsole.obj
 0002:00003620       ??_C@_0CB@HCLJIIKE@suspicious?5buffer?5overrun?5object@ 00434620     utility_s:SharedMemoryPool.obj
 0002:00003648       ??_C@_0NG@JHPOPDJH@?$HMMemoryCheckReport?$HMMsg?$DNtoken?5val@ 00434648     utility_s:SharedMemoryPool.obj
 0002:00003720       ??_C@_0PM@LFAEEBMG@?$HMMemoryCheckReport?$HMMsg?$DNtoken?5val@ 00434720     utility_s:SharedMemoryPool.obj
 0002:0000381c       ??_C@_0CE@DKGBCJEC@?$CB?$CCrequested?5null?5pointer?5releasi@ 0043481c     utility_s:SharedMemoryPool.obj
 0002:00003840       ??_C@_0CC@KJKBJNFJ@?$CB?$CCcan?8t?5entered?5with?5this?5result@ 00434840     utility_s:SharedMemoryPool.obj
 0002:00003864       ??_C@_0BE@OAFIDKHA@?$CB?$CCunexpected?5error?$CC?$AA@ 00434864     utility_s:SharedMemoryPool.obj
 0002:00003878       ??_C@_0BH@FMMCGCOL@?4?2SharedMemoryPool?4cpp?$AA@ 00434878     utility_s:SharedMemoryPool.obj
 0002:00003890       ??_C@_0JG@GKEJJFLL@?$HMMemoryCheckReport?$HMMsg?$DNunexpecte@ 00434890     utility_s:SharedMemoryPool.obj
 0002:00003928       ??_C@_0CM@PBLDPHDH@?$FL?$CFs?3?$CFd?$FN?5reference_counter_?5overf@ 00434928     utility_s:SharedMemoryPool.obj
 0002:00003954       ??_C@_0CG@GPMIELII@?$FL?$CFs?3?$CFd?$FN?5malloc?5fail?5?3?5?$CFs?0?5?$CFd?0?5si@ 00434954     utility_s:SharedMemoryPool.obj
 0002:0000397c       ??_C@_0CK@NMEFPPLP@util?3?3memory?3?3SharedMemoryTable?3@ 0043497c     utility_s:SharedMemoryPool.obj
 0002:000039a8       ??_C@_0CB@LFLLNMBA@simplex_network_delay_ticks?5?$DO?$DN?50@ 004349a8     utility_s:SolarDateTime.obj
 0002:000039d0       ??_C@_0HP@DCDJOLHB@send_info?4time_stamp_client_1st?5@ 004349d0     utility_s:SolarDateTime.obj
 0002:00003a50       ??_C@_0BE@CBNNGPCB@?4?2SolarDateTime?4cpp?$AA@ 00434a50     utility_s:SolarDateTime.obj
 0002:00003a68       ??_7out_of_range@std@@6B@  00434a68     libcpmt:string.obj
 0002:00003a70       ??_C@_0BA@JFNIOLAK@string?5too?5long?$AA@ 00434a70     libcpmt:string.obj
 0002:00003a80       ??_C@_0BI@CFPLBAOH@invalid?5string?5position?$AA@ 00434a80     libcpmt:string.obj
 0002:00003a98       ?_BADOFF@std@@3JB          00434a98     libcpmt:ios.obj
 0002:00003aa0       ??_7error_category@system@boost@@6B@ 00434aa0     libboost_system-vc90-mt-s-1_60:error_code.obj
 0002:00003abc       ??_7system_error_category@?A0xa00a0bbd@system@boost@@6B@ 00434abc     libboost_system-vc90-mt-s-1_60:error_code.obj
 0002:00003ad4       ??_C@_07DCLBNMLN@generic?$AA@ 00434ad4     libboost_system-vc90-mt-s-1_60:error_code.obj
 0002:00003adc       ??_C@_06FHFOAHML@system?$AA@ 00434adc     libboost_system-vc90-mt-s-1_60:error_code.obj
 0002:00003ae8       ??_7generic_error_category@?A0xa00a0bbd@system@boost@@6B@ 00434ae8     libboost_system-vc90-mt-s-1_60:error_code.obj
 0002:00003b00       ??_C@_0O@NIPGCINC@Unknown?5error?$AA@ 00434b00     libboost_system-vc90-mt-s-1_60:error_code.obj
 0002:00003b10       ??_C@_0BF@CJFPCCEG@incompatible?5version?$AA@ 00434b10     zlib:zutil.obj
 0002:00003b28       ??_C@_0N@DFPGLBGC@buffer?5error?$AA@ 00434b28     zlib:zutil.obj
 0002:00003b38       ??_C@_0BE@OGGJBMCE@insufficient?5memory?$AA@ 00434b38     zlib:zutil.obj
 0002:00003b4c       ??_C@_0L@HAHMBNLP@data?5error?$AA@ 00434b4c     zlib:zutil.obj
 0002:00003b58       ??_C@_0N@MKKNPMJD@stream?5error?$AA@ 00434b58     zlib:zutil.obj
 0002:00003b68       ??_C@_0L@KIJFAKBJ@file?5error?$AA@ 00434b68     zlib:zutil.obj
 0002:00003b74       ??_C@_0L@FNAOCBOG@stream?5end?$AA@ 00434b74     zlib:zutil.obj
 0002:00003b80       ??_C@_0BA@MOKMMFOD@need?5dictionary?$AA@ 00434b80     zlib:zutil.obj
 0002:00003b90       ??_C@_05DOIEBMOI@1?41?44?$AA@ 00434b90     zlib:zutil.obj
 0002:00003b98       _deflate_copyright         00434b98     zlib:deflate.obj
 0002:00004290       __dist_code                00435290     zlib:trees.obj
 0002:00004490       __length_code              00435490     zlib:trees.obj
 0002:00004680       ??_C@_06FIMJICNC@QUIT?$AN?6?$AA@ 00435680     CrashHandler:SMTPClient.obj
 0002:00004688       ??_C@_04LLEBNMDN@?$CFs?$AN?6?$AA@ 00435688     CrashHandler:SMTPClient.obj
 0002:00004690       ??_C@_0N@PBIADBBH@AUTH?5LOGIN?$AN?6?$AA@ 00435690     CrashHandler:SMTPClient.obj
 0002:000046a0       ??_C@_0P@HGJOCHPA@MAIL?5FROM?3?$CFs?$AN?6?$AA@ 004356a0     CrashHandler:SMTPClient.obj
 0002:000046b0       ??_C@_0P@ECEKDCOC@RCPT?5TO?3?$DM?$CFs?$DO?$AN?6?$AA@ 004356b0     CrashHandler:SMTPClient.obj
 0002:000046c0       ??_C@_0CG@PPKDFOHA@Content?9Transfer?9Encoding?3?5Base6@ 004356c0     CrashHandler:SMTPClient.obj
 0002:000046e8       ??_C@_0CL@DEBECPCO@Content?9Type?3?5text?1plain?$DL?5charse@ 004356e8     CrashHandler:SMTPClient.obj
 0002:00004714       __real@3fc00000            00435714     CrashHandler:SMTPClient.obj
 0002:00004718       ??_C@_06PFFHLKOK@?9?9?$CFs?$AN?6?$AA@ 00435718     CrashHandler:SMTPClient.obj
 0002:00004720       ??_C@_0DB@PLGKMGEG@Content?9Type?3?5multipart?1mixed?$DL?5b@ 00435720     CrashHandler:SMTPClient.obj
 0002:00004754       ??_C@_0BE@JBNMBGDA@Mime?9Version?3?51?40?$AN?6?$AA@ 00435754     CrashHandler:SMTPClient.obj
 0002:00004768       ??_C@_0O@FHPOFNAI@Subject?3?5?$CFs?$AN?6?$AA@ 00435768     CrashHandler:SMTPClient.obj
 0002:00004778       ??_C@_03DMHINEKI@?$DO?$AN?6?$AA@ 00435778     CrashHandler:SMTPClient.obj
 0002:0000477c       ??_C@_01ICJEACDI@?$DL?$AA@ 0043577c     CrashHandler:SMTPClient.obj
 0002:00004780       ??_C@_05BGGINDPL@To?3?5?$DM?$AA@ 00435780     CrashHandler:SMTPClient.obj
 0002:00004788       ??_C@_0CG@GDHKOCAP@X?9Mailer?3SSUL?5SendMail?5v1?40?5?$FLKor@ 00435788     CrashHandler:SMTPClient.obj
 0002:000047b0       ??_C@_0P@FPGADCNC@From?3?5?$CFs?$DM?$CFs?$DO?$AN?6?$AA@ 004357b0     CrashHandler:SMTPClient.obj
 0002:000047c0       ??_C@_06KNPIFKI@DATA?$AN?6?$AA@ 004357c0     CrashHandler:SMTPClient.obj
 0002:000047c8       ??_C@_0DH@NLMIGGAF@Content?9Description?3?5Created?5fro@ 004357c8     CrashHandler:SMTPClient.obj
 0002:00004800       ??_C@_0DB@KHABMJDE@Content?9Disposition?3?5attachment?$DL@ 00435800     CrashHandler:SMTPClient.obj
 0002:00004834       ??_C@_0CE@PGEIOFJM@Content?9Transfer?9Encoding?3?5Base6@ 00435834     CrashHandler:SMTPClient.obj
 0002:00004858       ??_C@_0BO@IDJMKFDP@Content?9Type?3?5?$CFs?$DL?5file?$DN?$CC?$CFs?$CC?$AN?6?$AA@ 00435858     CrashHandler:SMTPClient.obj
 0002:00004878       ??_C@_08OOLNIKKF@?$AN?6?9?9?$CFs?$AN?6?$AA@ 00435878     CrashHandler:SMTPClient.obj
 0002:00004884       ??_C@_05NNFHCGPF@?$CFs?4?$CFs?$AA@ 00435884     CrashHandler:SMTPClient.obj
 0002:0000488c       ??_C@_05BMGBEOOC@?$CFs?2?$CFs?$AA@ 0043588c     CrashHandler:SMTPClient.obj
 0002:00004894       ??_C@_04PMGDIHKD@?4?2?$CFs?$AA@ 00435894     CrashHandler:SMTPClient.obj
 0002:0000489c       ??_C@_01LFCBOECM@?4?$AA@   0043589c     CrashHandler:SMTPClient.obj
 0002:000048a0       ??_C@_05KMJPGPH@?$AN?6?4?$AN?6?$AA@ 004358a0     CrashHandler:SMTPClient.obj
 0002:000048a8       ??_C@_0L@NAAOAPHF@?$AN?6?9?9?$CFs?9?9?$AN?6?$AA@ 004358a8     CrashHandler:SMTPClient.obj
 0002:000048b4       ??_C@_09EMFMJFEO@HELO?5?$CFs?$AN?6?$AA@ 004358b4     CrashHandler:SMTPClient.obj
 0002:000048c0       ??_C@_09EIONPJKJ@EHLO?5?$CFs?$AN?6?$AA@ 004358c0     CrashHandler:SMTPClient.obj
 0002:000048cc       ??_C@_0P@MGPMFBBC@Stack?5overflow?$AA@ 004358cc     CrashHandler:CrashHandler.obj
 0002:000048dc       ??_C@_0BH@KPGNPNII@Privileged?5instruction?$AA@ 004358dc     CrashHandler:CrashHandler.obj
 0002:000048f4       ??_C@_0BB@IPOJFFKA@Integer?5overflow?$AA@ 004358f4     CrashHandler:CrashHandler.obj
 0002:00004908       ??_C@_0BH@NHLLGLIN@Integer?5divide?5by?5zero?$AA@ 00435908     CrashHandler:CrashHandler.obj
 0002:00004920       ??_C@_0P@HEFFBKAK@Float?5underlow?$AA@ 00435920     CrashHandler:CrashHandler.obj
 0002:00004930       ??_C@_0BC@CFKBGEGC@Float?5stack?5check?$AA@ 00435930     CrashHandler:CrashHandler.obj
 0002:00004944       ??_C@_0P@MPCBPAKO@Float?5overflow?$AA@ 00435944     CrashHandler:CrashHandler.obj
 0002:00004954       ??_C@_0BI@NCCJNINI@Float?5invalid?5operation?$AA@ 00435954     CrashHandler:CrashHandler.obj
 0002:0000496c       ??_C@_0BF@BGPMFELN@Float?5inexact?5result?$AA@ 0043596c     CrashHandler:CrashHandler.obj
 0002:00004984       ??_C@_0BF@JGBFFBDC@Float?5divide?5by?5zero?$AA@ 00435984     CrashHandler:CrashHandler.obj
 0002:0000499c       ??_C@_0BJ@HGNBDCNI@Noncontinuable?5exception?$AA@ 0043599c     CrashHandler:CrashHandler.obj
 0002:000049b8       ??_C@_0BE@JJMBEGLL@Invalid?5disposition?$AA@ 004359b8     CrashHandler:CrashHandler.obj
 0002:000049cc       ??_C@_0BH@BHMNNGEN@Float?5denormal?5operand?$AA@ 004359cc     CrashHandler:CrashHandler.obj
 0002:000049e4       ??_C@_0BG@PAGJAHHI@Array?5bounds?5exceeded?$AA@ 004359e4     CrashHandler:CrashHandler.obj
 0002:000049fc       ??_C@_0BE@MLNNHANJ@Illegal?5instruction?$AA@ 004359fc     CrashHandler:CrashHandler.obj
 0002:00004a10       ??_C@_0BB@KFJCFCM@Access?5violation?$AA@ 00435a10     CrashHandler:CrashHandler.obj
 0002:00004a24       ??_C@_0O@MGKDBHDE@In?5page?5error?$AA@ 00435a24     CrashHandler:CrashHandler.obj
 0002:00004a34       ??_C@_0M@HBBAMPBG@Single?5step?$AA@ 00435a34     CrashHandler:CrashHandler.obj
 0002:00004a40       ??_C@_0BH@OHAHMANF@Data?5type?5misalignment?$AA@ 00435a40     CrashHandler:CrashHandler.obj
 0002:00004a58       ??_C@_0M@JPKCCLGD@Break?5point?$AA@ 00435a58     CrashHandler:CrashHandler.obj
 0002:00004a64       ??_C@_0CF@PCCIEPNM@?9SymFromAddr?$CI?$CJ?5returned?5error?5?3?5@ 00435a64     CrashHandler:CrashHandler.obj
 0002:00004a8c       ??_C@_0BO@MMILEEOA@0x?$CF08x?5Address?5Lookup?5Error?$AN?6?$AA@ 00435a8c     CrashHandler:CrashHandler.obj
 0002:00004aac       ??_C@_0BL@CNPNOGHL@?$CINo?5line?5information?4?4?4?$CJ?$AN?6?$AA@ 00435aac     CrashHandler:CrashHandler.obj
 0002:00004ac8       ??_C@_0BJ@CNFFOCGC@?$CFs?$CI?$CJ?5?$CL?5offset?5?3?50x?$CF04x?$AN?6?$AA@ 00435ac8     CrashHandler:CrashHandler.obj
 0002:00004ae4       ??_C@_0O@MFGOBNCD@?9?$CFs?5?$CFd?5line?$AN?6?$AA@ 00435ae4     CrashHandler:CrashHandler.obj
 0002:00004af4       ??_C@_0BM@PGMEOEON@?$CFs?$CI?$CJ?5?$CL?5?$CFd?5line?5?$FLaddr?$DN?$CF?$CDx?$FN?$AN?6?$AA@ 00435af4     CrashHandler:CrashHandler.obj
 0002:00004b10       ??_C@_02PCIJFNDE@?$AN?6?$AA@ 00435b10     CrashHandler:CrashHandler.obj
 0002:00004b14       ??_C@_0BI@LPLGKJOH@ebp?3?5?$CF?$CD08x?5esp?3?5?$CF?$CD08x?$AN?6?$AA@ 00435b14     CrashHandler:CrashHandler.obj
 0002:00004b2c       ??_C@_0BI@IPBADDMD@esi?3?5?$CF?$CD08x?5edi?3?5?$CF?$CD08x?$AN?6?$AA@ 00435b2c     CrashHandler:CrashHandler.obj
 0002:00004b44       ??_C@_0BI@FPMFIAAF@ecx?3?5?$CF?$CD08x?5edx?3?5?$CF?$CD08x?$AN?6?$AA@ 00435b44     CrashHandler:CrashHandler.obj
 0002:00004b5c       ??_C@_0BI@FNGOPGAM@eax?3?5?$CF?$CD08x?5ebx?3?5?$CF?$CD08x?$AN?6?$AA@ 00435b5c     CrashHandler:CrashHandler.obj
 0002:00004b74       ??_C@_0L@KOMCHADB@Type?5?3?5?$CFs?6?$AA@ 00435b74     CrashHandler:CrashHandler.obj
 0002:00004b80       ??_C@_0CN@KOIMNJEJ@Process?5Handle?5?3?5?$CF?$CDx?7?7?5Thread?5Ha@ 00435b80     CrashHandler:CrashHandler.obj
 0002:00004bb0       ??_C@_0BL@HEHLOBIO@?$CF4d?4?$CF2d?4?$CF2d?5?5?$CFd?3?$CFd?3?$CFd?4?$CFd?6?6?$AA@ 00435bb0     CrashHandler:CrashHandler.obj
 0002:00004bcc       ??_C@_0BH@FFLDLAJP@?$DN?$DN?5Webzen_1_Next_?$CFd?5?$DN?$DN?$AA@ 00435bcc     CrashHandler:Mime.obj
 0002:00004be4       ??_C@_08JPPPIBM@image?1?$CFs?$AA@ 00435be4     CrashHandler:Mime.obj
 0002:00004bf0       ??_C@_09KABDMIOB@text?1html?$AA@ 00435bf0     CrashHandler:Mime.obj
 0002:00004bfc       ??_C@_0L@NDKAOLEK@video?1mpeg?$AA@ 00435bfc     CrashHandler:Mime.obj
 0002:00004c08       ??_C@_0BF@MFKIDJNI@audio?1x?9pn?9realaudio?$AA@ 00435c08     CrashHandler:Mime.obj
 0002:00004c20       ??_C@_0L@DOFAEOCL@audio?1mpeg?$AA@ 00435c20     CrashHandler:Mime.obj
 0002:00004c2c       ??_C@_0BO@NIIHMDLG@application?1vnd?4ms?9powerpoint?$AA@ 00435c2c     CrashHandler:Mime.obj
 0002:00004c4c       ??_C@_03KHNNJJKB@PPT?$AA@  00435c4c     CrashHandler:Mime.obj
 0002:00004c50       ??_C@_0BD@DMPJCPHP@application?1msword?$AA@ 00435c50     CrashHandler:Mime.obj
 0002:00004c64       ??_C@_03GKFPDJLC@DOC?$AA@  00435c64     CrashHandler:Mime.obj
 0002:00004c68       ??_C@_0BJ@HMNONEID@application?1vnd?4ms?9excel?$AA@ 00435c68     CrashHandler:Mime.obj
 0002:00004c84       ??_C@_03DIBEHNJN@XLS?$AA@  00435c84     CrashHandler:Mime.obj
 0002:00004c88       ??_C@_0BF@BNPBOMBG@application?1x?9gunzip?$AA@ 00435c88     CrashHandler:Mime.obj
 0002:00004ca0       ??_C@_02DFDPAIHG@GZ?$AA@   00435ca0     CrashHandler:Mime.obj
 0002:00004ca4       ??_C@_0BA@HBOMMMBO@application?1rtf?$AA@ 00435ca4     CrashHandler:Mime.obj
 0002:00004cb4       ??_C@_03HCCJIJCF@RTF?$AA@  00435cb4     CrashHandler:Mime.obj
 0002:00004cb8       ??_C@_0BA@MHMDKHOF@application?1pdf?$AA@ 00435cb8     CrashHandler:Mime.obj
 0002:00004cc8       ??_C@_03MEAGOCNO@PDF?$AA@  00435cc8     CrashHandler:Mime.obj
 0002:00004ccc       ??_C@_0BN@FEIOCMMH@application?1x?9zip?9compressed?$AA@ 00435ccc     CrashHandler:Mime.obj
 0002:00004cec       ??_C@_03LPPLCEDO@ZIP?$AA@  00435cec     CrashHandler:Mime.obj
 0002:00004cf0       ??_C@_03DGAJNKMC@MP2?$AA@  00435cf0     CrashHandler:Mime.obj
 0002:00004cf4       ??_C@_03CPBCOLID@MP3?$AA@  00435cf4     CrashHandler:Mime.obj
 0002:00004cf8       ??_C@_0BA@EEIMNHCN@audio?1quicktime?$AA@ 00435cf8     CrashHandler:Mime.obj
 0002:00004d08       ??_C@_03CAOCJACM@MOV?$AA@  00435d08     CrashHandler:Mime.obj
 0002:00004d0c       ??_C@_0M@DBGILIME@audio?1basic?$AA@ 00435d0c     CrashHandler:Mime.obj
 0002:00004d18       ??_C@_03OJBCKKGE@SND?$AA@  00435d18     CrashHandler:Mime.obj
 0002:00004d1c       ??_C@_0BA@LDCJKOCE@audio?1x?9msvideo?$AA@ 00435d1c     CrashHandler:Mime.obj
 0002:00004d2c       ??_C@_03LEJJLJPF@AVI?$AA@  00435d2c     CrashHandler:Mime.obj
 0002:00004d30       ??_C@_02IGOEKCHH@RA?$AA@   00435d30     CrashHandler:Mime.obj
 0002:00004d34       ??_C@_03ILDADBHF@RAM?$AA@  00435d34     CrashHandler:Mime.obj
 0002:00004d38       ??_C@_02CKFBONHL@RM?$AA@   00435d38     CrashHandler:Mime.obj
 0002:00004d3c       ??_C@_0M@LIOCAMIK@audio?1x?9wav?$AA@ 00435d3c     CrashHandler:Mime.obj
 0002:00004d48       ??_C@_03BFNIAKNN@WAV?$AA@  00435d48     CrashHandler:Mime.obj
 0002:00004d4c       ??_C@_03FGHHDFPD@MPE?$AA@  00435d4c     CrashHandler:Mime.obj
 0002:00004d50       ??_C@_04JLNKANFB@MPEG?$AA@ 00435d50     CrashHandler:Mime.obj
 0002:00004d58       ??_C@_03GEEBFHHB@MPG?$AA@  00435d58     CrashHandler:Mime.obj
 0002:00004d5c       ??_C@_04DBLPJNAF@HTML?$AA@ 00435d5c     CrashHandler:Mime.obj
 0002:00004d64       ??_C@_03KOHJOHBF@HTM?$AA@  00435d64     CrashHandler:Mime.obj
 0002:00004d68       ??_C@_0L@NPNLKGOJ@text?1plain?$AA@ 00435d68     CrashHandler:Mime.obj
 0002:00004d74       ??_C@_03CGKMFPEO@TXT?$AA@  00435d74     CrashHandler:Mime.obj
 0002:00004d78       ??_C@_04MAGGGPKP@TIFF?$AA@ 00435d78     CrashHandler:Mime.obj
 0002:00004d80       ??_C@_03EDLMOGNK@TIF?$AA@  00435d80     CrashHandler:Mime.obj
 0002:00004d84       ??_C@_03CNFPPDJC@BMP?$AA@  00435d84     CrashHandler:Mime.obj
 0002:00004d88       ??_C@_04CJPKNBEB@JPEG?$AA@ 00435d88     CrashHandler:Mime.obj
 0002:00004d90       ??_C@_03PJJGGPMI@JPG?$AA@  00435d90     CrashHandler:Mime.obj
 0002:00004d94       ??_C@_03BBABOKL@GIF?$AA@   00435d94     CrashHandler:Mime.obj
 0002:00004d98       ??_C@_0BJ@JDCJMJCJ@application?1octet?9stream?$AA@ 00435d98     CrashHandler:Mime.obj
 0002:00004db4       ??_C@_01LOCGONAA@?$AA?$AA@ 00435db4     CrashHandler:Base64.obj
 0002:00004db8       ??_C@_01NEMOKFLO@?$DN?$AA@ 00435db8     CrashHandler:Base64.obj
 0002:00004dbc       ??_C@_0BC@MNIKNFKD@MiniDumpWriteDump?$AA@ 00435dbc     CrashHandler:MiniDump.obj
 0002:00004dd0       ??_C@_0M@IBNEFJCG@DBGHELP?4DLL?$AA@ 00435dd0     CrashHandler:MiniDump.obj
 0002:00004de0       ??_7NetworkObject@@6B@     00435de0     Network:NetworkObject.obj
 0002:00004df8       ??_C@_0CA@DGEKPAGN@Session?$FL?$CFd?$FN?5RecvBuffer?5Size?$FL?$CFd?$FN?$AA@ 00435df8     Network:IOCPServer.obj
 0002:00004e18       ??_C@_0CA@GDOLANHK@Session?$FL?$CFd?$FN?5SendBuffer?5Size?$FL?$CFd?$FN?$AA@ 00435e18     Network:IOCPServer.obj
 0002:00004e38       ??_C@_0BE@JONHPENG@map?1set?$DMT?$DO?5too?5long?$AA@ 00435e38     Network:IOCPServer.obj
 0002:00004e4c       ??_C@_0BM@PAPJHAGI@invalid?5map?1set?$DMT?$DO?5iterator?$AA@ 00435e4c     Network:IOCPServer.obj
 0002:00004e6c       ??_7IOCPServer@@6B@        00435e6c     Network:IOCPServer.obj
 0002:00004e74       ??_7Session@@6B@           00435e74     Network:Session.obj
 0002:00004e78       ??_C@_0DM@IEAPKIOL@?$FLBuffer?5Full?5On?5Send?$FN?$HMC?3P?$DN?$FL?$CF03u?3@ 00435e78     Network:Session.obj
 0002:00004eb8       ??_C@_0HG@BDHDDFJN@the?5received?5packet?5header?5is?5in@ 00435eb8     Network:Session.obj
 0002:00004f30       ??_C@_0BL@IIMAALFC@?$FLPreRecv?$FN?5RecvBuffer?5Full?$CB?$AA@ 00435f30     Network:Session.obj
 0002:00004f4c       ??_C@_0BN@CKKCKCI@Idle?5Session?5is?5disconnected?$AA@ 00435f4c     Network:IoHandler.obj
 0002:00004f6c       ??_C@_0CK@PDFDLGOD@?$FLProcessConnectSuccessList?$FN?5PreR@ 00435f6c     Network:IoHandler.obj
 0002:00004f98       ??_C@_0CL@MOMMCAEI@?$FLProcessAcceptedSessionList?$FN?5Pre@ 00435f98     Network:IoHandler.obj
 0002:00004fc4       ??_C@_0CN@PEMONLEM@connection?5full?$CB?5no?5available?5ac@ 00435fc4     Network:IoHandler.obj
 0002:00004ff8       ??_7WxRingBuffer@module@@6B@ 00435ff8     Network:WxRingBuffer.obj
 0002:00005204       ??_7type_info@@6B@         00436204     LIBCMT:typinfo.obj
 0002:00005208       __FPinit                   00436208     LIBCMT:_fpinit_.obj
 0002:0000520c       __FPmtinit                 0043620c     LIBCMT:_fpinit_.obj
 0002:00005210       __FPmtterm                 00436210     LIBCMT:_fpinit_.obj
 0002:00005238       ??_7exception@std@@6B@     00436238     LIBCMT:stdexcpt.obj
 0002:00005240       ??_C@_0BC@EOODALEL@Unknown?5exception?$AA@ 00436240     LIBCMT:stdexcpt.obj
 0002:00005598       ??_C@_07INNMNHPJ@cmd?4exe?$AA@ 00436598     LIBCMT:system.obj
 0002:000055a0       ??_C@_02HNHPBPFE@?1c?$AA@  004365a0     LIBCMT:system.obj
 0002:000055a4       ??_C@_07CFPBBAOO@COMSPEC?$AA@ 004365a4     LIBCMT:system.obj
 0002:000055ac       ??_C@_01EEMJAFIK@?6?$AA@   004365ac     LIBCMT:perror.obj
 0002:000055b0       ??_C@_02LMMGGCAJ@?3?5?$AA@ 004365b0     LIBCMT:perror.obj
 0002:000055b8       ??_C@_0EA@FCLIIPNN@Visual?5C?$CL?$CL?5CRT?3?5Not?5enough?5memor@ 004365b8     LIBCMT:strerror.obj
 0002:000055f8       __pDestructExceptionObject 004365f8     LIBCMT:frame.obj
 0002:00005600       ??_7bad_exception@std@@6B@ 00436600     LIBCMT:frame.obj
 0002:00005608       ??_C@_0O@DPKOEFFH@bad?5exception?$AA@ 00436608     LIBCMT:frame.obj
 0002:00005618       ??_C@_0O@NLDKAIKN@EncodePointer?$AA@ 00436618     LIBCMT:tidtable.obj
 0002:00005628       ??_C@_1BK@DBDEIDLH@?$AAK?$AAE?$AAR?$AAN?$AAE?$AAL?$AA3?$AA2?$AA?4?$AAD?$AAL?$AAL?$AA?$AA@ 00436628     LIBCMT:tidtable.obj
 0002:00005644       ??_C@_0O@KBPMFGHI@DecodePointer?$AA@ 00436644     LIBCMT:tidtable.obj
 0002:00005654       ??_C@_07PEJMOBNF@FlsFree?$AA@ 00436654     LIBCMT:tidtable.obj
 0002:0000565c       ??_C@_0M@JCPCPOEF@FlsSetValue?$AA@ 0043665c     LIBCMT:tidtable.obj
 0002:00005668       ??_C@_0M@GDNOONDI@FlsGetValue?$AA@ 00436668     LIBCMT:tidtable.obj
 0002:00005674       ??_C@_08KNHFBNJ@FlsAlloc?$AA@ 00436674     LIBCMT:tidtable.obj
 0002:00005688       ??_C@_1O@CEDCILHN@?$AA?$CI?$AAn?$AAu?$AAl?$AAl?$AA?$CJ?$AA?$AA@ 00436688     LIBCMT:output.obj
 0002:00005698       ___lookuptable             00436698     LIBCMT:output.obj
 0002:000056f4       ??_C@_0P@GGKDKEEG@runtime?5error?5?$AA@ 004366f4     LIBCMT:crt0msg.obj
 0002:00005704       ??_C@_0O@MJNIPGOH@TLOSS?5error?$AN?6?$AA@ 00436704     LIBCMT:crt0msg.obj
 0002:00005714       ??_C@_0N@BONNPDHF@SING?5error?$AN?6?$AA@ 00436714     LIBCMT:crt0msg.obj
 0002:00005724       ??_C@_0P@MBDAJNE@DOMAIN?5error?$AN?6?$AA@ 00436724     LIBCMT:crt0msg.obj
 0002:00005738       ??_C@_0JL@DFDOOABL@R6034?$AN?6An?5application?5has?5made?5a@ 00436738     LIBCMT:crt0msg.obj
 0002:000057d8       ??_C@_0PH@EPAFIJ@R6033?$AN?6?9?5Attempt?5to?5use?5MSIL?5cod@ 004367d8     LIBCMT:crt0msg.obj
 0002:000058d0       ??_C@_0DD@BKEEABMM@R6032?$AN?6?9?5not?5enough?5space?5for?5lo@ 004368d0     LIBCMT:crt0msg.obj
 0002:00005908       ??_C@_0GD@OFKILIED@R6031?$AN?6?9?5Attempt?5to?5initialize?5t@ 00436908     LIBCMT:crt0msg.obj
 0002:0000596c       ??_C@_0BP@LPMHJOKI@R6030?$AN?6?9?5CRT?5not?5initialized?$AN?6?$AA@ 0043696c     LIBCMT:crt0msg.obj
 0002:0000598c       ??_C@_0CF@KJDAIALP@R6028?$AN?6?9?5unable?5to?5initialize?5he@ 0043698c     LIBCMT:crt0msg.obj
 0002:000059b4       ??_C@_0DF@GAKBPDFP@R6027?$AN?6?9?5not?5enough?5space?5for?5lo@ 004369b4     LIBCMT:crt0msg.obj
 0002:000059ec       ??_C@_0DF@IBLNNAIG@R6026?$AN?6?9?5not?5enough?5space?5for?5st@ 004369ec     LIBCMT:crt0msg.obj
 0002:00005a24       ??_C@_0CG@IOHKGFNJ@R6025?$AN?6?9?5pure?5virtual?5function?5c@ 00436a24     LIBCMT:crt0msg.obj
 0002:00005a4c       ??_C@_0DF@JIJJFJDC@R6024?$AN?6?9?5not?5enough?5space?5for?5_o@ 00436a4c     LIBCMT:crt0msg.obj
 0002:00005a84       ??_C@_0CJ@EGEJHFME@R6019?$AN?6?9?5unable?5to?5open?5console?5@ 00436a84     LIBCMT:crt0msg.obj
 0002:00005ab0       ??_C@_0CB@GNHNIELH@R6018?$AN?6?9?5unexpected?5heap?5error?$AN?6@ 00436ab0     LIBCMT:crt0msg.obj
 0002:00005ad4       ??_C@_0CN@FOLDKNG@R6017?$AN?6?9?5unexpected?5multithread?5@ 00436ad4     LIBCMT:crt0msg.obj
 0002:00005b04       ??_C@_0CM@FAHFJNHO@R6016?$AN?6?9?5not?5enough?5space?5for?5th@ 00436b04     LIBCMT:crt0msg.obj
 0002:00005b30       ??_C@_0JG@LBKMGKLD@?$AN?6This?5application?5has?5requested@ 00436b30     LIBCMT:crt0msg.obj
 0002:00005bc8       ??_C@_0CM@FLCNIPKK@R6009?$AN?6?9?5not?5enough?5space?5for?5en@ 00436bc8     LIBCMT:crt0msg.obj
 0002:00005bf4       ??_C@_0CK@KMMJOAPP@R6008?$AN?6?9?5not?5enough?5space?5for?5ar@ 00436bf4     LIBCMT:crt0msg.obj
 0002:00005c20       ??_C@_0CN@LEKKICBM@R6002?$AN?6?9?5floating?5point?5support?5@ 00436c20     LIBCMT:crt0msg.obj
 0002:00005c50       ??_C@_0CF@GOGNBNAK@Microsoft?5Visual?5C?$CL?$CL?5Runtime?5Lib@ 00436c50     LIBCMT:crt0msg.obj
 0002:00005c78       ??_C@_02PHMGELLB@?6?6?$AA@ 00436c78     LIBCMT:crt0msg.obj
 0002:00005c7c       ??_C@_03KHICJKCI@?4?4?4?$AA@ 00436c7c     LIBCMT:crt0msg.obj
 0002:00005c80       ??_C@_0BH@DNAGHKFM@?$DMprogram?5name?5unknown?$DO?$AA@ 00436c80     LIBCMT:crt0msg.obj
 0002:00005c98       ??_C@_0BK@OFGJDLJJ@Runtime?5Error?$CB?6?6Program?3?5?$AA@ 00436c98     LIBCMT:crt0msg.obj
 0002:00005cb4       ??_C@_0P@MIGLKIOC@CorExitProcess?$AA@ 00436cb4     LIBCMT:crt0dat.obj
 0002:00005cc4       ??_C@_1BI@BGOHAHKC@?$AAm?$AAs?$AAc?$AAo?$AAr?$AAe?$AAe?$AA?4?$AAd?$AAl?$AAl?$AA?$AA@ 00436cc4     LIBCMT:crt0dat.obj
 0002:00005d80       ??_C@_05KLBDPFGC@e?$CL000?$AA@ 00436d80     LIBCMT:cvt.obj
 0002:00005d88       __real@4150017ec0000000    00436d88     LIBCMT:_testfdiv_.obj
 0002:00005d90       __real@4147ffff80000000    00436d90     LIBCMT:_testfdiv_.obj
 0002:00005d98       ??_C@_0BK@NHEOCAHP@IsProcessorFeaturePresent?$AA@ 00436d98     LIBCMT:_testfdiv_.obj
 0002:00005db4       ??_C@_08CPNIBGIE@KERNEL32?$AA@ 00436db4     LIBCMT:_testfdiv_.obj
 0002:00005dc0       __XcptActTab               00436dc0     LIBCMT:winxfltr.obj
 0002:00005e38       ??_C@_13NOLLCAOD@?$AA?$AA?$AA?$AA@ 00436e38     LIBCMT:a_map.obj
 0002:00005e3c       ??_C@_06GDENEHCP@CONIN$?$AA@ 00436e3c     LIBCMT:initcon.obj
 0002:00005e44       ??_C@_07GPDNMNG@CONOUT$?$AA@ 00436e44     LIBCMT:initcon.obj
 0002:00005e4c       ??_C@_01KICIPPFI@?2?$AA@   00436e4c     LIBCMT:spawnvpe.obj
 0002:00005e50       ??_C@_04HBHDLLBA@PATH?$AA@ 00436e50     LIBCMT:spawnvpe.obj
 0002:00005e58       ??_C@_04PNGHFIJN@?4com?$AA@ 00436e58     LIBCMT:spawnve.obj
 0002:00005e60       ??_C@_04JLMDILM@?4exe?$AA@ 00436e60     LIBCMT:spawnve.obj
 0002:00005e68       ??_C@_04NEEFLLOK@?4bat?$AA@ 00436e68     LIBCMT:spawnve.obj
 0002:00005e70       ??_C@_04CPCBDHLK@?4cmd?$AA@ 00436e70     LIBCMT:spawnve.obj
 0002:00005e78       ??_C@_02CEGDFPFP@?4?2?$AA@ 00436e78     LIBCMT:spawnve.obj
 0002:00005e7c       ??_C@_0BG@KLEAJEFJ@Illegal?5byte?5sequence?$AA@ 00436e7c     LIBCMT:syserr.obj
 0002:00005e94       ??_C@_0BE@ICMCHPHH@Directory?5not?5empty?$AA@ 00436e94     LIBCMT:syserr.obj
 0002:00005ea8       ??_C@_0BJ@IHEHINLI@Function?5not?5implemented?$AA@ 00436ea8     LIBCMT:syserr.obj
 0002:00005ec4       ??_C@_0BD@CLHBCGPB@No?5locks?5available?$AA@ 00436ec4     LIBCMT:syserr.obj
 0002:00005ed8       ??_C@_0BC@BEDIHIDK@Filename?5too?5long?$AA@ 00436ed8     LIBCMT:syserr.obj
 0002:00005eec       ??_C@_0BK@JAEBMJJM@Resource?5deadlock?5avoided?$AA@ 00436eec     LIBCMT:syserr.obj
 0002:00005f08       ??_C@_0BB@FCBJFCAJ@Result?5too?5large?$AA@ 00436f08     LIBCMT:syserr.obj
 0002:00005f1c       ??_C@_0N@MMJPGLJK@Domain?5error?$AA@ 00436f1c     LIBCMT:syserr.obj
 0002:00005f2c       ??_C@_0M@LHEPIIOM@Broken?5pipe?$AA@ 00436f2c     LIBCMT:syserr.obj
 0002:00005f38       ??_C@_0P@PKCJJLLM@Too?5many?5links?$AA@ 00436f38     LIBCMT:syserr.obj
 0002:00005f48       ??_C@_0BG@DDBFNKBH@Read?9only?5file?5system?$AA@ 00436f48     LIBCMT:syserr.obj
 0002:00005f60       ??_C@_0N@FEHLOILP@Invalid?5seek?$AA@ 00436f60     LIBCMT:syserr.obj
 0002:00005f70       ??_C@_0BI@FEALHKLD@No?5space?5left?5on?5device?$AA@ 00436f70     LIBCMT:syserr.obj
 0002:00005f88       ??_C@_0P@LFMMIPAE@File?5too?5large?$AA@ 00436f88     LIBCMT:syserr.obj
 0002:00005f98       ??_C@_0CE@ONOKNLPF@Inappropriate?5I?1O?5control?5operat@ 00436f98     LIBCMT:syserr.obj
 0002:00005fbc       ??_C@_0BE@INBJMKGG@Too?5many?5open?5files?$AA@ 00436fbc     LIBCMT:syserr.obj
 0002:00005fd0       ??_C@_0BO@IIFBODJE@Too?5many?5open?5files?5in?5system?$AA@ 00436fd0     LIBCMT:syserr.obj
 0002:00005ff0       ??_C@_0BB@HMGGCEBG@Invalid?5argument?$AA@ 00436ff0     LIBCMT:syserr.obj
 0002:00006004       ??_C@_0P@NDHGCGKE@Is?5a?5directory?$AA@ 00437004     LIBCMT:syserr.obj
 0002:00006014       ??_C@_0BA@CJBACOOL@Not?5a?5directory?$AA@ 00437014     LIBCMT:syserr.obj
 0002:00006024       ??_C@_0P@NLEIANHE@No?5such?5device?$AA@ 00437024     LIBCMT:syserr.obj
 0002:00006034       ??_C@_0O@OAMDNOCP@Improper?5link?$AA@ 00437034     LIBCMT:syserr.obj
 0002:00006044       ??_C@_0M@NAAJNNGH@File?5exists?$AA@ 00437044     LIBCMT:syserr.obj
 0002:00006050       ??_C@_0BA@BIBLIOEK@Resource?5device?$AA@ 00437050     LIBCMT:syserr.obj
 0002:00006060       ??_C@_0M@LOEHLCJD@Bad?5address?$AA@ 00437060     LIBCMT:syserr.obj
 0002:0000606c       ??_C@_0BC@HFNFNKAI@Permission?5denied?$AA@ 0043706c     LIBCMT:syserr.obj
 0002:00006080       ??_C@_0BB@IMDKMPFB@Not?5enough?5space?$AA@ 00437080     LIBCMT:syserr.obj
 0002:00006094       ??_C@_0CB@EPFKGNAK@Resource?5temporarily?5unavailable@ 00437094     LIBCMT:syserr.obj
 0002:000060b8       ??_C@_0BD@LOHELEP@No?5child?5processes?$AA@ 004370b8     LIBCMT:syserr.obj
 0002:000060cc       ??_C@_0BE@NFGDDCEF@Bad?5file?5descriptor?$AA@ 004370cc     LIBCMT:syserr.obj
 0002:000060e0       ??_C@_0BC@HKPNECK@Exec?5format?5error?$AA@ 004370e0     LIBCMT:syserr.obj
 0002:000060f4       ??_C@_0BC@MFFGCDFL@Arg?5list?5too?5long?$AA@ 004370f4     LIBCMT:syserr.obj
 0002:00006108       ??_C@_0BK@DPKMCKJ@No?5such?5device?5or?5address?$AA@ 00437108     LIBCMT:syserr.obj
 0002:00006124       ??_C@_0BD@KKNFOBBD@Input?1output?5error?$AA@ 00437124     LIBCMT:syserr.obj
 0002:00006138       ??_C@_0BK@FJBOAFDK@Interrupted?5function?5call?$AA@ 00437138     LIBCMT:syserr.obj
 0002:00006154       ??_C@_0BA@FKIAIBGA@No?5such?5process?$AA@ 00437154     LIBCMT:syserr.obj
 0002:00006164       ??_C@_0BK@FMDHKPNF@No?5such?5file?5or?5directory?$AA@ 00437164     LIBCMT:syserr.obj
 0002:00006180       ??_C@_0BI@BJFCGOHL@Operation?5not?5permitted?$AA@ 00437180     LIBCMT:syserr.obj
 0002:00006198       ??_C@_08INEPGKHH@No?5error?$AA@ 00437198     LIBCMT:syserr.obj
 0002:000061a4       ??_C@_02CLFPBFFP@TZ?$AA@   004371a4     LIBCMT:tzset.obj
 0002:000061a8       ___dnames                  004371a8     LIBCMT:timeset.obj
 0002:000061c0       ___mnames                  004371c0     LIBCMT:timeset.obj
 0002:000061e8       ??_C@_0BK@CFCOFLF@?5Complete?5Object?5Locator?8?$AA@ 004371e8     LIBCMT:undname.obj
 0002:00006204       ??_C@_0BN@MECKDCOJ@?5Class?5Hierarchy?5Descriptor?8?$AA@ 00437204     LIBCMT:undname.obj
 0002:00006224       ??_C@_0BD@LGICGFMM@?5Base?5Class?5Array?8?$AA@ 00437224     LIBCMT:undname.obj
 0002:00006238       ??_C@_0BM@LDKODKLH@?5Base?5Class?5Descriptor?5at?5?$CI?$AA@ 00437238     LIBCMT:undname.obj
 0002:00006254       ??_C@_0BC@DAFEJGAK@?5Type?5Descriptor?8?$AA@ 00437254     LIBCMT:undname.obj
 0002:00006268       ??_C@_0BM@PMGGMLDN@?$GAlocal?5static?5thread?5guard?8?$AA@ 00437268     LIBCMT:undname.obj
 0002:00006284       ??_C@_0CL@FGIJHLCE@?$GAmanaged?5vector?5copy?5constructor@ 00437284     LIBCMT:undname.obj
 0002:000062b0       ??_C@_0CJ@GJELGAMM@?$GAvector?5vbase?5copy?5constructor?5i@ 004372b0     LIBCMT:undname.obj
 0002:000062dc       ??_C@_0CD@CGAJBKEJ@?$GAvector?5copy?5constructor?5iterato@ 004372dc     LIBCMT:undname.obj
 0002:00006300       ??_C@_0CB@PDBIFEP@?$GAdynamic?5atexit?5destructor?5for?5?8@ 00437300     LIBCMT:undname.obj
 0002:00006324       ??_C@_0BL@CLIPGLGB@?$GAdynamic?5initializer?5for?5?8?$AA@ 00437324     LIBCMT:undname.obj
 0002:00006340       ??_C@_0CM@FCBBDIGB@?$GAeh?5vector?5vbase?5copy?5constructo@ 00437340     LIBCMT:undname.obj
 0002:0000636c       ??_C@_0CG@HLDDJMAG@?$GAeh?5vector?5copy?5constructor?5iter@ 0043736c     LIBCMT:undname.obj
 0002:00006394       ??_C@_0CF@IMGKMJNO@?$GAmanaged?5vector?5destructor?5itera@ 00437394     LIBCMT:undname.obj
 0002:000063bc       ??_C@_0CG@CFDHKGGD@?$GAmanaged?5vector?5constructor?5iter@ 004373bc     LIBCMT:undname.obj
 0002:000063e4       ??_C@_0BN@CKNJLHMB@?$GAplacement?5delete?$FL?$FN?5closure?8?$AA@ 004373e4     LIBCMT:undname.obj
 0002:00006404       ??_C@_0BL@CNOONJFP@?$GAplacement?5delete?5closure?8?$AA@ 00437404     LIBCMT:undname.obj
 0002:00006420       ??_C@_0P@HJKNJFNN@?$GAomni?5callsig?8?$AA@ 00437420     LIBCMT:undname.obj
 0002:00006430       ??_C@_09LBNFPBCA@?5delete?$FL?$FN?$AA@ 00437430     LIBCMT:undname.obj
 0002:0000643c       ??_C@_06FHBGPFGH@?5new?$FL?$FN?$AA@ 0043743c     LIBCMT:undname.obj
 0002:00006444       ??_C@_0CE@IIHCMGGL@?$GAlocal?5vftable?5constructor?5closu@ 00437444     LIBCMT:undname.obj
 0002:00006468       ??_C@_0BA@KKLDJDLB@?$GAlocal?5vftable?8?$AA@ 00437468     LIBCMT:undname.obj
 0002:00006478       ??_C@_05KHLCHHI@?$GARTTI?$AA@ 00437478     LIBCMT:undname.obj
 0002:00006480       ??_C@_03KLGMFNMG@?$GAEH?$AA@ 00437480     LIBCMT:undname.obj
 0002:00006484       ??_C@_0BA@KBCDOMBN@?$GAudt?5returning?8?$AA@ 00437484     LIBCMT:undname.obj
 0002:00006494       ??_C@_0BL@LLKPOHJI@?$GAcopy?5constructor?5closure?8?$AA@ 00437494     LIBCMT:undname.obj
 0002:000064b0       ??_C@_0CH@OOJPLCPH@?$GAeh?5vector?5vbase?5constructor?5ite@ 004374b0     LIBCMT:undname.obj
 0002:000064d8       ??_C@_0CA@GCEOPDGL@?$GAeh?5vector?5destructor?5iterator?8?$AA@ 004374d8     LIBCMT:undname.obj
 0002:000064f8       ??_C@_0CB@JONCMFFK@?$GAeh?5vector?5constructor?5iterator?8@ 004374f8     LIBCMT:undname.obj
 0002:0000651c       ??_C@_0BL@NILFHHPC@?$GAvirtual?5displacement?5map?8?$AA@ 0043751c     LIBCMT:undname.obj
 0002:00006538       ??_C@_0CE@IKBNEHA@?$GAvector?5vbase?5constructor?5iterat@ 00437538     LIBCMT:undname.obj
 0002:0000655c       ??_C@_0BN@LFPFMEDL@?$GAvector?5destructor?5iterator?8?$AA@ 0043755c     LIBCMT:undname.obj
 0002:0000657c       ??_C@_0BO@PFGOCPJJ@?$GAvector?5constructor?5iterator?8?$AA@ 0043757c     LIBCMT:undname.obj
 0002:0000659c       ??_C@_0BN@IMDCHIKM@?$GAscalar?5deleting?5destructor?8?$AA@ 0043759c     LIBCMT:undname.obj
 0002:000065bc       ??_C@_0BO@OBMKPJIG@?$GAdefault?5constructor?5closure?8?$AA@ 004375bc     LIBCMT:undname.obj
 0002:000065dc       ??_C@_0BN@DEGPLNFK@?$GAvector?5deleting?5destructor?8?$AA@ 004375dc     LIBCMT:undname.obj
 0002:000065fc       ??_C@_0BD@JDLKDPAB@?$GAvbase?5destructor?8?$AA@ 004375fc     LIBCMT:undname.obj
 0002:00006610       ??_C@_08OBABFOLI@?$GAstring?8?$AA@ 00437610     LIBCMT:undname.obj
 0002:0000661c       ??_C@_0BF@KDPPACIK@?$GAlocal?5static?5guard?8?$AA@ 0043761c     LIBCMT:undname.obj
 0002:00006634       ??_C@_08LLFFHHDJ@?$GAtypeof?8?$AA@ 00437634     LIBCMT:undname.obj
 0002:00006640       ??_C@_07FEEIOKP@?$GAvcall?8?$AA@ 00437640     LIBCMT:undname.obj
 0002:00006648       ??_C@_09BLBHBJP@?$GAvbtable?8?$AA@ 00437648     LIBCMT:undname.obj
 0002:00006654       ??_C@_09IFPLHPGF@?$GAvftable?8?$AA@ 00437654     LIBCMT:undname.obj
 0002:00006660       ??_C@_02MHEGNOJ@?$FO?$DN?$AA@ 00437660     LIBCMT:undname.obj
 0002:00006664       ??_C@_02DHLNPPGH@?$HM?$DN?$AA@ 00437664     LIBCMT:undname.obj
 0002:00006668       ??_C@_02FGJGFEAB@?$CG?$DN?$AA@ 00437668     LIBCMT:undname.obj
 0002:0000666c       ??_C@_03CDNPDDLA@?$DM?$DM?$DN?$AA@ 0043766c     LIBCMT:undname.obj
 0002:00006670       ??_C@_03IKFCCPFF@?$DO?$DO?$DN?$AA@ 00437670     LIBCMT:undname.obj
 0002:00006674       ??_C@_02FENAOKFI@?$CF?$DN?$AA@ 00437674     LIBCMT:undname.obj
 0002:00006678       ??_C@_02FJEHGPIO@?1?$DN?$AA@ 00437678     LIBCMT:undname.obj
 0002:0000667c       ??_C@_02FKMDLLOA@?9?$DN?$AA@ 0043767c     LIBCMT:undname.obj
 0002:00006680       ??_C@_02FOEOMHFC@?$CL?$DN?$AA@ 00437680     LIBCMT:undname.obj
 0002:00006684       ??_C@_02FPIMKNGF@?$CK?$DN?$AA@ 00437684     LIBCMT:undname.obj
 0002:00006688       ??_C@_02NONPIBCD@?$HM?$HM?$AA@ 00437688     LIBCMT:undname.obj
 0002:0000668c       ??_C@_02PPKAJPJL@?$CG?$CG?$AA@ 0043768c     LIBCMT:undname.obj
 0002:00006690       ??_C@_01DNKMNLPK@?$HM?$AA@ 00437690     LIBCMT:undname.obj
 0002:00006694       ??_C@_01JKBOJNNK@?$FO?$AA@ 00437694     LIBCMT:undname.obj
 0002:00006698       ??_C@_01PJKLJHI@?$HO?$AA@  00437698     LIBCMT:undname.obj
 0002:0000669c       ??_C@_02HCKGKOFO@?$CI?$CJ?$AA@ 0043769c     LIBCMT:undname.obj
 0002:000066a0       ??_C@_01IHBHIGKO@?0?$AA@   004376a0     LIBCMT:undname.obj
 0002:000066a4       ??_C@_02EEKDKGMJ@?$DO?$DN?$AA@ 004376a4     LIBCMT:undname.obj
 0002:000066a8       ??_C@_01PPODPGHN@?$DO?$AA@ 004376a8     LIBCMT:undname.obj
 0002:000066ac       ??_C@_02EHCHHCKH@?$DM?$DN?$AA@ 004376ac     LIBCMT:undname.obj
 0002:000066b0       ??_C@_01MNNFJEPP@?$DM?$AA@ 004376b0     LIBCMT:undname.obj
 0002:000066b4       ??_C@_01FGNFDNOH@?$CF?$AA@ 004376b4     LIBCMT:undname.obj
 0002:000066b8       ??_C@_01KMDKNFGN@?1?$AA@   004376b8     LIBCMT:undname.obj
 0002:000066bc       ??_C@_03MNHNFDLC@?9?$DO?$CK?$AA@ 004376bc     LIBCMT:undname.obj
 0002:000066c0       ??_C@_01HNPIGOCE@?$CG?$AA@ 004376c0     LIBCMT:undname.obj
 0002:000066c4       ??_C@_01MIFGBAGJ@?$CL?$AA@ 004376c4     LIBCMT:undname.obj
 0002:000066c8       ??_C@_01JOAMLHOP@?9?$AA@   004376c8     LIBCMT:undname.obj
 0002:000066cc       ??_C@_02BAABKJLB@?9?9?$AA@ 004376cc     LIBCMT:undname.obj
 0002:000066d0       ??_C@_02ECNGHCIF@?$CL?$CL?$AA@ 004376d0     LIBCMT:undname.obj
 0002:000066d4       ??_C@_01NBENCBCI@?$CK?$AA@ 004376d4     LIBCMT:undname.obj
 0002:000066d8       ??_C@_02HBOOOICD@?9?$DO?$AA@ 004376d8     LIBCMT:undname.obj
 0002:000066dc       ??_C@_08LHJFAFGD@operator?$AA@ 004376dc     LIBCMT:undname.obj
 0002:000066e8       ??_C@_02GPECMEKF@?$FL?$FN?$AA@ 004376e8     LIBCMT:undname.obj
 0002:000066ec       ??_C@_02FDNJECIE@?$CB?$DN?$AA@ 004376ec     LIBCMT:undname.obj
 0002:000066f0       ??_C@_02EGOFBIJA@?$DN?$DN?$AA@ 004376f0     LIBCMT:undname.obj
 0002:000066f4       ??_C@_01DCLJPIOD@?$CB?$AA@ 004376f4     LIBCMT:undname.obj
 0002:000066f8       ??_C@_02FODMEDOG@?$DM?$DM?$AA@ 004376f8     LIBCMT:undname.obj
 0002:000066fc       ??_C@_02GPIOPFAK@?$DO?$DO?$AA@ 004376fc     LIBCMT:undname.obj
 0002:00006700       ??_C@_07FPCDHGMM@?5delete?$AA@ 00437700     LIBCMT:undname.obj
 0002:00006708       ??_C@_04NIHEBCM@?5new?$AA@ 00437708     LIBCMT:undname.obj
 0002:00006710       ??_C@_0M@GFIIJFMG@__unaligned?$AA@ 00437710     LIBCMT:undname.obj
 0002:0000671c       ??_C@_0L@PILCLIHE@__restrict?$AA@ 0043771c     LIBCMT:undname.obj
 0002:00006728       ??_C@_07JOMMBBKO@__ptr64?$AA@ 00437728     LIBCMT:undname.obj
 0002:00006730       ??_C@_09HIJEGCPM@__clrcall?$AA@ 00437730     LIBCMT:undname.obj
 0002:0000673c       ??_C@_0L@JMKHOMEK@__fastcall?$AA@ 0043773c     LIBCMT:undname.obj
 0002:00006748       ??_C@_0L@NPHFGOKO@__thiscall?$AA@ 00437748     LIBCMT:undname.obj
 0002:00006754       ??_C@_09IFJBGAPI@__stdcall?$AA@ 00437754     LIBCMT:undname.obj
 0002:00006760       ??_C@_08GHMPAG@__pascal?$AA@ 00437760     LIBCMT:undname.obj
 0002:0000676c       ??_C@_07KOLFKCDI@__cdecl?$AA@ 0043776c     LIBCMT:undname.obj
 0002:00006774       ??_C@_08EHJDFFNH@__based?$CI?$AA@ 00437774     LIBCMT:undname.obj
 0002:00006900       ___lookuptable_s           00437900     LIBCMT:outputs.obj
 0002:0000695c       ??_C@_0BI@DFKBFLJE@GetProcessWindowStation?$AA@ 0043795c     LIBCMT:crtmbox.obj
 0002:00006974       ??_C@_0BK@CIDNPOGP@GetUserObjectInformationA?$AA@ 00437974     LIBCMT:crtmbox.obj
 0002:00006990       ??_C@_0BD@HHGDFDBJ@GetLastActivePopup?$AA@ 00437990     LIBCMT:crtmbox.obj
 0002:000069a4       ??_C@_0BA@HNOPNCHB@GetActiveWindow?$AA@ 004379a4     LIBCMT:crtmbox.obj
 0002:000069b4       ??_C@_0M@CHKKJDAI@MessageBoxA?$AA@ 004379b4     LIBCMT:crtmbox.obj
 0002:000069c0       ??_C@_0L@NDEGIDAG@USER32?4DLL?$AA@ 004379c0     LIBCMT:crtmbox.obj
 0002:000069d0       ___newctype                004379d0     LIBCMT:ctype.obj
 0002:00006cd0       __wctype                   00437cd0     LIBCMT:ctype.obj
 0002:00006ed8       ___newclmap                00437ed8     LIBCMT:ctype.obj
 0002:00007058       ___newcumap                00438058     LIBCMT:ctype.obj
 0002:000071d8       ??_C@_08JCCMCCIL@HH?3mm?3ss?$AA@ 004381d8     LIBCMT:strftime.obj
 0002:000071e4       ??_C@_0BE@CKGJFCPC@dddd?0?5MMMM?5dd?0?5yyyy?$AA@ 004381e4     LIBCMT:strftime.obj
 0002:000071f8       ??_C@_08BPBNCDIB@MM?1dd?1yy?$AA@ 004381f8     LIBCMT:strftime.obj
 0002:00007204       ??_C@_02CJNFDJBF@PM?$AA@   00438204     LIBCMT:strftime.obj
 0002:00007208       ??_C@_02DEDBPAFC@AM?$AA@   00438208     LIBCMT:strftime.obj
 0002:0000720c       ??_C@_08EDHMEBNP@December?$AA@ 0043820c     LIBCMT:strftime.obj
 0002:00007218       ??_C@_08HCHEGEOA@November?$AA@ 00438218     LIBCMT:strftime.obj
 0002:00007224       ??_C@_07JJNFCEND@October?$AA@ 00438224     LIBCMT:strftime.obj
 0002:0000722c       ??_C@_09BHHEALKD@September?$AA@ 0043822c     LIBCMT:strftime.obj
 0002:00007238       ??_C@_06LBBHFDDG@August?$AA@ 00438238     LIBCMT:strftime.obj
 0002:00007240       ??_C@_04MIEPOIFP@July?$AA@ 00438240     LIBCMT:strftime.obj
 0002:00007248       ??_C@_04CNLMGBGM@June?$AA@ 00438248     LIBCMT:strftime.obj
 0002:00007250       ??_C@_05DMJDNLEJ@April?$AA@ 00438250     LIBCMT:strftime.obj
 0002:00007258       ??_C@_05HPCKOFNC@March?$AA@ 00438258     LIBCMT:strftime.obj
 0002:00007260       ??_C@_08GNJGEPFN@February?$AA@ 00438260     LIBCMT:strftime.obj
 0002:0000726c       ??_C@_07CGJPFGJA@January?$AA@ 0043826c     LIBCMT:strftime.obj
 0002:00007274       ??_C@_03MKABNOCG@Dec?$AA@  00438274     LIBCMT:strftime.obj
 0002:00007278       ??_C@_03JPJOFNIA@Nov?$AA@  00438278     LIBCMT:strftime.obj
 0002:0000727c       ??_C@_03BMAOKBAD@Oct?$AA@  0043827c     LIBCMT:strftime.obj
 0002:00007280       ??_C@_03GGCAPAJC@Sep?$AA@  00438280     LIBCMT:strftime.obj
 0002:00007284       ??_C@_03IFJFEIGA@Aug?$AA@  00438284     LIBCMT:strftime.obj
 0002:00007288       ??_C@_03LBGABGKK@Jul?$AA@  00438288     LIBCMT:strftime.obj
 0002:0000728c       ??_C@_03IDFGHECI@Jun?$AA@  0043828c     LIBCMT:strftime.obj
 0002:00007290       ??_C@_03CNMDKL@May?$AA@    00438290     LIBCMT:strftime.obj
 0002:00007294       ??_C@_03LEOLGMJP@Apr?$AA@  00438294     LIBCMT:strftime.obj
 0002:00007298       ??_C@_03ODNJBKGA@Mar?$AA@  00438298     LIBCMT:strftime.obj
 0002:0000729c       ??_C@_03HJBDCHOM@Feb?$AA@  0043829c     LIBCMT:strftime.obj
 0002:000072a0       ??_C@_03JIHJHPIE@Jan?$AA@  004382a0     LIBCMT:strftime.obj
 0002:000072a4       ??_C@_08INBOOONO@Saturday?$AA@ 004382a4     LIBCMT:strftime.obj
 0002:000072b0       ??_C@_06JECMNKMI@Friday?$AA@ 004382b0     LIBCMT:strftime.obj
 0002:000072b8       ??_C@_08HACCIKIA@Thursday?$AA@ 004382b8     LIBCMT:strftime.obj
 0002:000072c4       ??_C@_09DLIGFAKA@Wednesday?$AA@ 004382c4     LIBCMT:strftime.obj
 0002:000072d0       ??_C@_07BAAGCFCM@Tuesday?$AA@ 004382d0     LIBCMT:strftime.obj
 0002:000072d8       ??_C@_06JLEDEDGH@Monday?$AA@ 004382d8     LIBCMT:strftime.obj
 0002:000072e0       ??_C@_06OOPIFAJ@Sunday?$AA@ 004382e0     LIBCMT:strftime.obj
 0002:000072e8       ??_C@_03FEFJNEK@Sat?$AA@   004382e8     LIBCMT:strftime.obj
 0002:000072ec       ??_C@_03IDIOELNC@Fri?$AA@  004382ec     LIBCMT:strftime.obj
 0002:000072f0       ??_C@_03IOFIKPDN@Thu?$AA@  004382f0     LIBCMT:strftime.obj
 0002:000072f4       ??_C@_03MHOMLAJA@Wed?$AA@  004382f4     LIBCMT:strftime.obj
 0002:000072f8       ??_C@_03NAGEINEP@Tue?$AA@  004382f8     LIBCMT:strftime.obj
 0002:000072fc       ??_C@_03PDAGKDH@Mon?$AA@   004382fc     LIBCMT:strftime.obj
 0002:00007300       ??_C@_03KOEHGMDN@Sun?$AA@  00438300     LIBCMT:strftime.obj
 0002:00007304       ??_C@_0L@NKOGAPMJ@SystemRoot?$AA@ 00438304     LIBCMT:cenvarg.obj
 0002:00007310       ??_C@_06IMKFLFPG@1?$CDQNAN?$AA@ 00438310     LIBCMT:_x10fout_.obj
 0002:00007318       ??_C@_05DNEBIAHO@1?$CDINF?$AA@ 00438318     LIBCMT:_x10fout_.obj
 0002:00007320       ??_C@_05PHHOCPM@1?$CDIND?$AA@ 00438320     LIBCMT:_x10fout_.obj
 0002:00007328       ??_C@_06PGGFOGJG@1?$CDSNAN?$AA@ 00438328     LIBCMT:_x10fout_.obj
 0002:00007330       __load_config_used         00438330     LIBCMT:loadcfg.obj
 0002:000073c8       ??_R4AuthAgentFrame@@6B@   004383c8     AuthAgentFrame.obj
 0002:000073dc       ??_R3AuthAgentFrame@@8     004383dc     AuthAgentFrame.obj
 0002:000073ec       ??_R2AuthAgentFrame@@8     004383ec     AuthAgentFrame.obj
 0002:000073fc       ??_R1A@?0A@EA@AuthAgentFrame@@8 004383fc     AuthAgentFrame.obj
 0002:00007418       ??_R1A@?0A@EA@ServerFrame@@8 00438418     AuthAgentFrame.obj
 0002:00007434       ??_R3ServerFrame@@8        00438434     AuthAgentFrame.obj
 0002:00007444       ??_R2ServerFrame@@8        00438444     AuthAgentFrame.obj
 0002:0000744c       ??_R1BII@?0A@EA@?$Singleton@VAuthAgentFrame@@$00@util@@8 0043844c     AuthAgentFrame.obj
 0002:00007468       ??_R3?$Singleton@VAuthAgentFrame@@$00@util@@8 00438468     AuthAgentFrame.obj
 0002:00007478       ??_R2?$Singleton@VAuthAgentFrame@@$00@util@@8 00438478     AuthAgentFrame.obj
 0002:00007480       ??_R1A@?0A@EA@?$Singleton@VAuthAgentFrame@@$00@util@@8 00438480     AuthAgentFrame.obj
 0002:0000749c       ??_R4?$CMemoryPoolFactory@VAuthServerSession@@@util@@6B@ 0043849c     AuthAgentFrame.obj
 0002:000074b0       ??_R3?$CMemoryPoolFactory@VAuthServerSession@@@util@@8 004384b0     AuthAgentFrame.obj
 0002:000074c0       ??_R2?$CMemoryPoolFactory@VAuthServerSession@@@util@@8 004384c0     AuthAgentFrame.obj
 0002:000074cc       ??_R1A@?0A@EA@?$CMemoryPoolFactory@VAuthServerSession@@@util@@8 004384cc     AuthAgentFrame.obj
 0002:000074e8       ??_R1A@?0A@EA@IVMemoryPool@util@@8 004384e8     AuthAgentFrame.obj
 0002:00007504       ??_R3IVMemoryPool@util@@8  00438504     AuthAgentFrame.obj
 0002:00007514       ??_R2IVMemoryPool@util@@8  00438514     AuthAgentFrame.obj
 0002:0000751c       ??_R4?$CMemoryPoolFactory@VGameAgentServerSession@@@util@@6B@ 0043851c     AuthAgentFrame.obj
 0002:00007530       ??_R3?$CMemoryPoolFactory@VGameAgentServerSession@@@util@@8 00438530     AuthAgentFrame.obj
 0002:00007540       ??_R2?$CMemoryPoolFactory@VGameAgentServerSession@@@util@@8 00438540     AuthAgentFrame.obj
 0002:0000754c       ??_R1A@?0A@EA@?$CMemoryPoolFactory@VGameAgentServerSession@@@util@@8 0043854c     AuthAgentFrame.obj
 0002:00007568       ??_R4IVMemoryPool@util@@6B@ 00438568     AuthAgentFrame.obj
 0002:0000757c       ??_R4?$NotUseChunkImpl@VAuthServerSession@@@internal@util@@6B@ 0043857c     AuthAgentFrame.obj
 0002:00007590       ??_R3?$NotUseChunkImpl@VAuthServerSession@@@internal@util@@8 00438590     AuthAgentFrame.obj
 0002:000075a0       ??_R2?$NotUseChunkImpl@VAuthServerSession@@@internal@util@@8 004385a0     AuthAgentFrame.obj
 0002:000075ac       ??_R1A@?0A@EA@?$NotUseChunkImpl@VAuthServerSession@@@internal@util@@8 004385ac     AuthAgentFrame.obj
 0002:000075c8       ??_R1A@?0A@EA@IMemoryPoolFactoryImpl@internal@util@@8 004385c8     AuthAgentFrame.obj
 0002:000075e4       ??_R3IMemoryPoolFactoryImpl@internal@util@@8 004385e4     AuthAgentFrame.obj
 0002:000075f4       ??_R2IMemoryPoolFactoryImpl@internal@util@@8 004385f4     AuthAgentFrame.obj
 0002:000075fc       ??_R4?$VariableSizeChunkImpl@VAuthServerSession@@@internal@util@@6B@ 004385fc     AuthAgentFrame.obj
 0002:00007610       ??_R3?$VariableSizeChunkImpl@VAuthServerSession@@@internal@util@@8 00438610     AuthAgentFrame.obj
 0002:00007620       ??_R2?$VariableSizeChunkImpl@VAuthServerSession@@@internal@util@@8 00438620     AuthAgentFrame.obj
 0002:0000762c       ??_R1A@?0A@EA@?$VariableSizeChunkImpl@VAuthServerSession@@@internal@util@@8 0043862c     AuthAgentFrame.obj
 0002:00007648       ??_R4?$FixedSizeChunkImpl@VAuthServerSession@@@internal@util@@6B@ 00438648     AuthAgentFrame.obj
 0002:0000765c       ??_R3?$FixedSizeChunkImpl@VAuthServerSession@@@internal@util@@8 0043865c     AuthAgentFrame.obj
 0002:0000766c       ??_R2?$FixedSizeChunkImpl@VAuthServerSession@@@internal@util@@8 0043866c     AuthAgentFrame.obj
 0002:00007678       ??_R1A@?0A@EA@?$FixedSizeChunkImpl@VAuthServerSession@@@internal@util@@8 00438678     AuthAgentFrame.obj
 0002:00007694       ??_R4?$NotUseChunkImpl@VGameAgentServerSession@@@internal@util@@6B@ 00438694     AuthAgentFrame.obj
 0002:000076a8       ??_R3?$NotUseChunkImpl@VGameAgentServerSession@@@internal@util@@8 004386a8     AuthAgentFrame.obj
 0002:000076b8       ??_R2?$NotUseChunkImpl@VGameAgentServerSession@@@internal@util@@8 004386b8     AuthAgentFrame.obj
 0002:000076c4       ??_R1A@?0A@EA@?$NotUseChunkImpl@VGameAgentServerSession@@@internal@util@@8 004386c4     AuthAgentFrame.obj
 0002:000076e0       ??_R4?$VariableSizeChunkImpl@VGameAgentServerSession@@@internal@util@@6B@ 004386e0     AuthAgentFrame.obj
 0002:000076f4       ??_R3?$VariableSizeChunkImpl@VGameAgentServerSession@@@internal@util@@8 004386f4     AuthAgentFrame.obj
 0002:00007704       ??_R2?$VariableSizeChunkImpl@VGameAgentServerSession@@@internal@util@@8 00438704     AuthAgentFrame.obj
 0002:00007710       ??_R1A@?0A@EA@?$VariableSizeChunkImpl@VGameAgentServerSession@@@internal@util@@8 00438710     AuthAgentFrame.obj
 0002:0000772c       ??_R4?$FixedSizeChunkImpl@VGameAgentServerSession@@@internal@util@@6B@ 0043872c     AuthAgentFrame.obj
 0002:00007740       ??_R3?$FixedSizeChunkImpl@VGameAgentServerSession@@@internal@util@@8 00438740     AuthAgentFrame.obj
 0002:00007750       ??_R2?$FixedSizeChunkImpl@VGameAgentServerSession@@@internal@util@@8 00438750     AuthAgentFrame.obj
 0002:0000775c       ??_R1A@?0A@EA@?$FixedSizeChunkImpl@VGameAgentServerSession@@@internal@util@@8 0043875c     AuthAgentFrame.obj
 0002:00007778       ??_R4IMemoryPoolFactoryImpl@internal@util@@6B@ 00438778     AuthAgentFrame.obj
 0002:0000778c       ??_R4AuthServerSession@@6B@ 0043878c     AuthServerSession.obj
 0002:000077a0       ??_R3AuthServerSession@@8  004387a0     AuthServerSession.obj
 0002:000077b0       ??_R2AuthServerSession@@8  004387b0     AuthServerSession.obj
 0002:000077c0       ??_R1A@?0A@EA@AuthServerSession@@8 004387c0     AuthServerSession.obj
 0002:000077dc       ??_R1A@?0A@EA@ServerSession@@8 004387dc     AuthServerSession.obj
 0002:000077f8       ??_R3ServerSession@@8      004387f8     AuthServerSession.obj
 0002:00007808       ??_R2ServerSession@@8      00438808     AuthServerSession.obj
 0002:00007814       ??_R1A@?0A@EA@NetworkObject@@8 00438814     AuthServerSession.obj
 0002:00007830       ??_R3NetworkObject@@8      00438830     AuthServerSession.obj
 0002:00007840       ??_R2NetworkObject@@8      00438840     AuthServerSession.obj
 0002:00007848       ??_R4GameAgentServerSession@@6B@ 00438848     GameAgentServerSession.obj
 0002:0000785c       ??_R3GameAgentServerSession@@8 0043885c     GameAgentServerSession.obj
 0002:0000786c       ??_R2GameAgentServerSession@@8 0043886c     GameAgentServerSession.obj
 0002:0000787c       ??_R1A@?0A@EA@GameAgentServerSession@@8 0043887c     GameAgentServerSession.obj
 0002:00007898       ??_R4length_error@std@@6B@ 00438898     GameAgentInfoList.obj
 0002:000078ac       ??_R3length_error@std@@8   004388ac     GameAgentInfoList.obj
 0002:000078bc       ??_R2length_error@std@@8   004388bc     GameAgentInfoList.obj
 0002:000078cc       ??_R1A@?0A@EA@length_error@std@@8 004388cc     GameAgentInfoList.obj
 0002:000078e8       ??_R1A@?0A@EA@logic_error@std@@8 004388e8     GameAgentInfoList.obj
 0002:00007904       ??_R3logic_error@std@@8    00438904     GameAgentInfoList.obj
 0002:00007914       ??_R2logic_error@std@@8    00438914     GameAgentInfoList.obj
 0002:00007920       ??_R1A@?0A@EA@exception@std@@8 00438920     GameAgentInfoList.obj
 0002:0000793c       ??_R3exception@std@@8      0043893c     GameAgentInfoList.obj
 0002:0000794c       ??_R2exception@std@@8      0043894c     GameAgentInfoList.obj
 0002:00007954       ??_R4logic_error@std@@6B@  00438954     GameAgentInfoList.obj
 0002:00007968       ??_R4bad_alloc@std@@6B@    00438968     GameAgentInfoList.obj
 0002:0000797c       ??_R3bad_alloc@std@@8      0043897c     GameAgentInfoList.obj
 0002:0000798c       ??_R2bad_alloc@std@@8      0043898c     GameAgentInfoList.obj
 0002:00007998       ??_R1A@?0A@EA@bad_alloc@std@@8 00438998     GameAgentInfoList.obj
 0002:000079b4       ??_R4ServerFrame@@6B@      004389b4     servercommon:ServerFrame.obj
 0002:000079c8       ??_R4CSunLog@@6B@          004389c8     servercommon:SunLog.obj
 0002:000079dc       ??_R3CSunLog@@8            004389dc     servercommon:SunLog.obj
 0002:000079ec       ??_R2CSunLog@@8            004389ec     servercommon:SunLog.obj
 0002:000079f4       ??_R1A@?0A@EA@CSunLog@@8   004389f4     servercommon:SunLog.obj
 0002:00007a10       ??_R4ServerSession@@6B@    00438a10     servercommon:ServerSession.obj
 0002:00007a24       ??_R4out_of_range@std@@6B@ 00438a24     libcpmt:string.obj
 0002:00007a38       ??_R3out_of_range@std@@8   00438a38     libcpmt:string.obj
 0002:00007a48       ??_R2out_of_range@std@@8   00438a48     libcpmt:string.obj
 0002:00007a58       ??_R1A@?0A@EA@out_of_range@std@@8 00438a58     libcpmt:string.obj
 0002:00007a74       ??_R4error_category@system@boost@@6B@ 00438a74     libboost_system-vc90-mt-s-1_60:error_code.obj
 0002:00007a88       ??_R3error_category@system@boost@@8 00438a88     libboost_system-vc90-mt-s-1_60:error_code.obj
 0002:00007a98       ??_R2error_category@system@boost@@8 00438a98     libboost_system-vc90-mt-s-1_60:error_code.obj
 0002:00007aa4       ??_R1A@?0A@EA@error_category@system@boost@@8 00438aa4     libboost_system-vc90-mt-s-1_60:error_code.obj
 0002:00007ac0       ??_R13?0A@EA@noncopyable@noncopyable_@boost@@8 00438ac0     libboost_system-vc90-mt-s-1_60:error_code.obj
 0002:00007adc       ??_R3noncopyable@noncopyable_@boost@@8 00438adc     libboost_system-vc90-mt-s-1_60:error_code.obj
 0002:00007aec       ??_R2noncopyable@noncopyable_@boost@@8 00438aec     libboost_system-vc90-mt-s-1_60:error_code.obj
 0002:00007af4       ??_R1A@?0A@EA@noncopyable@noncopyable_@boost@@8 00438af4     libboost_system-vc90-mt-s-1_60:error_code.obj
 0002:00007b10       ??_R4system_error_category@?A0xa00a0bbd@system@boost@@6B@ 00438b10     libboost_system-vc90-mt-s-1_60:error_code.obj
 0002:00007b24       ??_R3system_error_category@?A0xa00a0bbd@system@boost@@8 00438b24     libboost_system-vc90-mt-s-1_60:error_code.obj
 0002:00007b34       ??_R2system_error_category@?A0xa00a0bbd@system@boost@@8 00438b34     libboost_system-vc90-mt-s-1_60:error_code.obj
 0002:00007b44       ??_R1A@?0A@EA@system_error_category@?A0xa00a0bbd@system@boost@@8 00438b44     libboost_system-vc90-mt-s-1_60:error_code.obj
 0002:00007b60       ??_R4generic_error_category@?A0xa00a0bbd@system@boost@@6B@ 00438b60     libboost_system-vc90-mt-s-1_60:error_code.obj
 0002:00007b74       ??_R3generic_error_category@?A0xa00a0bbd@system@boost@@8 00438b74     libboost_system-vc90-mt-s-1_60:error_code.obj
 0002:00007b84       ??_R2generic_error_category@?A0xa00a0bbd@system@boost@@8 00438b84     libboost_system-vc90-mt-s-1_60:error_code.obj
 0002:00007b94       ??_R1A@?0A@EA@generic_error_category@?A0xa00a0bbd@system@boost@@8 00438b94     libboost_system-vc90-mt-s-1_60:error_code.obj
 0002:00007bb0       ??_R4NetworkObject@@6B@    00438bb0     Network:NetworkObject.obj
 0002:00007bc4       ??_R4IOCPServer@@6B@       00438bc4     Network:IOCPServer.obj
 0002:00007bd8       ??_R3IOCPServer@@8         00438bd8     Network:IOCPServer.obj
 0002:00007be8       ??_R2IOCPServer@@8         00438be8     Network:IOCPServer.obj
 0002:00007bf0       ??_R1A@?0A@EA@IOCPServer@@8 00438bf0     Network:IOCPServer.obj
 0002:00007c0c       ??_R4Session@@6B@          00438c0c     Network:Session.obj
 0002:00007c20       ??_R3Session@@8            00438c20     Network:Session.obj
 0002:00007c30       ??_R2Session@@8            00438c30     Network:Session.obj
 0002:00007c38       ??_R1A@?0A@EA@Session@@8   00438c38     Network:Session.obj
 0002:00007c54       ??_R4WxRingBuffer@module@@6B@ 00438c54     Network:WxRingBuffer.obj
 0002:00007c68       ??_R3WxRingBuffer@module@@8 00438c68     Network:WxRingBuffer.obj
 0002:00007c78       ??_R2WxRingBuffer@module@@8 00438c78     Network:WxRingBuffer.obj
 0002:00007c80       ??_R1A@?0A@EA@WxRingBuffer@module@@8 00438c80     Network:WxRingBuffer.obj
 0002:00007c9c       ??_R4type_info@@6B@        00438c9c     LIBCMT:typinfo.obj
 0002:00007cb0       ??_R3type_info@@8          00438cb0     LIBCMT:typinfo.obj
 0002:00007cc0       ??_R2type_info@@8          00438cc0     LIBCMT:typinfo.obj
 0002:00007cc8       ??_R1A@?0A@EA@type_info@@8 00438cc8     LIBCMT:typinfo.obj
 0002:00007ce4       ??_R4exception@std@@6B@    00438ce4     LIBCMT:stdexcpt.obj
 0002:00007cf8       ??_R4bad_exception@std@@6B@ 00438cf8     LIBCMT:frame.obj
 0002:00007d0c       ??_R3bad_exception@std@@8  00438d0c     LIBCMT:frame.obj
 0002:00007d1c       ??_R2bad_exception@std@@8  00438d1c     LIBCMT:frame.obj
 0002:00007d28       ??_R1A@?0A@EA@bad_exception@std@@8 00438d28     LIBCMT:frame.obj
 0002:00007d50       ___safe_se_handler_table   00438d50     <linker-defined>
 0002:00007e70       ___rtc_iaa                 00438e70     LIBCMT:_initsect_.obj
 0002:00007e74       ___rtc_izz                 00438e74     LIBCMT:_initsect_.obj
 0002:00007e78       ___rtc_taa                 00438e78     LIBCMT:_initsect_.obj
 0002:00007e7c       ___rtc_tzz                 00438e7c     LIBCMT:_initsect_.obj
 0002:000082a0       __TI3?AVlength_error@std@@ 004392a0     GameAgentInfoList.obj
 0002:000082dc       __CTA3?AVlength_error@std@@ 004392dc     GameAgentInfoList.obj
 0002:000082ec       __CT??_R0?AVlength_error@std@@@8??0length_error@std@@QAE@ABV01@@Z40 004392ec     GameAgentInfoList.obj
 0002:00008308       __CT??_R0?AVlogic_error@std@@@8??0logic_error@std@@QAE@ABV01@@Z40 00439308     GameAgentInfoList.obj
 0002:00008324       __CT??_R0?AVexception@std@@@8??0exception@std@@QAE@ABV01@@Z12 00439324     GameAgentInfoList.obj
 0002:00008644       __TI2?AVbad_alloc@std@@    00439644     GameAgentInfoList.obj
 0002:00008654       __CTA2?AVbad_alloc@std@@   00439654     GameAgentInfoList.obj
 0002:00008660       __CT??_R0?AVbad_alloc@std@@@8??0bad_alloc@std@@QAE@ABV01@@Z12 00439660     GameAgentInfoList.obj
 0002:000088e0       __TI3?AVout_of_range@std@@ 004398e0     libcpmt:string.obj
 0002:000088f0       __CTA3?AVout_of_range@std@@ 004398f0     libcpmt:string.obj
 0002:00008900       __CT??_R0?AVout_of_range@std@@@8??0out_of_range@std@@QAE@ABV01@@Z40 00439900     libcpmt:string.obj
 0002:00009104       __TI2?AVbad_exception@std@@ 0043a104     LIBCMT:frame.obj
 0002:00009114       __CTA2?AVbad_exception@std@@ 0043a114     LIBCMT:frame.obj
 0002:00009120       __CT??_R0?AVbad_exception@std@@@8??0bad_exception@std@@QAE@ABV01@@Z12 0043a120     LIBCMT:frame.obj
 0002:0000958c       __IMPORT_DESCRIPTOR_KERNEL32 0043a58c     kernel32:KERNEL32.dll
 0002:000095a0       __IMPORT_DESCRIPTOR_WS2_32 0043a5a0     ws2_32:WS2_32.dll
 0002:000095b4       __IMPORT_DESCRIPTOR_SolarLog 0043a5b4     SolarLog:SolarLog.dll
 0002:000095c8       __IMPORT_DESCRIPTOR_dbghelp 0043a5c8     dbghelp:dbghelp.dll
 0002:000095dc       __IMPORT_DESCRIPTOR_ole32  0043a5dc     ole32:ole32.dll
 0002:000095f0       __NULL_IMPORT_DESCRIPTOR   0043a5f0     kernel32:KERNEL32.dll
 0003:00000004       ??_R0?AVAuthAgentFrame@@@8 0043c004     AuthAgentFrame.obj
 0003:00000024       ??_R0?AVServerFrame@@@8    0043c024     AuthAgentFrame.obj
 0003:00000040       ??_R0?AV?$Singleton@VAuthAgentFrame@@$00@util@@@8 0043c040     AuthAgentFrame.obj
 0003:00000074       ??_R0?AV?$CMemoryPoolFactory@VAuthServerSession@@@util@@@8 0043c074     AuthAgentFrame.obj
 0003:000000b4       ??_R0?AUIVMemoryPool@util@@@8 0043c0b4     AuthAgentFrame.obj
 0003:000000d8       ??_R0?AV?$CMemoryPoolFactory@VGameAgentServerSession@@@util@@@8 0043c0d8     AuthAgentFrame.obj
 0003:00000120       ??_R0?AV?$NotUseChunkImpl@VAuthServerSession@@@internal@util@@@8 0043c120     AuthAgentFrame.obj
 0003:00000164       ??_R0?AVIMemoryPoolFactoryImpl@internal@util@@@8 0043c164     AuthAgentFrame.obj
 0003:00000198       ??_R0?AV?$VariableSizeChunkImpl@VAuthServerSession@@@internal@util@@@8 0043c198     AuthAgentFrame.obj
 0003:000001e8       ??_R0?AV?$FixedSizeChunkImpl@VAuthServerSession@@@internal@util@@@8 0043c1e8     AuthAgentFrame.obj
 0003:00000230       ??_R0?AV?$NotUseChunkImpl@VGameAgentServerSession@@@internal@util@@@8 0043c230     AuthAgentFrame.obj
 0003:00000278       ??_R0?AV?$VariableSizeChunkImpl@VGameAgentServerSession@@@internal@util@@@8 0043c278     AuthAgentFrame.obj
 0003:000002c8       ??_R0?AV?$FixedSizeChunkImpl@VGameAgentServerSession@@@internal@util@@@8 0043c2c8     AuthAgentFrame.obj
 0003:00000320       ??_R0?AVAuthServerSession@@@8 0043c320     AuthServerSession.obj
 0003:00000340       ??_R0?AVServerSession@@@8  0043c340     AuthServerSession.obj
 0003:0000035c       ??_R0?AVNetworkObject@@@8  0043c35c     AuthServerSession.obj
 0003:0000037c       ??_R0?AVGameAgentServerSession@@@8 0043c37c     GameAgentServerSession.obj
 0003:000003a8       ??_R0?AVlength_error@std@@@8 0043c3a8     GameAgentInfoList.obj
 0003:000003c8       ??_R0?AVlogic_error@std@@@8 0043c3c8     GameAgentInfoList.obj
 0003:000003e8       ??_R0?AVexception@std@@@8  0043c3e8     GameAgentInfoList.obj
 0003:00000404       ??_R0?AVbad_alloc@std@@@8  0043c404     GameAgentInfoList.obj
 0003:00000428       ?handleMutex@@3PAXA        0043c428     extreme:eXtreme.obj
 0003:0000042c       ??_R0?AVCSunLog@@@8        0043c42c     servercommon:SunLog.obj
 0003:00000580       ?ms_AssertionHandler@FlowControl@@0P6AXPAD0K@ZA 0043c580     utility_s:ErrorControl.obj
 0003:0000058c       ??_R0?AVout_of_range@std@@@8 0043c58c     libcpmt:string.obj
 0003:000005b8       ?_Sync@ios_base@std@@0_NA  0043c5b8     libcpmt:ios.obj
 0003:000005c0       ??_R0?AVerror_category@system@boost@@@8 0043c5c0     libboost_system-vc90-mt-s-1_60:error_code.obj
 0003:000005ec       ??_R0?AVnoncopyable@noncopyable_@boost@@@8 0043c5ec     libboost_system-vc90-mt-s-1_60:error_code.obj
 0003:0000061c       ??_R0?AVsystem_error_category@?A0xa00a0bbd@system@boost@@@8 0043c61c     libboost_system-vc90-mt-s-1_60:error_code.obj
 0003:0000065c       ??_R0?AVgeneric_error_category@?A0xa00a0bbd@system@boost@@@8 0043c65c     libboost_system-vc90-mt-s-1_60:error_code.obj
 0003:0000069c       _z_errmsg                  0043c69c     zlib:zutil.obj
 0003:0000074c       ??_R0?AVIOCPServer@@@8     0043c74c     Network:IOCPServer.obj
 0003:00000768       ??_R0?AVSession@@@8        0043c768     Network:Session.obj
 0003:00000780       ??_R0?AVWxRingBuffer@module@@@8 0043c780     Network:WxRingBuffer.obj
 0003:000007a4       ___security_cookie         0043c7a4     LIBCMT:gs_cookie.obj
 0003:000007a8       ___security_cookie_complement 0043c7a8     LIBCMT:gs_cookie.obj
 0003:000007b0       ??_R0?AVtype_info@@@8      0043c7b0     LIBCMT:typinfo.obj
 0003:000007d0       __fltused                  0043c7d0     LIBCMT:_fpinit_.obj
 0003:000007d4       __ldused                   0043c7d4     LIBCMT:_fpinit_.obj
 0003:000007dc       ___app_type                0043c7dc     LIBCMT:crt0.obj
 0003:000007f0       __iob                      0043c7f0     LIBCMT:_file.obj
 0003:00000a70       __NLG_Destination          0043ca70     LIBCMT:exsup.obj
 0003:00000a84       ??_R0?AVbad_exception@std@@@8 0043ca84     LIBCMT:frame.obj
 0003:00000aa4       ___flsindex                0043caa4     LIBCMT:tidtable.obj
 0003:00000aa8       ___getvalueindex           0043caa8     LIBCMT:tidtable.obj
 0003:00000ac0       ___nullstring              0043cac0     LIBCMT:output.obj
 0003:00000ac4       ___wnullstring             0043cac4     LIBCMT:output.obj
 0003:00000c38       ___abort_behavior          0043cc38     LIBCMT:abort.obj
 0003:00000e18       __amblksiz                 0043ce18     LIBCMT:heapinit.obj
 0003:00000e1c       __aexit_rtn                0043ce1c     LIBCMT:crt0dat.obj
 0003:00000e28       ___badioinfo               0043ce28     LIBCMT:ioinit.obj
 0003:00000e68       ___initialmbcinfo          0043ce68     LIBCMT:mbctype.obj
 0003:00001088       __mbctype                  0043d088     LIBCMT:mbctype.obj
 0003:00001190       __mbcasemap                0043d190     LIBCMT:mbctype.obj
 0003:00001290       ___ptmbcinfo               0043d290     LIBCMT:mbctype.obj
 0003:0000138c       ___globallocalestatus      0043d38c     LIBCMT:glstatus.obj
 0003:00001390       ___clocalestr              0043d390     LIBCMT:nlsdata2.obj
 0003:00001398       ___initiallocinfo          0043d398     LIBCMT:nlsdata2.obj
 0003:00001470       ___ptlocinfo               0043d470     LIBCMT:nlsdata2.obj
 0003:00001474       ___lc_clike                0043d474     LIBCMT:nlsdata2.obj
 0003:00001478       ___initiallocalestructinfo 0043d478     LIBCMT:nlsdata2.obj
 0003:00001480       __cfltcvt_tab              0043d480     LIBCMT:cmiscdat.obj
 0003:000014b0       __First_FPE_Indx           0043d4b0     LIBCMT:winxfltr.obj
 0003:000014b4       __Num_FPE                  0043d4b4     LIBCMT:winxfltr.obj
 0003:000014b8       __XcptActTabSize           0043d4b8     LIBCMT:winxfltr.obj
 0003:000014bc       __XcptActTabCount          0043d4bc     LIBCMT:winxfltr.obj
 0003:000014c0       __coninpfh                 0043d4c0     LIBCMT:initcon.obj
 0003:000014c4       __confh                    0043d4c4     LIBCMT:initcon.obj
 0003:000014e0       __sys_errlist              0043d4e0     LIBCMT:syserr.obj
 0003:00001590       __sys_nerr                 0043d590     LIBCMT:syserr.obj
 0003:000015b0       __timezone                 0043d5b0     LIBCMT:timeset.obj
 0003:000015b4       __daylight                 0043d5b4     LIBCMT:timeset.obj
 0003:000015b8       __dstbias                  0043d5b8     LIBCMT:timeset.obj
 0003:00001640       __tzname                   0043d640     LIBCMT:timeset.obj
 0003:00001650       __lpdays                   0043d650     LIBCMT:days.obj
 0003:00001684       __days                     0043d684     LIBCMT:days.obj
 0003:000016b8       __pctype                   0043d6b8     LIBCMT:ctype.obj
 0003:000016bc       __pwctype                  0043d6bc     LIBCMT:ctype.obj
 0003:000016c0       ___lc_time_c               0043d6c0     LIBCMT:strftime.obj
 0003:00001778       ___lc_time_curr            0043d778     LIBCMT:strftime.obj
 0003:0000177c       ___lconv_static_decimal    0043d77c     LIBCMT:lconv.obj
 0003:00001780       ___lconv_c                 0043d780     LIBCMT:lconv.obj
 0003:000017b0       ___lconv                   0043d7b0     LIBCMT:lconv.obj
 0003:000017b4       ___mb_cur_max              0043d7b4     LIBCMT:nlsdata1.obj
 0003:000017b8       ___decimal_point           0043d7b8     LIBCMT:nlsdata1.obj
 0003:000017bc       ___decimal_point_length    0043d7bc     LIBCMT:nlsdata1.obj
 0003:000017c4       __p_overlay                0043d7c4     LIBCMT:dospawn.obj
 0003:000017c8       __lookuptrailbytes         0043d7c8     LIBCMT:read.obj
 0003:00001900       __pow10pos                 0043d900     LIBCMT:_constpow_.obj
 0003:00001a60       __pow10neg                 0043da60     LIBCMT:_constpow_.obj
 0003:00001be0       ?instance_@?$Singleton@VAuthAgentFrame@@$00@util@@0PAVAuthAgentFrame@@A 0043dbe0     AuthAgentFrame.obj
 0003:00001be4       ?instance_@?$Singleton@VGameAgentManager@@$00@util@@0PAVGameAgentManager@@A 0043dbe4     AuthAgentFrame.obj
 0003:00001be8       ?instance_@?$Singleton@VGameAgentInfoList@@$00@util@@0PAVGameAgentInfoList@@A 0043dbe8     AuthAgentFrame.obj
 0003:00001c48       ?g_Console@@3VSolarSimpleConsole@@A 0043dc48     main.obj
 0003:00001c8c       ?custom_pool_static@AuthServerSession@@0PAV?$CMemoryPoolFactory@VAuthServerSession@@@util@@A 0043dc8c     AuthServerSession.obj
 0003:00001ca8       ?custom_pool_static@GameAgentServerSession@@0PAV?$CMemoryPoolFactory@VGameAgentServerSession@@@util@@A 0043dca8     GameAgentServerSession.obj
 0003:00001cf4       ?lpfnHandler@@3P6AXKPAD@ZA 0043dcf4     extreme:eXtreme.obj
 0003:00001d08       ?g_pSunLog@@3PAVCSunLog@@A 0043dd08     servercommon:SunLog.Interfaces.obj
 0003:00001d0c       ?g_pSecureLog@@3PAVSecureLog@@A 0043dd0c     servercommon:SunLog.Interfaces.obj
 0003:00001d10       ?g_dwSUNLOG_INIT@CSunLog@@2KA 0043dd10     servercommon:SunLog.obj
 0003:00001d14       ?g_pSUNLOG@CSunLog@@2PAVCSunLogInfo@1@A 0043dd14     servercommon:SunLog.obj
 0003:00001d18       ?ms_PacketStream@PacketControl@Server@nsPacket@@0PAEA 0043dd18     servercommon:PacketControlS2S.obj
 0003:00029d28       ?ms_COMPRESS_TRANS@CompressUtil@nsPacket@@0W4eTRANS_STATE@12@A 00465d28     programcommon_s:PacketControl_Compress.obj
 0003:0007a160       ?time_sync_static_@TimeSync@util@@0PAV12@A 004b6160     utility_s:SolarDateTime.obj
 0003:0007a19c       ?log_handler_static_@SafeMemoryPoolFactoryShared@util@@0P6AXPBDPAXI@ZA 004b619c     utility_s:SafeMemoryPoolFactory.obj
 0003:0007a1a0       ?nothrow@std@@3Unothrow_t@1@B 004b61a0     libcpmt:nothrow.obj
 0003:0007a210       ?_Fpz@std@@3_JA            004b6210     libcpmt:ios.obj
 0003:0007a218       ?_Index@ios_base@std@@0HA  004b6218     libcpmt:ios.obj
 0003:0007a284       ?throws@system@boost@@3Verror_code@12@A 004b6284     libboost_system-vc90-mt-s-1_60:error_code.obj
 0003:0007a29c       _g_compress_trans          004b629c     zlib:zutil.obj
 0003:0007a2a0       ?m_procResult@CrashHandler@@0P6AXPBD0@ZA 004b62a0     CrashHandler:CrashHandler.obj
 0003:0007a2a4       ?m_cbDmpName@CrashHandler@@0P6APBDXZA 004b62a4     CrashHandler:CrashHandler.obj
 0003:0007a2a8       ?m_stackWalk@CrashHandler@@0_NA 004b62a8     CrashHandler:CrashHandler.obj
 0003:0007a2ac       ?m_prevFilter@CrashHandler@@0P6GJPAU_EXCEPTION_POINTERS@@@ZA 004b62ac     CrashHandler:CrashHandler.obj
 0003:0007a2b4       ?lpfnAccepteEx_static_@MsWinsockUtil@@2P6GHIIPAXKKKPAKPAU_OVERLAPPED@@@ZA 004b62b4     Network:MsWinsockUtil.obj
 0003:0007a2b8       ?lpfnTransmitFile_static_@MsWinsockUtil@@2P6GHIPAXKKPAU_OVERLAPPED@@PAU_TRANSMIT_FILE_BUFFERS@@K@ZA 004b62b8     Network:MsWinsockUtil.obj
 0003:0007a2bc       ?lpfnGetAcceptExSockAddrs_static_@MsWinsockUtil@@2P6GXPAXKKKPAPAUsockaddr@@PAH12@ZA 004b62bc     Network:MsWinsockUtil.obj
 0003:0007a2c0       ?lpfnDisconnectEx_static_@MsWinsockUtil@@2P6GHIPAU_OVERLAPPED@@KK@ZA 004b62c0     Network:MsWinsockUtil.obj
 0003:0007a38c       ___pInvalidArgHandler      004b638c     LIBCMT:invarg.obj
 0003:0007a390       ___fastflag                004b6390     LIBCMT:_fpinit_.obj
 0003:0007a394       __adjust_fdiv              004b6394     LIBCMT:_fpinit_.obj
 0003:0007a398       __aenvptr                  004b6398     LIBCMT:crt0.obj
 0003:0007a39c       __wenvptr                  004b639c     LIBCMT:crt0.obj
 0003:0007a3a0       ___error_mode              004b63a0     LIBCMT:crt0.obj
 0003:0007a3a4       __cflush                   004b63a4     LIBCMT:_file.obj
 0003:0007a3a8       _gpFlsAlloc                004b63a8     LIBCMT:tidtable.obj
 0003:0007a3ac       _gpFlsGetValue             004b63ac     LIBCMT:tidtable.obj
 0003:0007a3b0       _gpFlsSetValue             004b63b0     LIBCMT:tidtable.obj
 0003:0007a3b4       _gpFlsFree                 004b63b4     LIBCMT:tidtable.obj
 0003:0007a3b8       ?__pInconsistency@@3P6AXXZA 004b63b8     LIBCMT:hooks.obj
 0003:0007a6ec       __stdbuf                   004b66ec     LIBCMT:_sftbuf.obj
 0003:0007a6f4       ?_pnhHeap@@3P6AHI@ZA       004b66f4     LIBCMT:handler.obj
 0003:0007aa14       ___pPurecall               004b6a14     LIBCMT:inithelp.obj
 0003:0007ab68       ___sbh_pHeaderDefer        004b6b68     LIBCMT:sbheap.obj
 0003:0007ab6c       __crtheap                  004b6b6c     LIBCMT:heapinit.obj
 0003:0007ab70       __umaskval                 004b6b70     LIBCMT:crt0dat.obj
 0003:0007ab74       ___argc                    004b6b74     LIBCMT:crt0dat.obj
 0003:0007ab78       ___argv                    004b6b78     LIBCMT:crt0dat.obj
 0003:0007ab7c       ___wargv                   004b6b7c     LIBCMT:crt0dat.obj
 0003:0007ab80       __environ                  004b6b80     LIBCMT:crt0dat.obj
 0003:0007ab84       ___initenv                 004b6b84     LIBCMT:crt0dat.obj
 0003:0007ab88       __wenviron                 004b6b88     LIBCMT:crt0dat.obj
 0003:0007ab8c       ___winitenv                004b6b8c     LIBCMT:crt0dat.obj
 0003:0007ab90       __pgmptr                   004b6b90     LIBCMT:crt0dat.obj
 0003:0007ab94       __wpgmptr                  004b6b94     LIBCMT:crt0dat.obj
 0003:0007ab98       __exitflag                 004b6b98     LIBCMT:crt0dat.obj
 0003:0007ab9c       __C_Termination_Done       004b6b9c     LIBCMT:crt0dat.obj
 0003:0007aba0       __C_Exit_Done              004b6ba0     LIBCMT:crt0dat.obj
 0003:0007aba4       __newmode                  004b6ba4     LIBCMT:_newmode.obj
 0003:0007aba8       __maxwait                  004b6ba8     LIBCMT:crtheap.obj
 0003:0007abb0       ___mbulinfo                004b6bb0     LIBCMT:mbctype.obj
 0003:0007abbc       ___mbcodepage              004b6bbc     LIBCMT:mbctype.obj
 0003:0007abc0       ___ismbcodepage            004b6bc0     LIBCMT:mbctype.obj
 0003:0007abc4       ___mblcid                  004b6bc4     LIBCMT:mbctype.obj
 0003:0007abc8       ___locale_changed          004b6bc8     LIBCMT:setlocal.obj
 0003:0007abcc       ___lc_handle               004b6bcc     LIBCMT:nlsdata2.obj
 0003:0007abe4       ___lc_codepage             004b6be4     LIBCMT:nlsdata2.obj
 0003:0007abe8       ___lc_collate_cp           004b6be8     LIBCMT:nlsdata2.obj
 0003:0007ad00       __commode                  004b6d00     LIBCMT:ncommode.obj
 0003:0007add4       ?pArgList@UnDecorator@@0PAVReplicator@@A 004b6dd4     LIBCMT:undname.obj
 0003:0007add8       ?pZNameList@UnDecorator@@0PAVReplicator@@A 004b6dd8     LIBCMT:undname.obj
 0003:0007addc       ?pTemplateArgList@UnDecorator@@0PAVReplicator@@A 004b6ddc     LIBCMT:undname.obj
 0003:0007ade0       ?gName@UnDecorator@@0PBDB  004b6de0     LIBCMT:undname.obj
 0003:0007ade4       ?name@UnDecorator@@0PBDB   004b6de4     LIBCMT:undname.obj
 0003:0007ade8       ?outputString@UnDecorator@@0PADA 004b6de8     LIBCMT:undname.obj
 0003:0007adec       ?maxStringLength@UnDecorator@@0HA 004b6dec     LIBCMT:undname.obj
 0003:0007adf0       ?disableFlags@UnDecorator@@0KA 004b6df0     LIBCMT:undname.obj
 0003:0007adf4       ?m_pGetParameter@UnDecorator@@0P6APADJ@ZA 004b6df4     LIBCMT:undname.obj
 0003:0007adf8       ?fExplicitTemplateParams@UnDecorator@@0_NA 004b6df8     LIBCMT:undname.obj
 0003:0007adf9       ?fGetTemplateArgumentList@UnDecorator@@0_NA 004b6df9     LIBCMT:undname.obj
 0003:0007ae2c       ___lconv_static_null       004b6e2c     LIBCMT:lconv.obj
 0003:0007ae30       __outputformat             004b6e30     LIBCMT:outputformat.obj
 0003:0007ae38       __fmode                    004b6e38     LIBCMT:txtmode.obj
 0003:0007ae3c       ___sse2_available          004b6e3c     <common>
 0003:0007ae40       __debugger_hook_dummy      004b6e40     <common>
 0003:0007ae44       __nhandle                  004b6e44     <common>
 0003:0007ae60       ___pioinfo                 004b6e60     <common>
 0003:0007af60       ___env_initialized         004b6f60     <common>
 0003:0007af64       ___onexitend               004b6f64     <common>
 0003:0007af68       ___onexitbegin             004b6f68     <common>
 0003:0007af6c       ___mbctype_initialized     004b6f6c     <common>
 0003:0007af70       ___dyn_tls_init_callback   004b6f70     <common>
 0003:0007af74       ___active_heap             004b6f74     <common>
 0003:0007af78       ___sbh_cntHeaderList       004b6f78     <common>
 0003:0007af7c       ___sbh_pHeaderList         004b6f7c     <common>
 0003:0007af80       ___sbh_threshold           004b6f80     <common>
 0003:0007af84       ___sbh_pHeaderScan         004b6f84     <common>
 0003:0007af88       ___sbh_sizeHeaderList      004b6f88     <common>
 0003:0007af8c       ___sbh_indGroupDefer       004b6f8c     <common>
 0003:0007af90       ___piob                    004b6f90     <common>
 0003:0007afa0       __bufin                    004b6fa0     <common>
 0003:0007bfa0       __nstream                  004b7fa0     <common>
 0003:0007bfa4       __acmdln                   004b7fa4     <common>

 entry point at        0001:0001bc9e

 Static symbols

 0001:000058fe       __catch$?_Buynode@?$list@U?$pair@$$CBGPAUsGAME_AGENT_INFO@@@std@@V?$CustomAllocator@U?$pair@$$CBGPAUsGAME_AGENT_INFO@@@std@@@util@@@std@@IAEPAU_Node@?$_List_nod@U?$pair@$$CBGPAUsGAME_AGENT_INFO@@@std@@V?$CustomAllocator@U?$pair@$$CBGPAUsGAME_AGENT_INFO@@@std@@@util@@@2@XZ$0 004068fe f i GameAgentInfoList.obj
 0001:000058fe       __catch$?_Buynode@?$list@U?$pair@$$CBKPAVGameAgentServerSession@@@std@@V?$CustomAllocator@U?$pair@$$CBKPAVGameAgentServerSession@@@std@@@util@@@std@@IAEPAU_Node@?$_List_nod@U?$pair@$$CBKPAVGameAgentServerSession@@@std@@V?$CustomAllocator@U?$pair@$$CBKPAVGameAgentServerSession@@@std@@@util@@@2@XZ$0 004068fe f i GameAgentInfoList.obj
 0001:00005a29       __catch$?_Buynode@?$list@U?$pair@$$CBGPAUsGAME_AGENT_INFO@@@std@@V?$CustomAllocator@U?$pair@$$CBGPAUsGAME_AGENT_INFO@@@std@@@util@@@std@@IAEPAU_Node@?$_List_nod@U?$pair@$$CBGPAUsGAME_AGENT_INFO@@@std@@V?$CustomAllocator@U?$pair@$$CBGPAUsGAME_AGENT_INFO@@@std@@@util@@@2@PAU342@0ABU?$pair@$$CBGPAUsGAME_AGENT_INFO@@@2@@Z$0 00406a29 f i GameAgentInfoList.obj
 0001:00005a29       __catch$?_Buynode@?$list@U?$pair@$$CBKPAVGameAgentServerSession@@@std@@V?$CustomAllocator@U?$pair@$$CBKPAVGameAgentServerSession@@@std@@@util@@@std@@IAEPAU_Node@?$_List_nod@U?$pair@$$CBKPAVGameAgentServerSession@@@std@@V?$CustomAllocator@U?$pair@$$CBKPAVGameAgentServerSession@@@std@@@util@@@2@PAU342@0ABU?$pair@$$CBKPAVGameAgentServerSession@@@2@@Z$0 00406a29 f i GameAgentInfoList.obj
 0001:0000607e       __catch$?_Insert_n@?$vector@U_List_position@?$_Hash@V?$_Hmap_traits@GPAUsGAME_AGENT_INFO@@V?$hash_compare@GU?$less@G@std@@@stdext@@V?$CustomAllocator@PAUsGAME_AGENT_INFO@@@util@@$0A@@stdext@@@stdext@@V?$CustomAllocator@U_List_position@?$_Hash@V?$_Hmap_traits@GPAUsGAME_AGENT_INFO@@V?$hash_compare@GU?$less@G@std@@@stdext@@V?$CustomAllocator@PAUsGAME_AGENT_INFO@@@util@@$0A@@stdext@@@stdext@@@util@@@std@@IAEXV?$_Vector_const_iterator@U_List_position@?$_Hash@V?$_Hmap_traits@GPAUsGAME_AGENT_INFO@@V?$hash_compare@GU?$less@G@std@@@stdext@@V?$CustomAllocator@PAUsGAME_AGENT_INFO@@@util@@$0A@@stdext@@@stdext@@V?$CustomAllocator@U_List_position@?$_Hash@V?$_Hmap_traits@GPAUsGAME_AGENT_INFO@@V?$hash_compare@GU?$less@G@std@@@stdext@@V?$CustomAllocator@PAUsGAME_AGENT_INFO@@@util@@$0A@@stdext@@@stdext@@@util@@@2@IABU_List_position@?$_Hash@V?$_Hmap_traits@GPAUsGAME_AGENT_INFO@@V?$hash_compare@GU?$less@G@std@@@stdext@@V?$CustomAllocator@PAUsGAME_AGENT_INFO@@@util@@$0A@@stdext@@@stdext@@@Z$0 0040707e f i GameAgentInfoList.obj
 0001:0000607e       __catch$?_Insert_n@?$vector@U_List_position@?$_Hash@V?$_Hmap_traits@KPAVGameAgentServerSession@@V?$hash_compare@KU?$less@K@std@@@stdext@@V?$CustomAllocator@PAVGameAgentServerSession@@@util@@$0A@@stdext@@@stdext@@V?$CustomAllocator@U_List_position@?$_Hash@V?$_Hmap_traits@KPAVGameAgentServerSession@@V?$hash_compare@KU?$less@K@std@@@stdext@@V?$CustomAllocator@PAVGameAgentServerSession@@@util@@$0A@@stdext@@@stdext@@@util@@@std@@IAEXV?$_Vector_const_iterator@U_List_position@?$_Hash@V?$_Hmap_traits@KPAVGameAgentServerSession@@V?$hash_compare@KU?$less@K@std@@@stdext@@V?$CustomAllocator@PAVGameAgentServerSession@@@util@@$0A@@stdext@@@stdext@@V?$CustomAllocator@U_List_position@?$_Hash@V?$_Hmap_traits@KPAVGameAgentServerSession@@V?$hash_compare@KU?$less@K@std@@@stdext@@V?$CustomAllocator@PAVGameAgentServerSession@@@util@@$0A@@stdext@@@stdext@@@util@@@2@IABU_List_position@?$_Hash@V?$_Hmap_traits@KPAVGameAgentServerSession@@V?$hash_compare@KU?$less@K@std@@@stdext@@V?$CustomAllocator@PAVGameAgentServerSession@@@util@@$0A@@stdext@@@stdext@@@Z$0 0040707e f i GameAgentInfoList.obj
 0001:000061db       __catch$?_Insert_n@?$vector@U_List_position@?$_Hash@V?$_Hmap_traits@KPAVGameAgentServerSession@@V?$hash_compare@KU?$less@K@std@@@stdext@@V?$CustomAllocator@PAVGameAgentServerSession@@@util@@$0A@@stdext@@@stdext@@V?$CustomAllocator@U_List_position@?$_Hash@V?$_Hmap_traits@KPAVGameAgentServerSession@@V?$hash_compare@KU?$less@K@std@@@stdext@@V?$CustomAllocator@PAVGameAgentServerSession@@@util@@$0A@@stdext@@@stdext@@@util@@@std@@IAEXV?$_Vector_const_iterator@U_List_position@?$_Hash@V?$_Hmap_traits@KPAVGameAgentServerSession@@V?$hash_compare@KU?$less@K@std@@@stdext@@V?$CustomAllocator@PAVGameAgentServerSession@@@util@@$0A@@stdext@@@stdext@@V?$CustomAllocator@U_List_position@?$_Hash@V?$_Hmap_traits@KPAVGameAgentServerSession@@V?$hash_compare@KU?$less@K@std@@@stdext@@V?$CustomAllocator@PAVGameAgentServerSession@@@util@@$0A@@stdext@@@stdext@@@util@@@2@IABU_List_position@?$_Hash@V?$_Hmap_traits@KPAVGameAgentServerSession@@V?$hash_compare@KU?$less@K@std@@@stdext@@V?$CustomAllocator@PAVGameAgentServerSession@@@util@@$0A@@stdext@@@stdext@@@Z$2 004071db f i GameAgentInfoList.obj
 0001:000061db       __catch$?_Insert_n@?$vector@U_List_position@?$_Hash@V?$_Hmap_traits@GPAUsGAME_AGENT_INFO@@V?$hash_compare@GU?$less@G@std@@@stdext@@V?$CustomAllocator@PAUsGAME_AGENT_INFO@@@util@@$0A@@stdext@@@stdext@@V?$CustomAllocator@U_List_position@?$_Hash@V?$_Hmap_traits@GPAUsGAME_AGENT_INFO@@V?$hash_compare@GU?$less@G@std@@@stdext@@V?$CustomAllocator@PAUsGAME_AGENT_INFO@@@util@@$0A@@stdext@@@stdext@@@util@@@std@@IAEXV?$_Vector_const_iterator@U_List_position@?$_Hash@V?$_Hmap_traits@GPAUsGAME_AGENT_INFO@@V?$hash_compare@GU?$less@G@std@@@stdext@@V?$CustomAllocator@PAUsGAME_AGENT_INFO@@@util@@$0A@@stdext@@@stdext@@V?$CustomAllocator@U_List_position@?$_Hash@V?$_Hmap_traits@GPAUsGAME_AGENT_INFO@@V?$hash_compare@GU?$less@G@std@@@stdext@@V?$CustomAllocator@PAUsGAME_AGENT_INFO@@@util@@$0A@@stdext@@@stdext@@@util@@@2@IABU_List_position@?$_Hash@V?$_Hmap_traits@GPAUsGAME_AGENT_INFO@@V?$hash_compare@GU?$less@G@std@@@stdext@@V?$CustomAllocator@PAUsGAME_AGENT_INFO@@@util@@$0A@@stdext@@@stdext@@@Z$2 004071db f i GameAgentInfoList.obj
 0001:00006826       __catch$??$_Insert@V?$_Const_iterator@$00@?$list@U?$pair@$$CBKPAVGameAgentServerSession@@@std@@V?$CustomAllocator@U?$pair@$$CBKPAVGameAgentServerSession@@@std@@@util@@@std@@@?$list@U?$pair@$$CBKPAVGameAgentServerSession@@@std@@V?$CustomAllocator@U?$pair@$$CBKPAVGameAgentServerSession@@@std@@@util@@@std@@QAEXV?$_Const_iterator@$00@01@00Uforward_iterator_tag@1@@Z$0 00407826 f i GameAgentInfoList.obj
 0001:00006826       __catch$??$_Insert@V?$_Const_iterator@$00@?$list@U?$pair@$$CBGPAUsGAME_AGENT_INFO@@@std@@V?$CustomAllocator@U?$pair@$$CBGPAUsGAME_AGENT_INFO@@@std@@@util@@@std@@@?$list@U?$pair@$$CBGPAUsGAME_AGENT_INFO@@@std@@V?$CustomAllocator@U?$pair@$$CBGPAUsGAME_AGENT_INFO@@@std@@@util@@@std@@QAEXV?$_Const_iterator@$00@01@00Uforward_iterator_tag@1@@Z$0 00407826 f i GameAgentInfoList.obj
 0001:00006a65       __catch$??$_Uninit_fill_n@PAU_List_position@?$_Hash@V?$_Hmap_traits@KPAVGameAgentServerSession@@V?$hash_compare@KU?$less@K@std@@@stdext@@V?$CustomAllocator@PAVGameAgentServerSession@@@util@@$0A@@stdext@@@stdext@@IU123@V?$CustomAllocator@U_List_position@?$_Hash@V?$_Hmap_traits@KPAVGameAgentServerSession@@V?$hash_compare@KU?$less@K@std@@@stdext@@V?$CustomAllocator@PAVGameAgentServerSession@@@util@@$0A@@stdext@@@stdext@@@util@@@std@@YAXPAU_List_position@?$_Hash@V?$_Hmap_traits@KPAVGameAgentServerSession@@V?$hash_compare@KU?$less@K@std@@@stdext@@V?$CustomAllocator@PAVGameAgentServerSession@@@util@@$0A@@stdext@@@stdext@@IABU123@AAV?$CustomAllocator@U_List_position@?$_Hash@V?$_Hmap_traits@KPAVGameAgentServerSession@@V?$hash_compare@KU?$less@K@std@@@stdext@@V?$CustomAllocator@PAVGameAgentServerSession@@@util@@$0A@@stdext@@@stdext@@@util@@U_Nonscalar_ptr_iterator_tag@0@U_Range_checked_iterator_tag@0@@Z$0 00407a65 f i GameAgentInfoList.obj
 0001:00006a65       __catch$??$_Uninit_fill_n@PAU_List_position@?$_Hash@V?$_Hmap_traits@GPAUsGAME_AGENT_INFO@@V?$hash_compare@GU?$less@G@std@@@stdext@@V?$CustomAllocator@PAUsGAME_AGENT_INFO@@@util@@$0A@@stdext@@@stdext@@IU123@V?$CustomAllocator@U_List_position@?$_Hash@V?$_Hmap_traits@GPAUsGAME_AGENT_INFO@@V?$hash_compare@GU?$less@G@std@@@stdext@@V?$CustomAllocator@PAUsGAME_AGENT_INFO@@@util@@$0A@@stdext@@@stdext@@@util@@@std@@YAXPAU_List_position@?$_Hash@V?$_Hmap_traits@GPAUsGAME_AGENT_INFO@@V?$hash_compare@GU?$less@G@std@@@stdext@@V?$CustomAllocator@PAUsGAME_AGENT_INFO@@@util@@$0A@@stdext@@@stdext@@IABU123@AAV?$CustomAllocator@U_List_position@?$_Hash@V?$_Hmap_traits@GPAUsGAME_AGENT_INFO@@V?$hash_compare@GU?$less@G@std@@@stdext@@V?$CustomAllocator@PAUsGAME_AGENT_INFO@@@util@@$0A@@stdext@@@stdext@@@util@@U_Nonscalar_ptr_iterator_tag@0@U_Range_checked_iterator_tag@0@@Z$0 00407a65 f i GameAgentInfoList.obj
 0001:00006c17       __catch$??$_Uninit_copy@PAU_List_position@?$_Hash@V?$_Hmap_traits@GPAUsGAME_AGENT_INFO@@V?$hash_compare@GU?$less@G@std@@@stdext@@V?$CustomAllocator@PAUsGAME_AGENT_INFO@@@util@@$0A@@stdext@@@stdext@@PAU123@V?$CustomAllocator@U_List_position@?$_Hash@V?$_Hmap_traits@GPAUsGAME_AGENT_INFO@@V?$hash_compare@GU?$less@G@std@@@stdext@@V?$CustomAllocator@PAUsGAME_AGENT_INFO@@@util@@$0A@@stdext@@@stdext@@@util@@@std@@YAPAU_List_position@?$_Hash@V?$_Hmap_traits@GPAUsGAME_AGENT_INFO@@V?$hash_compare@GU?$less@G@std@@@stdext@@V?$CustomAllocator@PAUsGAME_AGENT_INFO@@@util@@$0A@@stdext@@@stdext@@PAU123@00AAV?$CustomAllocator@U_List_position@?$_Hash@V?$_Hmap_traits@GPAUsGAME_AGENT_INFO@@V?$hash_compare@GU?$less@G@std@@@stdext@@V?$CustomAllocator@PAUsGAME_AGENT_INFO@@@util@@$0A@@stdext@@@stdext@@@util@@U_Nonscalar_ptr_iterator_tag@0@U_Range_checked_iterator_tag@0@@Z$0 00407c17 f i GameAgentInfoList.obj
 0001:00006c17       __catch$??$_Uninit_copy@PAU_List_position@?$_Hash@V?$_Hmap_traits@KPAVGameAgentServerSession@@V?$hash_compare@KU?$less@K@std@@@stdext@@V?$CustomAllocator@PAVGameAgentServerSession@@@util@@$0A@@stdext@@@stdext@@PAU123@V?$CustomAllocator@U_List_position@?$_Hash@V?$_Hmap_traits@KPAVGameAgentServerSession@@V?$hash_compare@KU?$less@K@std@@@stdext@@V?$CustomAllocator@PAVGameAgentServerSession@@@util@@$0A@@stdext@@@stdext@@@util@@@std@@YAPAU_List_position@?$_Hash@V?$_Hmap_traits@KPAVGameAgentServerSession@@V?$hash_compare@KU?$less@K@std@@@stdext@@V?$CustomAllocator@PAVGameAgentServerSession@@@util@@$0A@@stdext@@@stdext@@PAU123@00AAV?$CustomAllocator@U_List_position@?$_Hash@V?$_Hmap_traits@KPAVGameAgentServerSession@@V?$hash_compare@KU?$less@K@std@@@stdext@@V?$CustomAllocator@PAVGameAgentServerSession@@@util@@$0A@@stdext@@@stdext@@@util@@U_Nonscalar_ptr_iterator_tag@0@U_Range_checked_iterator_tag@0@@Z$0 00407c17 f i GameAgentInfoList.obj
 0001:000072d8       __catch$?_Copy@?$basic_string@DU?$char_traits@D@std@@V?$allocator@D@2@@std@@IAEXII@Z$0 004082d8 f i GameAgentInfoList.obj
 0001:000072ff       __catch$?_Copy@?$basic_string@DU?$char_traits@D@std@@V?$allocator@D@2@@std@@IAEXII@Z$1 004082ff f i GameAgentInfoList.obj
 0001:00008c60       ?ReadIOCPDescFromFile@@YAXQBDAAUtagIOHANDLER_DESC@@PBD@Z 00409c60 f   servercommon:ServerFrame.obj
 0001:00008d40       ?RedirectAssertionHandler@@YAXPAD0K@Z 00409d40 f   servercommon:ServerFrame.obj
 0001:00008d60       ?RedirectProblemMemoryReporter@@YAXPBDPAXI@Z 00409d60 f   servercommon:ServerFrame.obj
 0001:00008d80       _time                      00409d80 f   servercommon:ServerFrame.obj
 0001:0000a7ed       __catch$?_Insert_n@?$vector@U_List_position@?$_Hash@V?$_Hmap_traits@KPAVServerSession@@V?$hash_compare@KU?$less@K@std@@@stdext@@V?$CustomAllocator@PAVServerSession@@@util@@$0A@@stdext@@@stdext@@V?$CustomAllocator@U_List_position@?$_Hash@V?$_Hmap_traits@KPAVServerSession@@V?$hash_compare@KU?$less@K@std@@@stdext@@V?$CustomAllocator@PAVServerSession@@@util@@$0A@@stdext@@@stdext@@@util@@@std@@IAEXV?$_Vector_const_iterator@U_List_position@?$_Hash@V?$_Hmap_traits@KPAVServerSession@@V?$hash_compare@KU?$less@K@std@@@stdext@@V?$CustomAllocator@PAVServerSession@@@util@@$0A@@stdext@@@stdext@@V?$CustomAllocator@U_List_position@?$_Hash@V?$_Hmap_traits@KPAVServerSession@@V?$hash_compare@KU?$less@K@std@@@stdext@@V?$CustomAllocator@PAVServerSession@@@util@@$0A@@stdext@@@stdext@@@util@@@2@IABU_List_position@?$_Hash@V?$_Hmap_traits@KPAVServerSession@@V?$hash_compare@KU?$less@K@std@@@stdext@@V?$CustomAllocator@PAVServerSession@@@util@@$0A@@stdext@@@stdext@@@Z$0 0040b7ed f i servercommon:ServerFrame.obj
 0001:0000a7f9       __catch$?_Insert_n@?$vector@U_List_position@?$_Hash@V?$_Hmap_traits@KPAVServerSession@@V?$hash_compare@KU?$less@K@std@@@stdext@@V?$CustomAllocator@PAVServerSession@@@util@@$0A@@stdext@@@stdext@@V?$CustomAllocator@U_List_position@?$_Hash@V?$_Hmap_traits@KPAVServerSession@@V?$hash_compare@KU?$less@K@std@@@stdext@@V?$CustomAllocator@PAVServerSession@@@util@@$0A@@stdext@@@stdext@@@util@@@std@@IAEXV?$_Vector_const_iterator@U_List_position@?$_Hash@V?$_Hmap_traits@KPAVServerSession@@V?$hash_compare@KU?$less@K@std@@@stdext@@V?$CustomAllocator@PAVServerSession@@@util@@$0A@@stdext@@@stdext@@V?$CustomAllocator@U_List_position@?$_Hash@V?$_Hmap_traits@KPAVServerSession@@V?$hash_compare@KU?$less@K@std@@@stdext@@V?$CustomAllocator@PAVServerSession@@@util@@$0A@@stdext@@@stdext@@@util@@@2@IABU_List_position@?$_Hash@V?$_Hmap_traits@KPAVServerSession@@V?$hash_compare@KU?$less@K@std@@@stdext@@V?$CustomAllocator@PAVServerSession@@@util@@$0A@@stdext@@@stdext@@@Z$2 0040b7f9 f i servercommon:ServerFrame.obj
 0001:0000b830       ?__FFS@@YAKK@Z             0040c830 f   servercommon:SunLog.obj
 0001:0000d780       ?DefaultAssertionHandler@@YAXPAD0K@Z 0040e780 f   utility_s:ErrorControl.obj
 0001:00010210       _putShortMSB               00411210 f   zlib:deflate.obj
 0001:00010240       _flush_pending             00411240 f   zlib:deflate.obj
 0001:000105c0       _lm_init                   004115c0 f   zlib:deflate.obj
 0001:00010650       _longest_match             00411650 f   zlib:deflate.obj
 0001:000107b0       _fill_window               004117b0 f   zlib:deflate.obj
 0001:00010910       _deflate_stored            00411910 f   zlib:deflate.obj
 0001:00010ae0       _deflate_fast              00411ae0 f   zlib:deflate.obj
 0001:00010e10       _deflate_slow              00411e10 f   zlib:deflate.obj
 0001:00011620       _init_block                00412620 f   zlib:trees.obj
 0001:000116a0       _pqdownheap                004126a0 f   zlib:trees.obj
 0001:00011770       _gen_bitlen                00412770 f   zlib:trees.obj
 0001:00011990       _scan_tree                 00412990 f   zlib:trees.obj
 0001:00011a70       _send_tree                 00412a70 f   zlib:trees.obj
 0001:00011f80       _send_all_trees            00412f80 f   zlib:trees.obj
 0001:000121e0       _compress_block            004131e0 f   zlib:trees.obj
 0001:000125e0       _set_data_type             004135e0 f   zlib:trees.obj
 0001:00012690       _bi_flush                  00413690 f   zlib:trees.obj
 0001:00012710       _bi_windup                 00413710 f   zlib:trees.obj
 0001:00012770       _copy_block                00413770 f   zlib:trees.obj
 0001:00012880       _gen_codes                 00413880 f   zlib:trees.obj
 0001:00012910       _build_tree                00413910 f   zlib:trees.obj
 0001:00012b10       _build_bl_tree             00413b10 f   zlib:trees.obj
 0001:00017210       ??0Interlock@?7??UsePendingBuffer@SendBuffer@@QAE_NK@Z@QAE@RAJ@Z 00418210 f   Network:SendBuffer.obj
 0001:00017240       ??1Interlock@?7??UsePendingBuffer@SendBuffer@@QAE_NK@Z@QAE@XZ 00418240 f   Network:SendBuffer.obj
 0001:00017250       ??0Interlock@?4??PrepareSend@SendBuffer@@QAE_NQAURingBufferInfo@module@@@Z@QAE@RAJ@Z 00418250 f   Network:SendBuffer.obj
 0001:00017270       ??1Interlock@?4??PrepareSend@SendBuffer@@QAE_NQAURingBufferInfo@module@@@Z@QAE@XZ 00418270 f   Network:SendBuffer.obj
 0001:00017780       ??0Interlock@?7??UseDualBuffer@RecvBuffer@@QAE_NK@Z@QAE@RAJ@Z 00418780 f   Network:RecvBuffer.obj
 0001:000177b0       ??1Interlock@?7??UseDualBuffer@RecvBuffer@@QAE_NK@Z@QAE@XZ 004187b0 f   Network:RecvBuffer.obj
 0001:000177c0       ??0Interlock@?4??PrepareRecv@RecvBuffer@@QAE_NQAURingBufferInfo@module@@@Z@QAE@RAJ@Z 004187c0 f   Network:RecvBuffer.obj
 0001:000177f0       ??1Interlock@?4??PrepareRecv@RecvBuffer@@QAE_NQAURingBufferInfo@module@@@Z@QAE@XZ 004187f0 f   Network:RecvBuffer.obj
 0001:00019154       __catch$??$_Insert@V?$_Const_iterator@$00@?$list@PAVSession@@V?$RedirectedAllocator@PAVSession@@@module@@@std@@@?$list@PAVSession@@V?$RedirectedAllocator@PAVSession@@@module@@@std@@QAEXV?$_Const_iterator@$00@01@00Uforward_iterator_tag@1@@Z$0 0041a154 f i Network:IoHandler.obj
 0001:0001a9c8       ?CatchGuardHandler@@YA?AW4_EXCEPTION_DISPOSITION@@PAUEHExceptionRecord@@PAUCatchGuardRN@@PAX2@Z 0041b9c8 f   LIBCMT:_trnsctrl_.obj
 0001:0001aad2       ?TranslatorGuardHandler@@YA?AW4_EXCEPTION_DISPOSITION@@PAUEHExceptionRecord@@PAUTranslatorGuardRN@@PAX2@Z 0041bad2 f   LIBCMT:_trnsctrl_.obj
 0001:0001b41b       __onexit_nolock            0041c41b f   LIBCMT:onexit.obj
 0001:0001bb23       _fast_error_exit           0041cb23 f   LIBCMT:crt0.obj
 0001:0001bb4c       ___tmainCRTStartup         0041cb4c f   LIBCMT:crt0.obj
 0001:0001da12       __make__time64_t           0041ea12 f   LIBCMT:mktime64.obj
 0001:0001e114       __unwind_handler           0041f114 f   LIBCMT:exsup.obj
 0001:0001e2db       __splitpath_helper         0041f2db f   LIBCMT:splitpat.obj
 0001:0001e556       __callthreadstartex        0041f556 f   LIBCMT:threadex.obj
 0001:0001e597       __threadstartex@4          0041f597 f   LIBCMT:threadex.obj
 0001:0001e8a3       ?ExFilterRethrow@@YAHPAU_EXCEPTION_POINTERS@@@Z 0041f8a3 f   LIBCMT:frame.obj
 0001:0001e966       ?IsInExceptionSpec@@YAEPAUEHExceptionRecord@@PBU_s_ESTypeList@@@Z 0041f966 f   LIBCMT:frame.obj
 0001:0001e9e1       ?CallUnexpected@@YAXPBU_s_ESTypeList@@@Z 0041f9e1 f   LIBCMT:frame.obj
 0001:0001ea12       __catch$?CallUnexpected@@YAXPBU_s_ESTypeList@@@Z$0 0041fa12 f   LIBCMT:frame.obj
 0001:0001ea2a       ?CallCatchBlock@@YAPAXPAUEHExceptionRecord@@PAUEHRegistrationNode@@PAU_CONTEXT@@PBU_s_FuncInfo@@PAXHK@Z 0041fa2a f   LIBCMT:frame.obj
 0001:0001edd7       ?CatchIt@@YAXPAUEHExceptionRecord@@PAUEHRegistrationNode@@PAU_CONTEXT@@PAXPBU_s_FuncInfo@@PBU_s_HandlerType@@PBU_s_CatchableType@@PBU_s_TryBlockMapEntry@@H1E@Z 0041fdd7 f   LIBCMT:frame.obj
 0001:0001ee45       ?FindHandlerForForeignException@@YAXPAUEHExceptionRecord@@PAUEHRegistrationNode@@PAU_CONTEXT@@PAXPBU_s_FuncInfo@@HH1@Z 0041fe45 f   LIBCMT:frame.obj
 0001:0001ef39       ?FindHandler@@YAXPAUEHExceptionRecord@@PAUEHRegistrationNode@@PAU_CONTEXT@@PAXPBU_s_FuncInfo@@EH1@Z 0041ff39 f   LIBCMT:frame.obj
 0001:0001fd88       _write_char                00420d88 f   LIBCMT:output.obj
 0001:0001fdbb       _write_multi_char          00420dbb f   LIBCMT:output.obj
 0001:0001fde1       _write_string              00420de1 f   LIBCMT:output.obj
 0001:00021cef       __initterm                 00422cef f   LIBCMT:crt0dat.obj
 0001:00021db5       _doexit                    00422db5 f   LIBCMT:crt0dat.obj
 0001:00021f9e       __catch$??2@YAPAXIABUnothrow_t@std@@@Z$0 00422f9e f   LIBCMT:newopnt.obj
 0001:00022224       _flsall                    00423224 f   LIBCMT:fflush.obj
 0001:000229ec       __unwind_handler4          004239ec f   LIBCMT:exsup4.obj
 0001:00022def       ?CPtoLCID@@YAHH@Z          00423def f   LIBCMT:mbctype.obj
 0001:00022e1e       ?setSBCS@@YAXPAUthreadmbcinfostruct@@@Z 00423e1e f   LIBCMT:mbctype.obj
 0001:00022e82       ?setSBUpLow@@YAXPAUthreadmbcinfostruct@@@Z 00423e82 f   LIBCMT:mbctype.obj
 0001:000230b9       ?getSystemCP@@YAHH@Z       004240b9 f   LIBCMT:mbctype.obj
 0001:00023743       __updatetlocinfoEx_nolock  00424743 f   LIBCMT:setlocal.obj
 0001:00023964       __shift                    00424964 f   LIBCMT:cvt.obj
 0001:000239a9       __cftoe2_l                 004249a9 f   LIBCMT:cvt.obj
 0001:00023f7b       __cftof2_l                 00424f7b f   LIBCMT:cvt.obj
 0001:000249e4       _parse_cmdline             004259e4 f   LIBCMT:stdargv.obj
 0001:00024fb4       ?__crtLCMapStringA_stat@@YAHPAUlocaleinfo_struct@@KKPBDHPADHHH@Z 00425fb4 f   LIBCMT:a_map.obj
 0001:000257b4       _comexecmd                 004267b4 f   LIBCMT:spawnve.obj
 0001:00025bbc       _fastzero_I                00426bbc f   LIBCMT:p4_memset.obj
 0001:00025ca2       _has_osfxsr_set            00426ca2 f   LIBCMT:cpu_disp.obj
 0001:0002657c       _fastcopy_I                0042757c f   LIBCMT:p4_memcpy.obj
 0001:00026827       __tzset_nolock             00427827 f   LIBCMT:tzset.obj
 0001:00026b6d       _cvtdate                   00427b6d f   LIBCMT:tzset.obj
 0001:00026d64       __isindst_nolock           00427d64 f   LIBCMT:tzset.obj
 0001:00027229       ?strtoxl@@YAKPAUlocaleinfo_struct@@PBDPAPBDHH@Z 00428229 f   LIBCMT:strtol.obj
 0001:00027656       ?x_ismbbtype_l@@YAHPAUlocaleinfo_struct@@IHH@Z 00428656 f   LIBCMT:ismbbyte.obj
 0001:00027a6a       _siglookup                 00428a6a f   LIBCMT:winsig.obj
 0001:00027ff5       __tsopen_nolock            00428ff5 f   LIBCMT:open.obj
 0001:00029046       ?__crtGetStringTypeA_stat@@YAHPAUlocaleinfo_struct@@KPBDHPAGHHH@Z 0042a046 f   LIBCMT:a_str.obj
 0001:0002d22e       __hw_cw                    0042e22e f   LIBCMT:_ieee87_.obj
 0001:0002d2bc       ___hw_cw_sse2              0042e2bc f   LIBCMT:_ieee87_.obj
 0001:0002d920       ?strncnt@@YAHPBDH@Z        0042e920 f   LIBCMT:a_cmp.obj
 0001:0002d93e       ?__crtCompareStringA_stat@@YAHPAUlocaleinfo_struct@@KKPBDH1HH@Z 0042e93e f   LIBCMT:a_cmp.obj
 0001:0002ddea       _findenv                   0042edea f   LIBCMT:setenv.obj
 0001:0002de3c       _copy_environ              0042ee3c f   LIBCMT:setenv.obj
 0001:0002e3f0       __unwindfunclet$??0AuthAgentFrame@@QAE@XZ$0 0042f3f0 f   AuthAgentFrame.obj
 0001:0002e3f8       __unwindfunclet$??0AuthAgentFrame@@QAE@XZ$1 0042f3f8 f   AuthAgentFrame.obj
 0001:0002e406       __unwindfunclet$??0AuthAgentFrame@@QAE@XZ$2 0042f406 f   AuthAgentFrame.obj
 0001:0002e414       __ehhandler$??0AuthAgentFrame@@QAE@XZ 0042f414 f   AuthAgentFrame.obj
 0001:0002e42f       __unwindfunclet$??1AuthAgentFrame@@UAE@XZ$0 0042f42f f   AuthAgentFrame.obj
 0001:0002e437       __unwindfunclet$??1AuthAgentFrame@@UAE@XZ$1 0042f437 f   AuthAgentFrame.obj
 0001:0002e445       __unwindfunclet$??1AuthAgentFrame@@UAE@XZ$2 0042f445 f   AuthAgentFrame.obj
 0001:0002e453       __ehhandler$??1AuthAgentFrame@@UAE@XZ 0042f453 f   AuthAgentFrame.obj
 0001:0002e46e       __unwindfunclet$?CreateSunLog@AuthAgentFrame@@IAEHXZ$0 0042f46e f   AuthAgentFrame.obj
 0001:0002e47c       __ehhandler$?CreateSunLog@AuthAgentFrame@@IAEHXZ 0042f47c f   AuthAgentFrame.obj
 0001:0002e4b0       __unwindfunclet$??0?$CMemoryPoolFactory@VGameAgentServerSession@@@util@@QAE@XZ$0 0042f4b0 f   AuthAgentFrame.obj
 0001:0002e4b0       __unwindfunclet$??1?$CMemoryPoolFactory@VAuthServerSession@@@util@@UAE@XZ$0 0042f4b0 f   AuthAgentFrame.obj
 0001:0002e4b0       __unwindfunclet$??0?$CMemoryPoolFactory@VAuthServerSession@@@util@@QAE@XZ$0 0042f4b0 f   AuthAgentFrame.obj
 0001:0002e4b0       __unwindfunclet$??1?$CMemoryPoolFactory@VGameAgentServerSession@@@util@@UAE@XZ$0 0042f4b0 f   AuthAgentFrame.obj
 0001:0002e4b8       __ehhandler$??1?$CMemoryPoolFactory@VAuthServerSession@@@util@@UAE@XZ 0042f4b8 f   AuthAgentFrame.obj
 0001:0002e4b8       __ehhandler$??1?$CMemoryPoolFactory@VGameAgentServerSession@@@util@@UAE@XZ 0042f4b8 f   AuthAgentFrame.obj
 0001:0002e4b8       __ehhandler$??0?$CMemoryPoolFactory@VGameAgentServerSession@@@util@@QAE@XZ 0042f4b8 f   AuthAgentFrame.obj
 0001:0002e4b8       __ehhandler$??0?$CMemoryPoolFactory@VAuthServerSession@@@util@@QAE@XZ 0042f4b8 f   AuthAgentFrame.obj
 0001:0002e4e0       __unwindfunclet$?CreateImpl@?$CMemoryPoolFactory@VAuthServerSession@@@util@@QAEXH@Z$0 0042f4e0 f   AuthAgentFrame.obj
 0001:0002e4e0       __unwindfunclet$?CreateImpl@?$CMemoryPoolFactory@VGameAgentServerSession@@@util@@QAEXH@Z$0 0042f4e0 f   AuthAgentFrame.obj
 0001:0002e4eb       __unwindfunclet$?CreateImpl@?$CMemoryPoolFactory@VAuthServerSession@@@util@@QAEXH@Z$1 0042f4eb f   AuthAgentFrame.obj
 0001:0002e4eb       __unwindfunclet$?CreateImpl@?$CMemoryPoolFactory@VGameAgentServerSession@@@util@@QAEXH@Z$1 0042f4eb f   AuthAgentFrame.obj
 0001:0002e4f6       __unwindfunclet$?CreateImpl@?$CMemoryPoolFactory@VGameAgentServerSession@@@util@@QAEXH@Z$2 0042f4f6 f   AuthAgentFrame.obj
 0001:0002e4f6       __unwindfunclet$?CreateImpl@?$CMemoryPoolFactory@VAuthServerSession@@@util@@QAEXH@Z$2 0042f4f6 f   AuthAgentFrame.obj
 0001:0002e501       __unwindfunclet$?CreateImpl@?$CMemoryPoolFactory@VGameAgentServerSession@@@util@@QAEXH@Z$3 0042f501 f   AuthAgentFrame.obj
 0001:0002e501       __unwindfunclet$?CreateImpl@?$CMemoryPoolFactory@VAuthServerSession@@@util@@QAEXH@Z$3 0042f501 f   AuthAgentFrame.obj
 0001:0002e50c       __ehhandler$?CreateImpl@?$CMemoryPoolFactory@VGameAgentServerSession@@@util@@QAEXH@Z 0042f50c f   AuthAgentFrame.obj
 0001:0002e50c       __ehhandler$?CreateImpl@?$CMemoryPoolFactory@VAuthServerSession@@@util@@QAEXH@Z 0042f50c f   AuthAgentFrame.obj
 0001:0002e530       __unwindfunclet$?reset@?$scoped_ptr@VIMemoryPoolFactoryImpl@internal@util@@@boost@@QAEXPAVIMemoryPoolFactoryImpl@internal@util@@@Z$0 0042f530 f   AuthAgentFrame.obj
 0001:0002e538       __ehhandler$?reset@?$scoped_ptr@VIMemoryPoolFactoryImpl@internal@util@@@boost@@QAEXPAVIMemoryPoolFactoryImpl@internal@util@@@Z 0042f538 f   AuthAgentFrame.obj
 0001:0002e560       __unwindfunclet$?Alloc@?$FixedSizeChunkImpl@VGameAgentServerSession@@@internal@util@@UAEPAXXZ$0 0042f560 f   AuthAgentFrame.obj
 0001:0002e560       __unwindfunclet$?Alloc@?$NotUseChunkImpl@VGameAgentServerSession@@@internal@util@@UAEPAXXZ$0 0042f560 f   AuthAgentFrame.obj
 0001:0002e560       __unwindfunclet$?Alloc@?$NotUseChunkImpl@VAuthServerSession@@@internal@util@@UAEPAXXZ$0 0042f560 f   AuthAgentFrame.obj
 0001:0002e560       __unwindfunclet$?Alloc@?$FixedSizeChunkImpl@VAuthServerSession@@@internal@util@@UAEPAXXZ$0 0042f560 f   AuthAgentFrame.obj
 0001:0002e571       __ehhandler$?Alloc@?$NotUseChunkImpl@VGameAgentServerSession@@@internal@util@@UAEPAXXZ 0042f571 f   AuthAgentFrame.obj
 0001:0002e571       __ehhandler$?Alloc@?$FixedSizeChunkImpl@VAuthServerSession@@@internal@util@@UAEPAXXZ 0042f571 f   AuthAgentFrame.obj
 0001:0002e571       __ehhandler$?Alloc@?$FixedSizeChunkImpl@VGameAgentServerSession@@@internal@util@@UAEPAXXZ 0042f571 f   AuthAgentFrame.obj
 0001:0002e571       __ehhandler$?Alloc@?$NotUseChunkImpl@VAuthServerSession@@@internal@util@@UAEPAXXZ 0042f571 f   AuthAgentFrame.obj
 0001:0002e590       __unwindfunclet$??1?$VariableSizeChunkImpl@VAuthServerSession@@@internal@util@@UAE@XZ$0 0042f590 f   AuthAgentFrame.obj
 0001:0002e590       __unwindfunclet$??1?$VariableSizeChunkImpl@VGameAgentServerSession@@@internal@util@@UAE@XZ$0 0042f590 f   AuthAgentFrame.obj
 0001:0002e598       __unwindfunclet$??1?$VariableSizeChunkImpl@VGameAgentServerSession@@@internal@util@@UAE@XZ$1 0042f598 f   AuthAgentFrame.obj
 0001:0002e598       __unwindfunclet$??1?$VariableSizeChunkImpl@VAuthServerSession@@@internal@util@@UAE@XZ$1 0042f598 f   AuthAgentFrame.obj
 0001:0002e5a3       __ehhandler$??1?$VariableSizeChunkImpl@VGameAgentServerSession@@@internal@util@@UAE@XZ 0042f5a3 f   AuthAgentFrame.obj
 0001:0002e5a3       __ehhandler$??1?$VariableSizeChunkImpl@VAuthServerSession@@@internal@util@@UAE@XZ 0042f5a3 f   AuthAgentFrame.obj
 0001:0002e5c0       __unwindfunclet$??0?$FixedSizeChunkImpl@VGameAgentServerSession@@@internal@util@@QAE@XZ$0 0042f5c0 f   AuthAgentFrame.obj
 0001:0002e5c0       __unwindfunclet$??1?$FixedSizeChunkImpl@VGameAgentServerSession@@@internal@util@@UAE@XZ$0 0042f5c0 f   AuthAgentFrame.obj
 0001:0002e5c0       __unwindfunclet$??0?$VariableSizeChunkImpl@VGameAgentServerSession@@@internal@util@@QAE@XZ$0 0042f5c0 f   AuthAgentFrame.obj
 0001:0002e5c0       __unwindfunclet$??0?$VariableSizeChunkImpl@VAuthServerSession@@@internal@util@@QAE@XZ$0 0042f5c0 f   AuthAgentFrame.obj
 0001:0002e5c0       __unwindfunclet$??0?$FixedSizeChunkImpl@VAuthServerSession@@@internal@util@@QAE@XZ$0 0042f5c0 f   AuthAgentFrame.obj
 0001:0002e5c0       __unwindfunclet$??1?$FixedSizeChunkImpl@VAuthServerSession@@@internal@util@@UAE@XZ$0 0042f5c0 f   AuthAgentFrame.obj
 0001:0002e5c8       __ehhandler$??1?$FixedSizeChunkImpl@VAuthServerSession@@@internal@util@@UAE@XZ 0042f5c8 f   AuthAgentFrame.obj
 0001:0002e5c8       __ehhandler$??0?$FixedSizeChunkImpl@VAuthServerSession@@@internal@util@@QAE@XZ 0042f5c8 f   AuthAgentFrame.obj
 0001:0002e5c8       __ehhandler$??0?$VariableSizeChunkImpl@VAuthServerSession@@@internal@util@@QAE@XZ 0042f5c8 f   AuthAgentFrame.obj
 0001:0002e5c8       __ehhandler$??1?$FixedSizeChunkImpl@VGameAgentServerSession@@@internal@util@@UAE@XZ 0042f5c8 f   AuthAgentFrame.obj
 0001:0002e5c8       __ehhandler$??0?$VariableSizeChunkImpl@VGameAgentServerSession@@@internal@util@@QAE@XZ 0042f5c8 f   AuthAgentFrame.obj
 0001:0002e5c8       __ehhandler$??0?$FixedSizeChunkImpl@VGameAgentServerSession@@@internal@util@@QAE@XZ 0042f5c8 f   AuthAgentFrame.obj
 0001:0002e5f0       __unwindfunclet$?Create@?$VariableSizeChunkImpl@VGameAgentServerSession@@@internal@util@@CAXPAX@Z$0 0042f5f0 f   AuthAgentFrame.obj
 0001:0002e5f0       __unwindfunclet$?Create@?$VariableSizeChunkImpl@VAuthServerSession@@@internal@util@@CAXPAX@Z$0 0042f5f0 f   AuthAgentFrame.obj
 0001:0002e601       __ehhandler$?Create@?$VariableSizeChunkImpl@VGameAgentServerSession@@@internal@util@@CAXPAX@Z 0042f601 f   AuthAgentFrame.obj
 0001:0002e601       __ehhandler$?Create@?$VariableSizeChunkImpl@VAuthServerSession@@@internal@util@@CAXPAX@Z 0042f601 f   AuthAgentFrame.obj
 0001:0002e620       __unwindfunclet$?ProcCrashHandling@@YAXPBD0@Z$0 0042f620 f   main.obj
 0001:0002e62b       __ehhandler$?ProcCrashHandling@@YAXPBD0@Z 0042f62b f   main.obj
 0001:0002e660       __unwindfunclet$?Instance@?$Singleton@VAuthAgentFrame@@$00@util@@SAPAVAuthAgentFrame@@XZ$0 0042f660 f   AuthServerSession.obj
 0001:0002e660       __unwindfunclet$?Instance@?$Singleton@VGameAgentInfoList@@$00@util@@SAPAVGameAgentInfoList@@XZ$0 0042f660 f   AuthServerSession.obj
 0001:0002e660       __unwindfunclet$?Instance@?$Singleton@VGameAgentManager@@$00@util@@SAPAVGameAgentManager@@XZ$0 0042f660 f   AuthServerSession.obj
 0001:0002e66b       __ehhandler$?Instance@?$Singleton@VGameAgentManager@@$00@util@@SAPAVGameAgentManager@@XZ 0042f66b f   AuthServerSession.obj
 0001:0002e66b       __ehhandler$?Instance@?$Singleton@VAuthAgentFrame@@$00@util@@SAPAVAuthAgentFrame@@XZ 0042f66b f   AuthServerSession.obj
 0001:0002e66b       __ehhandler$?Instance@?$Singleton@VGameAgentInfoList@@$00@util@@SAPAVGameAgentInfoList@@XZ 0042f66b f   AuthServerSession.obj
 0001:0002e690       __unwindfunclet$??0GameAgentInfoList@@QAE@XZ$0 0042f690 f   GameAgentInfoList.obj
 0001:0002e698       __ehhandler$??0GameAgentInfoList@@QAE@XZ 0042f698 f   GameAgentInfoList.obj
 0001:0002e6b3       __unwindfunclet$??1GameAgentInfoList@@QAE@XZ$0 0042f6b3 f   GameAgentInfoList.obj
 0001:0002e6bb       __ehhandler$??1GameAgentInfoList@@QAE@XZ 0042f6bb f   GameAgentInfoList.obj
 0001:0002e6e0       __unwindfunclet$??1?$_Hash@V?$_Hmap_traits@KPAVGameAgentServerSession@@V?$hash_compare@KU?$less@K@std@@@stdext@@V?$CustomAllocator@PAVGameAgentServerSession@@@util@@$0A@@stdext@@@stdext@@QAE@XZ$0 0042f6e0 f   GameAgentInfoList.obj
 0001:0002e6e0       __unwindfunclet$??1?$_Hash@V?$_Hmap_traits@GPAUsGAME_AGENT_INFO@@V?$hash_compare@GU?$less@G@std@@@stdext@@V?$CustomAllocator@PAUsGAME_AGENT_INFO@@@util@@$0A@@stdext@@@stdext@@QAE@XZ$0 0042f6e0 f   GameAgentInfoList.obj
 0001:0002e6e8       __unwindfunclet$??1?$_Hash@V?$_Hmap_traits@GPAUsGAME_AGENT_INFO@@V?$hash_compare@GU?$less@G@std@@@stdext@@V?$CustomAllocator@PAUsGAME_AGENT_INFO@@@util@@$0A@@stdext@@@stdext@@QAE@XZ$1 0042f6e8 f   GameAgentInfoList.obj
 0001:0002e6e8       __unwindfunclet$??1?$_Hash@V?$_Hmap_traits@KPAVGameAgentServerSession@@V?$hash_compare@KU?$less@K@std@@@stdext@@V?$CustomAllocator@PAVGameAgentServerSession@@@util@@$0A@@stdext@@@stdext@@QAE@XZ$1 0042f6e8 f   GameAgentInfoList.obj
 0001:0002e6f3       __ehhandler$??1?$_Hash@V?$_Hmap_traits@GPAUsGAME_AGENT_INFO@@V?$hash_compare@GU?$less@G@std@@@stdext@@V?$CustomAllocator@PAUsGAME_AGENT_INFO@@@util@@$0A@@stdext@@@stdext@@QAE@XZ 0042f6f3 f   GameAgentInfoList.obj
 0001:0002e6f3       __ehhandler$??1?$_Hash@V?$_Hmap_traits@KPAVGameAgentServerSession@@V?$hash_compare@KU?$less@K@std@@@stdext@@V?$CustomAllocator@PAVGameAgentServerSession@@@util@@$0A@@stdext@@@stdext@@QAE@XZ 0042f6f3 f   GameAgentInfoList.obj
 0001:0002e710       __unwindfunclet$??0?$list@U?$pair@$$CBKPAVGameAgentServerSession@@@std@@V?$CustomAllocator@U?$pair@$$CBKPAVGameAgentServerSession@@@std@@@util@@@std@@QAE@ABV?$CustomAllocator@U?$pair@$$CBKPAVGameAgentServerSession@@@std@@@util@@@Z$0 0042f710 f   GameAgentInfoList.obj
 0001:0002e710       __unwindfunclet$??0?$list@U?$pair@$$CBGPAUsGAME_AGENT_INFO@@@std@@V?$CustomAllocator@U?$pair@$$CBGPAUsGAME_AGENT_INFO@@@std@@@util@@@std@@QAE@ABV?$CustomAllocator@U?$pair@$$CBGPAUsGAME_AGENT_INFO@@@std@@@util@@@Z$0 0042f710 f   GameAgentInfoList.obj
 0001:0002e710       __unwindfunclet$??1?$list@U?$pair@$$CBGPAUsGAME_AGENT_INFO@@@std@@V?$CustomAllocator@U?$pair@$$CBGPAUsGAME_AGENT_INFO@@@std@@@util@@@std@@QAE@XZ$0 0042f710 f   GameAgentInfoList.obj
 0001:0002e710       __unwindfunclet$??1?$list@U?$pair@$$CBKPAVGameAgentServerSession@@@std@@V?$CustomAllocator@U?$pair@$$CBKPAVGameAgentServerSession@@@std@@@util@@@std@@QAE@XZ$0 0042f710 f   GameAgentInfoList.obj
 0001:0002e718       __ehhandler$??0?$list@U?$pair@$$CBGPAUsGAME_AGENT_INFO@@@std@@V?$CustomAllocator@U?$pair@$$CBGPAUsGAME_AGENT_INFO@@@std@@@util@@@std@@QAE@ABV?$CustomAllocator@U?$pair@$$CBGPAUsGAME_AGENT_INFO@@@std@@@util@@@Z 0042f718 f   GameAgentInfoList.obj
 0001:0002e718       __ehhandler$??0?$list@U?$pair@$$CBKPAVGameAgentServerSession@@@std@@V?$CustomAllocator@U?$pair@$$CBKPAVGameAgentServerSession@@@std@@@util@@@std@@QAE@ABV?$CustomAllocator@U?$pair@$$CBKPAVGameAgentServerSession@@@std@@@util@@@Z 0042f718 f   GameAgentInfoList.obj
 0001:0002e718       __ehhandler$??1?$list@U?$pair@$$CBKPAVGameAgentServerSession@@@std@@V?$CustomAllocator@U?$pair@$$CBKPAVGameAgentServerSession@@@std@@@util@@@std@@QAE@XZ 0042f718 f   GameAgentInfoList.obj
 0001:0002e718       __ehhandler$??1?$list@U?$pair@$$CBGPAUsGAME_AGENT_INFO@@@std@@V?$CustomAllocator@U?$pair@$$CBGPAUsGAME_AGENT_INFO@@@std@@@util@@@std@@QAE@XZ 0042f718 f   GameAgentInfoList.obj
 0001:0002e740       __unwindfunclet$??0?$_Hash@V?$_Hmap_traits@GPAUsGAME_AGENT_INFO@@V?$hash_compare@GU?$less@G@std@@@stdext@@V?$CustomAllocator@PAUsGAME_AGENT_INFO@@@util@@$0A@@stdext@@@stdext@@QAE@ABV?$hash_compare@GU?$less@G@std@@@1@ABV?$CustomAllocator@U?$pair@$$CBGPAUsGAME_AGENT_INFO@@@std@@@util@@@Z$0 0042f740 f   GameAgentInfoList.obj
 0001:0002e740       __unwindfunclet$??0?$_Hash@V?$_Hmap_traits@KPAVGameAgentServerSession@@V?$hash_compare@KU?$less@K@std@@@stdext@@V?$CustomAllocator@PAVGameAgentServerSession@@@util@@$0A@@stdext@@@stdext@@QAE@ABV?$hash_compare@KU?$less@K@std@@@1@ABV?$CustomAllocator@U?$pair@$$CBKPAVGameAgentServerSession@@@std@@@util@@@Z$0 0042f740 f   GameAgentInfoList.obj
 0001:0002e748       __unwindfunclet$??0?$_Hash@V?$_Hmap_traits@KPAVGameAgentServerSession@@V?$hash_compare@KU?$less@K@std@@@stdext@@V?$CustomAllocator@PAVGameAgentServerSession@@@util@@$0A@@stdext@@@stdext@@QAE@ABV?$hash_compare@KU?$less@K@std@@@1@ABV?$CustomAllocator@U?$pair@$$CBKPAVGameAgentServerSession@@@std@@@util@@@Z$1 0042f748 f   GameAgentInfoList.obj
 0001:0002e748       __unwindfunclet$??0?$_Hash@V?$_Hmap_traits@GPAUsGAME_AGENT_INFO@@V?$hash_compare@GU?$less@G@std@@@stdext@@V?$CustomAllocator@PAUsGAME_AGENT_INFO@@@util@@$0A@@stdext@@@stdext@@QAE@ABV?$hash_compare@GU?$less@G@std@@@1@ABV?$CustomAllocator@U?$pair@$$CBGPAUsGAME_AGENT_INFO@@@std@@@util@@@Z$1 0042f748 f   GameAgentInfoList.obj
 0001:0002e753       __unwindfunclet$??0?$_Hash@V?$_Hmap_traits@KPAVGameAgentServerSession@@V?$hash_compare@KU?$less@K@std@@@stdext@@V?$CustomAllocator@PAVGameAgentServerSession@@@util@@$0A@@stdext@@@stdext@@QAE@ABV?$hash_compare@KU?$less@K@std@@@1@ABV?$CustomAllocator@U?$pair@$$CBKPAVGameAgentServerSession@@@std@@@util@@@Z$2 0042f753 f   GameAgentInfoList.obj
 0001:0002e753       __unwindfunclet$??0?$_Hash@V?$_Hmap_traits@GPAUsGAME_AGENT_INFO@@V?$hash_compare@GU?$less@G@std@@@stdext@@V?$CustomAllocator@PAUsGAME_AGENT_INFO@@@util@@$0A@@stdext@@@stdext@@QAE@ABV?$hash_compare@GU?$less@G@std@@@1@ABV?$CustomAllocator@U?$pair@$$CBGPAUsGAME_AGENT_INFO@@@std@@@util@@@Z$2 0042f753 f   GameAgentInfoList.obj
 0001:0002e75e       __ehhandler$??0?$_Hash@V?$_Hmap_traits@GPAUsGAME_AGENT_INFO@@V?$hash_compare@GU?$less@G@std@@@stdext@@V?$CustomAllocator@PAUsGAME_AGENT_INFO@@@util@@$0A@@stdext@@@stdext@@QAE@ABV?$hash_compare@GU?$less@G@std@@@1@ABV?$CustomAllocator@U?$pair@$$CBGPAUsGAME_AGENT_INFO@@@std@@@util@@@Z 0042f75e f   GameAgentInfoList.obj
 0001:0002e75e       __ehhandler$??0?$_Hash@V?$_Hmap_traits@KPAVGameAgentServerSession@@V?$hash_compare@KU?$less@K@std@@@stdext@@V?$CustomAllocator@PAVGameAgentServerSession@@@util@@$0A@@stdext@@@stdext@@QAE@ABV?$hash_compare@KU?$less@K@std@@@1@ABV?$CustomAllocator@U?$pair@$$CBKPAVGameAgentServerSession@@@std@@@util@@@Z 0042f75e f   GameAgentInfoList.obj
 0001:0002e780       __unwindfunclet$??1?$_Container_base_aux_alloc_real@V?$CustomAllocator@U_List_position@?$_Hash@V?$_Hmap_traits@GPAUsGAME_AGENT_INFO@@V?$hash_compare@GU?$less@G@std@@@stdext@@V?$CustomAllocator@PAUsGAME_AGENT_INFO@@@util@@$0A@@stdext@@@stdext@@@util@@@std@@IAE@XZ$0 0042f780 f   GameAgentInfoList.obj
 0001:0002e780       __unwindfunclet$??1?$_Container_base_aux_alloc_real@V?$CustomAllocator@U?$pair@$$CBGPAUsGAME_AGENT_INFO@@@std@@@util@@@std@@IAE@XZ$0 0042f780 f   GameAgentInfoList.obj
 0001:0002e780       __unwindfunclet$??1?$_Container_base_aux_alloc_real@V?$CustomAllocator@U?$pair@$$CBKPAVGameAgentServerSession@@@std@@@util@@@std@@IAE@XZ$0 0042f780 f   GameAgentInfoList.obj
 0001:0002e780       __unwindfunclet$??1?$_Container_base_aux_alloc_real@V?$CustomAllocator@U_List_position@?$_Hash@V?$_Hmap_traits@KPAVGameAgentServerSession@@V?$hash_compare@KU?$less@K@std@@@stdext@@V?$CustomAllocator@PAVGameAgentServerSession@@@util@@$0A@@stdext@@@stdext@@@util@@@std@@IAE@XZ$0 0042f780 f   GameAgentInfoList.obj
 0001:0002e788       __ehhandler$??1?$_Container_base_aux_alloc_real@V?$CustomAllocator@U?$pair@$$CBGPAUsGAME_AGENT_INFO@@@std@@@util@@@std@@IAE@XZ 0042f788 f   GameAgentInfoList.obj
 0001:0002e788       __ehhandler$??1?$_Container_base_aux_alloc_real@V?$CustomAllocator@U_List_position@?$_Hash@V?$_Hmap_traits@GPAUsGAME_AGENT_INFO@@V?$hash_compare@GU?$less@G@std@@@stdext@@V?$CustomAllocator@PAUsGAME_AGENT_INFO@@@util@@$0A@@stdext@@@stdext@@@util@@@std@@IAE@XZ 0042f788 f   GameAgentInfoList.obj
 0001:0002e788       __ehhandler$??1?$_Container_base_aux_alloc_real@V?$CustomAllocator@U_List_position@?$_Hash@V?$_Hmap_traits@KPAVGameAgentServerSession@@V?$hash_compare@KU?$less@K@std@@@stdext@@V?$CustomAllocator@PAVGameAgentServerSession@@@util@@$0A@@stdext@@@stdext@@@util@@@std@@IAE@XZ 0042f788 f   GameAgentInfoList.obj
 0001:0002e788       __ehhandler$??1?$_Container_base_aux_alloc_real@V?$CustomAllocator@U?$pair@$$CBKPAVGameAgentServerSession@@@std@@@util@@@std@@IAE@XZ 0042f788 f   GameAgentInfoList.obj
 0001:0002e7b0       __ehhandler$?_Buynode@?$list@U?$pair@$$CBGPAUsGAME_AGENT_INFO@@@std@@V?$CustomAllocator@U?$pair@$$CBGPAUsGAME_AGENT_INFO@@@std@@@util@@@std@@IAEPAU_Node@?$_List_nod@U?$pair@$$CBGPAUsGAME_AGENT_INFO@@@std@@V?$CustomAllocator@U?$pair@$$CBGPAUsGAME_AGENT_INFO@@@std@@@util@@@2@XZ 0042f7b0 f   GameAgentInfoList.obj
 0001:0002e7b0       __ehhandler$?_Buynode@?$list@U?$pair@$$CBKPAVGameAgentServerSession@@@std@@V?$CustomAllocator@U?$pair@$$CBKPAVGameAgentServerSession@@@std@@@util@@@std@@IAEPAU_Node@?$_List_nod@U?$pair@$$CBKPAVGameAgentServerSession@@@std@@V?$CustomAllocator@U?$pair@$$CBKPAVGameAgentServerSession@@@std@@@util@@@2@XZ 0042f7b0 f   GameAgentInfoList.obj
 0001:0002e7d0       __ehhandler$?_Buynode@?$list@U?$pair@$$CBKPAVGameAgentServerSession@@@std@@V?$CustomAllocator@U?$pair@$$CBKPAVGameAgentServerSession@@@std@@@util@@@std@@IAEPAU_Node@?$_List_nod@U?$pair@$$CBKPAVGameAgentServerSession@@@std@@V?$CustomAllocator@U?$pair@$$CBKPAVGameAgentServerSession@@@std@@@util@@@2@PAU342@0ABU?$pair@$$CBKPAVGameAgentServerSession@@@2@@Z 0042f7d0 f   GameAgentInfoList.obj
 0001:0002e7d0       __ehhandler$?_Buynode@?$list@U?$pair@$$CBGPAUsGAME_AGENT_INFO@@@std@@V?$CustomAllocator@U?$pair@$$CBGPAUsGAME_AGENT_INFO@@@std@@@util@@@std@@IAEPAU_Node@?$_List_nod@U?$pair@$$CBGPAUsGAME_AGENT_INFO@@@std@@V?$CustomAllocator@U?$pair@$$CBGPAUsGAME_AGENT_INFO@@@std@@@util@@@2@PAU342@0ABU?$pair@$$CBGPAUsGAME_AGENT_INFO@@@2@@Z 0042f7d0 f   GameAgentInfoList.obj
 0001:0002e7f0       __unwindfunclet$?_Incsize@?$list@U?$pair@$$CBGPAUsGAME_AGENT_INFO@@@std@@V?$CustomAllocator@U?$pair@$$CBGPAUsGAME_AGENT_INFO@@@std@@@util@@@std@@IAEXI@Z$0 0042f7f0 f   GameAgentInfoList.obj
 0001:0002e7f0       __unwindfunclet$?_Incsize@?$list@U?$pair@$$CBKPAVGameAgentServerSession@@@std@@V?$CustomAllocator@U?$pair@$$CBKPAVGameAgentServerSession@@@std@@@util@@@std@@IAEXI@Z$0 0042f7f0 f   GameAgentInfoList.obj
 0001:0002e7f8       __ehhandler$?_Incsize@?$list@U?$pair@$$CBKPAVGameAgentServerSession@@@std@@V?$CustomAllocator@U?$pair@$$CBKPAVGameAgentServerSession@@@std@@@util@@@std@@IAEXI@Z 0042f7f8 f   GameAgentInfoList.obj
 0001:0002e7f8       __ehhandler$?_Incsize@?$list@U?$pair@$$CBGPAUsGAME_AGENT_INFO@@@std@@V?$CustomAllocator@U?$pair@$$CBGPAUsGAME_AGENT_INFO@@@std@@@util@@@std@@IAEXI@Z 0042f7f8 f   GameAgentInfoList.obj
 0001:0002e820       __unwindfunclet$??0logic_error@std@@QAE@ABV01@@Z$0 0042f820 f   GameAgentInfoList.obj
 0001:0002e820       __unwindfunclet$??0logic_error@std@@QAE@ABV?$basic_string@DU?$char_traits@D@std@@V?$allocator@D@2@@1@@Z$0 0042f820 f   GameAgentInfoList.obj
 0001:0002e828       __ehhandler$??0logic_error@std@@QAE@ABV01@@Z 0042f828 f   GameAgentInfoList.obj
 0001:0002e828       __ehhandler$??0logic_error@std@@QAE@ABV?$basic_string@DU?$char_traits@D@std@@V?$allocator@D@2@@1@@Z 0042f828 f   GameAgentInfoList.obj
 0001:0002e850       __unwindfunclet$??0?$vector@U_List_position@?$_Hash@V?$_Hmap_traits@GPAUsGAME_AGENT_INFO@@V?$hash_compare@GU?$less@G@std@@@stdext@@V?$CustomAllocator@PAUsGAME_AGENT_INFO@@@util@@$0A@@stdext@@@stdext@@V?$CustomAllocator@U_List_position@?$_Hash@V?$_Hmap_traits@GPAUsGAME_AGENT_INFO@@V?$hash_compare@GU?$less@G@std@@@stdext@@V?$CustomAllocator@PAUsGAME_AGENT_INFO@@@util@@$0A@@stdext@@@stdext@@@util@@@std@@QAE@ABV?$CustomAllocator@U_List_position@?$_Hash@V?$_Hmap_traits@GPAUsGAME_AGENT_INFO@@V?$hash_compare@GU?$less@G@std@@@stdext@@V?$CustomAllocator@PAUsGAME_AGENT_INFO@@@util@@$0A@@stdext@@@stdext@@@util@@@Z$0 0042f850 f   GameAgentInfoList.obj
 0001:0002e850       __unwindfunclet$??1?$vector@U_List_position@?$_Hash@V?$_Hmap_traits@GPAUsGAME_AGENT_INFO@@V?$hash_compare@GU?$less@G@std@@@stdext@@V?$CustomAllocator@PAUsGAME_AGENT_INFO@@@util@@$0A@@stdext@@@stdext@@V?$CustomAllocator@U_List_position@?$_Hash@V?$_Hmap_traits@GPAUsGAME_AGENT_INFO@@V?$hash_compare@GU?$less@G@std@@@stdext@@V?$CustomAllocator@PAUsGAME_AGENT_INFO@@@util@@$0A@@stdext@@@stdext@@@util@@@std@@QAE@XZ$0 0042f850 f   GameAgentInfoList.obj
 0001:0002e850       __unwindfunclet$??0?$vector@U_List_position@?$_Hash@V?$_Hmap_traits@KPAVGameAgentServerSession@@V?$hash_compare@KU?$less@K@std@@@stdext@@V?$CustomAllocator@PAVGameAgentServerSession@@@util@@$0A@@stdext@@@stdext@@V?$CustomAllocator@U_List_position@?$_Hash@V?$_Hmap_traits@KPAVGameAgentServerSession@@V?$hash_compare@KU?$less@K@std@@@stdext@@V?$CustomAllocator@PAVGameAgentServerSession@@@util@@$0A@@stdext@@@stdext@@@util@@@std@@QAE@ABV?$CustomAllocator@U_List_position@?$_Hash@V?$_Hmap_traits@KPAVGameAgentServerSession@@V?$hash_compare@KU?$less@K@std@@@stdext@@V?$CustomAllocator@PAVGameAgentServerSession@@@util@@$0A@@stdext@@@stdext@@@util@@@Z$0 0042f850 f   GameAgentInfoList.obj
 0001:0002e850       __unwindfunclet$??0?$_List_ptr@U?$pair@$$CBKPAVGameAgentServerSession@@@std@@V?$CustomAllocator@U?$pair@$$CBKPAVGameAgentServerSession@@@std@@@util@@@std@@IAE@V?$CustomAllocator@U?$pair@$$CBKPAVGameAgentServerSession@@@std@@@util@@@Z$0 0042f850 f   GameAgentInfoList.obj
 0001:0002e850       __unwindfunclet$??0?$_List_ptr@U?$pair@$$CBGPAUsGAME_AGENT_INFO@@@std@@V?$CustomAllocator@U?$pair@$$CBGPAUsGAME_AGENT_INFO@@@std@@@util@@@std@@IAE@V?$CustomAllocator@U?$pair@$$CBGPAUsGAME_AGENT_INFO@@@std@@@util@@@Z$0 0042f850 f   GameAgentInfoList.obj
 0001:0002e850       __unwindfunclet$??1?$vector@U_List_position@?$_Hash@V?$_Hmap_traits@KPAVGameAgentServerSession@@V?$hash_compare@KU?$less@K@std@@@stdext@@V?$CustomAllocator@PAVGameAgentServerSession@@@util@@$0A@@stdext@@@stdext@@V?$CustomAllocator@U_List_position@?$_Hash@V?$_Hmap_traits@KPAVGameAgentServerSession@@V?$hash_compare@KU?$less@K@std@@@stdext@@V?$CustomAllocator@PAVGameAgentServerSession@@@util@@$0A@@stdext@@@stdext@@@util@@@std@@QAE@XZ$0 0042f850 f   GameAgentInfoList.obj
 0001:0002e858       __ehhandler$??0?$_List_ptr@U?$pair@$$CBKPAVGameAgentServerSession@@@std@@V?$CustomAllocator@U?$pair@$$CBKPAVGameAgentServerSession@@@std@@@util@@@std@@IAE@V?$CustomAllocator@U?$pair@$$CBKPAVGameAgentServerSession@@@std@@@util@@@Z 0042f858 f   GameAgentInfoList.obj
 0001:0002e858       __ehhandler$??1?$vector@U_List_position@?$_Hash@V?$_Hmap_traits@GPAUsGAME_AGENT_INFO@@V?$hash_compare@GU?$less@G@std@@@stdext@@V?$CustomAllocator@PAUsGAME_AGENT_INFO@@@util@@$0A@@stdext@@@stdext@@V?$CustomAllocator@U_List_position@?$_Hash@V?$_Hmap_traits@GPAUsGAME_AGENT_INFO@@V?$hash_compare@GU?$less@G@std@@@stdext@@V?$CustomAllocator@PAUsGAME_AGENT_INFO@@@util@@$0A@@stdext@@@stdext@@@util@@@std@@QAE@XZ 0042f858 f   GameAgentInfoList.obj
 0001:0002e858       __ehhandler$??0?$_List_ptr@U?$pair@$$CBGPAUsGAME_AGENT_INFO@@@std@@V?$CustomAllocator@U?$pair@$$CBGPAUsGAME_AGENT_INFO@@@std@@@util@@@std@@IAE@V?$CustomAllocator@U?$pair@$$CBGPAUsGAME_AGENT_INFO@@@std@@@util@@@Z 0042f858 f   GameAgentInfoList.obj
 0001:0002e858       __ehhandler$??1?$vector@U_List_position@?$_Hash@V?$_Hmap_traits@KPAVGameAgentServerSession@@V?$hash_compare@KU?$less@K@std@@@stdext@@V?$CustomAllocator@PAVGameAgentServerSession@@@util@@$0A@@stdext@@@stdext@@V?$CustomAllocator@U_List_position@?$_Hash@V?$_Hmap_traits@KPAVGameAgentServerSession@@V?$hash_compare@KU?$less@K@std@@@stdext@@V?$CustomAllocator@PAVGameAgentServerSession@@@util@@$0A@@stdext@@@stdext@@@util@@@std@@QAE@XZ 0042f858 f   GameAgentInfoList.obj
 0001:0002e858       __ehhandler$??0?$vector@U_List_position@?$_Hash@V?$_Hmap_traits@GPAUsGAME_AGENT_INFO@@V?$hash_compare@GU?$less@G@std@@@stdext@@V?$CustomAllocator@PAUsGAME_AGENT_INFO@@@util@@$0A@@stdext@@@stdext@@V?$CustomAllocator@U_List_position@?$_Hash@V?$_Hmap_traits@GPAUsGAME_AGENT_INFO@@V?$hash_compare@GU?$less@G@std@@@stdext@@V?$CustomAllocator@PAUsGAME_AGENT_INFO@@@util@@$0A@@stdext@@@stdext@@@util@@@std@@QAE@ABV?$CustomAllocator@U_List_position@?$_Hash@V?$_Hmap_traits@GPAUsGAME_AGENT_INFO@@V?$hash_compare@GU?$less@G@std@@@stdext@@V?$CustomAllocator@PAUsGAME_AGENT_INFO@@@util@@$0A@@stdext@@@stdext@@@util@@@Z 0042f858 f   GameAgentInfoList.obj
 0001:0002e858       __ehhandler$??0?$vector@U_List_position@?$_Hash@V?$_Hmap_traits@KPAVGameAgentServerSession@@V?$hash_compare@KU?$less@K@std@@@stdext@@V?$CustomAllocator@PAVGameAgentServerSession@@@util@@$0A@@stdext@@@stdext@@V?$CustomAllocator@U_List_position@?$_Hash@V?$_Hmap_traits@KPAVGameAgentServerSession@@V?$hash_compare@KU?$less@K@std@@@stdext@@V?$CustomAllocator@PAVGameAgentServerSession@@@util@@$0A@@stdext@@@stdext@@@util@@@std@@QAE@ABV?$CustomAllocator@U_List_position@?$_Hash@V?$_Hmap_traits@KPAVGameAgentServerSession@@V?$hash_compare@KU?$less@K@std@@@stdext@@V?$CustomAllocator@PAVGameAgentServerSession@@@util@@$0A@@stdext@@@stdext@@@util@@@Z 0042f858 f   GameAgentInfoList.obj
 0001:0002e880       __ehhandler$?_Insert_n@?$vector@U_List_position@?$_Hash@V?$_Hmap_traits@GPAUsGAME_AGENT_INFO@@V?$hash_compare@GU?$less@G@std@@@stdext@@V?$CustomAllocator@PAUsGAME_AGENT_INFO@@@util@@$0A@@stdext@@@stdext@@V?$CustomAllocator@U_List_position@?$_Hash@V?$_Hmap_traits@GPAUsGAME_AGENT_INFO@@V?$hash_compare@GU?$less@G@std@@@stdext@@V?$CustomAllocator@PAUsGAME_AGENT_INFO@@@util@@$0A@@stdext@@@stdext@@@util@@@std@@IAEXV?$_Vector_const_iterator@U_List_position@?$_Hash@V?$_Hmap_traits@GPAUsGAME_AGENT_INFO@@V?$hash_compare@GU?$less@G@std@@@stdext@@V?$CustomAllocator@PAUsGAME_AGENT_INFO@@@util@@$0A@@stdext@@@stdext@@V?$CustomAllocator@U_List_position@?$_Hash@V?$_Hmap_traits@GPAUsGAME_AGENT_INFO@@V?$hash_compare@GU?$less@G@std@@@stdext@@V?$CustomAllocator@PAUsGAME_AGENT_INFO@@@util@@$0A@@stdext@@@stdext@@@util@@@2@IABU_List_position@?$_Hash@V?$_Hmap_traits@GPAUsGAME_AGENT_INFO@@V?$hash_compare@GU?$less@G@std@@@stdext@@V?$CustomAllocator@PAUsGAME_AGENT_INFO@@@util@@$0A@@stdext@@@stdext@@@Z 0042f880 f   GameAgentInfoList.obj
 0001:0002e880       __ehhandler$?_Insert_n@?$vector@U_List_position@?$_Hash@V?$_Hmap_traits@KPAVGameAgentServerSession@@V?$hash_compare@KU?$less@K@std@@@stdext@@V?$CustomAllocator@PAVGameAgentServerSession@@@util@@$0A@@stdext@@@stdext@@V?$CustomAllocator@U_List_position@?$_Hash@V?$_Hmap_traits@KPAVGameAgentServerSession@@V?$hash_compare@KU?$less@K@std@@@stdext@@V?$CustomAllocator@PAVGameAgentServerSession@@@util@@$0A@@stdext@@@stdext@@@util@@@std@@IAEXV?$_Vector_const_iterator@U_List_position@?$_Hash@V?$_Hmap_traits@KPAVGameAgentServerSession@@V?$hash_compare@KU?$less@K@std@@@stdext@@V?$CustomAllocator@PAVGameAgentServerSession@@@util@@$0A@@stdext@@@stdext@@V?$CustomAllocator@U_List_position@?$_Hash@V?$_Hmap_traits@KPAVGameAgentServerSession@@V?$hash_compare@KU?$less@K@std@@@stdext@@V?$CustomAllocator@PAVGameAgentServerSession@@@util@@$0A@@stdext@@@stdext@@@util@@@2@IABU_List_position@?$_Hash@V?$_Hmap_traits@KPAVGameAgentServerSession@@V?$hash_compare@KU?$less@K@std@@@stdext@@V?$CustomAllocator@PAVGameAgentServerSession@@@util@@$0A@@stdext@@@stdext@@@Z 0042f880 f   GameAgentInfoList.obj
 0001:0002e8a0       __unwindfunclet$?_Xlen@?$vector@U_List_position@?$_Hash@V?$_Hmap_traits@KPAVGameAgentServerSession@@V?$hash_compare@KU?$less@K@std@@@stdext@@V?$CustomAllocator@PAVGameAgentServerSession@@@util@@$0A@@stdext@@@stdext@@V?$CustomAllocator@U_List_position@?$_Hash@V?$_Hmap_traits@KPAVGameAgentServerSession@@V?$hash_compare@KU?$less@K@std@@@stdext@@V?$CustomAllocator@PAVGameAgentServerSession@@@util@@$0A@@stdext@@@stdext@@@util@@@std@@KAXXZ$0 0042f8a0 f   GameAgentInfoList.obj
 0001:0002e8a0       __unwindfunclet$?_Xlen@?$vector@U_List_position@?$_Hash@V?$_Hmap_traits@GPAUsGAME_AGENT_INFO@@V?$hash_compare@GU?$less@G@std@@@stdext@@V?$CustomAllocator@PAUsGAME_AGENT_INFO@@@util@@$0A@@stdext@@@stdext@@V?$CustomAllocator@U_List_position@?$_Hash@V?$_Hmap_traits@GPAUsGAME_AGENT_INFO@@V?$hash_compare@GU?$less@G@std@@@stdext@@V?$CustomAllocator@PAUsGAME_AGENT_INFO@@@util@@$0A@@stdext@@@stdext@@@util@@@std@@KAXXZ$0 0042f8a0 f   GameAgentInfoList.obj
 0001:0002e8a8       __ehhandler$?_Xlen@?$vector@U_List_position@?$_Hash@V?$_Hmap_traits@KPAVGameAgentServerSession@@V?$hash_compare@KU?$less@K@std@@@stdext@@V?$CustomAllocator@PAVGameAgentServerSession@@@util@@$0A@@stdext@@@stdext@@V?$CustomAllocator@U_List_position@?$_Hash@V?$_Hmap_traits@KPAVGameAgentServerSession@@V?$hash_compare@KU?$less@K@std@@@stdext@@V?$CustomAllocator@PAVGameAgentServerSession@@@util@@$0A@@stdext@@@stdext@@@util@@@std@@KAXXZ 0042f8a8 f   GameAgentInfoList.obj
 0001:0002e8a8       __ehhandler$?_Xlen@?$vector@U_List_position@?$_Hash@V?$_Hmap_traits@GPAUsGAME_AGENT_INFO@@V?$hash_compare@GU?$less@G@std@@@stdext@@V?$CustomAllocator@PAUsGAME_AGENT_INFO@@@util@@$0A@@stdext@@@stdext@@V?$CustomAllocator@U_List_position@?$_Hash@V?$_Hmap_traits@GPAUsGAME_AGENT_INFO@@V?$hash_compare@GU?$less@G@std@@@stdext@@V?$CustomAllocator@PAUsGAME_AGENT_INFO@@@util@@$0A@@stdext@@@stdext@@@util@@@std@@KAXXZ 0042f8a8 f   GameAgentInfoList.obj
 0001:0002e8d0       __unwindfunclet$??0?$_List_nod@U?$pair@$$CBKPAVGameAgentServerSession@@@std@@V?$CustomAllocator@U?$pair@$$CBKPAVGameAgentServerSession@@@std@@@util@@@std@@IAE@V?$CustomAllocator@U?$pair@$$CBKPAVGameAgentServerSession@@@std@@@util@@@Z$0 0042f8d0 f   GameAgentInfoList.obj
 0001:0002e8d0       __unwindfunclet$??0?$_List_nod@U?$pair@$$CBGPAUsGAME_AGENT_INFO@@@std@@V?$CustomAllocator@U?$pair@$$CBGPAUsGAME_AGENT_INFO@@@std@@@util@@@std@@IAE@V?$CustomAllocator@U?$pair@$$CBGPAUsGAME_AGENT_INFO@@@std@@@util@@@Z$0 0042f8d0 f   GameAgentInfoList.obj
 0001:0002e8d8       __ehhandler$??0?$_List_nod@U?$pair@$$CBKPAVGameAgentServerSession@@@std@@V?$CustomAllocator@U?$pair@$$CBKPAVGameAgentServerSession@@@std@@@util@@@std@@IAE@V?$CustomAllocator@U?$pair@$$CBKPAVGameAgentServerSession@@@std@@@util@@@Z 0042f8d8 f   GameAgentInfoList.obj
 0001:0002e8d8       __ehhandler$??0?$_List_nod@U?$pair@$$CBGPAUsGAME_AGENT_INFO@@@std@@V?$CustomAllocator@U?$pair@$$CBGPAUsGAME_AGENT_INFO@@@std@@@util@@@std@@IAE@V?$CustomAllocator@U?$pair@$$CBGPAUsGAME_AGENT_INFO@@@std@@@util@@@Z 0042f8d8 f   GameAgentInfoList.obj
 0001:0002e900       __unwindfunclet$??0?$_Container_base_aux_alloc_real@V?$CustomAllocator@U_List_position@?$_Hash@V?$_Hmap_traits@KPAVGameAgentServerSession@@V?$hash_compare@KU?$less@K@std@@@stdext@@V?$CustomAllocator@PAVGameAgentServerSession@@@util@@$0A@@stdext@@@stdext@@@util@@@std@@IAE@V?$CustomAllocator@U_List_position@?$_Hash@V?$_Hmap_traits@KPAVGameAgentServerSession@@V?$hash_compare@KU?$less@K@std@@@stdext@@V?$CustomAllocator@PAVGameAgentServerSession@@@util@@$0A@@stdext@@@stdext@@@util@@@Z$0 0042f900 f   GameAgentInfoList.obj
 0001:0002e900       __unwindfunclet$??0?$_Container_base_aux_alloc_real@V?$CustomAllocator@U_List_position@?$_Hash@V?$_Hmap_traits@GPAUsGAME_AGENT_INFO@@V?$hash_compare@GU?$less@G@std@@@stdext@@V?$CustomAllocator@PAUsGAME_AGENT_INFO@@@util@@$0A@@stdext@@@stdext@@@util@@@std@@IAE@V?$CustomAllocator@U_List_position@?$_Hash@V?$_Hmap_traits@GPAUsGAME_AGENT_INFO@@V?$hash_compare@GU?$less@G@std@@@stdext@@V?$CustomAllocator@PAUsGAME_AGENT_INFO@@@util@@$0A@@stdext@@@stdext@@@util@@@Z$0 0042f900 f   GameAgentInfoList.obj
 0001:0002e900       __unwindfunclet$??0?$_Container_base_aux_alloc_real@V?$CustomAllocator@U?$pair@$$CBKPAVGameAgentServerSession@@@std@@@util@@@std@@IAE@V?$CustomAllocator@U?$pair@$$CBKPAVGameAgentServerSession@@@std@@@util@@@Z$0 0042f900 f   GameAgentInfoList.obj
 0001:0002e900       __unwindfunclet$??0?$_Container_base_aux_alloc_real@V?$CustomAllocator@U?$pair@$$CBGPAUsGAME_AGENT_INFO@@@std@@@util@@@std@@IAE@V?$CustomAllocator@U?$pair@$$CBGPAUsGAME_AGENT_INFO@@@std@@@util@@@Z$0 0042f900 f   GameAgentInfoList.obj
 0001:0002e908       __unwindfunclet$??0?$_Container_base_aux_alloc_real@V?$CustomAllocator@U?$pair@$$CBKPAVGameAgentServerSession@@@std@@@util@@@std@@IAE@V?$CustomAllocator@U?$pair@$$CBKPAVGameAgentServerSession@@@std@@@util@@@Z$1 0042f908 f   GameAgentInfoList.obj
 0001:0002e908       __unwindfunclet$??0?$_Container_base_aux_alloc_real@V?$CustomAllocator@U_List_position@?$_Hash@V?$_Hmap_traits@GPAUsGAME_AGENT_INFO@@V?$hash_compare@GU?$less@G@std@@@stdext@@V?$CustomAllocator@PAUsGAME_AGENT_INFO@@@util@@$0A@@stdext@@@stdext@@@util@@@std@@IAE@V?$CustomAllocator@U_List_position@?$_Hash@V?$_Hmap_traits@GPAUsGAME_AGENT_INFO@@V?$hash_compare@GU?$less@G@std@@@stdext@@V?$CustomAllocator@PAUsGAME_AGENT_INFO@@@util@@$0A@@stdext@@@stdext@@@util@@@Z$1 0042f908 f   GameAgentInfoList.obj
 0001:0002e908       __unwindfunclet$??0?$_Container_base_aux_alloc_real@V?$CustomAllocator@U_List_position@?$_Hash@V?$_Hmap_traits@KPAVGameAgentServerSession@@V?$hash_compare@KU?$less@K@std@@@stdext@@V?$CustomAllocator@PAVGameAgentServerSession@@@util@@$0A@@stdext@@@stdext@@@util@@@std@@IAE@V?$CustomAllocator@U_List_position@?$_Hash@V?$_Hmap_traits@KPAVGameAgentServerSession@@V?$hash_compare@KU?$less@K@std@@@stdext@@V?$CustomAllocator@PAVGameAgentServerSession@@@util@@$0A@@stdext@@@stdext@@@util@@@Z$1 0042f908 f   GameAgentInfoList.obj
 0001:0002e908       __unwindfunclet$??0?$_Container_base_aux_alloc_real@V?$CustomAllocator@U?$pair@$$CBGPAUsGAME_AGENT_INFO@@@std@@@util@@@std@@IAE@V?$CustomAllocator@U?$pair@$$CBGPAUsGAME_AGENT_INFO@@@std@@@util@@@Z$1 0042f908 f   GameAgentInfoList.obj
 0001:0002e919       __ehhandler$??0?$_Container_base_aux_alloc_real@V?$CustomAllocator@U_List_position@?$_Hash@V?$_Hmap_traits@GPAUsGAME_AGENT_INFO@@V?$hash_compare@GU?$less@G@std@@@stdext@@V?$CustomAllocator@PAUsGAME_AGENT_INFO@@@util@@$0A@@stdext@@@stdext@@@util@@@std@@IAE@V?$CustomAllocator@U_List_position@?$_Hash@V?$_Hmap_traits@GPAUsGAME_AGENT_INFO@@V?$hash_compare@GU?$less@G@std@@@stdext@@V?$CustomAllocator@PAUsGAME_AGENT_INFO@@@util@@$0A@@stdext@@@stdext@@@util@@@Z 0042f919 f   GameAgentInfoList.obj
 0001:0002e919       __ehhandler$??0?$_Container_base_aux_alloc_real@V?$CustomAllocator@U_List_position@?$_Hash@V?$_Hmap_traits@KPAVGameAgentServerSession@@V?$hash_compare@KU?$less@K@std@@@stdext@@V?$CustomAllocator@PAVGameAgentServerSession@@@util@@$0A@@stdext@@@stdext@@@util@@@std@@IAE@V?$CustomAllocator@U_List_position@?$_Hash@V?$_Hmap_traits@KPAVGameAgentServerSession@@V?$hash_compare@KU?$less@K@std@@@stdext@@V?$CustomAllocator@PAVGameAgentServerSession@@@util@@$0A@@stdext@@@stdext@@@util@@@Z 0042f919 f   GameAgentInfoList.obj
 0001:0002e919       __ehhandler$??0?$_Container_base_aux_alloc_real@V?$CustomAllocator@U?$pair@$$CBGPAUsGAME_AGENT_INFO@@@std@@@util@@@std@@IAE@V?$CustomAllocator@U?$pair@$$CBGPAUsGAME_AGENT_INFO@@@std@@@util@@@Z 0042f919 f   GameAgentInfoList.obj
 0001:0002e919       __ehhandler$??0?$_Container_base_aux_alloc_real@V?$CustomAllocator@U?$pair@$$CBKPAVGameAgentServerSession@@@std@@@util@@@std@@IAE@V?$CustomAllocator@U?$pair@$$CBKPAVGameAgentServerSession@@@std@@@util@@@Z 0042f919 f   GameAgentInfoList.obj
 0001:0002e940       __ehhandler$??$_Insert@V?$_Const_iterator@$00@?$list@U?$pair@$$CBGPAUsGAME_AGENT_INFO@@@std@@V?$CustomAllocator@U?$pair@$$CBGPAUsGAME_AGENT_INFO@@@std@@@util@@@std@@@?$list@U?$pair@$$CBGPAUsGAME_AGENT_INFO@@@std@@V?$CustomAllocator@U?$pair@$$CBGPAUsGAME_AGENT_INFO@@@std@@@util@@@std@@QAEXV?$_Const_iterator@$00@01@00Uforward_iterator_tag@1@@Z 0042f940 f   GameAgentInfoList.obj
 0001:0002e940       __ehhandler$??$_Insert@V?$_Const_iterator@$00@?$list@U?$pair@$$CBKPAVGameAgentServerSession@@@std@@V?$CustomAllocator@U?$pair@$$CBKPAVGameAgentServerSession@@@std@@@util@@@std@@@?$list@U?$pair@$$CBKPAVGameAgentServerSession@@@std@@V?$CustomAllocator@U?$pair@$$CBKPAVGameAgentServerSession@@@std@@@util@@@std@@QAEXV?$_Const_iterator@$00@01@00Uforward_iterator_tag@1@@Z 0042f940 f   GameAgentInfoList.obj
 0001:0002e960       __ehhandler$??$_Uninit_fill_n@PAU_List_position@?$_Hash@V?$_Hmap_traits@GPAUsGAME_AGENT_INFO@@V?$hash_compare@GU?$less@G@std@@@stdext@@V?$CustomAllocator@PAUsGAME_AGENT_INFO@@@util@@$0A@@stdext@@@stdext@@IU123@V?$CustomAllocator@U_List_position@?$_Hash@V?$_Hmap_traits@GPAUsGAME_AGENT_INFO@@V?$hash_compare@GU?$less@G@std@@@stdext@@V?$CustomAllocator@PAUsGAME_AGENT_INFO@@@util@@$0A@@stdext@@@stdext@@@util@@@std@@YAXPAU_List_position@?$_Hash@V?$_Hmap_traits@GPAUsGAME_AGENT_INFO@@V?$hash_compare@GU?$less@G@std@@@stdext@@V?$CustomAllocator@PAUsGAME_AGENT_INFO@@@util@@$0A@@stdext@@@stdext@@IABU123@AAV?$CustomAllocator@U_List_position@?$_Hash@V?$_Hmap_traits@GPAUsGAME_AGENT_INFO@@V?$hash_compare@GU?$less@G@std@@@stdext@@V?$CustomAllocator@PAUsGAME_AGENT_INFO@@@util@@$0A@@stdext@@@stdext@@@util@@U_Nonscalar_ptr_iterator_tag@0@U_Range_checked_iterator_tag@0@@Z 0042f960 f   GameAgentInfoList.obj
 0001:0002e960       __ehhandler$??$_Uninit_fill_n@PAU_List_position@?$_Hash@V?$_Hmap_traits@KPAVGameAgentServerSession@@V?$hash_compare@KU?$less@K@std@@@stdext@@V?$CustomAllocator@PAVGameAgentServerSession@@@util@@$0A@@stdext@@@stdext@@IU123@V?$CustomAllocator@U_List_position@?$_Hash@V?$_Hmap_traits@KPAVGameAgentServerSession@@V?$hash_compare@KU?$less@K@std@@@stdext@@V?$CustomAllocator@PAVGameAgentServerSession@@@util@@$0A@@stdext@@@stdext@@@util@@@std@@YAXPAU_List_position@?$_Hash@V?$_Hmap_traits@KPAVGameAgentServerSession@@V?$hash_compare@KU?$less@K@std@@@stdext@@V?$CustomAllocator@PAVGameAgentServerSession@@@util@@$0A@@stdext@@@stdext@@IABU123@AAV?$CustomAllocator@U_List_position@?$_Hash@V?$_Hmap_traits@KPAVGameAgentServerSession@@V?$hash_compare@KU?$less@K@std@@@stdext@@V?$CustomAllocator@PAVGameAgentServerSession@@@util@@$0A@@stdext@@@stdext@@@util@@U_Nonscalar_ptr_iterator_tag@0@U_Range_checked_iterator_tag@0@@Z 0042f960 f   GameAgentInfoList.obj
 0001:0002e980       __ehhandler$??$_Uninit_copy@PAU_List_position@?$_Hash@V?$_Hmap_traits@GPAUsGAME_AGENT_INFO@@V?$hash_compare@GU?$less@G@std@@@stdext@@V?$CustomAllocator@PAUsGAME_AGENT_INFO@@@util@@$0A@@stdext@@@stdext@@PAU123@V?$CustomAllocator@U_List_position@?$_Hash@V?$_Hmap_traits@GPAUsGAME_AGENT_INFO@@V?$hash_compare@GU?$less@G@std@@@stdext@@V?$CustomAllocator@PAUsGAME_AGENT_INFO@@@util@@$0A@@stdext@@@stdext@@@util@@@std@@YAPAU_List_position@?$_Hash@V?$_Hmap_traits@GPAUsGAME_AGENT_INFO@@V?$hash_compare@GU?$less@G@std@@@stdext@@V?$CustomAllocator@PAUsGAME_AGENT_INFO@@@util@@$0A@@stdext@@@stdext@@PAU123@00AAV?$CustomAllocator@U_List_position@?$_Hash@V?$_Hmap_traits@GPAUsGAME_AGENT_INFO@@V?$hash_compare@GU?$less@G@std@@@stdext@@V?$CustomAllocator@PAUsGAME_AGENT_INFO@@@util@@$0A@@stdext@@@stdext@@@util@@U_Nonscalar_ptr_iterator_tag@0@U_Range_checked_iterator_tag@0@@Z 0042f980 f   GameAgentInfoList.obj
 0001:0002e980       __ehhandler$??$_Uninit_copy@PAU_List_position@?$_Hash@V?$_Hmap_traits@KPAVGameAgentServerSession@@V?$hash_compare@KU?$less@K@std@@@stdext@@V?$CustomAllocator@PAVGameAgentServerSession@@@util@@$0A@@stdext@@@stdext@@PAU123@V?$CustomAllocator@U_List_position@?$_Hash@V?$_Hmap_traits@KPAVGameAgentServerSession@@V?$hash_compare@KU?$less@K@std@@@stdext@@V?$CustomAllocator@PAVGameAgentServerSession@@@util@@$0A@@stdext@@@stdext@@@util@@@std@@YAPAU_List_position@?$_Hash@V?$_Hmap_traits@KPAVGameAgentServerSession@@V?$hash_compare@KU?$less@K@std@@@stdext@@V?$CustomAllocator@PAVGameAgentServerSession@@@util@@$0A@@stdext@@@stdext@@PAU123@00AAV?$CustomAllocator@U_List_position@?$_Hash@V?$_Hmap_traits@KPAVGameAgentServerSession@@V?$hash_compare@KU?$less@K@std@@@stdext@@V?$CustomAllocator@PAVGameAgentServerSession@@@util@@$0A@@stdext@@@stdext@@@util@@U_Nonscalar_ptr_iterator_tag@0@U_Range_checked_iterator_tag@0@@Z 0042f980 f   GameAgentInfoList.obj
 0001:0002e9a0       __ehhandler$?_Copy@?$basic_string@DU?$char_traits@D@std@@V?$allocator@D@2@@std@@IAEXII@Z 0042f9a0 f   GameAgentInfoList.obj
 0001:0002e9c0       __unwindfunclet$??0GameAgentManager@@QAE@XZ$0 0042f9c0 f   GameAgentManager.obj
 0001:0002e9c8       __ehhandler$??0GameAgentManager@@QAE@XZ 0042f9c8 f   GameAgentManager.obj
 0001:0002e9e3       __unwindfunclet$??1GameAgentManager@@QAE@XZ$0 0042f9e3 f   GameAgentManager.obj
 0001:0002e9eb       __ehhandler$??1GameAgentManager@@QAE@XZ 0042f9eb f   GameAgentManager.obj
 0001:0002ea10       __unwindfunclet$?_Xlen@?$vector@U_List_position@?$_Hash@V?$_Hmap_traits@KPAVServerSession@@V?$hash_compare@KU?$less@K@std@@@stdext@@V?$CustomAllocator@PAVServerSession@@@util@@$0A@@stdext@@@stdext@@V?$CustomAllocator@U_List_position@?$_Hash@V?$_Hmap_traits@KPAVServerSession@@V?$hash_compare@KU?$less@K@std@@@stdext@@V?$CustomAllocator@PAVServerSession@@@util@@$0A@@stdext@@@stdext@@@util@@@std@@KAXXZ$0 0042fa10 f   servercommon:ServerFrame.obj
 0001:0002ea18       __ehhandler$?_Xlen@?$vector@U_List_position@?$_Hash@V?$_Hmap_traits@KPAVServerSession@@V?$hash_compare@KU?$less@K@std@@@stdext@@V?$CustomAllocator@PAVServerSession@@@util@@$0A@@stdext@@@stdext@@V?$CustomAllocator@U_List_position@?$_Hash@V?$_Hmap_traits@KPAVServerSession@@V?$hash_compare@KU?$less@K@std@@@stdext@@V?$CustomAllocator@PAVServerSession@@@util@@$0A@@stdext@@@stdext@@@util@@@std@@KAXXZ 0042fa18 f   servercommon:ServerFrame.obj
 0001:0002ea40       __unwindfunclet$??1ServerFrame@@UAE@XZ$0 0042fa40 f   servercommon:ServerFrame.obj
 0001:0002ea4e       __unwindfunclet$??1ServerFrame@@UAE@XZ$1 0042fa4e f   servercommon:ServerFrame.obj
 0001:0002ea5c       __ehhandler$??1ServerFrame@@UAE@XZ 0042fa5c f   servercommon:ServerFrame.obj
 0001:0002ea77       __unwindfunclet$??0ServerFrame@@QAE@XZ$0 0042fa77 f   servercommon:ServerFrame.obj
 0001:0002ea85       __unwindfunclet$??0ServerFrame@@QAE@XZ$1 0042fa85 f   servercommon:ServerFrame.obj
 0001:0002ea93       __unwindfunclet$??0ServerFrame@@QAE@XZ$2 0042fa93 f   servercommon:ServerFrame.obj
 0001:0002eaa1       __ehhandler$??0ServerFrame@@QAE@XZ 0042faa1 f   servercommon:ServerFrame.obj
 0001:0002eabc       __unwindfunclet$?DoInit@ServerFrame@@QAEHPBDP6APAVNetworkObject@@XZP6AXPAV2@@Z3133@Z$0 0042fabc f   servercommon:ServerFrame.obj
 0001:0002eac7       __ehhandler$?DoInit@ServerFrame@@QAEHPBDP6APAVNetworkObject@@XZP6AXPAV2@@Z3133@Z 0042fac7 f   servercommon:ServerFrame.obj
 0001:0002eaf0       __ehhandler$?_Insert_n@?$vector@U_List_position@?$_Hash@V?$_Hmap_traits@KPAVServerSession@@V?$hash_compare@KU?$less@K@std@@@stdext@@V?$CustomAllocator@PAVServerSession@@@util@@$0A@@stdext@@@stdext@@V?$CustomAllocator@U_List_position@?$_Hash@V?$_Hmap_traits@KPAVServerSession@@V?$hash_compare@KU?$less@K@std@@@stdext@@V?$CustomAllocator@PAVServerSession@@@util@@$0A@@stdext@@@stdext@@@util@@@std@@IAEXV?$_Vector_const_iterator@U_List_position@?$_Hash@V?$_Hmap_traits@KPAVServerSession@@V?$hash_compare@KU?$less@K@std@@@stdext@@V?$CustomAllocator@PAVServerSession@@@util@@$0A@@stdext@@@stdext@@V?$CustomAllocator@U_List_position@?$_Hash@V?$_Hmap_traits@KPAVServerSession@@V?$hash_compare@KU?$less@K@std@@@stdext@@V?$CustomAllocator@PAVServerSession@@@util@@$0A@@stdext@@@stdext@@@util@@@2@IABU_List_position@?$_Hash@V?$_Hmap_traits@KPAVServerSession@@V?$hash_compare@KU?$less@K@std@@@stdext@@V?$CustomAllocator@PAVServerSession@@@util@@$0A@@stdext@@@stdext@@@Z 0042faf0 f   servercommon:ServerFrame.obj
 0001:0002eb10       __unwindfunclet$??0?$_Tree@V?$_Tmap_traits@KPAVIoHandler@@U?$less@K@std@@V?$RedirectedAllocator@PAVIoHandler@@@module@@$0A@@std@@@std@@QAE@ABU?$less@K@1@ABV?$RedirectedAllocator@U?$pair@$$CBKPAVIoHandler@@@std@@@module@@@Z$0 0042fb10 f   servercommon:ServerFrame.obj
 0001:0002eb10       __unwindfunclet$??0?$vector@U_List_position@?$_Hash@V?$_Hmap_traits@KPAVServerSession@@V?$hash_compare@KU?$less@K@std@@@stdext@@V?$CustomAllocator@PAVServerSession@@@util@@$0A@@stdext@@@stdext@@V?$CustomAllocator@U_List_position@?$_Hash@V?$_Hmap_traits@KPAVServerSession@@V?$hash_compare@KU?$less@K@std@@@stdext@@V?$CustomAllocator@PAVServerSession@@@util@@$0A@@stdext@@@stdext@@@util@@@std@@QAE@ABV?$CustomAllocator@U_List_position@?$_Hash@V?$_Hmap_traits@KPAVServerSession@@V?$hash_compare@KU?$less@K@std@@@stdext@@V?$CustomAllocator@PAVServerSession@@@util@@$0A@@stdext@@@stdext@@@util@@@Z$0 0042fb10 f   servercommon:ServerFrame.obj
 0001:0002eb10       __unwindfunclet$??0?$list@PAVSession@@V?$RedirectedAllocator@PAVSession@@@module@@@std@@QAE@XZ$0 0042fb10 f   servercommon:ServerFrame.obj
 0001:0002eb10       __unwindfunclet$??0?$list@U?$pair@$$CBKPAVServerSession@@@std@@V?$CustomAllocator@U?$pair@$$CBKPAVServerSession@@@std@@@util@@@std@@QAE@ABV?$CustomAllocator@U?$pair@$$CBKPAVServerSession@@@std@@@util@@@Z$0 0042fb10 f   servercommon:ServerFrame.obj
 0001:0002eb18       __ehhandler$??0?$_Tree@V?$_Tmap_traits@KPAVIoHandler@@U?$less@K@std@@V?$RedirectedAllocator@PAVIoHandler@@@module@@$0A@@std@@@std@@QAE@ABU?$less@K@1@ABV?$RedirectedAllocator@U?$pair@$$CBKPAVIoHandler@@@std@@@module@@@Z 0042fb18 f   servercommon:ServerFrame.obj
 0001:0002eb18       __ehhandler$??0?$list@U?$pair@$$CBKPAVServerSession@@@std@@V?$CustomAllocator@U?$pair@$$CBKPAVServerSession@@@std@@@util@@@std@@QAE@ABV?$CustomAllocator@U?$pair@$$CBKPAVServerSession@@@std@@@util@@@Z 0042fb18 f   servercommon:ServerFrame.obj
 0001:0002eb18       __ehhandler$??0?$vector@U_List_position@?$_Hash@V?$_Hmap_traits@KPAVServerSession@@V?$hash_compare@KU?$less@K@std@@@stdext@@V?$CustomAllocator@PAVServerSession@@@util@@$0A@@stdext@@@stdext@@V?$CustomAllocator@U_List_position@?$_Hash@V?$_Hmap_traits@KPAVServerSession@@V?$hash_compare@KU?$less@K@std@@@stdext@@V?$CustomAllocator@PAVServerSession@@@util@@$0A@@stdext@@@stdext@@@util@@@std@@QAE@ABV?$CustomAllocator@U_List_position@?$_Hash@V?$_Hmap_traits@KPAVServerSession@@V?$hash_compare@KU?$less@K@std@@@stdext@@V?$CustomAllocator@PAVServerSession@@@util@@$0A@@stdext@@@stdext@@@util@@@Z 0042fb18 f   servercommon:ServerFrame.obj
 0001:0002eb18       __ehhandler$??0?$list@PAVSession@@V?$RedirectedAllocator@PAVSession@@@module@@@std@@QAE@XZ 0042fb18 f   servercommon:ServerFrame.obj
 0001:0002eb40       __unwindfunclet$??0?$_Hash@V?$_Hmap_traits@KPAVServerSession@@V?$hash_compare@KU?$less@K@std@@@stdext@@V?$CustomAllocator@PAVServerSession@@@util@@$0A@@stdext@@@stdext@@QAE@ABV?$hash_compare@KU?$less@K@std@@@1@ABV?$CustomAllocator@U?$pair@$$CBKPAVServerSession@@@std@@@util@@@Z$0 0042fb40 f   servercommon:ServerFrame.obj
 0001:0002eb4b       __unwindfunclet$??0?$_Hash@V?$_Hmap_traits@KPAVServerSession@@V?$hash_compare@KU?$less@K@std@@@stdext@@V?$CustomAllocator@PAVServerSession@@@util@@$0A@@stdext@@@stdext@@QAE@ABV?$hash_compare@KU?$less@K@std@@@1@ABV?$CustomAllocator@U?$pair@$$CBKPAVServerSession@@@std@@@util@@@Z$1 0042fb4b f   servercommon:ServerFrame.obj
 0001:0002eb56       __ehhandler$??0?$_Hash@V?$_Hmap_traits@KPAVServerSession@@V?$hash_compare@KU?$less@K@std@@@stdext@@V?$CustomAllocator@PAVServerSession@@@util@@$0A@@stdext@@@stdext@@QAE@ABV?$hash_compare@KU?$less@K@std@@@1@ABV?$CustomAllocator@U?$pair@$$CBKPAVServerSession@@@std@@@util@@@Z 0042fb56 f   servercommon:ServerFrame.obj
 0001:0002eb80       __unwindfunclet$?Init@CSunLog@@UAEHEEPBD0H@Z$0 0042fb80 f   servercommon:SunLog.obj
 0001:0002eb8b       __ehhandler$?Init@CSunLog@@UAEHEEPBD0H@Z 0042fb8b f   servercommon:SunLog.obj
 0001:0002eba6       __unwindfunclet$?_Xran@_String_base@std@@SAXXZ$0 0042fba6 f   libcpmt:string.obj
 0001:0002eba6       __unwindfunclet$?_Xlen@_String_base@std@@SAXXZ$0 0042fba6 f   libcpmt:string.obj
 0001:0002ebae       __ehhandler$?_Xlen@_String_base@std@@SAXXZ 0042fbae f   libcpmt:string.obj
 0001:0002ebae       __ehhandler$?_Xran@_String_base@std@@SAXXZ 0042fbae f   libcpmt:string.obj
 0001:0002ebd0       __unwindfunclet$?system_category@system@boost@@YAABVerror_category@12@XZ$0 0042fbd0 f   libboost_system-vc90-mt-s-1_60:error_code.obj
 0001:0002ebde       __ehhandler$?system_category@system@boost@@YAABVerror_category@12@XZ 0042fbde f   libboost_system-vc90-mt-s-1_60:error_code.obj
 0001:0002ec00       __unwindfunclet$?generic_category@system@boost@@YAABVerror_category@12@XZ$0 0042fc00 f   libboost_system-vc90-mt-s-1_60:error_code.obj
 0001:0002ec0e       __ehhandler$?generic_category@system@boost@@YAABVerror_category@12@XZ 0042fc0e f   libboost_system-vc90-mt-s-1_60:error_code.obj
 0001:0002ec30       __unwindfunclet$?message@generic_error_category@?A0xa00a0bbd@system@boost@@UBE?AV?$basic_string@DU?$char_traits@D@std@@V?$allocator@D@2@@std@@H@Z$0 0042fc30 f   libboost_system-vc90-mt-s-1_60:error_code.obj
 0001:0002ec3e       __unwindfunclet$?message@generic_error_category@?A0xa00a0bbd@system@boost@@UBE?AV?$basic_string@DU?$char_traits@D@std@@V?$allocator@D@2@@std@@H@Z$1 0042fc3e f   libboost_system-vc90-mt-s-1_60:error_code.obj
 0001:0002ec57       __unwindfunclet$?message@generic_error_category@?A0xa00a0bbd@system@boost@@UBE?AV?$basic_string@DU?$char_traits@D@std@@V?$allocator@D@2@@std@@H@Z$2 0042fc57 f   libboost_system-vc90-mt-s-1_60:error_code.obj
 0001:0002ec70       __ehhandler$?message@generic_error_category@?A0xa00a0bbd@system@boost@@UBE?AV?$basic_string@DU?$char_traits@D@std@@V?$allocator@D@2@@std@@H@Z 0042fc70 f   libboost_system-vc90-mt-s-1_60:error_code.obj
 0001:0002ec90       __unwindfunclet$?message@system_error_category@?A0xa00a0bbd@system@boost@@UBE?AV?$basic_string@DU?$char_traits@D@std@@V?$allocator@D@2@@std@@H@Z$0 0042fc90 f   libboost_system-vc90-mt-s-1_60:error_code.obj
 0001:0002ec98       __unwindfunclet$?message@system_error_category@?A0xa00a0bbd@system@boost@@UBE?AV?$basic_string@DU?$char_traits@D@std@@V?$allocator@D@2@@std@@H@Z$1 0042fc98 f   libboost_system-vc90-mt-s-1_60:error_code.obj
 0001:0002ecb1       __unwindfunclet$?message@system_error_category@?A0xa00a0bbd@system@boost@@UBE?AV?$basic_string@DU?$char_traits@D@std@@V?$allocator@D@2@@std@@H@Z$2 0042fcb1 f   libboost_system-vc90-mt-s-1_60:error_code.obj
 0001:0002ecb9       __ehhandler$?message@system_error_category@?A0xa00a0bbd@system@boost@@UBE?AV?$basic_string@DU?$char_traits@D@std@@V?$allocator@D@2@@std@@H@Z 0042fcb9 f   libboost_system-vc90-mt-s-1_60:error_code.obj
 0001:0002ecf0       $L56596                    0042fcf0 f   CrashHandler:SMTPClient.obj
 0001:0002ecfb       $L56597                    0042fcfb f   CrashHandler:SMTPClient.obj
 0001:0002ed06       __ehhandler$??0SMTPClient@@QAE@XZ 0042fd06 f   CrashHandler:SMTPClient.obj
 0001:0002ed10       __unwindfunclet$?_Insert@?$_Tree@V?$_Tmap_traits@KPAVIoHandler@@U?$less@K@std@@V?$RedirectedAllocator@PAVIoHandler@@@module@@$0A@@std@@@std@@IAE?AViterator@12@_NPAU_Node@?$_Tree_nod@V?$_Tmap_traits@KPAVIoHandler@@U?$less@K@std@@V?$RedirectedAllocator@PAVIoHandler@@@module@@$0A@@std@@@2@ABU?$pair@$$CBKPAVIoHandler@@@2@@Z$0 0042fd10 f   Network:IOCPServer.obj
 0001:0002ed18       __ehhandler$?_Insert@?$_Tree@V?$_Tmap_traits@KPAVIoHandler@@U?$less@K@std@@V?$RedirectedAllocator@PAVIoHandler@@@module@@$0A@@std@@@std@@IAE?AViterator@12@_NPAU_Node@?$_Tree_nod@V?$_Tmap_traits@KPAVIoHandler@@U?$less@K@std@@V?$RedirectedAllocator@PAVIoHandler@@@module@@$0A@@std@@@2@ABU?$pair@$$CBKPAVIoHandler@@@2@@Z 0042fd18 f   Network:IOCPServer.obj
 0001:0002ed40       __unwindfunclet$?erase@?$_Tree@V?$_Tmap_traits@KPAVIoHandler@@U?$less@K@std@@V?$RedirectedAllocator@PAVIoHandler@@@module@@$0A@@std@@@std@@QAE?AViterator@12@Vconst_iterator@12@@Z$0 0042fd40 f   Network:IOCPServer.obj
 0001:0002ed48       __ehhandler$?erase@?$_Tree@V?$_Tmap_traits@KPAVIoHandler@@U?$less@K@std@@V?$RedirectedAllocator@PAVIoHandler@@@module@@$0A@@std@@@std@@QAE?AViterator@12@Vconst_iterator@12@@Z 0042fd48 f   Network:IOCPServer.obj
 0001:0002ed70       __unwindfunclet$?CreateIoHandler@IOCPServer@@AAEXPAUtagIOHANDLER_DESC@@@Z$0 0042fd70 f   Network:IOCPServer.obj
 0001:0002ed7b       __ehhandler$?CreateIoHandler@IOCPServer@@AAEXPAUtagIOHANDLER_DESC@@@Z 0042fd7b f   Network:IOCPServer.obj
 0001:0002ed96       __unwindfunclet$??0IOCPServer@@QAE@XZ$0 0042fd96 f   Network:IOCPServer.obj
 0001:0002eda1       __ehhandler$??0IOCPServer@@QAE@XZ 0042fda1 f   Network:IOCPServer.obj
 0001:0002edc0       __unwindfunclet$??1?$_Tree@V?$_Tmap_traits@KPAVIoHandler@@U?$less@K@std@@V?$RedirectedAllocator@PAVIoHandler@@@module@@$0A@@std@@@std@@QAE@XZ$0 0042fdc0 f   Network:IOCPServer.obj
 0001:0002edc8       __ehhandler$??1?$_Tree@V?$_Tmap_traits@KPAVIoHandler@@U?$less@K@std@@V?$RedirectedAllocator@PAVIoHandler@@@module@@$0A@@std@@@std@@QAE@XZ 0042fdc8 f   Network:IOCPServer.obj
 0001:0002edf0       __unwindfunclet$?Allocate@?$TAllocator@VSendBuffer@@@module@@SAPAVSendBuffer@@XZ$0 0042fdf0 f   Network:Session.obj
 0001:0002edf0       __unwindfunclet$?Allocate@?$TAllocator@VRecvBuffer@@@module@@SAPAVRecvBuffer@@XZ$0 0042fdf0 f   Network:Session.obj
 0001:0002edf0       __unwindfunclet$?Allocate@?$TAllocator@VSessionList@@@module@@SAPAVSessionList@@XZ$0 0042fdf0 f   Network:Session.obj
 0001:0002ee01       __ehhandler$?Allocate@?$TAllocator@VSendBuffer@@@module@@SAPAVSendBuffer@@XZ 0042fe01 f   Network:Session.obj
 0001:0002ee01       __ehhandler$?Allocate@?$TAllocator@VSessionList@@@module@@SAPAVSessionList@@XZ 0042fe01 f   Network:Session.obj
 0001:0002ee01       __ehhandler$?Allocate@?$TAllocator@VRecvBuffer@@@module@@SAPAVRecvBuffer@@XZ 0042fe01 f   Network:Session.obj
 0001:0002ee20       __unwindfunclet$?Create@SendBuffer@@QAEXKK@Z$0 0042fe20 f   Network:SendBuffer.obj
 0001:0002ee31       __ehhandler$?Create@SendBuffer@@QAEXKK@Z 0042fe31 f   Network:SendBuffer.obj
 0001:0002ee4c       __unwindfunclet$?UsePendingBuffer@SendBuffer@@QAE_NK@Z$0 0042fe4c f   Network:SendBuffer.obj
 0001:0002ee54       __unwindfunclet$?UsePendingBuffer@SendBuffer@@QAE_NK@Z$1 0042fe54 f   Network:SendBuffer.obj
 0001:0002ee65       __ehhandler$?UsePendingBuffer@SendBuffer@@QAE_NK@Z 0042fe65 f   Network:SendBuffer.obj
 0001:0002ee80       __unwindfunclet$?PrepareSend@SendBuffer@@QAE_NQAURingBufferInfo@module@@@Z$0 0042fe80 f   Network:SendBuffer.obj
 0001:0002ee88       __ehhandler$?PrepareSend@SendBuffer@@QAE_NQAURingBufferInfo@module@@@Z 0042fe88 f   Network:SendBuffer.obj
 0001:0002eeb0       __unwindfunclet$?Create@RecvBuffer@@QAEXHK@Z$0 0042feb0 f   Network:RecvBuffer.obj
 0001:0002eec1       __ehhandler$?Create@RecvBuffer@@QAEXHK@Z 0042fec1 f   Network:RecvBuffer.obj
 0001:0002eedc       __unwindfunclet$?UseDualBuffer@RecvBuffer@@QAE_NK@Z$0 0042fedc f   Network:RecvBuffer.obj
 0001:0002eee4       __unwindfunclet$?UseDualBuffer@RecvBuffer@@QAE_NK@Z$1 0042fee4 f   Network:RecvBuffer.obj
 0001:0002eef5       __ehhandler$?UseDualBuffer@RecvBuffer@@QAE_NK@Z 0042fef5 f   Network:RecvBuffer.obj
 0001:0002ef10       __unwindfunclet$?PrepareRecv@RecvBuffer@@QAE_NQAURingBufferInfo@module@@@Z$0 0042ff10 f   Network:RecvBuffer.obj
 0001:0002ef18       __ehhandler$?PrepareRecv@RecvBuffer@@QAE_NQAURingBufferInfo@module@@@Z 0042ff18 f   Network:RecvBuffer.obj
 0001:0002ef40       __unwindfunclet$?Init@IoHandler@@QAEXPAVIOCPServer@@PAUtagIOHANDLER_DESC@@@Z$0 0042ff40 f   Network:IoHandler.obj
 0001:0002ef4b       __unwindfunclet$?Init@IoHandler@@QAEXPAVIOCPServer@@PAUtagIOHANDLER_DESC@@@Z$1 0042ff4b f   Network:IoHandler.obj
 0001:0002ef56       __unwindfunclet$?Init@IoHandler@@QAEXPAVIOCPServer@@PAUtagIOHANDLER_DESC@@@Z$2 0042ff56 f   Network:IoHandler.obj
 0001:0002ef61       __unwindfunclet$?Init@IoHandler@@QAEXPAVIOCPServer@@PAUtagIOHANDLER_DESC@@@Z$3 0042ff61 f   Network:IoHandler.obj
 0001:0002ef6c       __unwindfunclet$?Init@IoHandler@@QAEXPAVIOCPServer@@PAUtagIOHANDLER_DESC@@@Z$4 0042ff6c f   Network:IoHandler.obj
 0001:0002ef77       __unwindfunclet$?Init@IoHandler@@QAEXPAVIOCPServer@@PAUtagIOHANDLER_DESC@@@Z$5 0042ff77 f   Network:IoHandler.obj
 0001:0002ef82       __unwindfunclet$?Init@IoHandler@@QAEXPAVIOCPServer@@PAUtagIOHANDLER_DESC@@@Z$6 0042ff82 f   Network:IoHandler.obj
 0001:0002ef8d       __unwindfunclet$?Init@IoHandler@@QAEXPAVIOCPServer@@PAUtagIOHANDLER_DESC@@@Z$7 0042ff8d f   Network:IoHandler.obj
 0001:0002ef98       __unwindfunclet$?Init@IoHandler@@QAEXPAVIOCPServer@@PAUtagIOHANDLER_DESC@@@Z$8 0042ff98 f   Network:IoHandler.obj
 0001:0002efa3       __unwindfunclet$?Init@IoHandler@@QAEXPAVIOCPServer@@PAUtagIOHANDLER_DESC@@@Z$9 0042ffa3 f   Network:IoHandler.obj
 0001:0002efae       __ehhandler$?Init@IoHandler@@QAEXPAVIOCPServer@@PAUtagIOHANDLER_DESC@@@Z 0042ffae f   Network:IoHandler.obj
 0001:0002efd0       __unwindfunclet$?_Incsize@?$list@PAVSession@@V?$RedirectedAllocator@PAVSession@@@module@@@std@@IAEXI@Z$0 0042ffd0 f   Network:IoHandler.obj
 0001:0002efd0       __unwindfunclet$?_Incsize@?$list@U?$pair@$$CBKPAVServerSession@@@std@@V?$CustomAllocator@U?$pair@$$CBKPAVServerSession@@@std@@@util@@@std@@IAEXI@Z$0 0042ffd0 f   Network:IoHandler.obj
 0001:0002efd8       __ehhandler$?_Incsize@?$list@PAVSession@@V?$RedirectedAllocator@PAVSession@@@module@@@std@@IAEXI@Z 0042ffd8 f   Network:IoHandler.obj
 0001:0002efd8       __ehhandler$?_Incsize@?$list@U?$pair@$$CBKPAVServerSession@@@std@@V?$CustomAllocator@U?$pair@$$CBKPAVServerSession@@@std@@@util@@@std@@IAEXI@Z 0042ffd8 f   Network:IoHandler.obj
 0001:0002f000       __ehhandler$??$_Insert@V?$_Const_iterator@$00@?$list@PAVSession@@V?$RedirectedAllocator@PAVSession@@@module@@@std@@@?$list@PAVSession@@V?$RedirectedAllocator@PAVSession@@@module@@@std@@QAEXV?$_Const_iterator@$00@01@00Uforward_iterator_tag@1@@Z 00430000 f   Network:IoHandler.obj
 0001:0002f020       __unwindfunclet$?Create@SessionPool@@AAEXKKKKKKH@Z$0 00430020 f   Network:SessionPool.obj
 0001:0002f031       __ehhandler$?Create@SessionPool@@AAEXKKKKKKH@Z 00430031 f   Network:SessionPool.obj
 0001:0002f050       __unwindfunclet$?Init@Connector@@QAEXPAVIoHandler@@K@Z$0 00430050 f   Network:Connector.obj
 0001:0002f05b       __ehhandler$?Init@Connector@@QAEXPAVIoHandler@@K@Z 0043005b f   Network:Connector.obj
 0001:0002f080       __unwindfunclet$??1SessionList@@QAE@XZ$0 00430080 f   Network:SessionList.obj
 0001:0002f088       __ehhandler$??1SessionList@@QAE@XZ 00430088 f   Network:SessionList.obj
 0001:0002f0a3       __ehhandler$?CallUnexpected@@YAXPBU_s_ESTypeList@@@Z 004300a3 f   LIBCMT:frame.obj
 0001:0002f0be       __ehhandler$??2@YAPAXIABUnothrow_t@std@@@Z 004300be f   LIBCMT:newopnt.obj
 0001:0002f0e0       ??__Eposix_category@system@boost@@YAXXZ 004300e0 f   AuthAgentFrame.obj
 0001:0002f0f0       ??__Eerrno_ecat@system@boost@@YAXXZ 004300f0 f   AuthAgentFrame.obj
 0001:0002f100       ??__Enative_ecat@system@boost@@YAXXZ 00430100 f   AuthAgentFrame.obj
 0001:0002f110       ??__E_1@placeholders@boost@@YAXXZ 00430110 f   AuthAgentFrame.obj
 0001:0002f120       ??__E_2@placeholders@boost@@YAXXZ 00430120 f   AuthAgentFrame.obj
 0001:0002f130       ??__E_3@placeholders@boost@@YAXXZ 00430130 f   AuthAgentFrame.obj
 0001:0002f140       ??__E_4@placeholders@boost@@YAXXZ 00430140 f   AuthAgentFrame.obj
 0001:0002f150       ??__E_5@placeholders@boost@@YAXXZ 00430150 f   AuthAgentFrame.obj
 0001:0002f160       ??__E_6@placeholders@boost@@YAXXZ 00430160 f   AuthAgentFrame.obj
 0001:0002f170       ??__E_7@placeholders@boost@@YAXXZ 00430170 f   AuthAgentFrame.obj
 0001:0002f180       ??__E_8@placeholders@boost@@YAXXZ 00430180 f   AuthAgentFrame.obj
 0001:0002f190       ??__E_9@placeholders@boost@@YAXXZ 00430190 f   AuthAgentFrame.obj
 0001:0002f1a0       ??__Eposix_category@system@boost@@YAXXZ 004301a0 f   main.obj
 0001:0002f1b0       ??__Eerrno_ecat@system@boost@@YAXXZ 004301b0 f   main.obj
 0001:0002f1c0       ??__Enative_ecat@system@boost@@YAXXZ 004301c0 f   main.obj
 0001:0002f1d0       ??__E_1@placeholders@boost@@YAXXZ 004301d0 f   main.obj
 0001:0002f1e0       ??__E_2@placeholders@boost@@YAXXZ 004301e0 f   main.obj
 0001:0002f1f0       ??__E_3@placeholders@boost@@YAXXZ 004301f0 f   main.obj
 0001:0002f200       ??__E_4@placeholders@boost@@YAXXZ 00430200 f   main.obj
 0001:0002f210       ??__E_5@placeholders@boost@@YAXXZ 00430210 f   main.obj
 0001:0002f220       ??__E_6@placeholders@boost@@YAXXZ 00430220 f   main.obj
 0001:0002f230       ??__E_7@placeholders@boost@@YAXXZ 00430230 f   main.obj
 0001:0002f240       ??__E_8@placeholders@boost@@YAXXZ 00430240 f   main.obj
 0001:0002f250       ??__E_9@placeholders@boost@@YAXXZ 00430250 f   main.obj
 0001:0002f260       ??__Eg_Console@@YAXXZ      00430260 f   main.obj
 0001:0002f280       ??__Eposix_category@system@boost@@YAXXZ 00430280 f   stdafx.obj
 0001:0002f290       ??__Eerrno_ecat@system@boost@@YAXXZ 00430290 f   stdafx.obj
 0001:0002f2a0       ??__Enative_ecat@system@boost@@YAXXZ 004302a0 f   stdafx.obj
 0001:0002f2b0       ??__E_1@placeholders@boost@@YAXXZ 004302b0 f   stdafx.obj
 0001:0002f2c0       ??__E_2@placeholders@boost@@YAXXZ 004302c0 f   stdafx.obj
 0001:0002f2d0       ??__E_3@placeholders@boost@@YAXXZ 004302d0 f   stdafx.obj
 0001:0002f2e0       ??__E_4@placeholders@boost@@YAXXZ 004302e0 f   stdafx.obj
 0001:0002f2f0       ??__E_5@placeholders@boost@@YAXXZ 004302f0 f   stdafx.obj
 0001:0002f300       ??__E_6@placeholders@boost@@YAXXZ 00430300 f   stdafx.obj
 0001:0002f310       ??__E_7@placeholders@boost@@YAXXZ 00430310 f   stdafx.obj
 0001:0002f320       ??__E_8@placeholders@boost@@YAXXZ 00430320 f   stdafx.obj
 0001:0002f330       ??__E_9@placeholders@boost@@YAXXZ 00430330 f   stdafx.obj
 0001:0002f340       ??__Eposix_category@system@boost@@YAXXZ 00430340 f   AuthServerSession.obj
 0001:0002f350       ??__Eerrno_ecat@system@boost@@YAXXZ 00430350 f   AuthServerSession.obj
 0001:0002f360       ??__Enative_ecat@system@boost@@YAXXZ 00430360 f   AuthServerSession.obj
 0001:0002f370       ??__E_1@placeholders@boost@@YAXXZ 00430370 f   AuthServerSession.obj
 0001:0002f380       ??__E_2@placeholders@boost@@YAXXZ 00430380 f   AuthServerSession.obj
 0001:0002f390       ??__E_3@placeholders@boost@@YAXXZ 00430390 f   AuthServerSession.obj
 0001:0002f3a0       ??__E_4@placeholders@boost@@YAXXZ 004303a0 f   AuthServerSession.obj
 0001:0002f3b0       ??__E_5@placeholders@boost@@YAXXZ 004303b0 f   AuthServerSession.obj
 0001:0002f3c0       ??__E_6@placeholders@boost@@YAXXZ 004303c0 f   AuthServerSession.obj
 0001:0002f3d0       ??__E_7@placeholders@boost@@YAXXZ 004303d0 f   AuthServerSession.obj
 0001:0002f3e0       ??__E_8@placeholders@boost@@YAXXZ 004303e0 f   AuthServerSession.obj
 0001:0002f3f0       ??__E_9@placeholders@boost@@YAXXZ 004303f0 f   AuthServerSession.obj
 0001:0002f400       ??__Eposix_category@system@boost@@YAXXZ 00430400 f   GameAgentServerSession.obj
 0001:0002f410       ??__Eerrno_ecat@system@boost@@YAXXZ 00430410 f   GameAgentServerSession.obj
 0001:0002f420       ??__Enative_ecat@system@boost@@YAXXZ 00430420 f   GameAgentServerSession.obj
 0001:0002f430       ??__E_1@placeholders@boost@@YAXXZ 00430430 f   GameAgentServerSession.obj
 0001:0002f440       ??__E_2@placeholders@boost@@YAXXZ 00430440 f   GameAgentServerSession.obj
 0001:0002f450       ??__E_3@placeholders@boost@@YAXXZ 00430450 f   GameAgentServerSession.obj
 0001:0002f460       ??__E_4@placeholders@boost@@YAXXZ 00430460 f   GameAgentServerSession.obj
 0001:0002f470       ??__E_5@placeholders@boost@@YAXXZ 00430470 f   GameAgentServerSession.obj
 0001:0002f480       ??__E_6@placeholders@boost@@YAXXZ 00430480 f   GameAgentServerSession.obj
 0001:0002f490       ??__E_7@placeholders@boost@@YAXXZ 00430490 f   GameAgentServerSession.obj
 0001:0002f4a0       ??__E_8@placeholders@boost@@YAXXZ 004304a0 f   GameAgentServerSession.obj
 0001:0002f4b0       ??__E_9@placeholders@boost@@YAXXZ 004304b0 f   GameAgentServerSession.obj
 0001:0002f4c0       ??__Eposix_category@system@boost@@YAXXZ 004304c0 f   GameAgentInfoList.obj
 0001:0002f4d0       ??__Eerrno_ecat@system@boost@@YAXXZ 004304d0 f   GameAgentInfoList.obj
 0001:0002f4e0       ??__Enative_ecat@system@boost@@YAXXZ 004304e0 f   GameAgentInfoList.obj
 0001:0002f4f0       ??__E_1@placeholders@boost@@YAXXZ 004304f0 f   GameAgentInfoList.obj
 0001:0002f500       ??__E_2@placeholders@boost@@YAXXZ 00430500 f   GameAgentInfoList.obj
 0001:0002f510       ??__E_3@placeholders@boost@@YAXXZ 00430510 f   GameAgentInfoList.obj
 0001:0002f520       ??__E_4@placeholders@boost@@YAXXZ 00430520 f   GameAgentInfoList.obj
 0001:0002f530       ??__E_5@placeholders@boost@@YAXXZ 00430530 f   GameAgentInfoList.obj
 0001:0002f540       ??__E_6@placeholders@boost@@YAXXZ 00430540 f   GameAgentInfoList.obj
 0001:0002f550       ??__E_7@placeholders@boost@@YAXXZ 00430550 f   GameAgentInfoList.obj
 0001:0002f560       ??__E_8@placeholders@boost@@YAXXZ 00430560 f   GameAgentInfoList.obj
 0001:0002f570       ??__E_9@placeholders@boost@@YAXXZ 00430570 f   GameAgentInfoList.obj
 0001:0002f580       ??__Eposix_category@system@boost@@YAXXZ 00430580 f   GameAgentManager.obj
 0001:0002f590       ??__Eerrno_ecat@system@boost@@YAXXZ 00430590 f   GameAgentManager.obj
 0001:0002f5a0       ??__Enative_ecat@system@boost@@YAXXZ 004305a0 f   GameAgentManager.obj
 0001:0002f5b0       ??__E_1@placeholders@boost@@YAXXZ 004305b0 f   GameAgentManager.obj
 0001:0002f5c0       ??__E_2@placeholders@boost@@YAXXZ 004305c0 f   GameAgentManager.obj
 0001:0002f5d0       ??__E_3@placeholders@boost@@YAXXZ 004305d0 f   GameAgentManager.obj
 0001:0002f5e0       ??__E_4@placeholders@boost@@YAXXZ 004305e0 f   GameAgentManager.obj
 0001:0002f5f0       ??__E_5@placeholders@boost@@YAXXZ 004305f0 f   GameAgentManager.obj
 0001:0002f600       ??__E_6@placeholders@boost@@YAXXZ 00430600 f   GameAgentManager.obj
 0001:0002f610       ??__E_7@placeholders@boost@@YAXXZ 00430610 f   GameAgentManager.obj
 0001:0002f620       ??__E_8@placeholders@boost@@YAXXZ 00430620 f   GameAgentManager.obj
 0001:0002f630       ??__E_9@placeholders@boost@@YAXXZ 00430630 f   GameAgentManager.obj
 0001:0002f640       ??__Eg_sSUNLOG@@YAXXZ      00430640 f   servercommon:SunLog.obj
 0001:0002f690       ??__Einterchecker_main_thread_id_static@util@@YAXXZ 00430690 f   utility_s:SolarDateTime.obj
 0001:0002f69c       ??__Einitlocks@std@@YAXXZ  0043069c f   libcpmt:xlock.obj
 0001:0002f6c0       ??__Eposix_category@system@boost@@YAXXZ 004306c0 f   libboost_system-vc90-mt-s-1_60:error_code.obj
 0001:0002f6d0       ??__Eerrno_ecat@system@boost@@YAXXZ 004306d0 f   libboost_system-vc90-mt-s-1_60:error_code.obj
 0001:0002f6e0       ??__Enative_ecat@system@boost@@YAXXZ 004306e0 f   libboost_system-vc90-mt-s-1_60:error_code.obj
 0001:0002f6f0       ??__Ethrows@system@boost@@YAXXZ 004306f0 f   libboost_system-vc90-mt-s-1_60:error_code.obj
 0001:0002f700       ??__Fg_Console@@YAXXZ      00430700 f   main.obj
 0001:0002f710       ??__Fg_sSUNLOG@@YAXXZ      00430710 f   servercommon:SunLog.obj
 0001:0002f761       ??__Finitlocks@std@@YAXXZ  00430761 f   libcpmt:xlock.obj
 0001:0002f770       ??__Fsystem_category_const@?1??system_category@system@boost@@YAABVerror_category@12@XZ@YAXXZ 00430770 f   libboost_system-vc90-mt-s-1_60:error_code.obj
 0001:0002f780       ??__Fgeneric_category_const@?1??generic_category@system@boost@@YAABVerror_category@12@XZ@YAXXZ 00430780 f   libboost_system-vc90-mt-s-1_60:error_code.obj
 0001:0002f790       ??__Funknown_err@?1??message@generic_error_category@?A0xa00a0bbd@system@boost@@UBE?AV?$basic_string@DU?$char_traits@D@std@@V?$allocator@D@2@@std@@H@Z@YAXXZ 00430790 f   libboost_system-vc90-mt-s-1_60:error_code.obj
 0001:0002f7be       ??__Fnomem@?5???2@YAPAXI@Z@YAXXZ 004307be f   LIBCMT:new.obj
