 AuthServer

 Timestamp is 6160c96f (Sat Oct 09 07:42:55 2021)

 Preferred load address is 00400000

 Start         Length     Name                   Class
 0001:00000000 00076eafH .text                   CODE
 0001:00076eb0 000036c3H .text$x                 CODE
 0001:0007a580 0000020cH .text$yc                CODE
 0001:0007a790 00000190H .text$yd                CODE
 0002:00000000 000002f0H .idata$5                DATA
 0002:000002f0 00000004H .CRT$XCA                DATA
 0002:000002f4 0000000cH .CRT$XCC                DATA
 0002:00000300 00000060H .CRT$XCU                DATA
 0002:00000360 00000004H .CRT$XCZ                DATA
 0002:00000364 00000004H .CRT$XIA                DATA
 0002:00000368 00000010H .CRT$XIC                DATA
 0002:00000378 00000004H .CRT$XIY                DATA
 0002:0000037c 00000004H .CRT$XIZ                DATA
 0002:00000380 00000004H .CRT$XPA                DATA
 0002:00000384 00000004H .CRT$XPX                DATA
 0002:00000388 00000004H .CRT$XPXA               DATA
 0002:0000038c 00000004H .CRT$XPZ                DATA
 0002:00000390 00000004H .CRT$XTA                DATA
 0002:00000394 00000004H .CRT$XTZ                DATA
 0002:000003a0 0000dfb8H .rdata                  DATA
 0002:0000e358 00000051H .rdata$debug            DATA
 0002:0000e3ac 00003f74H .rdata$r                DATA
 0002:00012320 00000438H .rdata$sxdata           DATA
 0002:00012758 00000004H .rtc$IAA                DATA
 0002:0001275c 00000004H .rtc$IZZ                DATA
 0002:00012760 00000004H .rtc$TAA                DATA
 0002:00012764 00000004H .rtc$TZZ                DATA
 0002:00012768 00004a48H .xdata$x                DATA
 0002:000171b0 00000000H ATL$__a                 DATA
 0002:000171b0 00000000H ATL$__z                 DATA
 0002:000171b0 00000078H .idata$2                DATA
 0002:00017228 00000014H .idata$3                DATA
 0002:0001723c 000002f0H .idata$4                DATA
 0002:0001752c 00000b66H .idata$6                DATA
 0002:00018092 00000000H .edata                  DATA
 0003:00000000 00004486H .data                   DATA
 0003:000044a0 000a9448H .bss                    DATA

  Address         Publics by Value              Rva+Base       Lib:Object

 0000:00000000       __except_list              00000000     <absolute>
 0000:0000010e       ___safe_se_handler_count   0000010e     <absolute>
 0000:00000000       ___ImageBase               00400000     <linker-defined>
 0001:00000000       ??1EventHandler@WBANetwork@@UAE@XZ 00401000 f i ClientStub_VS2008:ServerSession.obj
 0001:00000020       ??0EventHandler@WBANetwork@@IAE@XZ 00401020 f i ClientStub_VS2008:ServerSession.obj
 0001:00000040       ??_EEventHandler@WBANetwork@@UAEPAXI@Z 00401040 f i  CIL library: CIL module
 0001:00000040       ??_GEventHandler@WBANetwork@@UAEPAXI@Z 00401040 f i ClientStub_VS2008:ServerSession.obj
 0001:00000070       ?GetHandle@ServerSession@WBANetwork@@UAEPAVSocket@2@XZ 00401070 f i ClientStub_VS2008:ServerSession.obj
 0001:00000090       ?GetDBType@QueryUserStsChange@@UAE?AW4DB_TYPE@@XZ 00401090 f i QueryManager.obj
 0001:00000090       ?GetDBType@QueryRecoverLocation@@UAE?AW4DB_TYPE@@XZ 00401090 f i QueryManager.obj
 0001:00000090       ?GetDBType@QueryGspGetAccount@nsGSP@@UAE?AW4DB_TYPE@@XZ 00401090 f i Query_GSP.obj
 0001:00000090       ?GetPoolExtendSize@IMemoryPoolFactoryImpl@internal@util@@UBEHXZ 00401090 f i AuthFrame.obj
 0001:00000090       ?GetDBType@QueryAuthFailCount@@UAE?AW4DB_TYPE@@XZ 00401090 f i QueryManager.obj
 0001:00000090       ?GetDBType@QueryGspChangeUserState@nsGSP@@UAE?AW4DB_TYPE@@XZ 00401090 f i Query_GSP.obj
 0001:00000090       ?GetBufferSize@QueryObject@@EAEHXZ 00401090 f i Query_Auth.obj
 0001:00000090       ?GetDBType@QueryGspCheckAuthKey@nsGSP@@UAE?AW4DB_TYPE@@XZ 00401090 f i Query_GSP.obj
 0001:00000090       ?GetDBType@QuerySelectPCRoomIPList@@UAE?AW4DB_TYPE@@XZ 00401090 f i Query_Extra.obj
 0001:00000090       ?GetPoolBasicSize@IMemoryPoolFactoryImpl@internal@util@@UBEHXZ 00401090 f i AuthFrame.obj
 0001:00000090       ?GetBuffer@QueryObject@@EAEPADXZ 00401090 f i Query_Auth.obj
 0001:00000090       ?GetHandle@QueryObject@@EAEPAVSocket@eXtreme@@XZ 00401090 f i Query_Auth.obj
 0001:00000090       ?GetDBType@QueryGspGetAccountByGuid@nsGSP@@UAE?AW4DB_TYPE@@XZ 00401090 f i Query_GSP.obj
 0001:00000090       ?GetDBType@QueryUpdateTokenKey@@UAE?AW4DB_TYPE@@XZ 00401090 f i Query_Extra.obj
 0001:00000090       ?GetDBType@QueryUserId@@UAE?AW4DB_TYPE@@XZ 00401090 f i Query_Extra.obj
 0001:00000090       ?GetBufferSize@ServerSession@WBANetwork@@UAEHXZ 00401090 f i ClientStub_VS2008:ServerSession.obj
 0001:00000090       ?GetDBType@QueryAuth@@UAE?AW4DB_TYPE@@XZ 00401090 f i Query_Auth.obj
 0001:00000090       ?showmanyc@?$basic_streambuf@DU?$char_traits@D@std@@@std@@MAEHXZ 00401090 f i authcommon:csvlib.obj
 0001:00000090       ?GetDBType@QueryCheckPassword@@UAE?AW4DB_TYPE@@XZ 00401090 f i Query_Auth.obj
 0001:00000090       ?GetAvailableNumberOfTypes@IMemoryPoolFactoryImpl@internal@util@@UBEHXZ 00401090 f i AuthFrame.obj
 0001:00000090       ?sync@?$basic_streambuf@DU?$char_traits@D@std@@@std@@MAEHXZ 00401090 f i authcommon:csvlib.obj
 0001:00000090       ?GetNumberOfBands@IMemoryPoolFactoryImpl@internal@util@@UBEHXZ 00401090 f i AuthFrame.obj
 0001:00000090       ?GetBuffer@ServerSession@WBANetwork@@UAEPADXZ 00401090 f i ClientStub_VS2008:ServerSession.obj
 0001:000000a0       ?IsValidPacket@ServerSession@WBANetwork@@MAE_NPAEKPAK@Z 004010a0 f i ClientStub_VS2008:ServerSession.obj
 0001:000000d0       ?GetDataSize@Stream@WBANetwork@@QAEKXZ 004010d0 f i ClientStub_VS2008:ServerSession.obj
 0001:000000f0       ?GetBuffer@Stream@WBANetwork@@QAEPAEXZ 004010f0 f i ClientStub_VS2008:ServerSession.obj
 0001:00000110       ??_EServerSession@WBANetwork@@UAEPAXI@Z 00401110 f i  CIL library: CIL module
 0001:00000110       ??_GServerSession@WBANetwork@@UAEPAXI@Z 00401110 f i ClientStub_VS2008:ServerSession.obj
 0001:00000140       ??0?$CircuitQueue@E@WBANetwork@@QAE@XZ 00401140 f i ClientStub_VS2008:ServerSession.obj
 0001:000001a0       ??1?$CircuitQueue@E@WBANetwork@@UAE@XZ 004011a0 f i ClientStub_VS2008:ServerSession.obj
 0001:000001c0       ?Create@?$CircuitQueue@E@WBANetwork@@QAE_NK@Z 004011c0 f i ClientStub_VS2008:ServerSession.obj
 0001:00000230       ?Destroy@?$CircuitQueue@E@WBANetwork@@QAEXXZ 00401230 f i ClientStub_VS2008:ServerSession.obj
 0001:00000270       ?Clear@?$CircuitQueue@E@WBANetwork@@QAEXXZ 00401270 f i ClientStub_VS2008:ServerSession.obj
 0001:000002a0       ?GetRemainBufSize@?$CircuitQueue@E@WBANetwork@@QAEKXZ 004012a0 f i ClientStub_VS2008:ServerSession.obj
 0001:000002c0       ?rdstate@ios_base@std@@QBEHXZ 004012c0 f i authcommon:csvlib.obj
 0001:000002c0       ?GetDataSize@?$CircuitQueue@E@WBANetwork@@QAEKXZ 004012c0 f i ClientStub_VS2008:ServerSession.obj
 0001:000002e0       ?Enqueue@?$CircuitQueue@E@WBANetwork@@QAE_NPAEK@Z 004012e0 f i ClientStub_VS2008:ServerSession.obj
 0001:000003e0       ?Dequeue@?$CircuitQueue@E@WBANetwork@@QAE_NPAEK@Z 004013e0 f i ClientStub_VS2008:ServerSession.obj
 0001:00000440       ?Peek@?$CircuitQueue@E@WBANetwork@@QAE_NPAEK@Z 00401440 f i ClientStub_VS2008:ServerSession.obj
 0001:00000510       ?GetReadPtr@?$CircuitQueue@E@WBANetwork@@QAEPAEXZ 00401510 f i ClientStub_VS2008:ServerSession.obj
 0001:00000530       ?GetReadableSize@?$CircuitQueue@E@WBANetwork@@QAEKXZ 00401530 f i ClientStub_VS2008:ServerSession.obj
 0001:00000600       ?GetWritableSize@?$CircuitQueue@E@WBANetwork@@QAEKXZ 00401600 f i ClientStub_VS2008:ServerSession.obj
 0001:00000670       ??0?$Guard@VMutex@WBANetwork@@@WBANetwork@@QAE@AAVMutex@1@@Z 00401670 f i ClientStub_VS2008:ServerSession.obj
 0001:000006a0       ??1?$Guard@VMutex@WBANetwork@@@WBANetwork@@QAE@XZ 004016a0 f i ClientStub_VS2008:ServerSession.obj
 0001:000006c0       ??_G?$CircuitQueue@E@WBANetwork@@UAEPAXI@Z 004016c0 f i ClientStub_VS2008:ServerSession.obj
 0001:000006c0       ??_E?$CircuitQueue@E@WBANetwork@@UAEPAXI@Z 004016c0 f i  CIL library: CIL module
 0001:000006f0       ?StringCbPrintfA@@YAJPADIPBDZZ 004016f0 f i ClientStub_VS2008:ServerSession.obj
 0001:00000750       ??0MSG_CLIENT_LOGIN@BillingProtocol@@QAE@XZ 00401750 f i ClientStub_VS2008:BillEventHandler.obj
 0001:000007a0       ??0MSG_CLIENT_LOGOUT@BillingProtocol@@QAE@XZ 004017a0 f i ClientStub_VS2008:BillEventHandler.obj
 0001:000007d0       ??0MSG_CLIENT_INQUIRE_MULTIUSER@BillingProtocol@@QAE@XZ 004017d0 f i ClientStub_VS2008:BillEventHandler.obj
 0001:00000800       ??0MSG_CLIENT_INQUIRE_PERSON_DEDUCT@BillingProtocol@@QAE@XZ 00401800 f i ClientStub_VS2008:BillEventHandler.obj
 0001:00000830       ??0MSG_CLIENT_INQUIRE_PCROOM_DEDUCT@BillingProtocol@@QAE@XZ 00401830 f i ClientStub_VS2008:BillEventHandler.obj
 0001:00000870       ??_GCBillEventHandler@@UAEPAXI@Z 00401870 f i ClientStub_VS2008:BillEventHandler.obj
 0001:00000870       ??_ECBillEventHandler@@UAEPAXI@Z 00401870 f i  CIL library: CIL module
 0001:000008a0       ??0?$MSG_BASE@VMSG_CLIENT_LOGIN@BillingProtocol@@@BillingProtocol@@QAE@K@Z 004018a0 f i ClientStub_VS2008:BillEventHandler.obj
 0001:000008d0       ??0?$MSG_BASE@VMSG_CLIENT_LOGOUT@BillingProtocol@@@BillingProtocol@@QAE@K@Z 004018d0 f i ClientStub_VS2008:BillEventHandler.obj
 0001:00000900       ??0?$MSG_BASE@VMSG_CLIENT_INQUIRE_MULTIUSER@BillingProtocol@@@BillingProtocol@@QAE@K@Z 00401900 f i ClientStub_VS2008:BillEventHandler.obj
 0001:00000900       ??0?$MSG_BASE@VMSG_CLIENT_INQUIRE_PERSON_DEDUCT@BillingProtocol@@@BillingProtocol@@QAE@K@Z 00401900 f i ClientStub_VS2008:BillEventHandler.obj
 0001:00000930       ??0?$MSG_BASE@VMSG_CLIENT_INQUIRE_PCROOM_DEDUCT@BillingProtocol@@@BillingProtocol@@QAE@K@Z 00401930 f i ClientStub_VS2008:BillEventHandler.obj
 0001:00000960       ?StringCchVPrintfA@@YGJPADIPBD0@Z 00401960 f i ClientStub_VS2008:BillEventHandler.obj
 0001:000009b0       ??_GServerNetwork@WBANetwork@@UAEPAXI@Z 004019b0 f i ClientStub_VS2008:ServerNetwork.obj
 0001:000009b0       ??_EServerNetwork@WBANetwork@@UAEPAXI@Z 004019b0 f i  CIL library: CIL module
 0001:000009e0       ??_GCClientSession@@UAEPAXI@Z 004019e0 f i ClientStub_VS2008:ClientSession.obj
 0001:000009e0       ??_ECClientSession@@UAEPAXI@Z 004019e0 f i  CIL library: CIL module
 0001:00000a10       ?OnAccept@Acceptor@WBANetwork@@MAEXIAAUsockaddr_in@@@Z 00401a10 f i ClientStub_VS2008:Acceptor.obj
 0001:00000a10       ?OnConnect@ServerSession@WBANetwork@@MAEX_NK@Z 00401a10 f i ClientStub_VS2008:ServerSession.obj
 0001:00000a10       ?OnRedirect@BillingServerSession@@MAEXKQAUMSG_SERVER_TYPE@@@Z 00401a10 f i BillingServerSession.obj
 0001:00000a10       ?OnReceive@ServerSession@WBANetwork@@MAEXPAEH@Z 00401a10 f i ClientStub_VS2008:ServerSession.obj
 0001:00000a10       ?OnRedirect@IntegratedBillingServerSession@@EAEXKQAUMSG_SERVER_TYPE@@@Z 00401a10 f i IntegratedBillingServerSession.obj
 0001:00000a10       ?OnRedirect@RTTAServerSession@@MAEXKQAUMSG_SERVER_TYPE@@@Z 00401a10 f i RTTAServerSession.obj
 0001:00000a10       ?OnRecv@ServerSession@@MAEXPAEG@Z 00401a10 f i IntegratedBillingServerSession.obj
 0001:00000a20       ??_GAcceptor@WBANetwork@@UAEPAXI@Z 00401a20 f i ClientStub_VS2008:Acceptor.obj
 0001:00000a20       ??_EAcceptor@WBANetwork@@UAEPAXI@Z 00401a20 f i  CIL library: CIL module
 0001:00000a50       ??_GConnector@WBANetwork@@UAEPAXI@Z 00401a50 f i ClientStub_VS2008:Connector.obj
 0001:00000a50       ??_EConnector@WBANetwork@@UAEPAXI@Z 00401a50 f i  CIL library: CIL module
 0001:00000a80       ??1?$queue@PAU_tagConnectInfo@Connector@WBANetwork@@V?$deque@PAU_tagConnectInfo@Connector@WBANetwork@@V?$allocator@PAU_tagConnectInfo@Connector@WBANetwork@@@std@@@std@@@std@@QAE@XZ 00401a80 f i ClientStub_VS2008:Connector.obj
 0001:00000aa0       ??0?$queue@PAU_tagConnectInfo@Connector@WBANetwork@@V?$deque@PAU_tagConnectInfo@Connector@WBANetwork@@V?$allocator@PAU_tagConnectInfo@Connector@WBANetwork@@@std@@@std@@@std@@QAE@XZ 00401aa0 f i ClientStub_VS2008:Connector.obj
 0001:00000ac0       ?size@?$queue@PAU_tagConnectInfo@Connector@WBANetwork@@V?$deque@PAU_tagConnectInfo@Connector@WBANetwork@@V?$allocator@PAU_tagConnectInfo@Connector@WBANetwork@@@std@@@std@@@std@@QBEIXZ 00401ac0 f i ClientStub_VS2008:Connector.obj
 0001:00000ae0       ?front@?$queue@PAU_tagConnectInfo@Connector@WBANetwork@@V?$deque@PAU_tagConnectInfo@Connector@WBANetwork@@V?$allocator@PAU_tagConnectInfo@Connector@WBANetwork@@@std@@@std@@@std@@QAEAAPAU_tagConnectInfo@Connector@WBANetwork@@XZ 00401ae0 f i ClientStub_VS2008:Connector.obj
 0001:00000b00       ?push@?$queue@PAU_tagConnectInfo@Connector@WBANetwork@@V?$deque@PAU_tagConnectInfo@Connector@WBANetwork@@V?$allocator@PAU_tagConnectInfo@Connector@WBANetwork@@@std@@@std@@@std@@QAEXABQAU_tagConnectInfo@Connector@WBANetwork@@@Z 00401b00 f i ClientStub_VS2008:Connector.obj
 0001:00000b20       ?pop@?$queue@PAU_tagConnectInfo@Connector@WBANetwork@@V?$deque@PAU_tagConnectInfo@Connector@WBANetwork@@V?$allocator@PAU_tagConnectInfo@Connector@WBANetwork@@@std@@@std@@@std@@QAEXXZ 00401b20 f i ClientStub_VS2008:Connector.obj
 0001:00000b40       ??1?$deque@PAU_tagConnectInfo@Connector@WBANetwork@@V?$allocator@PAU_tagConnectInfo@Connector@WBANetwork@@@std@@@std@@QAE@XZ 00401b40 f i ClientStub_VS2008:Connector.obj
 0001:00000b60       ??0?$Pool@U_tagConnectInfo@Connector@WBANetwork@@@WBANetwork@@QAE@XZ 00401b60 f i ClientStub_VS2008:Connector.obj
 0001:00000b80       ??1?$Pool@U_tagConnectInfo@Connector@WBANetwork@@@WBANetwork@@QAE@XZ 00401b80 f i ClientStub_VS2008:Connector.obj
 0001:00000ba0       ?Create@?$Pool@U_tagConnectInfo@Connector@WBANetwork@@@WBANetwork@@QAE_NH@Z 00401ba0 f i ClientStub_VS2008:Connector.obj
 0001:00000c00       ?Destroy@?$Pool@U_tagConnectInfo@Connector@WBANetwork@@@WBANetwork@@QAEXXZ 00401c00 f i ClientStub_VS2008:Connector.obj
 0001:00000c50       ?IncSize@?$Pool@U_tagConnectInfo@Connector@WBANetwork@@@WBANetwork@@QAEXH@Z 00401c50 f i ClientStub_VS2008:Connector.obj
 0001:00000ca0       ?Pop@?$Pool@U_tagConnectInfo@Connector@WBANetwork@@@WBANetwork@@QAEPAU_tagConnectInfo@Connector@2@XZ 00401ca0 f i ClientStub_VS2008:Connector.obj
 0001:00000ce0       ?Push@?$Pool@U_tagConnectInfo@Connector@WBANetwork@@@WBANetwork@@QAEXPAU_tagConnectInfo@Connector@2@@Z 00401ce0 f i ClientStub_VS2008:Connector.obj
 0001:00000d00       ??1?$_Tree_nod@V?$_Tmap_traits@KPAVServerSession@WBANetwork@@U?$less@K@std@@V?$allocator@U?$pair@$$CBKPAVServerSession@WBANetwork@@@std@@@4@$0A@@std@@@std@@QAE@XZ 00401d00 f i ClientStub_VS2008:SessionManager.obj
 0001:00000d00       ??1?$_List_ptr@PAVServerSession@WBANetwork@@V?$allocator@PAVServerSession@WBANetwork@@@std@@@std@@QAE@XZ 00401d00 f i ClientStub_VS2008:SessionManager.obj
 0001:00000d00       ??1?$_Deque_val@PAU_tagConnectInfo@Connector@WBANetwork@@V?$allocator@PAU_tagConnectInfo@Connector@WBANetwork@@@std@@@std@@QAE@XZ 00401d00 f i ClientStub_VS2008:Connector.obj
 0001:00000d20       ??1?$_List_nod@PAVServerSession@WBANetwork@@V?$allocator@PAVServerSession@WBANetwork@@@std@@@std@@QAE@XZ 00401d20 f i ClientStub_VS2008:SessionManager.obj
 0001:00000d20       ??1?$_Deque_map@PAU_tagConnectInfo@Connector@WBANetwork@@V?$allocator@PAU_tagConnectInfo@Connector@WBANetwork@@@std@@@std@@QAE@XZ 00401d20 f i ClientStub_VS2008:Connector.obj
 0001:00000d20       ??1?$_Tmap_traits@KPAVServerSession@WBANetwork@@U?$less@K@std@@V?$allocator@U?$pair@$$CBKPAVServerSession@WBANetwork@@@std@@@4@$0A@@std@@QAE@XZ 00401d20 f i ClientStub_VS2008:SessionManager.obj
 0001:00000d40       ?empty@?$queue@PAU_tagConnectInfo@Connector@WBANetwork@@V?$deque@PAU_tagConnectInfo@Connector@WBANetwork@@V?$allocator@PAU_tagConnectInfo@Connector@WBANetwork@@@std@@@std@@@std@@QBE_NXZ 00401d40 f i ClientStub_VS2008:Connector.obj
 0001:00000d60       ??0?$deque@PAU_tagConnectInfo@Connector@WBANetwork@@V?$allocator@PAU_tagConnectInfo@Connector@WBANetwork@@@std@@@std@@QAE@XZ 00401d60 f i ClientStub_VS2008:Connector.obj
 0001:00000db0       ?front@?$deque@PAU_tagConnectInfo@Connector@WBANetwork@@V?$allocator@PAU_tagConnectInfo@Connector@WBANetwork@@@std@@@std@@QAEAAPAU_tagConnectInfo@Connector@WBANetwork@@XZ 00401db0 f i ClientStub_VS2008:Connector.obj
 0001:00000dd0       ?pop_front@?$deque@PAU_tagConnectInfo@Connector@WBANetwork@@V?$allocator@PAU_tagConnectInfo@Connector@WBANetwork@@@std@@@std@@QAEXXZ 00401dd0 f i ClientStub_VS2008:Connector.obj
 0001:00000e80       ?push_back@?$deque@PAU_tagConnectInfo@Connector@WBANetwork@@V?$allocator@PAU_tagConnectInfo@Connector@WBANetwork@@@std@@@std@@QAEXABQAU_tagConnectInfo@Connector@WBANetwork@@@Z 00401e80 f i ClientStub_VS2008:Connector.obj
 0001:00000f60       ?_Tidy@?$deque@PAU_tagConnectInfo@Connector@WBANetwork@@V?$allocator@PAU_tagConnectInfo@Connector@WBANetwork@@@std@@@std@@IAEXXZ 00401f60 f i ClientStub_VS2008:Connector.obj
 0001:00001020       ??1?$_Container_base_aux_alloc_real@V?$allocator@U?$pair@$$CBKPAVServerSession@WBANetwork@@@std@@@std@@@std@@IAE@XZ 00402020 f i ClientStub_VS2008:SessionManager.obj
 0001:00001020       ??1?$_Container_base_aux_alloc_real@V?$allocator@PAVServerSession@WBANetwork@@@std@@@std@@IAE@XZ 00402020 f i ClientStub_VS2008:SessionManager.obj
 0001:00001020       ??1?$_Container_base_aux_alloc_real@V?$allocator@PAU_tagConnectInfo@Connector@WBANetwork@@@std@@@std@@IAE@XZ 00402020 f i ClientStub_VS2008:Connector.obj
 0001:00001050       ?Size@?$Pool@U_tagConnectInfo@Connector@WBANetwork@@@WBANetwork@@QAEHXZ 00402050 f i ClientStub_VS2008:Connector.obj
 0001:00001070       ?begin@?$deque@PAU_tagConnectInfo@Connector@WBANetwork@@V?$allocator@PAU_tagConnectInfo@Connector@WBANetwork@@@std@@@std@@QAE?AV?$_Deque_iterator@PAU_tagConnectInfo@Connector@WBANetwork@@V?$allocator@PAU_tagConnectInfo@Connector@WBANetwork@@@std@@$00@2@XZ 00402070 f i ClientStub_VS2008:Connector.obj
 0001:000010a0       ?empty@?$deque@PAU_tagConnectInfo@Connector@WBANetwork@@V?$allocator@PAU_tagConnectInfo@Connector@WBANetwork@@@std@@@std@@QBE_NXZ 004020a0 f i ClientStub_VS2008:Connector.obj
 0001:000010c0       ?pop_back@?$deque@PAU_tagConnectInfo@Connector@WBANetwork@@V?$allocator@PAU_tagConnectInfo@Connector@WBANetwork@@@std@@@std@@QAEXXZ 004020c0 f i ClientStub_VS2008:Connector.obj
 0001:00001160       ?_Growmap@?$deque@PAU_tagConnectInfo@Connector@WBANetwork@@V?$allocator@PAU_tagConnectInfo@Connector@WBANetwork@@@std@@@std@@IAEXI@Z 00402160 f i ClientStub_VS2008:Connector.obj
 0001:00001390       ??0?$_Deque_val@PAU_tagConnectInfo@Connector@WBANetwork@@V?$allocator@PAU_tagConnectInfo@Connector@WBANetwork@@@std@@@std@@IAE@V?$allocator@PAU_tagConnectInfo@Connector@WBANetwork@@@1@@Z 00402390 f i ClientStub_VS2008:Connector.obj
 0001:00001390       ??0?$_List_ptr@PAVServerSession@WBANetwork@@V?$allocator@PAVServerSession@WBANetwork@@@std@@@std@@IAE@V?$allocator@PAVServerSession@WBANetwork@@@1@@Z 00402390 f i ClientStub_VS2008:SessionManager.obj
 0001:000013d0       ?construct@?$allocator@PAU_Node@?$_Tree_nod@V?$_Tmap_traits@V?$basic_string@DU?$char_traits@D@std@@V?$allocator@D@2@@std@@EU?$less@V?$basic_string@DU?$char_traits@D@std@@V?$allocator@D@2@@std@@@2@V?$allocator@U?$pair@$$CBV?$basic_string@DU?$char_traits@D@std@@V?$allocator@D@2@@std@@E@std@@@2@$0A@@std@@@std@@@std@@QAEXPAPAU_Node@?$_Tree_nod@V?$_Tmap_traits@V?$basic_string@DU?$char_traits@D@std@@V?$allocator@D@2@@std@@EU?$less@V?$basic_string@DU?$char_traits@D@std@@V?$allocator@D@2@@std@@@2@V?$allocator@U?$pair@$$CBV?$basic_string@DU?$char_traits@D@std@@V?$allocator@D@2@@std@@E@std@@@2@$0A@@std@@@2@ABQAU342@@Z 004023d0 f i authcommon:csvlib.obj
 0001:000013d0       ?construct@?$allocator@PAVServerSession@WBANetwork@@@std@@QAEXPAPAVServerSession@WBANetwork@@ABQAV34@@Z 004023d0 f i ClientStub_VS2008:SessionManager.obj
 0001:000013d0       ?construct@?$allocator@PAU_Node@?$_Tree_nod@V?$_Tmap_traits@KPAVServerSession@WBANetwork@@U?$less@K@std@@V?$allocator@U?$pair@$$CBKPAVServerSession@WBANetwork@@@std@@@4@$0A@@std@@@std@@@std@@QAEXPAPAU_Node@?$_Tree_nod@V?$_Tmap_traits@KPAVServerSession@WBANetwork@@U?$less@K@std@@V?$allocator@U?$pair@$$CBKPAVServerSession@WBANetwork@@@std@@@4@$0A@@std@@@2@ABQAU342@@Z 004023d0 f i ClientStub_VS2008:SessionManager.obj
 0001:000013d0       ?construct@?$allocator@PAU_tagConnectInfo@Connector@WBANetwork@@@std@@QAEXPAPAU_tagConnectInfo@Connector@WBANetwork@@ABQAU345@@Z 004023d0 f i ClientStub_VS2008:Connector.obj
 0001:000013d0       ?construct@?$allocator@PAU_Node@?$_List_nod@PAVServerSession@WBANetwork@@V?$allocator@PAVServerSession@WBANetwork@@@std@@@std@@@std@@QAEXPAPAU_Node@?$_List_nod@PAVServerSession@WBANetwork@@V?$allocator@PAVServerSession@WBANetwork@@@std@@@2@ABQAU342@@Z 004023d0 f i ClientStub_VS2008:SessionManager.obj
 0001:000013f0       ??D?$_Deque_iterator@PAU_tagConnectInfo@Connector@WBANetwork@@V?$allocator@PAU_tagConnectInfo@Connector@WBANetwork@@@std@@$00@std@@QBEAAPAU_tagConnectInfo@Connector@WBANetwork@@XZ 004023f0 f i ClientStub_VS2008:Connector.obj
 0001:00001410       ?max_size@?$deque@PAU_tagConnectInfo@Connector@WBANetwork@@V?$allocator@PAU_tagConnectInfo@Connector@WBANetwork@@@std@@@std@@QBEIXZ 00402410 f i ClientStub_VS2008:Connector.obj
 0001:00001430       ?_Xlen@?$deque@PAU_tagConnectInfo@Connector@WBANetwork@@V?$allocator@PAU_tagConnectInfo@Connector@WBANetwork@@@std@@@std@@KAXXZ 00402430 f i ClientStub_VS2008:Connector.obj
 0001:000014b0       ??0?$_Deque_map@PAU_tagConnectInfo@Connector@WBANetwork@@V?$allocator@PAU_tagConnectInfo@Connector@WBANetwork@@@std@@@std@@IAE@V?$allocator@PAU_tagConnectInfo@Connector@WBANetwork@@@1@@Z 004024b0 f i ClientStub_VS2008:Connector.obj
 0001:000014b0       ??0?$_List_nod@PAVServerSession@WBANetwork@@V?$allocator@PAVServerSession@WBANetwork@@@std@@@std@@IAE@V?$allocator@PAVServerSession@WBANetwork@@@1@@Z 004024b0 f i ClientStub_VS2008:SessionManager.obj
 0001:000014f0       ??0?$_Deque_iterator@PAU_tagConnectInfo@Connector@WBANetwork@@V?$allocator@PAU_tagConnectInfo@Connector@WBANetwork@@@std@@$00@std@@QAE@IPBV_Container_base_aux@1@@Z 004024f0 f i ClientStub_VS2008:Connector.obj
 0001:00001510       ??D?$_Deque_const_iterator@PAU_tagConnectInfo@Connector@WBANetwork@@V?$allocator@PAU_tagConnectInfo@Connector@WBANetwork@@@std@@$00@std@@QBEABQAU_tagConnectInfo@Connector@WBANetwork@@XZ 00402510 f i ClientStub_VS2008:Connector.obj
 0001:000015b0       ??0length_error@std@@QAE@ABV01@@Z 004025b0 f i ClientStub_VS2008:Connector.obj
 0001:000015e0       ??0?$_Container_base_aux_alloc_real@V?$allocator@PAU_tagConnectInfo@Connector@WBANetwork@@@std@@@std@@IAE@V?$allocator@PAU_tagConnectInfo@Connector@WBANetwork@@@1@@Z 004025e0 f i ClientStub_VS2008:Connector.obj
 0001:000015e0       ??0?$_Container_base_aux_alloc_real@V?$allocator@U?$pair@$$CBKPAVServerSession@WBANetwork@@@std@@@std@@@std@@IAE@V?$allocator@U?$pair@$$CBKPAVServerSession@WBANetwork@@@std@@@1@@Z 004025e0 f i ClientStub_VS2008:SessionManager.obj
 0001:000015e0       ??0?$_Container_base_aux_alloc_real@V?$allocator@PAVServerSession@WBANetwork@@@std@@@std@@IAE@V?$allocator@PAVServerSession@WBANetwork@@@1@@Z 004025e0 f i ClientStub_VS2008:SessionManager.obj
 0001:00001690       ?max_size@?$allocator@PAVServerSession@WBANetwork@@@std@@QBEIXZ 00402690 f i ClientStub_VS2008:SessionManager.obj
 0001:00001690       ?max_size@?$allocator@PAU_tagConnectInfo@Connector@WBANetwork@@@std@@QBEIXZ 00402690 f i ClientStub_VS2008:Connector.obj
 0001:000016c0       ??0?$_Deque_const_iterator@PAU_tagConnectInfo@Connector@WBANetwork@@V?$allocator@PAU_tagConnectInfo@Connector@WBANetwork@@@std@@$00@std@@QAE@IPBV_Container_base_aux@1@@Z 004026c0 f i ClientStub_VS2008:Connector.obj
 0001:00001730       ?allocate@?$allocator@V_Aux_cont@std@@@std@@QAEPAV_Aux_cont@2@I@Z 00402730 f i ClientStub_VS2008:Connector.obj
 0001:00001730       ?allocate@?$allocator@PAU_tagConnectInfo@Connector@WBANetwork@@@std@@QAEPAPAU_tagConnectInfo@Connector@WBANetwork@@I@Z 00402730 f i ClientStub_VS2008:Connector.obj
 0001:00001730       ?allocate@?$allocator@PAPAU_tagConnectInfo@Connector@WBANetwork@@@std@@QAEPAPAPAU_tagConnectInfo@Connector@WBANetwork@@I@Z 00402730 f i ClientStub_VS2008:Connector.obj
 0001:00001750       ??$unchecked_uninitialized_copy@PAPAPAU_tagConnectInfo@Connector@WBANetwork@@PAPAPAU123@V?$allocator@PAPAU_tagConnectInfo@Connector@WBANetwork@@@std@@@stdext@@YAPAPAPAU_tagConnectInfo@Connector@WBANetwork@@PAPAPAU123@00AAV?$allocator@PAPAU_tagConnectInfo@Connector@WBANetwork@@@std@@@Z 00402750 f i ClientStub_VS2008:Connector.obj
 0001:000017b0       ??$unchecked_uninitialized_fill_n@PAPAPAU_tagConnectInfo@Connector@WBANetwork@@IPAPAU123@V?$allocator@PAPAU_tagConnectInfo@Connector@WBANetwork@@@std@@@stdext@@YAXPAPAPAU_tagConnectInfo@Connector@WBANetwork@@IABQAPAU123@AAV?$allocator@PAPAU_tagConnectInfo@Connector@WBANetwork@@@std@@@Z 004027b0 f i ClientStub_VS2008:Connector.obj
 0001:00001800       ??$_Destroy_range@V?$allocator@PAPAU_tagConnectInfo@Connector@WBANetwork@@@std@@@std@@YAXPAPAPAU_tagConnectInfo@Connector@WBANetwork@@0AAV?$allocator@PAPAU_tagConnectInfo@Connector@WBANetwork@@@0@@Z 00402800 f i ClientStub_VS2008:Connector.obj
 0001:00001840       ??$_Construct@PAU_Node@?$_List_nod@PAVServerSession@WBANetwork@@V?$allocator@PAVServerSession@WBANetwork@@@std@@@std@@PAU123@@std@@YAXPAPAU_Node@?$_List_nod@PAVServerSession@WBANetwork@@V?$allocator@PAVServerSession@WBANetwork@@@std@@@0@ABQAU120@@Z 00402840 f i ClientStub_VS2008:SessionManager.obj
 0001:00001840       ??$_Construct@PAU_Node@?$_Tree_nod@V?$_Tmap_traits@KPAVServerSession@WBANetwork@@U?$less@K@std@@V?$allocator@U?$pair@$$CBKPAVServerSession@WBANetwork@@@std@@@4@$0A@@std@@@std@@PAU123@@std@@YAXPAPAU_Node@?$_Tree_nod@V?$_Tmap_traits@KPAVServerSession@WBANetwork@@U?$less@K@std@@V?$allocator@U?$pair@$$CBKPAVServerSession@WBANetwork@@@std@@@4@$0A@@std@@@0@ABQAU120@@Z 00402840 f i ClientStub_VS2008:SessionManager.obj
 0001:00001840       ??$_Construct@PAU_tagConnectInfo@Connector@WBANetwork@@PAU123@@std@@YAXPAPAU_tagConnectInfo@Connector@WBANetwork@@ABQAU123@@Z 00402840 f i ClientStub_VS2008:Connector.obj
 0001:00001840       ??$_Construct@PAU_Node@?$_Tree_nod@V?$_Tmap_traits@V?$basic_string@DU?$char_traits@D@std@@V?$allocator@D@2@@std@@EU?$less@V?$basic_string@DU?$char_traits@D@std@@V?$allocator@D@2@@std@@@2@V?$allocator@U?$pair@$$CBV?$basic_string@DU?$char_traits@D@std@@V?$allocator@D@2@@std@@E@std@@@2@$0A@@std@@@std@@PAU123@@std@@YAXPAPAU_Node@?$_Tree_nod@V?$_Tmap_traits@V?$basic_string@DU?$char_traits@D@std@@V?$allocator@D@2@@std@@EU?$less@V?$basic_string@DU?$char_traits@D@std@@V?$allocator@D@2@@std@@@2@V?$allocator@U?$pair@$$CBV?$basic_string@DU?$char_traits@D@std@@V?$allocator@D@2@@std@@E@std@@@2@$0A@@std@@@0@ABQAU120@@Z 00402840 f i authcommon:csvlib.obj
 0001:00001840       ??$_Construct@PAVServerSession@WBANetwork@@PAV12@@std@@YAXPAPAVServerSession@WBANetwork@@ABQAV12@@Z 00402840 f i ClientStub_VS2008:SessionManager.obj
 0001:00001880       ??$_Allocate@V_Aux_cont@std@@@std@@YAPAV_Aux_cont@0@IPAV10@@Z 00402880 f i ClientStub_VS2008:Connector.obj
 0001:00001880       ??$_Allocate@PAU_tagConnectInfo@Connector@WBANetwork@@@std@@YAPAPAU_tagConnectInfo@Connector@WBANetwork@@IPAPAU123@@Z 00402880 f i ClientStub_VS2008:Connector.obj
 0001:00001880       ??$_Allocate@PAPAU_tagConnectInfo@Connector@WBANetwork@@@std@@YAPAPAPAU_tagConnectInfo@Connector@WBANetwork@@IPAPAPAU123@@Z 00402880 f i ClientStub_VS2008:Connector.obj
 0001:000018d0       ??$_Checked_base@PAPAPAU_tagConnectInfo@Connector@WBANetwork@@@std@@YAPAPAPAU_tagConnectInfo@Connector@WBANetwork@@AAPAPAPAU123@@Z 004028d0 f i ClientStub_VS2008:Connector.obj
 0001:000018d0       ??$_Checked_base@PAV?$basic_string@DU?$char_traits@D@std@@V?$allocator@D@2@@std@@@std@@YAPAV?$basic_string@DU?$char_traits@D@std@@V?$allocator@D@2@@0@AAPAV10@@Z 004028d0 f i authcommon:csvlib.obj
 0001:000018f0       ??$_Uninit_copy@PAPAPAU_tagConnectInfo@Connector@WBANetwork@@PAPAPAU123@V?$allocator@PAPAU_tagConnectInfo@Connector@WBANetwork@@@std@@@std@@YAPAPAPAU_tagConnectInfo@Connector@WBANetwork@@PAPAPAU123@00AAV?$allocator@PAPAU_tagConnectInfo@Connector@WBANetwork@@@0@U_Scalar_ptr_iterator_tag@0@U_Range_checked_iterator_tag@0@@Z 004028f0 f i ClientStub_VS2008:Connector.obj
 0001:00001940       ??$_Uninit_fill_n@PAPAPAU_tagConnectInfo@Connector@WBANetwork@@IPAPAU123@V?$allocator@PAPAU_tagConnectInfo@Connector@WBANetwork@@@std@@@std@@YAXPAPAPAU_tagConnectInfo@Connector@WBANetwork@@IABQAPAU123@AAV?$allocator@PAPAU_tagConnectInfo@Connector@WBANetwork@@@0@U_Scalar_ptr_iterator_tag@0@U_Range_checked_iterator_tag@0@@Z 00402940 f i ClientStub_VS2008:Connector.obj
 0001:00001960       ??$_Checked_base@PAPAPAU_tagConnectInfo@Connector@WBANetwork@@@std@@YAPAPAPAU_tagConnectInfo@Connector@WBANetwork@@AAPAPAPAU123@U_Unchanged_checked_iterator_base_type_tag@0@@Z 00402960 f i ClientStub_VS2008:Connector.obj
 0001:00001960       ??$_Checked_base@PAV?$basic_string@DU?$char_traits@D@std@@V?$allocator@D@2@@std@@@std@@YAPAV?$basic_string@DU?$char_traits@D@std@@V?$allocator@D@2@@0@AAPAV10@U_Unchanged_checked_iterator_base_type_tag@0@@Z 00402960 f i authcommon:csvlib.obj
 0001:00001970       ??$unchecked_fill_n@PAPAPAU_tagConnectInfo@Connector@WBANetwork@@IPAPAU123@@stdext@@YAXPAPAPAU_tagConnectInfo@Connector@WBANetwork@@IABQAPAU123@@Z 00402970 f i ClientStub_VS2008:Connector.obj
 0001:000019b0       ??$_Iter_cat@PAPAPAU_tagConnectInfo@Connector@WBANetwork@@@std@@YA?AUrandom_access_iterator_tag@0@ABQAPAPAU_tagConnectInfo@Connector@WBANetwork@@@Z 004029b0 f i ClientStub_VS2008:Connector.obj
 0001:000019b0       ??$_Iter_random@PAV?$basic_string@DU?$char_traits@D@std@@V?$allocator@D@2@@std@@PAV12@@std@@YA?AUrandom_access_iterator_tag@0@ABQAV?$basic_string@DU?$char_traits@D@std@@V?$allocator@D@2@@0@0@Z 004029b0 f i authcommon:csvlib.obj
 0001:000019c0       ??$_Fill_n@PAPAPAU_tagConnectInfo@Connector@WBANetwork@@IPAPAU123@@std@@YAXPAPAPAU_tagConnectInfo@Connector@WBANetwork@@IABQAPAU123@Urandom_access_iterator_tag@0@U_Range_checked_iterator_tag@0@@Z 004029c0 f i ClientStub_VS2008:Connector.obj
 0001:00001a00       ??$_Fill_n@PAPAPAU_tagConnectInfo@Connector@WBANetwork@@IPAPAU123@@std@@YAXPAPAPAU_tagConnectInfo@Connector@WBANetwork@@IABQAPAU123@U_Range_checked_iterator_tag@0@@Z 00402a00 f i ClientStub_VS2008:Connector.obj
 0001:00001a30       ??0_Iterator_base_aux@std@@QAE@XZ 00402a30 f i ClientStub_VS2008:Connector.obj
 0001:00001a50       ?_Set_container@_Iterator_base_aux@std@@QAEXQBV_Container_base_aux@2@@Z 00402a50 f i ClientStub_VS2008:Connector.obj
 0001:00001a70       ??2@YAPAXIPAX@Z            00402a70 f i ClientStub_VS2008:Connector.obj
 0001:00001a80       ?_Getcont@_Aux_cont@std@@QBEPBV_Container_base_aux@2@XZ 00402a80 f i ClientStub_VS2008:Connector.obj
 0001:00001a90       ?_Getmycont@_Iterator_base_aux@std@@QBEPBV_Container_base_aux@2@XZ 00402a90 f i ClientStub_VS2008:Connector.obj
 0001:00001ac0       ??1length_error@std@@UAE@XZ 00402ac0 f i ClientStub_VS2008:Connector.obj
 0001:00001ae0       ??0logic_error@std@@QAE@ABV01@@Z 00402ae0 f i ClientStub_VS2008:Connector.obj
 0001:00001b50       ??0?$_String_val@DV?$allocator@D@std@@@std@@IAE@V?$allocator@D@1@@Z 00402b50 f i ClientStub_VS2008:Connector.obj
 0001:00001b70       ?_Inside@?$basic_string@DU?$char_traits@D@std@@V?$allocator@D@2@@std@@IAE_NPBD@Z 00402b70 f i ClientStub_VS2008:Connector.obj
 0001:00001bb0       ?assign@?$basic_string@DU?$char_traits@D@std@@V?$allocator@D@2@@std@@QAEAAV12@PBDI@Z 00402bb0 f i ClientStub_VS2008:Connector.obj
 0001:00001c40       ?length@?$char_traits@D@std@@SAIPBD@Z 00402c40 f i ClientStub_VS2008:Connector.obj
 0001:00001c80       ?assign@?$basic_string@DU?$char_traits@D@std@@V?$allocator@D@2@@std@@QAEAAV12@PBD@Z 00402c80 f i ClientStub_VS2008:Connector.obj
 0001:00001cb0       ??0?$basic_string@DU?$char_traits@D@std@@V?$allocator@D@2@@std@@QAE@PBD@Z 00402cb0 f i ClientStub_VS2008:Connector.obj
 0001:00001cf0       ??0?$_String_val@DV?$allocator@D@std@@@std@@QAE@ABV01@@Z 00402cf0 f i ClientStub_VS2008:Connector.obj
 0001:00001d10       ?_Move_s@?$char_traits@D@std@@SAPADPADIPBDI@Z 00402d10 f i ClientStub_VS2008:Connector.obj
 0001:00001d30       ??$move_s@U?$char_traits@D@std@@@_Traits_helper@std@@YAPADPADIPBDIU_Secure_char_traits_tag@1@@Z 00402d30 f i ClientStub_VS2008:Connector.obj
 0001:00001d50       ??$move_s@U?$char_traits@D@std@@@_Traits_helper@std@@YAPADPADIPBDI@Z 00402d50 f i ClientStub_VS2008:Connector.obj
 0001:00001d80       ?erase@?$basic_string@DU?$char_traits@D@std@@V?$allocator@D@2@@std@@QAEAAV12@II@Z 00402d80 f i ClientStub_VS2008:Connector.obj
 0001:00001e20       ?max_size@?$allocator@D@std@@QBEIXZ 00402e20 f i ClientStub_VS2008:Connector.obj
 0001:00001e50       ?max_size@?$basic_string@DU?$char_traits@D@std@@V?$allocator@D@2@@std@@QBEIXZ 00402e50 f i ClientStub_VS2008:Connector.obj
 0001:00001e90       ??0bad_alloc@std@@QAE@PBD@Z 00402e90 f i ClientStub_VS2008:Connector.obj
 0001:00001ec0       ??1bad_alloc@std@@UAE@XZ   00402ec0 f i ClientStub_VS2008:Connector.obj
 0001:00001ee0       ??_Gbad_alloc@std@@UAEPAXI@Z 00402ee0 f i ClientStub_VS2008:Connector.obj
 0001:00001ee0       ??_Ebad_alloc@std@@UAEPAXI@Z 00402ee0 f i  CIL library: CIL module
 0001:00001f10       ??0bad_alloc@std@@QAE@ABV01@@Z 00402f10 f i ClientStub_VS2008:Connector.obj
 0001:00001f40       ??$_Allocate@D@std@@YAPADIPAD@Z 00402f40 f i ClientStub_VS2008:Connector.obj
 0001:00001f90       ?allocate@?$allocator@D@std@@QAEPADI@Z 00402f90 f i ClientStub_VS2008:Connector.obj
 0001:00001fb0       ?_Copy@?$basic_string@DU?$char_traits@D@std@@V?$allocator@D@2@@std@@IAEXII@Z 00402fb0 f i ClientStub_VS2008:Connector.obj
 0001:00002130       ?_Grow@?$basic_string@DU?$char_traits@D@std@@V?$allocator@D@2@@std@@IAE_NI_N@Z 00403130 f i ClientStub_VS2008:Connector.obj
 0001:000021d0       ?assign@?$basic_string@DU?$char_traits@D@std@@V?$allocator@D@2@@std@@QAEAAV12@ABV12@II@Z 004031d0 f i ClientStub_VS2008:Connector.obj
 0001:00002290       ??0?$basic_string@DU?$char_traits@D@std@@V?$allocator@D@2@@std@@QAE@ABV01@@Z 00403290 f i ClientStub_VS2008:Connector.obj
 0001:000022d0       ??0logic_error@std@@QAE@ABV?$basic_string@DU?$char_traits@D@std@@V?$allocator@D@2@@1@@Z 004032d0 f i ClientStub_VS2008:Connector.obj
 0001:00002340       ??_Glogic_error@std@@UAEPAXI@Z 00403340 f i ClientStub_VS2008:Connector.obj
 0001:00002340       ??_Elogic_error@std@@UAEPAXI@Z 00403340 f i  CIL library: CIL module
 0001:00002370       ?_Copy_s@?$char_traits@D@std@@SAPADPADIPBDI@Z 00403370 f i ClientStub_VS2008:Connector.obj
 0001:00002390       ??$copy_s@U?$char_traits@D@std@@@_Traits_helper@std@@YAPADPADIPBDIU_Secure_char_traits_tag@1@@Z 00403390 f i ClientStub_VS2008:Connector.obj
 0001:000023b0       ??$_Ptr_cat@PAV?$basic_string@DU?$char_traits@D@std@@V?$allocator@D@2@@std@@PAV12@@std@@YA?AU_Nonscalar_ptr_iterator_tag@0@AAPAV?$basic_string@DU?$char_traits@D@std@@V?$allocator@D@2@@0@0@Z 004033b0 f i authcommon:csvlib.obj
 0001:000023b0       ??$_Ptr_cat@PAPAPAU_tagConnectInfo@Connector@WBANetwork@@PAPAPAU123@@std@@YA?AU_Scalar_ptr_iterator_tag@0@AAPAPAPAU_tagConnectInfo@Connector@WBANetwork@@0@Z 004033b0 f i ClientStub_VS2008:Connector.obj
 0001:000023b0       ??$_Move_cat@PAV?$basic_string@DU?$char_traits@D@std@@V?$allocator@D@2@@std@@@std@@YA?AU_Swap_move_tag@0@ABQAV?$basic_string@DU?$char_traits@D@std@@V?$allocator@D@2@@0@@Z 004033b0 f i authcommon:csvlib.obj
 0001:000023b0       ??$_Char_traits_cat@U?$char_traits@D@std@@@std@@YA?AU_Secure_char_traits_tag@0@XZ 004033b0 f i ClientStub_VS2008:Connector.obj
 0001:000023c0       ??$copy_s@U?$char_traits@D@std@@@_Traits_helper@std@@YAPADPADIPBDI@Z 004033c0 f i ClientStub_VS2008:Connector.obj
 0001:000023f0       ?assign@?$char_traits@D@std@@SAXAADABD@Z 004033f0 f i ClientStub_VS2008:Connector.obj
 0001:00002400       ?_Eos@?$basic_string@DU?$char_traits@D@std@@V?$allocator@D@2@@std@@IAEXI@Z 00403400 f i ClientStub_VS2008:Connector.obj
 0001:00002440       ?_Tidy@?$basic_string@DU?$char_traits@D@std@@V?$allocator@D@2@@std@@IAEX_NI@Z 00403440 f i ClientStub_VS2008:Connector.obj
 0001:000024c0       ??1?$basic_string@DU?$char_traits@D@std@@V?$allocator@D@2@@std@@QAE@XZ 004034c0 f i ClientStub_VS2008:Connector.obj
 0001:000024e0       ??1logic_error@std@@UAE@XZ 004034e0 f i ClientStub_VS2008:Connector.obj
 0001:00002510       ??_Glength_error@std@@UAEPAXI@Z 00403510 f i ClientStub_VS2008:Connector.obj
 0001:00002510       ??_Elength_error@std@@UAEPAXI@Z 00403510 f i  CIL library: CIL module
 0001:00002540       ?c_str@?$basic_string@DU?$char_traits@D@std@@V?$allocator@D@2@@std@@QBEPBDXZ 00403540 f i ClientStub_VS2008:Connector.obj
 0001:00002560       ?what@logic_error@std@@UBEPBDXZ 00403560 f i ClientStub_VS2008:Connector.obj
 0001:00002560       ?what@runtime_error@std@@UBEPBDXZ 00403560 f i authcommon:csvlib.obj
 0001:00002580       ??0length_error@std@@QAE@ABV?$basic_string@DU?$char_traits@D@std@@V?$allocator@D@2@@1@@Z 00403580 f i ClientStub_VS2008:Connector.obj
 0001:000025b0       ?_Myptr@?$basic_string@DU?$char_traits@D@std@@V?$allocator@D@2@@std@@IAEPADXZ 004035b0 f i ClientStub_VS2008:Connector.obj
 0001:000025b0       ?_Myptr@?$basic_string@DU?$char_traits@D@std@@V?$allocator@D@2@@std@@IBEPBDXZ 004035b0 f i ClientStub_VS2008:Connector.obj
 0001:000025e0       ?StringCbCopyA@@YGJPADIPBD@Z 004035e0 f i ClientStub_VS2008:Connector.obj
 0001:00002630       ?size@?$basic_string@DU?$char_traits@D@std@@V?$allocator@D@2@@std@@QBEIXZ 00403630 f i ClientStub_VS2008:Connector.obj
 0001:00002650       ?GetUID@ServerSession@WBANetwork@@QAEKXZ 00403650 f i ClientStub_VS2008:SessionManager.obj
 0001:00002670       ??_ESessionManager@WBANetwork@@MAEPAXI@Z 00403670 f i  CIL library: CIL module
 0001:00002670       ??_GSessionManager@WBANetwork@@MAEPAXI@Z 00403670 f i ClientStub_VS2008:SessionManager.obj
 0001:000026a0       ??1?$map@KPAVServerSession@WBANetwork@@U?$less@K@std@@V?$allocator@U?$pair@$$CBKPAVServerSession@WBANetwork@@@std@@@4@@std@@QAE@XZ 004036a0 f i ClientStub_VS2008:SessionManager.obj
 0001:000026c0       ??0?$map@KPAVServerSession@WBANetwork@@U?$less@K@std@@V?$allocator@U?$pair@$$CBKPAVServerSession@WBANetwork@@@std@@@4@@std@@QAE@XZ 004036c0 f i ClientStub_VS2008:SessionManager.obj
 0001:000026f0       ??A?$map@KPAVServerSession@WBANetwork@@U?$less@K@std@@V?$allocator@U?$pair@$$CBKPAVServerSession@WBANetwork@@@std@@@4@@std@@QAEAAPAVServerSession@WBANetwork@@ABK@Z 004036f0 f i ClientStub_VS2008:SessionManager.obj
 0001:000027b0       ??1?$_Tree@V?$_Tmap_traits@KPAVServerSession@WBANetwork@@U?$less@K@std@@V?$allocator@U?$pair@$$CBKPAVServerSession@WBANetwork@@@std@@@4@$0A@@std@@@std@@QAE@XZ 004037b0 f i ClientStub_VS2008:SessionManager.obj
 0001:00002810       ?begin@?$_Tree@V?$_Tmap_traits@V?$basic_string@DU?$char_traits@D@std@@V?$allocator@D@2@@std@@EU?$less@V?$basic_string@DU?$char_traits@D@std@@V?$allocator@D@2@@std@@@2@V?$allocator@U?$pair@$$CBV?$basic_string@DU?$char_traits@D@std@@V?$allocator@D@2@@std@@E@std@@@2@$0A@@std@@@std@@QAE?AViterator@12@XZ 00403810 f i authcommon:csvlib.obj
 0001:00002810       ?begin@?$_Tree@V?$_Tmap_traits@KPAVServerSession@WBANetwork@@U?$less@K@std@@V?$allocator@U?$pair@$$CBKPAVServerSession@WBANetwork@@@std@@@4@$0A@@std@@@std@@QAE?AViterator@12@XZ 00403810 f i ClientStub_VS2008:SessionManager.obj
 0001:00002810       ?begin@?$_Tree@V?$_Tmap_traits@KPAUGROUP_DATA@@U?$less@K@std@@V?$CustomAllocator@PAUGROUP_DATA@@@util@@$0A@@std@@@std@@QAE?AViterator@12@XZ 00403810 f i authcommon:ServerDataManager.obj
 0001:00002840       ?erase@?$_Tree@V?$_Tmap_traits@KPAVServerSession@WBANetwork@@U?$less@K@std@@V?$allocator@U?$pair@$$CBKPAVServerSession@WBANetwork@@@std@@@4@$0A@@std@@@std@@QAE?AViterator@12@Vconst_iterator@12@@Z 00403840 f i ClientStub_VS2008:SessionManager.obj
 0001:00003020       ?clear@?$_Tree@V?$_Tmap_traits@KPAVServerSession@WBANetwork@@U?$less@K@std@@V?$allocator@U?$pair@$$CBKPAVServerSession@WBANetwork@@@std@@@4@$0A@@std@@@std@@QAEXXZ 00404020 f i ClientStub_VS2008:SessionManager.obj
 0001:00003080       ??0?$list@PAVServerSession@WBANetwork@@V?$allocator@PAVServerSession@WBANetwork@@@std@@@std@@QAE@XZ 00404080 f i ClientStub_VS2008:SessionManager.obj
 0001:00003100       ??1?$list@PAVServerSession@WBANetwork@@V?$allocator@PAVServerSession@WBANetwork@@@std@@@std@@QAE@XZ 00404100 f i ClientStub_VS2008:SessionManager.obj
 0001:00003120       ?begin@?$list@PAVServerSession@WBANetwork@@V?$allocator@PAVServerSession@WBANetwork@@@std@@@std@@QAE?AV?$_Iterator@$00@12@XZ 00404120 f i ClientStub_VS2008:SessionManager.obj
 0001:00003150       ?end@?$list@PAVServerSession@WBANetwork@@V?$allocator@PAVServerSession@WBANetwork@@@std@@@std@@QAE?AV?$_Iterator@$00@12@XZ 00404150 f i ClientStub_VS2008:SessionManager.obj
 0001:00003180       ?size@?$list@PAVServerSession@WBANetwork@@V?$allocator@PAVServerSession@WBANetwork@@@std@@@std@@QBEIXZ 00404180 f i ClientStub_VS2008:SessionManager.obj
 0001:000031a0       ?empty@?$list@PAVServerSession@WBANetwork@@V?$allocator@PAVServerSession@WBANetwork@@@std@@@std@@QBE_NXZ 004041a0 f i ClientStub_VS2008:SessionManager.obj
 0001:000031c0       ?front@?$list@PAVServerSession@WBANetwork@@V?$allocator@PAVServerSession@WBANetwork@@@std@@@std@@QAEAAPAVServerSession@WBANetwork@@XZ 004041c0 f i ClientStub_VS2008:SessionManager.obj
 0001:000031e0       ?pop_front@?$list@PAVServerSession@WBANetwork@@V?$allocator@PAVServerSession@WBANetwork@@@std@@@std@@QAEXXZ 004041e0 f i ClientStub_VS2008:SessionManager.obj
 0001:00003220       ?push_back@?$list@PAVServerSession@WBANetwork@@V?$allocator@PAVServerSession@WBANetwork@@@std@@@std@@QAEXABQAVServerSession@WBANetwork@@@Z 00404220 f i ClientStub_VS2008:SessionManager.obj
 0001:00003260       ?erase@?$list@PAVServerSession@WBANetwork@@V?$allocator@PAVServerSession@WBANetwork@@@std@@@std@@QAE?AV?$_Iterator@$00@12@V?$_Const_iterator@$00@12@@Z 00404260 f i ClientStub_VS2008:SessionManager.obj
 0001:00003330       ??Citerator@?$_Tree@V?$_Tmap_traits@KPAVServerSession@WBANetwork@@U?$less@K@std@@V?$allocator@U?$pair@$$CBKPAVServerSession@WBANetwork@@@std@@@4@$0A@@std@@@std@@QBEPAU?$pair@$$CBKPAVServerSession@WBANetwork@@@2@XZ 00404330 f i ClientStub_VS2008:SessionManager.obj
 0001:00003330       ??Citerator@?$_Tree@V?$_Tmap_traits@V?$basic_string@DU?$char_traits@D@std@@V?$allocator@D@2@@std@@EU?$less@V?$basic_string@DU?$char_traits@D@std@@V?$allocator@D@2@@std@@@2@V?$allocator@U?$pair@$$CBV?$basic_string@DU?$char_traits@D@std@@V?$allocator@D@2@@std@@E@std@@@2@$0A@@std@@@std@@QBEPAU?$pair@$$CBV?$basic_string@DU?$char_traits@D@std@@V?$allocator@D@2@@std@@E@2@XZ 00404330 f i authcommon:csvlib.obj
 0001:00003330       ??Citerator@?$_Tree@V?$_Tmap_traits@KPAUGROUP_DATA@@U?$less@K@std@@V?$CustomAllocator@PAUGROUP_DATA@@@util@@$0A@@std@@@std@@QBEPAU?$pair@$$CBKPAUGROUP_DATA@@@2@XZ 00404330 f i authcommon:ServerDataManager.obj
 0001:00003350       ??Eiterator@?$_Tree@V?$_Tmap_traits@KPAVServerSession@WBANetwork@@U?$less@K@std@@V?$allocator@U?$pair@$$CBKPAVServerSession@WBANetwork@@@std@@@4@$0A@@std@@@std@@QAE?AV012@H@Z 00404350 f i ClientStub_VS2008:SessionManager.obj
 0001:00003390       ??9const_iterator@?$_Tree@V?$_Tmap_traits@KPAVServerSession@WBANetwork@@U?$less@K@std@@V?$allocator@U?$pair@$$CBKPAVServerSession@WBANetwork@@@std@@@4@$0A@@std@@@std@@QBE_NABV012@@Z 00404390 f i ClientStub_VS2008:SessionManager.obj
 0001:00003390       ??9const_iterator@?$_Tree@V?$_Tmap_traits@KPAUGROUP_DATA@@U?$less@K@std@@V?$CustomAllocator@PAUGROUP_DATA@@@util@@$0A@@std@@@std@@QBE_NABV012@@Z 00404390 f i authcommon:ServerDataManager.obj
 0001:00003390       ??9?$_Vector_const_iterator@V?$basic_string@DU?$char_traits@D@std@@V?$allocator@D@2@@std@@V?$allocator@V?$basic_string@DU?$char_traits@D@std@@V?$allocator@D@2@@std@@@2@@std@@QBE_NABV01@@Z 00404390 f i authcommon:csvlib.obj
 0001:00003390       ??9const_iterator@?$_Tree@V?$_Tmap_traits@V?$basic_string@DU?$char_traits@D@std@@V?$allocator@D@2@@std@@EU?$less@V?$basic_string@DU?$char_traits@D@std@@V?$allocator@D@2@@std@@@2@V?$allocator@U?$pair@$$CBV?$basic_string@DU?$char_traits@D@std@@V?$allocator@D@2@@std@@E@std@@@2@$0A@@std@@@std@@QBE_NABV012@@Z 00404390 f i authcommon:csvlib.obj
 0001:000033c0       ??D?$_Iterator@$00@?$list@PAVServerSession@WBANetwork@@V?$allocator@PAVServerSession@WBANetwork@@@std@@@std@@QBEAAPAVServerSession@WBANetwork@@XZ 004043c0 f i ClientStub_VS2008:SessionManager.obj
 0001:000033e0       ??E?$_Iterator@$00@?$list@PAVServerSession@WBANetwork@@V?$allocator@PAVServerSession@WBANetwork@@@std@@@std@@QAE?AV012@H@Z 004043e0 f i ClientStub_VS2008:SessionManager.obj
 0001:00003420       ??9?$_Const_iterator@$00@?$list@PAVServerSession@WBANetwork@@V?$allocator@PAVServerSession@WBANetwork@@@std@@@std@@QBE_NABV012@@Z 00404420 f i ClientStub_VS2008:SessionManager.obj
 0001:00003450       ??1?$_Tree_val@V?$_Tmap_traits@KPAVServerSession@WBANetwork@@U?$less@K@std@@V?$allocator@U?$pair@$$CBKPAVServerSession@WBANetwork@@@std@@@4@$0A@@std@@@std@@QAE@XZ 00404450 f i ClientStub_VS2008:SessionManager.obj
 0001:00003470       ??1?$_List_val@PAVServerSession@WBANetwork@@V?$allocator@PAVServerSession@WBANetwork@@@std@@@std@@QAE@XZ 00404470 f i ClientStub_VS2008:SessionManager.obj
 0001:00003470       ??1?$_Tree_ptr@V?$_Tmap_traits@KPAVServerSession@WBANetwork@@U?$less@K@std@@V?$allocator@U?$pair@$$CBKPAVServerSession@WBANetwork@@@std@@@4@$0A@@std@@@std@@QAE@XZ 00404470 f i ClientStub_VS2008:SessionManager.obj
 0001:00003490       ??0?$_Tree@V?$_Tmap_traits@KPAVServerSession@WBANetwork@@U?$less@K@std@@V?$allocator@U?$pair@$$CBKPAVServerSession@WBANetwork@@@std@@@4@$0A@@std@@@std@@QAE@ABU?$less@K@1@ABV?$allocator@U?$pair@$$CBKPAVServerSession@WBANetwork@@@std@@@1@@Z 00404490 f i ClientStub_VS2008:SessionManager.obj
 0001:00003500       ?insert@?$_Tree@V?$_Tmap_traits@KPAVServerSession@WBANetwork@@U?$less@K@std@@V?$allocator@U?$pair@$$CBKPAVServerSession@WBANetwork@@@std@@@4@$0A@@std@@@std@@QAE?AViterator@12@Vconst_iterator@12@ABU?$pair@$$CBKPAVServerSession@WBANetwork@@@2@@Z 00404500 f i ClientStub_VS2008:SessionManager.obj
 0001:00003b20       ?_Erase@?$_Tree@V?$_Tmap_traits@KPAVServerSession@WBANetwork@@U?$less@K@std@@V?$allocator@U?$pair@$$CBKPAVServerSession@WBANetwork@@@std@@@4@$0A@@std@@@std@@IAEXPAU_Node@?$_Tree_nod@V?$_Tmap_traits@KPAVServerSession@WBANetwork@@U?$less@K@std@@V?$allocator@U?$pair@$$CBKPAVServerSession@WBANetwork@@@std@@@4@$0A@@std@@@2@@Z 00404b20 f i ClientStub_VS2008:SessionManager.obj
 0001:00003ba0       ?_Lrotate@?$_Tree@V?$_Tmap_traits@KPAVServerSession@WBANetwork@@U?$less@K@std@@V?$allocator@U?$pair@$$CBKPAVServerSession@WBANetwork@@@std@@@4@$0A@@std@@@std@@IAEXPAU_Node@?$_Tree_nod@V?$_Tmap_traits@KPAVServerSession@WBANetwork@@U?$less@K@std@@V?$allocator@U?$pair@$$CBKPAVServerSession@WBANetwork@@@std@@@4@$0A@@std@@@2@@Z 00404ba0 f i ClientStub_VS2008:SessionManager.obj
 0001:00003ba0       ?_Lrotate@?$_Tree@V?$_Tmap_traits@KPAUGROUP_DATA@@U?$less@K@std@@V?$CustomAllocator@PAUGROUP_DATA@@@util@@$0A@@std@@@std@@IAEXPAU_Node@?$_Tree_nod@V?$_Tmap_traits@KPAUGROUP_DATA@@U?$less@K@std@@V?$CustomAllocator@PAUGROUP_DATA@@@util@@$0A@@std@@@2@@Z 00404ba0 f i authcommon:ServerDataManager.obj
 0001:00003ba0       ?_Lrotate@?$_Tree@V?$_Tmap_traits@KPAVServerData@@U?$less@K@std@@V?$CustomAllocator@PAVServerData@@@util@@$0A@@std@@@std@@IAEXPAU_Node@?$_Tree_nod@V?$_Tmap_traits@KPAVServerData@@U?$less@K@std@@V?$CustomAllocator@PAVServerData@@@util@@$0A@@std@@@2@@Z 00404ba0 f i authcommon:ServerDataManager.obj
 0001:00003cd0       ?_Rmost@?$_Tree@V?$_Tmap_traits@KPAVServerData@@U?$less@K@std@@V?$CustomAllocator@PAVServerData@@@util@@$0A@@std@@@std@@IBEAAPAU_Node@?$_Tree_nod@V?$_Tmap_traits@KPAVServerData@@U?$less@K@std@@V?$CustomAllocator@PAVServerData@@@util@@$0A@@std@@@2@XZ 00404cd0 f i authcommon:ServerDataManager.obj
 0001:00003cd0       ?_Rmost@?$_Tree@V?$_Tmap_traits@KPAUGROUP_DATA@@U?$less@K@std@@V?$CustomAllocator@PAUGROUP_DATA@@@util@@$0A@@std@@@std@@IBEAAPAU_Node@?$_Tree_nod@V?$_Tmap_traits@KPAUGROUP_DATA@@U?$less@K@std@@V?$CustomAllocator@PAUGROUP_DATA@@@util@@$0A@@std@@@2@XZ 00404cd0 f i authcommon:ServerDataManager.obj
 0001:00003cd0       ?_Rmost@?$_Tree@V?$_Tmap_traits@V?$basic_string@DU?$char_traits@D@std@@V?$allocator@D@2@@std@@EU?$less@V?$basic_string@DU?$char_traits@D@std@@V?$allocator@D@2@@std@@@2@V?$allocator@U?$pair@$$CBV?$basic_string@DU?$char_traits@D@std@@V?$allocator@D@2@@std@@E@std@@@2@$0A@@std@@@std@@IBEAAPAU_Node@?$_Tree_nod@V?$_Tmap_traits@V?$basic_string@DU?$char_traits@D@std@@V?$allocator@D@2@@std@@EU?$less@V?$basic_string@DU?$char_traits@D@std@@V?$allocator@D@2@@std@@@2@V?$allocator@U?$pair@$$CBV?$basic_string@DU?$char_traits@D@std@@V?$allocator@D@2@@std@@E@std@@@2@$0A@@std@@@2@XZ 00404cd0 f i authcommon:csvlib.obj
 0001:00003cd0       ?_Rmost@?$_Tree@V?$_Tmap_traits@KPAVServerSession@WBANetwork@@U?$less@K@std@@V?$allocator@U?$pair@$$CBKPAVServerSession@WBANetwork@@@std@@@4@$0A@@std@@@std@@IBEAAPAU_Node@?$_Tree_nod@V?$_Tmap_traits@KPAVServerSession@WBANetwork@@U?$less@K@std@@V?$allocator@U?$pair@$$CBKPAVServerSession@WBANetwork@@@std@@@4@$0A@@std@@@2@XZ 00404cd0 f i ClientStub_VS2008:SessionManager.obj
 0001:00003cf0       ?_Tidy@?$_Tree@V?$_Tmap_traits@KPAVServerSession@WBANetwork@@U?$less@K@std@@V?$allocator@U?$pair@$$CBKPAVServerSession@WBANetwork@@@std@@@4@$0A@@std@@@std@@IAEXXZ 00404cf0 f i ClientStub_VS2008:SessionManager.obj
 0001:00003dc0       ??0?$allocator@V?$basic_string@DU?$char_traits@D@std@@V?$allocator@D@2@@std@@@std@@QAE@XZ 00404dc0 f i authcommon:csvlib.obj
 0001:00003dc0       ??0?$CustomAllocator@U?$pair@$$CBKPAVServerData@@@std@@@util@@QAE@XZ 00404dc0 f i authcommon:ServerDataManager.obj
 0001:00003dc0       ??0?$allocator@PAVServerSession@WBANetwork@@@std@@QAE@XZ 00404dc0 f i ClientStub_VS2008:SessionManager.obj
 0001:00003dc0       ??0?$allocator@U?$pair@$$CBKPAVServerSession@WBANetwork@@@std@@@std@@QAE@XZ 00404dc0 f i ClientStub_VS2008:SessionManager.obj
 0001:00003dc0       ??0?$Singleton@VServerDataManager@@$00@util@@IAE@XZ 00404dc0 f i authcommon:ServerDataManager.obj
 0001:00003dc0       ??0?$CustomAllocator@U?$pair@$$CBKPAUGROUP_DATA@@@std@@@util@@QAE@XZ 00404dc0 f i authcommon:ServerDataManager.obj
 0001:00003dc0       ?GetBaseServerData@ServerData@@QBEABUSERVER_DATA@@XZ 00404dc0 f i authcommon:ServerDataManager.obj
 0001:00003dc0       ??0_Container_base_aux@std@@QAE@XZ 00404dc0 f i ClientStub_VS2008:Connector.obj
 0001:00003dc0       ??0?$allocator@D@std@@QAE@XZ 00404dc0 f i ClientStub_VS2008:Connector.obj
 0001:00003dc0       ??0?$allocator@PAU_tagConnectInfo@Connector@WBANetwork@@@std@@QAE@XZ 00404dc0 f i ClientStub_VS2008:Connector.obj
 0001:00003dc0       ??0?$allocator@U?$pair@$$CBV?$basic_string@DU?$char_traits@D@std@@V?$allocator@D@2@@std@@E@std@@@std@@QAE@XZ 00404dc0 f i authcommon:csvlib.obj
 0001:00003dd0       ??R?$less@K@std@@QBE_NABK0@Z 00404dd0 f i ClientStub_VS2008:SessionManager.obj
 0001:00003df0       ?destroy@?$allocator@U_Node@?$_Tree_nod@V?$_Tmap_traits@KPAVServerSession@WBANetwork@@U?$less@K@std@@V?$allocator@U?$pair@$$CBKPAVServerSession@WBANetwork@@@std@@@4@$0A@@std@@@std@@@std@@QAEXPAU_Node@?$_Tree_nod@V?$_Tmap_traits@KPAVServerSession@WBANetwork@@U?$less@K@std@@V?$allocator@U?$pair@$$CBKPAVServerSession@WBANetwork@@@std@@@4@$0A@@std@@@2@@Z 00404df0 f i ClientStub_VS2008:SessionManager.obj
 0001:00003df0       ?destroy@?$allocator@PAU_Node@?$_Tree_nod@V?$_Tmap_traits@KPAVServerSession@WBANetwork@@U?$less@K@std@@V?$allocator@U?$pair@$$CBKPAVServerSession@WBANetwork@@@std@@@4@$0A@@std@@@std@@@std@@QAEXPAPAU_Node@?$_Tree_nod@V?$_Tmap_traits@KPAVServerSession@WBANetwork@@U?$less@K@std@@V?$allocator@U?$pair@$$CBKPAVServerSession@WBANetwork@@@std@@@4@$0A@@std@@@2@@Z 00404df0 f i ClientStub_VS2008:SessionManager.obj
 0001:00003df0       ?destroy@?$allocator@PAU_Node@?$_Tree_nod@V?$_Tmap_traits@V?$basic_string@DU?$char_traits@D@std@@V?$allocator@D@2@@std@@EU?$less@V?$basic_string@DU?$char_traits@D@std@@V?$allocator@D@2@@std@@@2@V?$allocator@U?$pair@$$CBV?$basic_string@DU?$char_traits@D@std@@V?$allocator@D@2@@std@@E@std@@@2@$0A@@std@@@std@@@std@@QAEXPAPAU_Node@?$_Tree_nod@V?$_Tmap_traits@V?$basic_string@DU?$char_traits@D@std@@V?$allocator@D@2@@std@@EU?$less@V?$basic_string@DU?$char_traits@D@std@@V?$allocator@D@2@@std@@@2@V?$allocator@U?$pair@$$CBV?$basic_string@DU?$char_traits@D@std@@V?$allocator@D@2@@std@@E@std@@@2@$0A@@std@@@2@@Z 00404df0 f i authcommon:csvlib.obj
 0001:00003df0       ?destroy@?$allocator@PAU_Node@?$_List_nod@PAVServerSession@WBANetwork@@V?$allocator@PAVServerSession@WBANetwork@@@std@@@std@@@std@@QAEXPAPAU_Node@?$_List_nod@PAVServerSession@WBANetwork@@V?$allocator@PAVServerSession@WBANetwork@@@std@@@2@@Z 00404df0 f i ClientStub_VS2008:SessionManager.obj
 0001:00003df0       ?destroy@?$allocator@PAPAU_tagConnectInfo@Connector@WBANetwork@@@std@@QAEXPAPAPAU_tagConnectInfo@Connector@WBANetwork@@@Z 00404df0 f i ClientStub_VS2008:Connector.obj
 0001:00003df0       ?destroy@?$allocator@U_Node@?$_List_nod@PAVServerSession@WBANetwork@@V?$allocator@PAVServerSession@WBANetwork@@@std@@@std@@@std@@QAEXPAU_Node@?$_List_nod@PAVServerSession@WBANetwork@@V?$allocator@PAVServerSession@WBANetwork@@@std@@@2@@Z 00404df0 f i ClientStub_VS2008:SessionManager.obj
 0001:00003df0       ?destroy@?$allocator@PAU_tagConnectInfo@Connector@WBANetwork@@@std@@QAEXPAPAU_tagConnectInfo@Connector@WBANetwork@@@Z 00404df0 f i ClientStub_VS2008:Connector.obj
 0001:00003e10       ?_Parent@?$_Tree@V?$_Tmap_traits@KPAVServerData@@U?$less@K@std@@V?$CustomAllocator@PAVServerData@@@util@@$0A@@std@@@std@@KAAAPAU_Node@?$_Tree_nod@V?$_Tmap_traits@KPAVServerData@@U?$less@K@std@@V?$CustomAllocator@PAVServerData@@@util@@$0A@@std@@@2@PAU342@@Z 00404e10 f i authcommon:ServerDataManager.obj
 0001:00003e10       ?_Parent@?$_Tree@V?$_Tmap_traits@KPAVServerSession@WBANetwork@@U?$less@K@std@@V?$allocator@U?$pair@$$CBKPAVServerSession@WBANetwork@@@std@@@4@$0A@@std@@@std@@KAAAPAU_Node@?$_Tree_nod@V?$_Tmap_traits@KPAVServerSession@WBANetwork@@U?$less@K@std@@V?$allocator@U?$pair@$$CBKPAVServerSession@WBANetwork@@@std@@@4@$0A@@std@@@2@PAU342@@Z 00404e10 f i ClientStub_VS2008:SessionManager.obj
 0001:00003e10       ?_Prevnode@?$list@PAVServerSession@WBANetwork@@V?$allocator@PAVServerSession@WBANetwork@@@std@@@std@@KAAAPAU_Node@?$_List_nod@PAVServerSession@WBANetwork@@V?$allocator@PAVServerSession@WBANetwork@@@std@@@2@PAU342@@Z 00404e10 f i ClientStub_VS2008:SessionManager.obj
 0001:00003e10       ?_Parent@?$_Tree@V?$_Tmap_traits@KPAUGROUP_DATA@@U?$less@K@std@@V?$CustomAllocator@PAUGROUP_DATA@@@util@@$0A@@std@@@std@@KAAAPAU_Node@?$_Tree_nod@V?$_Tmap_traits@KPAUGROUP_DATA@@U?$less@K@std@@V?$CustomAllocator@PAUGROUP_DATA@@@util@@$0A@@std@@@2@PAU342@@Z 00404e10 f i authcommon:ServerDataManager.obj
 0001:00003e10       ?_Parent@?$_Tree@V?$_Tmap_traits@V?$basic_string@DU?$char_traits@D@std@@V?$allocator@D@2@@std@@EU?$less@V?$basic_string@DU?$char_traits@D@std@@V?$allocator@D@2@@std@@@2@V?$allocator@U?$pair@$$CBV?$basic_string@DU?$char_traits@D@std@@V?$allocator@D@2@@std@@E@std@@@2@$0A@@std@@@std@@KAAAPAU_Node@?$_Tree_nod@V?$_Tmap_traits@V?$basic_string@DU?$char_traits@D@std@@V?$allocator@D@2@@std@@EU?$less@V?$basic_string@DU?$char_traits@D@std@@V?$allocator@D@2@@std@@@2@V?$allocator@U?$pair@$$CBV?$basic_string@DU?$char_traits@D@std@@V?$allocator@D@2@@std@@E@std@@@2@$0A@@std@@@2@PAU342@@Z 00404e10 f i authcommon:csvlib.obj
 0001:00003e20       ?_Make_iter@?$list@PAVServerSession@WBANetwork@@V?$allocator@PAVServerSession@WBANetwork@@@std@@@std@@QBE?AV?$_Iterator@$00@12@V?$_Const_iterator@$00@12@@Z 00404e20 f i ClientStub_VS2008:SessionManager.obj
 0001:00003e40       ?_Insert@?$list@PAVServerSession@WBANetwork@@V?$allocator@PAVServerSession@WBANetwork@@@std@@@std@@QAEXV?$_Const_iterator@$00@12@ABQAVServerSession@WBANetwork@@@Z 00404e40 f i ClientStub_VS2008:SessionManager.obj
 0001:00003ec0       ?_Buynode@?$list@PAVServerSession@WBANetwork@@V?$allocator@PAVServerSession@WBANetwork@@@std@@@std@@IAEPAU_Node@?$_List_nod@PAVServerSession@WBANetwork@@V?$allocator@PAVServerSession@WBANetwork@@@std@@@2@XZ 00404ec0 f i ClientStub_VS2008:SessionManager.obj
 0001:00003fc0       ?_Tidy@?$list@PAVServerSession@WBANetwork@@V?$allocator@PAVServerSession@WBANetwork@@@std@@@std@@IAEXXZ 00404fc0 f i ClientStub_VS2008:SessionManager.obj
 0001:00004030       ??0?$_List_val@PAVServerSession@WBANetwork@@V?$allocator@PAVServerSession@WBANetwork@@@std@@@std@@QAE@V?$allocator@PAVServerSession@WBANetwork@@@1@@Z 00405030 f i ClientStub_VS2008:SessionManager.obj
 0001:00004070       ??0iterator@?$_Tree@V?$_Tmap_traits@KPAVServerData@@U?$less@K@std@@V?$CustomAllocator@PAVServerData@@@util@@$0A@@std@@@std@@QAE@PAU_Node@?$_Tree_nod@V?$_Tmap_traits@KPAVServerData@@U?$less@K@std@@V?$CustomAllocator@PAVServerData@@@util@@$0A@@std@@@2@PBV12@@Z 00405070 f i authcommon:ServerDataManager.obj
 0001:00004070       ??0iterator@?$_Tree@V?$_Tmap_traits@KPAVServerSession@WBANetwork@@U?$less@K@std@@V?$allocator@U?$pair@$$CBKPAVServerSession@WBANetwork@@@std@@@4@$0A@@std@@@std@@QAE@PAU_Node@?$_Tree_nod@V?$_Tmap_traits@KPAVServerSession@WBANetwork@@U?$less@K@std@@V?$allocator@U?$pair@$$CBKPAVServerSession@WBANetwork@@@std@@@4@$0A@@std@@@2@PBV12@@Z 00405070 f i ClientStub_VS2008:SessionManager.obj
 0001:00004070       ??0iterator@?$_Tree@V?$_Tmap_traits@KPAUGROUP_DATA@@U?$less@K@std@@V?$CustomAllocator@PAUGROUP_DATA@@@util@@$0A@@std@@@std@@QAE@PAU_Node@?$_Tree_nod@V?$_Tmap_traits@KPAUGROUP_DATA@@U?$less@K@std@@V?$CustomAllocator@PAUGROUP_DATA@@@util@@$0A@@std@@@2@PBV12@@Z 00405070 f i authcommon:ServerDataManager.obj
 0001:00004070       ??0iterator@?$_Tree@V?$_Tmap_traits@V?$basic_string@DU?$char_traits@D@std@@V?$allocator@D@2@@std@@EU?$less@V?$basic_string@DU?$char_traits@D@std@@V?$allocator@D@2@@std@@@2@V?$allocator@U?$pair@$$CBV?$basic_string@DU?$char_traits@D@std@@V?$allocator@D@2@@std@@E@std@@@2@$0A@@std@@@std@@QAE@PAU_Node@?$_Tree_nod@V?$_Tmap_traits@V?$basic_string@DU?$char_traits@D@std@@V?$allocator@D@2@@std@@EU?$less@V?$basic_string@DU?$char_traits@D@std@@V?$allocator@D@2@@std@@@2@V?$allocator@U?$pair@$$CBV?$basic_string@DU?$char_traits@D@std@@V?$allocator@D@2@@std@@E@std@@@2@$0A@@std@@@2@PBV12@@Z 00405070 f i authcommon:csvlib.obj
 0001:00004090       ??Diterator@?$_Tree@V?$_Tmap_traits@KPAVServerSession@WBANetwork@@U?$less@K@std@@V?$allocator@U?$pair@$$CBKPAVServerSession@WBANetwork@@@std@@@4@$0A@@std@@@std@@QBEAAU?$pair@$$CBKPAVServerSession@WBANetwork@@@2@XZ 00405090 f i ClientStub_VS2008:SessionManager.obj
 0001:00004090       ??Diterator@?$_Tree@V?$_Tmap_traits@V?$basic_string@DU?$char_traits@D@std@@V?$allocator@D@2@@std@@EU?$less@V?$basic_string@DU?$char_traits@D@std@@V?$allocator@D@2@@std@@@2@V?$allocator@U?$pair@$$CBV?$basic_string@DU?$char_traits@D@std@@V?$allocator@D@2@@std@@E@std@@@2@$0A@@std@@@std@@QBEAAU?$pair@$$CBV?$basic_string@DU?$char_traits@D@std@@V?$allocator@D@2@@std@@E@2@XZ 00405090 f i authcommon:csvlib.obj
 0001:00004090       ??Diterator@?$_Tree@V?$_Tmap_traits@KPAUGROUP_DATA@@U?$less@K@std@@V?$CustomAllocator@PAUGROUP_DATA@@@util@@$0A@@std@@@std@@QBEAAU?$pair@$$CBKPAUGROUP_DATA@@@2@XZ 00405090 f i authcommon:ServerDataManager.obj
 0001:000040b0       ?_Mynode@?$_Const_iterator@$00@?$list@PAVServerSession@WBANetwork@@V?$allocator@PAVServerSession@WBANetwork@@@std@@@std@@QBEPAU_Node@?$_List_nod@PAVServerSession@WBANetwork@@V?$allocator@PAVServerSession@WBANetwork@@@std@@@3@XZ 004050b0 f i ClientStub_VS2008:SessionManager.obj
 0001:000040b0       ?_Mynode@const_iterator@?$_Tree@V?$_Tmap_traits@KPAUGROUP_DATA@@U?$less@K@std@@V?$CustomAllocator@PAUGROUP_DATA@@@util@@$0A@@std@@@std@@QBEPAU_Node@?$_Tree_nod@V?$_Tmap_traits@KPAUGROUP_DATA@@U?$less@K@std@@V?$CustomAllocator@PAUGROUP_DATA@@@util@@$0A@@std@@@3@XZ 004050b0 f i authcommon:ServerDataManager.obj
 0001:000040b0       ?_Mynode@const_iterator@?$_Tree@V?$_Tmap_traits@KPAVServerData@@U?$less@K@std@@V?$CustomAllocator@PAVServerData@@@util@@$0A@@std@@@std@@QBEPAU_Node@?$_Tree_nod@V?$_Tmap_traits@KPAVServerData@@U?$less@K@std@@V?$CustomAllocator@PAVServerData@@@util@@$0A@@std@@@3@XZ 004050b0 f i authcommon:ServerDataManager.obj
 0001:000040b0       ?_Mynode@const_iterator@?$_Tree@V?$_Tmap_traits@KPAVServerSession@WBANetwork@@U?$less@K@std@@V?$allocator@U?$pair@$$CBKPAVServerSession@WBANetwork@@@std@@@4@$0A@@std@@@std@@QBEPAU_Node@?$_Tree_nod@V?$_Tmap_traits@KPAVServerSession@WBANetwork@@U?$less@K@std@@V?$allocator@U?$pair@$$CBKPAVServerSession@WBANetwork@@@std@@@4@$0A@@std@@@3@XZ 004050b0 f i ClientStub_VS2008:SessionManager.obj
 0001:000040b0       ?_Mynode@const_iterator@?$_Tree@V?$_Tmap_traits@V?$basic_string@DU?$char_traits@D@std@@V?$allocator@D@2@@std@@EU?$less@V?$basic_string@DU?$char_traits@D@std@@V?$allocator@D@2@@std@@@2@V?$allocator@U?$pair@$$CBV?$basic_string@DU?$char_traits@D@std@@V?$allocator@D@2@@std@@E@std@@@2@$0A@@std@@@std@@QBEPAU_Node@?$_Tree_nod@V?$_Tmap_traits@V?$basic_string@DU?$char_traits@D@std@@V?$allocator@D@2@@std@@EU?$less@V?$basic_string@DU?$char_traits@D@std@@V?$allocator@D@2@@std@@@2@V?$allocator@U?$pair@$$CBV?$basic_string@DU?$char_traits@D@std@@V?$allocator@D@2@@std@@E@std@@@2@$0A@@std@@@3@XZ 004050b0 f i authcommon:csvlib.obj
 0001:000040d0       ??0?$pair@$$CBKPAVServerData@@@std@@QAE@ABKABQAVServerData@@@Z 004050d0 f i authcommon:ServerDataManager.obj
 0001:000040d0       ??0?$pair@$$CBKPAVServerSession@WBANetwork@@@std@@QAE@ABKABQAVServerSession@WBANetwork@@@Z 004050d0 f i ClientStub_VS2008:SessionManager.obj
 0001:000040d0       ??0?$pair@$$CBKPAUGROUP_DATA@@@std@@QAE@ABKABQAUGROUP_DATA@@@Z 004050d0 f i authcommon:ServerDataManager.obj
 0001:00004100       ??0?$_Iterator@$00@?$list@PAVServerSession@WBANetwork@@V?$allocator@PAVServerSession@WBANetwork@@@std@@@std@@QAE@PAU_Node@?$_List_nod@PAVServerSession@WBANetwork@@V?$allocator@PAVServerSession@WBANetwork@@@std@@@2@PBV12@@Z 00405100 f i ClientStub_VS2008:SessionManager.obj
 0001:00004120       ??E?$_Iterator@$00@?$list@PAVServerSession@WBANetwork@@V?$allocator@PAVServerSession@WBANetwork@@@std@@@std@@QAEAAV012@XZ 00405120 f i ClientStub_VS2008:SessionManager.obj
 0001:00004140       ??D?$_Const_iterator@$00@?$list@PAVServerSession@WBANetwork@@V?$allocator@PAVServerSession@WBANetwork@@@std@@@std@@QBEABQAVServerSession@WBANetwork@@XZ 00405140 f i ClientStub_VS2008:SessionManager.obj
 0001:000041a0       ??E?$_Const_iterator@$00@?$list@PAVServerSession@WBANetwork@@V?$allocator@PAVServerSession@WBANetwork@@@std@@@std@@QAE?AV012@H@Z 004051a0 f i ClientStub_VS2008:SessionManager.obj
 0001:000041e0       ??8?$_Const_iterator@$00@?$list@PAVServerSession@WBANetwork@@V?$allocator@PAVServerSession@WBANetwork@@@std@@@std@@QBE_NABV012@@Z 004051e0 f i ClientStub_VS2008:SessionManager.obj
 0001:00004240       ?insert@?$_Tree@V?$_Tmap_traits@KPAVServerSession@WBANetwork@@U?$less@K@std@@V?$allocator@U?$pair@$$CBKPAVServerSession@WBANetwork@@@std@@@4@$0A@@std@@@std@@QAE?AU?$pair@Viterator@?$_Tree@V?$_Tmap_traits@KPAVServerSession@WBANetwork@@U?$less@K@std@@V?$allocator@U?$pair@$$CBKPAVServerSession@WBANetwork@@@std@@@4@$0A@@std@@@std@@_N@2@ABU?$pair@$$CBKPAVServerSession@WBANetwork@@@2@@Z 00405240 f i ClientStub_VS2008:SessionManager.obj
 0001:00004410       ?erase@?$_Tree@V?$_Tmap_traits@KPAVServerSession@WBANetwork@@U?$less@K@std@@V?$allocator@U?$pair@$$CBKPAVServerSession@WBANetwork@@@std@@@4@$0A@@std@@@std@@QAE?AViterator@12@Vconst_iterator@12@0@Z 00405410 f i ClientStub_VS2008:SessionManager.obj
 0001:000044c0       ?_Init@?$_Tree@V?$_Tmap_traits@KPAVServerSession@WBANetwork@@U?$less@K@std@@V?$allocator@U?$pair@$$CBKPAVServerSession@WBANetwork@@@std@@@4@$0A@@std@@@std@@IAEXXZ 004054c0 f i ClientStub_VS2008:SessionManager.obj
 0001:00004530       ?_Insert@?$_Tree@V?$_Tmap_traits@KPAVServerSession@WBANetwork@@U?$less@K@std@@V?$allocator@U?$pair@$$CBKPAVServerSession@WBANetwork@@@std@@@4@$0A@@std@@@std@@IAE?AViterator@12@_NPAU_Node@?$_Tree_nod@V?$_Tmap_traits@KPAVServerSession@WBANetwork@@U?$less@K@std@@V?$allocator@U?$pair@$$CBKPAVServerSession@WBANetwork@@@std@@@4@$0A@@std@@@2@ABU?$pair@$$CBKPAVServerSession@WBANetwork@@@2@@Z 00405530 f i ClientStub_VS2008:SessionManager.obj
 0001:000049b0       ??0?$_Tree_val@V?$_Tmap_traits@KPAVServerSession@WBANetwork@@U?$less@K@std@@V?$allocator@U?$pair@$$CBKPAVServerSession@WBANetwork@@@std@@@4@$0A@@std@@@std@@IAE@ABU?$less@K@1@V?$allocator@U?$pair@$$CBKPAVServerSession@WBANetwork@@@std@@@1@@Z 004059b0 f i ClientStub_VS2008:SessionManager.obj
 0001:000049f0       ?clear@?$list@PAVServerSession@WBANetwork@@V?$allocator@PAVServerSession@WBANetwork@@@std@@@std@@QAEXXZ 004059f0 f i ClientStub_VS2008:SessionManager.obj
 0001:00004a90       ?_Buynode@?$list@PAVServerSession@WBANetwork@@V?$allocator@PAVServerSession@WBANetwork@@@std@@@std@@IAEPAU_Node@?$_List_nod@PAVServerSession@WBANetwork@@V?$allocator@PAVServerSession@WBANetwork@@@std@@@2@PAU342@0ABQAVServerSession@WBANetwork@@@Z 00405a90 f i ClientStub_VS2008:SessionManager.obj
 0001:00004bd0       ?_Incsize@?$list@PAVServerSession@WBANetwork@@V?$allocator@PAVServerSession@WBANetwork@@@std@@@std@@IAEXI@Z 00405bd0 f i ClientStub_VS2008:SessionManager.obj
 0001:00004c70       ?allocate@?$allocator@U_Node@?$_List_nod@PAVServerSession@WBANetwork@@V?$allocator@PAVServerSession@WBANetwork@@@std@@@std@@@std@@QAEPAU_Node@?$_List_nod@PAVServerSession@WBANetwork@@V?$allocator@PAVServerSession@WBANetwork@@@std@@@2@I@Z 00405c70 f i ClientStub_VS2008:SessionManager.obj
 0001:00004c90       ??0const_iterator@?$_Tree@V?$_Tmap_traits@V?$basic_string@DU?$char_traits@D@std@@V?$allocator@D@2@@std@@EU?$less@V?$basic_string@DU?$char_traits@D@std@@V?$allocator@D@2@@std@@@2@V?$allocator@U?$pair@$$CBV?$basic_string@DU?$char_traits@D@std@@V?$allocator@D@2@@std@@E@std@@@2@$0A@@std@@@std@@QAE@XZ 00405c90 f i authcommon:csvlib.obj
 0001:00004c90       ??0const_iterator@?$_Tree@V?$_Tmap_traits@KPAVServerSession@WBANetwork@@U?$less@K@std@@V?$allocator@U?$pair@$$CBKPAVServerSession@WBANetwork@@@std@@@4@$0A@@std@@@std@@QAE@XZ 00405c90 f i ClientStub_VS2008:SessionManager.obj
 0001:00004cb0       ??0const_iterator@?$_Tree@V?$_Tmap_traits@V?$basic_string@DU?$char_traits@D@std@@V?$allocator@D@2@@std@@EU?$less@V?$basic_string@DU?$char_traits@D@std@@V?$allocator@D@2@@std@@@2@V?$allocator@U?$pair@$$CBV?$basic_string@DU?$char_traits@D@std@@V?$allocator@D@2@@std@@E@std@@@2@$0A@@std@@@std@@QAE@PAU_Node@?$_Tree_nod@V?$_Tmap_traits@V?$basic_string@DU?$char_traits@D@std@@V?$allocator@D@2@@std@@EU?$less@V?$basic_string@DU?$char_traits@D@std@@V?$allocator@D@2@@std@@@2@V?$allocator@U?$pair@$$CBV?$basic_string@DU?$char_traits@D@std@@V?$allocator@D@2@@std@@E@std@@@2@$0A@@std@@@2@PBV12@@Z 00405cb0 f i authcommon:csvlib.obj
 0001:00004cb0       ??0const_iterator@?$_Tree@V?$_Tmap_traits@KPAVServerData@@U?$less@K@std@@V?$CustomAllocator@PAVServerData@@@util@@$0A@@std@@@std@@QAE@PAU_Node@?$_Tree_nod@V?$_Tmap_traits@KPAVServerData@@U?$less@K@std@@V?$CustomAllocator@PAVServerData@@@util@@$0A@@std@@@2@PBV12@@Z 00405cb0 f i authcommon:ServerDataManager.obj
 0001:00004cb0       ??0const_iterator@?$_Tree@V?$_Tmap_traits@KPAVServerSession@WBANetwork@@U?$less@K@std@@V?$allocator@U?$pair@$$CBKPAVServerSession@WBANetwork@@@std@@@4@$0A@@std@@@std@@QAE@PAU_Node@?$_Tree_nod@V?$_Tmap_traits@KPAVServerSession@WBANetwork@@U?$less@K@std@@V?$allocator@U?$pair@$$CBKPAVServerSession@WBANetwork@@@std@@@4@$0A@@std@@@2@PBV12@@Z 00405cb0 f i ClientStub_VS2008:SessionManager.obj
 0001:00004cb0       ??0const_iterator@?$_Tree@V?$_Tmap_traits@KPAUGROUP_DATA@@U?$less@K@std@@V?$CustomAllocator@PAUGROUP_DATA@@@util@@$0A@@std@@@std@@QAE@PAU_Node@?$_Tree_nod@V?$_Tmap_traits@KPAUGROUP_DATA@@U?$less@K@std@@V?$CustomAllocator@PAUGROUP_DATA@@@util@@$0A@@std@@@2@PBV12@@Z 00405cb0 f i authcommon:ServerDataManager.obj
 0001:00004cf0       ??Dconst_iterator@?$_Tree@V?$_Tmap_traits@KPAVServerSession@WBANetwork@@U?$less@K@std@@V?$allocator@U?$pair@$$CBKPAVServerSession@WBANetwork@@@std@@@4@$0A@@std@@@std@@QBEABU?$pair@$$CBKPAVServerSession@WBANetwork@@@2@XZ 00405cf0 f i ClientStub_VS2008:SessionManager.obj
 0001:00004cf0       ??Dconst_iterator@?$_Tree@V?$_Tmap_traits@V?$basic_string@DU?$char_traits@D@std@@V?$allocator@D@2@@std@@EU?$less@V?$basic_string@DU?$char_traits@D@std@@V?$allocator@D@2@@std@@@2@V?$allocator@U?$pair@$$CBV?$basic_string@DU?$char_traits@D@std@@V?$allocator@D@2@@std@@E@std@@@2@$0A@@std@@@std@@QBEABU?$pair@$$CBV?$basic_string@DU?$char_traits@D@std@@V?$allocator@D@2@@std@@E@2@XZ 00405cf0 f i authcommon:csvlib.obj
 0001:00004cf0       ??Dconst_iterator@?$_Tree@V?$_Tmap_traits@KPAUGROUP_DATA@@U?$less@K@std@@V?$CustomAllocator@PAUGROUP_DATA@@@util@@$0A@@std@@@std@@QBEABU?$pair@$$CBKPAUGROUP_DATA@@@2@XZ 00405cf0 f i authcommon:ServerDataManager.obj
 0001:00004d40       ??0?$_Const_iterator@$00@?$list@PAVServerSession@WBANetwork@@V?$allocator@PAVServerSession@WBANetwork@@@std@@@std@@QAE@PAU_Node@?$_List_nod@PAVServerSession@WBANetwork@@V?$allocator@PAVServerSession@WBANetwork@@@std@@@2@PBV12@@Z 00405d40 f i ClientStub_VS2008:SessionManager.obj
 0001:00004d90       ??E?$_Const_iterator@$00@?$list@PAVServerSession@WBANetwork@@V?$allocator@PAVServerSession@WBANetwork@@@std@@@std@@QAEAAV012@XZ 00405d90 f i ClientStub_VS2008:SessionManager.obj
 0001:00004e00       ??0?$_Iterator_with_base@Ubidirectional_iterator_tag@std@@U?$pair@$$CBKPAVServerData@@@2@HPBU32@ABU32@V_Iterator_base_aux@2@@std@@QAE@XZ 00405e00 f i authcommon:ServerDataManager.obj
 0001:00004e00       ??0?$_Iterator_with_base@Ubidirectional_iterator_tag@std@@U?$pair@$$CBKPAUGROUP_DATA@@@2@HPBU32@ABU32@V_Iterator_base_aux@2@@std@@QAE@XZ 00405e00 f i authcommon:ServerDataManager.obj
 0001:00004e00       ??0?$_Iterator_with_base@Urandom_access_iterator_tag@std@@V?$basic_string@DU?$char_traits@D@std@@V?$allocator@D@2@@2@HPBV32@ABV32@V_Iterator_base_aux@2@@std@@QAE@XZ 00405e00 f i authcommon:csvlib.obj
 0001:00004e00       ??0?$_Iterator_with_base@Ubidirectional_iterator_tag@std@@PAVServerSession@WBANetwork@@HPBQAV34@ABQAV34@V_Iterator_base_aux@2@@std@@QAE@XZ 00405e00 f i ClientStub_VS2008:SessionManager.obj
 0001:00004e00       ??0?$_Iterator_with_base@Ubidirectional_iterator_tag@std@@U?$pair@$$CBV?$basic_string@DU?$char_traits@D@std@@V?$allocator@D@2@@std@@E@2@HPBU32@ABU32@V_Iterator_base_aux@2@@std@@QAE@XZ 00405e00 f i authcommon:csvlib.obj
 0001:00004e00       ??0?$_Iterator_with_base@Urandom_access_iterator_tag@std@@PAU_tagConnectInfo@Connector@WBANetwork@@HPBQAU345@ABQAU345@V_Iterator_base_aux@2@@std@@QAE@XZ 00405e00 f i ClientStub_VS2008:Connector.obj
 0001:00004e00       ??0?$_Iterator_with_base@Ubidirectional_iterator_tag@std@@U?$pair@$$CBKPAVServerSession@WBANetwork@@@2@HPBU32@ABU32@V_Iterator_base_aux@2@@std@@QAE@XZ 00405e00 f i ClientStub_VS2008:SessionManager.obj
 0001:00004e20       ?_Buynode@?$_Tree@V?$_Tmap_traits@KPAVServerSession@WBANetwork@@U?$less@K@std@@V?$allocator@U?$pair@$$CBKPAVServerSession@WBANetwork@@@std@@@4@$0A@@std@@@std@@IAEPAU_Node@?$_Tree_nod@V?$_Tmap_traits@KPAVServerSession@WBANetwork@@U?$less@K@std@@V?$allocator@U?$pair@$$CBKPAVServerSession@WBANetwork@@@std@@@4@$0A@@std@@@2@XZ 00405e20 f i ClientStub_VS2008:SessionManager.obj
 0001:00004f90       ?_Buynode@?$_Tree@V?$_Tmap_traits@KPAVServerSession@WBANetwork@@U?$less@K@std@@V?$allocator@U?$pair@$$CBKPAVServerSession@WBANetwork@@@std@@@4@$0A@@std@@@std@@IAEPAU_Node@?$_Tree_nod@V?$_Tmap_traits@KPAVServerSession@WBANetwork@@U?$less@K@std@@V?$allocator@U?$pair@$$CBKPAVServerSession@WBANetwork@@@std@@@4@$0A@@std@@@2@PAU342@00ABU?$pair@$$CBKPAVServerSession@WBANetwork@@@2@D@Z 00405f90 f i ClientStub_VS2008:SessionManager.obj
 0001:00005070       ??0?$_Tree_ptr@V?$_Tmap_traits@KPAVServerSession@WBANetwork@@U?$less@K@std@@V?$allocator@U?$pair@$$CBKPAVServerSession@WBANetwork@@@std@@@4@$0A@@std@@@std@@IAE@ABU?$less@K@1@V?$allocator@U?$pair@$$CBKPAVServerSession@WBANetwork@@@std@@@1@@Z 00406070 f i ClientStub_VS2008:SessionManager.obj
 0001:000050b0       ?max_size@?$list@PAVServerSession@WBANetwork@@V?$allocator@PAVServerSession@WBANetwork@@@std@@@std@@QBEIXZ 004060b0 f i ClientStub_VS2008:SessionManager.obj
 0001:000050d0       ??0?$_Tree_nod@V?$_Tmap_traits@KPAVServerSession@WBANetwork@@U?$less@K@std@@V?$allocator@U?$pair@$$CBKPAVServerSession@WBANetwork@@@std@@@4@$0A@@std@@@std@@IAE@ABU?$less@K@1@V?$allocator@U?$pair@$$CBKPAVServerSession@WBANetwork@@@std@@@1@@Z 004060d0 f i ClientStub_VS2008:SessionManager.obj
 0001:00005110       ?allocate@?$allocator@U_Node@?$_Tree_nod@V?$_Tmap_traits@KPAVServerSession@WBANetwork@@U?$less@K@std@@V?$allocator@U?$pair@$$CBKPAVServerSession@WBANetwork@@@std@@@4@$0A@@std@@@std@@@std@@QAEPAU_Node@?$_Tree_nod@V?$_Tmap_traits@KPAVServerSession@WBANetwork@@U?$less@K@std@@V?$allocator@U?$pair@$$CBKPAVServerSession@WBANetwork@@@std@@@4@$0A@@std@@@2@I@Z 00406110 f i ClientStub_VS2008:SessionManager.obj
 0001:00005130       ??0?$_Tmap_traits@KPAVServerSession@WBANetwork@@U?$less@K@std@@V?$allocator@U?$pair@$$CBKPAVServerSession@WBANetwork@@@std@@@4@$0A@@std@@QAE@U?$less@K@1@V?$allocator@U?$pair@$$CBKPAVServerSession@WBANetwork@@@std@@@1@@Z 00406130 f i ClientStub_VS2008:SessionManager.obj
 0001:00005160       ??$swap@D@std@@YAXAAD0@Z   00406160 f i ClientStub_VS2008:SessionManager.obj
 0001:00005190       ??$_Allocate@U_Node@?$_List_nod@PAVServerSession@WBANetwork@@V?$allocator@PAVServerSession@WBANetwork@@@std@@@std@@@std@@YAPAU_Node@?$_List_nod@PAVServerSession@WBANetwork@@V?$allocator@PAVServerSession@WBANetwork@@@std@@@0@IPAU120@@Z 00406190 f i ClientStub_VS2008:SessionManager.obj
 0001:000051e0       ??$_Allocate@U_Node@?$_Tree_nod@V?$_Tmap_traits@KPAVServerSession@WBANetwork@@U?$less@K@std@@V?$allocator@U?$pair@$$CBKPAVServerSession@WBANetwork@@@std@@@4@$0A@@std@@@std@@@std@@YAPAU_Node@?$_Tree_nod@V?$_Tmap_traits@KPAVServerSession@WBANetwork@@U?$less@K@std@@V?$allocator@U?$pair@$$CBKPAVServerSession@WBANetwork@@@std@@@4@$0A@@std@@@0@IPAU120@@Z 004061e0 f i ClientStub_VS2008:SessionManager.obj
 0001:00005230       ??$?0U?$pair@$$CBKPAVServerSession@WBANetwork@@@std@@@?$allocator@PAU_Node@?$_Tree_nod@V?$_Tmap_traits@KPAVServerSession@WBANetwork@@U?$less@K@std@@V?$allocator@U?$pair@$$CBKPAVServerSession@WBANetwork@@@std@@@4@$0A@@std@@@std@@@std@@QAE@ABV?$allocator@U?$pair@$$CBKPAVServerSession@WBANetwork@@@std@@@1@@Z 00406230 f i ClientStub_VS2008:SessionManager.obj
 0001:00005230       ??$?0PAVServerSession@WBANetwork@@@?$allocator@U_Node@?$_List_nod@PAVServerSession@WBANetwork@@V?$allocator@PAVServerSession@WBANetwork@@@std@@@std@@@std@@QAE@ABV?$allocator@PAVServerSession@WBANetwork@@@1@@Z 00406230 f i ClientStub_VS2008:SessionManager.obj
 0001:00005230       ??$?0U?$pair@$$CBKPAVServerSession@WBANetwork@@@std@@@?$allocator@V_Aux_cont@std@@@std@@QAE@ABV?$allocator@U?$pair@$$CBKPAVServerSession@WBANetwork@@@std@@@1@@Z 00406230 f i ClientStub_VS2008:SessionManager.obj
 0001:00005230       ??0?$allocator@U?$pair@$$CBV?$basic_string@DU?$char_traits@D@std@@V?$allocator@D@2@@std@@E@std@@@std@@QAE@ABV01@@Z 00406230 f i authcommon:csvlib.obj
 0001:00005230       ??0?$allocator@PAVServerSession@WBANetwork@@@std@@QAE@ABV01@@Z 00406230 f i ClientStub_VS2008:SessionManager.obj
 0001:00005230       ??0?$allocator@V?$basic_string@DU?$char_traits@D@std@@V?$allocator@D@2@@std@@@std@@QAE@ABV01@@Z 00406230 f i authcommon:csvlib.obj
 0001:00005230       ??0?$allocator@U?$pair@$$CBKPAVServerSession@WBANetwork@@@std@@@std@@QAE@ABV01@@Z 00406230 f i ClientStub_VS2008:SessionManager.obj
 0001:00005230       ??$?0U?$pair@$$CBV?$basic_string@DU?$char_traits@D@std@@V?$allocator@D@2@@std@@E@std@@@?$allocator@U_Node@?$_Tree_nod@V?$_Tmap_traits@V?$basic_string@DU?$char_traits@D@std@@V?$allocator@D@2@@std@@EU?$less@V?$basic_string@DU?$char_traits@D@std@@V?$allocator@D@2@@std@@@2@V?$allocator@U?$pair@$$CBV?$basic_string@DU?$char_traits@D@std@@V?$allocator@D@2@@std@@E@std@@@2@$0A@@std@@@std@@@std@@QAE@ABV?$allocator@U?$pair@$$CBV?$basic_string@DU?$char_traits@D@std@@V?$allocator@D@2@@std@@E@std@@@1@@Z 00406230 f i authcommon:csvlib.obj
 0001:00005230       ??$?0U?$pair@$$CBKPAUGROUP_DATA@@@std@@@?$CustomAllocator@PAUGROUP_DATA@@@util@@QAE@ABV?$CustomAllocator@U?$pair@$$CBKPAUGROUP_DATA@@@std@@@1@@Z 00406230 f i authcommon:ServerDataManager.obj
 0001:00005230       ??0?$allocator@PAU_tagConnectInfo@Connector@WBANetwork@@@std@@QAE@ABV01@@Z 00406230 f i ClientStub_VS2008:Connector.obj
 0001:00005230       ??$?0PAVServerSession@WBANetwork@@@?$allocator@V_Aux_cont@std@@@std@@QAE@ABV?$allocator@PAVServerSession@WBANetwork@@@1@@Z 00406230 f i ClientStub_VS2008:SessionManager.obj
 0001:00005230       ??$?0U?$pair@$$CBV?$basic_string@DU?$char_traits@D@std@@V?$allocator@D@2@@std@@E@std@@@?$allocator@PAU_Node@?$_Tree_nod@V?$_Tmap_traits@V?$basic_string@DU?$char_traits@D@std@@V?$allocator@D@2@@std@@EU?$less@V?$basic_string@DU?$char_traits@D@std@@V?$allocator@D@2@@std@@@2@V?$allocator@U?$pair@$$CBV?$basic_string@DU?$char_traits@D@std@@V?$allocator@D@2@@std@@E@std@@@2@$0A@@std@@@std@@@std@@QAE@ABV?$allocator@U?$pair@$$CBV?$basic_string@DU?$char_traits@D@std@@V?$allocator@D@2@@std@@E@std@@@1@@Z 00406230 f i authcommon:csvlib.obj
 0001:00005230       ??$?0U?$pair@$$CBKPAUGROUP_DATA@@@std@@@?$CustomAllocator@PAU_Node@?$_Tree_nod@V?$_Tmap_traits@KPAUGROUP_DATA@@U?$less@K@std@@V?$CustomAllocator@PAUGROUP_DATA@@@util@@$0A@@std@@@std@@@util@@QAE@ABV?$CustomAllocator@U?$pair@$$CBKPAUGROUP_DATA@@@std@@@1@@Z 00406230 f i authcommon:ServerDataManager.obj
 0001:00005230       ??$?0U?$pair@$$CBV?$basic_string@DU?$char_traits@D@std@@V?$allocator@D@2@@std@@E@std@@@?$allocator@V_Aux_cont@std@@@std@@QAE@ABV?$allocator@U?$pair@$$CBV?$basic_string@DU?$char_traits@D@std@@V?$allocator@D@2@@std@@E@std@@@1@@Z 00406230 f i authcommon:csvlib.obj
 0001:00005230       ??$?0U?$pair@$$CBKPAVServerSession@WBANetwork@@@std@@@?$allocator@U_Node@?$_Tree_nod@V?$_Tmap_traits@KPAVServerSession@WBANetwork@@U?$less@K@std@@V?$allocator@U?$pair@$$CBKPAVServerSession@WBANetwork@@@std@@@4@$0A@@std@@@std@@@std@@QAE@ABV?$allocator@U?$pair@$$CBKPAVServerSession@WBANetwork@@@std@@@1@@Z 00406230 f i ClientStub_VS2008:SessionManager.obj
 0001:00005230       ??$?0PAVServerData@@@?$CustomAllocator@V_Aux_cont@std@@@util@@QAE@ABV?$CustomAllocator@PAVServerData@@@1@@Z 00406230 f i authcommon:ServerDataManager.obj
 0001:00005230       ??$?0V?$basic_string@DU?$char_traits@D@std@@V?$allocator@D@2@@std@@@?$allocator@V_Aux_cont@std@@@std@@QAE@ABV?$allocator@V?$basic_string@DU?$char_traits@D@std@@V?$allocator@D@2@@std@@@1@@Z 00406230 f i authcommon:csvlib.obj
 0001:00005230       ??$?0PAU_tagConnectInfo@Connector@WBANetwork@@@?$allocator@V_Aux_cont@std@@@std@@QAE@ABV?$allocator@PAU_tagConnectInfo@Connector@WBANetwork@@@1@@Z 00406230 f i ClientStub_VS2008:Connector.obj
 0001:00005230       ??$?0U?$pair@$$CBKPAVServerData@@@std@@@?$CustomAllocator@PAU_Node@?$_Tree_nod@V?$_Tmap_traits@KPAVServerData@@U?$less@K@std@@V?$CustomAllocator@PAVServerData@@@util@@$0A@@std@@@std@@@util@@QAE@ABV?$CustomAllocator@U?$pair@$$CBKPAVServerData@@@std@@@1@@Z 00406230 f i authcommon:ServerDataManager.obj
 0001:00005230       ??$?0U?$pair@$$CBKPAVServerData@@@std@@@?$CustomAllocator@U_Node@?$_Tree_nod@V?$_Tmap_traits@KPAVServerData@@U?$less@K@std@@V?$CustomAllocator@PAVServerData@@@util@@$0A@@std@@@std@@@util@@QAE@ABV?$CustomAllocator@U?$pair@$$CBKPAVServerData@@@std@@@1@@Z 00406230 f i authcommon:ServerDataManager.obj
 0001:00005230       ??$?0PAVServerSession@WBANetwork@@@?$allocator@PAU_Node@?$_List_nod@PAVServerSession@WBANetwork@@V?$allocator@PAVServerSession@WBANetwork@@@std@@@std@@@std@@QAE@ABV?$allocator@PAVServerSession@WBANetwork@@@1@@Z 00406230 f i ClientStub_VS2008:SessionManager.obj
 0001:00005230       ??$?0PAUGROUP_DATA@@@?$CustomAllocator@V_Aux_cont@std@@@util@@QAE@ABV?$CustomAllocator@PAUGROUP_DATA@@@1@@Z 00406230 f i authcommon:ServerDataManager.obj
 0001:00005230       ??0?$allocator@D@std@@QAE@ABV01@@Z 00406230 f i ClientStub_VS2008:Connector.obj
 0001:00005230       ??$?0U?$pair@$$CBKPAVServerData@@@std@@@?$CustomAllocator@PAVServerData@@@util@@QAE@ABV?$CustomAllocator@U?$pair@$$CBKPAVServerData@@@std@@@1@@Z 00406230 f i authcommon:ServerDataManager.obj
 0001:00005230       ??$?0U?$pair@$$CBKPAUGROUP_DATA@@@std@@@?$CustomAllocator@U_Node@?$_Tree_nod@V?$_Tmap_traits@KPAUGROUP_DATA@@U?$less@K@std@@V?$CustomAllocator@PAUGROUP_DATA@@@util@@$0A@@std@@@std@@@util@@QAE@ABV?$CustomAllocator@U?$pair@$$CBKPAUGROUP_DATA@@@std@@@1@@Z 00406230 f i authcommon:ServerDataManager.obj
 0001:00005230       ??$?0PAU_tagConnectInfo@Connector@WBANetwork@@@?$allocator@PAPAU_tagConnectInfo@Connector@WBANetwork@@@std@@QAE@ABV?$allocator@PAU_tagConnectInfo@Connector@WBANetwork@@@1@@Z 00406230 f i ClientStub_VS2008:Connector.obj
 0001:00005240       ?_Same_container@_Iterator_base_aux@std@@QBE_NABV12@@Z 00406240 f i ClientStub_VS2008:SessionManager.obj
 0001:00005260       ??1out_of_range@std@@UAE@XZ 00406260 f i ClientStub_VS2008:SessionManager.obj
 0001:00005280       ??0out_of_range@std@@QAE@ABV01@@Z 00406280 f i ClientStub_VS2008:SessionManager.obj
 0001:000052b0       ??_Gout_of_range@std@@UAEPAXI@Z 004062b0 f i ClientStub_VS2008:SessionManager.obj
 0001:000052b0       ??_Eout_of_range@std@@UAEPAXI@Z 004062b0 f i  CIL library: CIL module
 0001:000052e0       ??0out_of_range@std@@QAE@ABV?$basic_string@DU?$char_traits@D@std@@V?$allocator@D@2@@1@@Z 004062e0 f i ClientStub_VS2008:SessionManager.obj
 0001:00005310       ??_GCNetworkManager@@UAEPAXI@Z 00406310 f i ClientStub_VS2008:NetworkManager.obj
 0001:00005310       ??_ECNetworkManager@@UAEPAXI@Z 00406310 f i  CIL library: CIL module
 0001:00005340       ??_GThread@WBANetwork@@UAEPAXI@Z 00406340 f i ClientStub_VS2008:Thread.obj
 0001:00005340       ??_EThread@WBANetwork@@UAEPAXI@Z 00406340 f i  CIL library: CIL module
 0001:00005370       ??_ECSessionMgr@@UAEPAXI@Z 00406370 f i  CIL library: CIL module
 0001:00005370       ??_GCSessionMgr@@UAEPAXI@Z 00406370 f i ClientStub_VS2008:SessionMgr.obj
 0001:000053a0       ?DoAllocServerSession@AuthFrame@@SAPAVNetworkObject@@XZ 004063a0 f   AuthFrame.obj
 0001:000053d0       ?DoFreeServerSession@AuthFrame@@SAXPAVNetworkObject@@@Z 004063d0 f   AuthFrame.obj
 0001:00005400       ?DoFreeConnectSession@AuthFrame@@SAXPAVNetworkObject@@@Z 00406400 f   AuthFrame.obj
 0001:00005410       ??0AuthFrame@@QAE@XZ       00406410 f   AuthFrame.obj
 0001:000056c0       ??1AuthFrame@@UAE@XZ       004066c0 f   AuthFrame.obj
 0001:000057e0       ?Init@AuthFrame@@MAEHXZ    004067e0 f   AuthFrame.obj
 0001:00005cc0       ?Update@AuthFrame@@MAEHK@Z 00406cc0 f   AuthFrame.obj
 0001:00005d60       ?Release@AuthFrame@@MAEXXZ 00406d60 f   AuthFrame.obj
 0001:00005e60       ?IsRTTAServerConnected@AuthFrame@@QAEHXZ 00406e60 f   AuthFrame.obj
 0001:00005ea0       ?IsBillingConnected@AuthFrame@@QAEHXZ 00406ea0 f   AuthFrame.obj
 0001:00005ee0       ?SendRTTAServer@AuthFrame@@QAEHPAUMSG_BASE_INTERNAL@@G@Z 00406ee0 f   AuthFrame.obj
 0001:00005f30       ?SendToSession@AuthFrame@@QAEHKPAUMSG_BASE_INTERNAL@@G@Z 00406f30 f   AuthFrame.obj
 0001:00005f60       ?SendToSessionType@AuthFrame@@QAEXW4eSERVER_TYPE@@PAUMSG_BASE_INTERNAL@@GK@Z 00406f60 f   AuthFrame.obj
 0001:00005f90       ?AllocServerSession@AuthFrame@@MAEPAVServerSession@@W4eSERVER_TYPE@@@Z 00406f90 f   AuthFrame.obj
 0001:00006050       ?FreeServerSession@AuthFrame@@MAEXPAVServerSession@@@Z 00407050 f   AuthFrame.obj
 0001:00006100       ?KeyEvent@AuthFrame@@MAEHD@Z 00407100 f   AuthFrame.obj
 0001:000061f0       ?DisplayServerInfo@AuthFrame@@IAEXXZ 004071f0 f   AuthFrame.obj
 0001:00006240       ?DisplayVersionInfo@AuthFrame@@IAEXXZ 00407240 f   AuthFrame.obj
 0001:00006700       ?DisplayControlIPInfo@AuthFrame@@IAEXXZ 00407700 f   AuthFrame.obj
 0001:000067a0       ?GetSession@AuthFrame@@QAEPAVServerSession@@W4eSERVER_TYPE@@@Z 004077a0 f   AuthFrame.obj
 0001:000067e0       ?ConnectTo@AuthFrame@@QAEHW4eSERVER_TYPE@@@Z 004077e0 f   AuthFrame.obj
 0001:000068a0       ?SendGameVersion_ToLoginFront@AuthFrame@@QAEXK@Z 004078a0 f   AuthFrame.obj
 0001:00006a60       ?AddControlIp@AuthFrame@@QAEXPAUDB_CONTROL_IP_INFO@@@Z 00407a60 f   AuthFrame.obj
 0001:00006b60       ?ReleaseControlIp@AuthFrame@@QAEXXZ 00407b60 f   AuthFrame.obj
 0001:00006bc0       ?SendControlIp_ToLoginFront@AuthFrame@@QAEXK@Z 00407bc0 f   AuthFrame.obj
 0001:00006ea0       ?CreateSunLog@AuthFrame@@IAEHXZ 00407ea0 f   AuthFrame.obj
 0001:00007010       ?IsAllowSts@AuthFrame@@QAE_NW4USER_STS@@@Z 00408010 f   AuthFrame.obj
 0001:00007050       ?ReloadAllowedSetting@AuthFrame@@QAEXXZ 00408050 f   AuthFrame.obj
 0001:000072b0       ?GetServerType@AuthFrame@@UAE?AW4eSERVER_TYPE@@XZ 004082b0 f i AuthFrame.obj
 0001:000072c0       ??_GAuthFrame@@UAEPAXI@Z   004082c0 f i AuthFrame.obj
 0001:000072c0       ??_EAuthFrame@@UAEPAXI@Z   004082c0 f i AuthFrame.obj
 0001:000072f0       ?clear@?$basic_string@DU?$char_traits@D@std@@V?$allocator@D@2@@std@@QAEXXZ 004082f0 f i AuthFrame.obj
 0001:000073d0       ?Instance@?$Singleton@VAuthFrame@@$00@util@@SAPAVAuthFrame@@XZ 004083d0 f i AuthFrame.obj
 0001:00007460       ??0?$list@PAUCONTROL_IP_INFO@@V?$allocator@PAUCONTROL_IP_INFO@@@std@@@std@@QAE@XZ 00408460 f i AuthFrame.obj
 0001:00007460       ??0?$list@PAVQueryObject@@V?$allocator@PAVQueryObject@@@std@@@std@@QAE@XZ 00408460 f i QueryManager.obj
 0001:000074e0       ??1?$list@PAUCONTROL_IP_INFO@@V?$allocator@PAUCONTROL_IP_INFO@@@std@@@std@@QAE@XZ 004084e0 f i AuthFrame.obj
 0001:000074e0       ??1?$list@PAVQueryObject@@V?$allocator@PAVQueryObject@@@std@@@std@@QAE@XZ 004084e0 f i QueryManager.obj
 0001:00007570       ?end@?$list@KV?$CustomAllocator@K@util@@@std@@QAE?AV?$_Iterator@$00@12@XZ 00408570 f i IntegratedBillingServerSession.obj
 0001:00007570       ?end@?$list@PAUCONTROL_IP_INFO@@V?$allocator@PAUCONTROL_IP_INFO@@@std@@@std@@QAE?AV?$_Iterator@$00@12@XZ 00408570 f i AuthFrame.obj
 0001:00007570       ?end@?$list@PAVQueryObject@@V?$allocator@PAVQueryObject@@@std@@@std@@QAE?AV?$_Iterator@$00@12@XZ 00408570 f i QueryManager.obj
 0001:000075c0       ?front@?$list@PAUCONTROL_IP_INFO@@V?$allocator@PAUCONTROL_IP_INFO@@@std@@@std@@QAEAAPAUCONTROL_IP_INFO@@XZ 004085c0 f i AuthFrame.obj
 0001:000075c0       ?front@?$list@KV?$CustomAllocator@K@util@@@std@@QBEABKXZ 004085c0 f i IntegratedBillingServerSession.obj
 0001:00007610       ?pop_front@?$list@PAUCONTROL_IP_INFO@@V?$allocator@PAUCONTROL_IP_INFO@@@std@@@std@@QAEXXZ 00408610 f i AuthFrame.obj
 0001:00007680       ?Instance@?$Singleton@VQueryManager@@$00@util@@SAPAVQueryManager@@XZ 00408680 f i AuthFrame.obj
 0001:00007710       ?DestroyInstance@?$Singleton@VQueryManager@@$00@util@@SAXXZ 00408710 f i AuthFrame.obj
 0001:00007770       ?Instance@?$Singleton@VAccountManager@@$00@util@@SAPAVAccountManager@@XZ 00408770 f i AuthFrame.obj
 0001:00007800       ?DestroyInstance@?$Singleton@VAccountManager@@$00@util@@SAXXZ 00408800 f i AuthFrame.obj
 0001:00007860       ?Instance@?$Singleton@VServerDataManager@@$00@util@@SAPAVServerDataManager@@XZ 00408860 f i AuthFrame.obj
 0001:000078f0       ?DestroyInstance@?$Singleton@VServerDataManager@@$00@util@@SAXXZ 004088f0 f i AuthFrame.obj
 0001:00007950       ?Instance@?$Singleton@VReAuthManager@@$00@util@@SAPAVReAuthManager@@XZ 00408950 f i AuthFrame.obj
 0001:000079e0       ?DestroyInstance@?$Singleton@VReAuthManager@@$00@util@@SAXXZ 004089e0 f i AuthFrame.obj
 0001:00007a40       ??1?$_List_val@PAVQueryObject@@V?$allocator@PAVQueryObject@@@std@@@std@@QAE@XZ 00408a40 f i QueryManager.obj
 0001:00007a40       ??1?$_List_val@PAUCONTROL_IP_INFO@@V?$allocator@PAUCONTROL_IP_INFO@@@std@@@std@@QAE@XZ 00408a40 f i AuthFrame.obj
 0001:00007a70       ?erase@?$basic_string@DU?$char_traits@D@std@@V?$allocator@D@2@@std@@QAE?AV?$_String_iterator@DU?$char_traits@D@std@@V?$allocator@D@2@@2@V?$_String_const_iterator@DU?$char_traits@D@std@@V?$allocator@D@2@@2@0@Z 00408a70 f i AuthFrame.obj
 0001:00007bc0       ?_Buynode@?$list@PAUCONTROL_IP_INFO@@V?$allocator@PAUCONTROL_IP_INFO@@@std@@@std@@IAEPAU_Node@?$_List_nod@PAUCONTROL_IP_INFO@@V?$allocator@PAUCONTROL_IP_INFO@@@std@@@2@XZ 00408bc0 f i AuthFrame.obj
 0001:00007bc0       ?_Buynode@?$list@PAVQueryObject@@V?$allocator@PAVQueryObject@@@std@@@std@@IAEPAU_Node@?$_List_nod@PAVQueryObject@@V?$allocator@PAVQueryObject@@@std@@@2@XZ 00408bc0 f i QueryManager.obj
 0001:00007cc0       ?clear@?$list@PAUCONTROL_IP_INFO@@V?$allocator@PAUCONTROL_IP_INFO@@@std@@@std@@QAEXXZ 00408cc0 f i AuthFrame.obj
 0001:00007cc0       ?clear@?$list@PAVQueryObject@@V?$allocator@PAVQueryObject@@@std@@@std@@QAEXXZ 00408cc0 f i QueryManager.obj
 0001:00007d40       ?allocate@?$allocator@U_Node@?$_List_nod@PAVQueryObject@@V?$allocator@PAVQueryObject@@@std@@@std@@@std@@QAEPAU_Node@?$_List_nod@PAVQueryObject@@V?$allocator@PAVQueryObject@@@std@@@2@I@Z 00408d40 f i QueryManager.obj
 0001:00007d40       ?allocate@?$allocator@U_Node@?$_List_nod@PAUCONTROL_IP_INFO@@V?$allocator@PAUCONTROL_IP_INFO@@@std@@@std@@@std@@QAEPAU_Node@?$_List_nod@PAUCONTROL_IP_INFO@@V?$allocator@PAUCONTROL_IP_INFO@@@std@@@2@I@Z 00408d40 f i AuthFrame.obj
 0001:00007d60       ??0?$_String_const_iterator@DU?$char_traits@D@std@@V?$allocator@D@2@@std@@QAE@PBDPBV_Container_base_secure@1@@Z 00408d60 f i AuthFrame.obj
 0001:00007df0       ?Initialize@?$PoolRouter@$0CA@@util@@QAE_NKKKPBDPAX@Z 00408df0 f i AuthFrame.obj
 0001:00007e40       ??$Register@VLoginFrontServerSession@@@?$PoolRouter@$0CA@@util@@QAE_NK@Z 00408e40 f i AuthFrame.obj
 0001:00007ef0       ??$Register@VAuthAgentServerSession@@@?$PoolRouter@$0CA@@util@@QAE_NK@Z 00408ef0 f i AuthFrame.obj
 0001:00007fa0       ??$Register@VRTTAServerSession@@@?$PoolRouter@$0CA@@util@@QAE_NK@Z 00408fa0 f i AuthFrame.obj
 0001:00008050       ??$Register@VIntegratedBillingServerSession@@@?$PoolRouter@$0CA@@util@@QAE_NK@Z 00409050 f i AuthFrame.obj
 0001:00008100       ??$Register@VTempServerSession@@@?$PoolRouter@$0CA@@util@@QAE_NK@Z 00409100 f i AuthFrame.obj
 0001:000081b0       ?Initialize@?$CMemoryPoolFactory@VTempServerSession@@@util@@UAE_NIIPBDPAX@Z 004091b0 f i AuthFrame.obj
 0001:00008210       ??_E?$CMemoryPoolFactory@VTempServerSession@@@util@@UAEPAXI@Z 00409210 f i AuthFrame.obj
 0001:00008210       ??_G?$CMemoryPoolFactory@VTempServerSession@@@util@@UAEPAXI@Z 00409210 f i AuthFrame.obj
 0001:00008240       ??1?$CMemoryPoolFactory@VTempServerSession@@@util@@UAE@XZ 00409240 f i AuthFrame.obj
 0001:000082d0       ?CreateImpl@?$CMemoryPoolFactory@VTempServerSession@@@util@@QAEXH@Z 004092d0 f i AuthFrame.obj
 0001:00008700       ?Alloc@?$NotUseChunkImpl@VTempServerSession@@@internal@util@@UAEPAXXZ 00409700 f i AuthFrame.obj
 0001:00008790       ?Alloc@?$FixedSizeChunkImpl@VTempServerSession@@@internal@util@@UAEPAXXZ 00409790 f i AuthFrame.obj
 0001:00008850       ??_G?$NotUseChunkImpl@VTempServerSession@@@internal@util@@UAEPAXI@Z 00409850 f i AuthFrame.obj
 0001:00008850       ??_E?$NotUseChunkImpl@VTempServerSession@@@internal@util@@UAEPAXI@Z 00409850 f i AuthFrame.obj
 0001:00008890       ??_G?$VariableSizeChunkImpl@VTempServerSession@@@internal@util@@UAEPAXI@Z 00409890 f i AuthFrame.obj
 0001:00008890       ??_E?$VariableSizeChunkImpl@VTempServerSession@@@internal@util@@UAEPAXI@Z 00409890 f i AuthFrame.obj
 0001:00008920       ??_G?$FixedSizeChunkImpl@VTempServerSession@@@internal@util@@UAEPAXI@Z 00409920 f i AuthFrame.obj
 0001:00008920       ??_E?$FixedSizeChunkImpl@VTempServerSession@@@internal@util@@UAEPAXI@Z 00409920 f i AuthFrame.obj
 0001:000089a0       ?Create@?$VariableSizeChunkImpl@VTempServerSession@@@internal@util@@CAXPAX@Z 004099a0 f i AuthFrame.obj
 0001:00008a10       ??$_Allocate@U_Node@?$_List_nod@PAVQueryObject@@V?$allocator@PAVQueryObject@@@std@@@std@@@std@@YAPAU_Node@?$_List_nod@PAVQueryObject@@V?$allocator@PAVQueryObject@@@std@@@0@IPAU120@@Z 00409a10 f i QueryManager.obj
 0001:00008a10       ??$_Allocate@U_Node@?$_List_nod@PAUCONTROL_IP_INFO@@V?$allocator@PAUCONTROL_IP_INFO@@@std@@@std@@@std@@YAPAU_Node@?$_List_nod@PAUCONTROL_IP_INFO@@V?$allocator@PAUCONTROL_IP_INFO@@@std@@@0@IPAU120@@Z 00409a10 f i AuthFrame.obj
 0001:00008a70       ?malloc_need_resize@?$pool@Udefault_user_allocator_new_delete@boost@@@boost@@AAEPAXXZ 00409a70 f i AuthFrame.obj
 0001:00008c20       ?release_memory@?$pool@Udefault_user_allocator_new_delete@boost@@@boost@@QAE_NXZ 00409c20 f i AuthFrame.obj
 0001:00008e20       ?purge_memory@?$pool@Udefault_user_allocator_new_delete@boost@@@boost@@QAE_NXZ 00409e20 f i AuthFrame.obj
 0001:00008ec0       ?alloc_size@?$pool@Udefault_user_allocator_new_delete@boost@@@boost@@IBEIXZ 00409ec0 f i AuthFrame.obj
 0001:00008f30       ?next@?$PODptr@I@details@boost@@QBE?AV123@XZ 00409f30 f i AuthFrame.obj
 0001:00008f80       ?next@?$PODptr@I@details@boost@@QBEXABV123@@Z 00409f80 f i AuthFrame.obj
 0001:00008fd0       ?Initialize@?$CMemoryPoolFactory@VLoginFrontServerSession@@@util@@UAE_NIIPBDPAX@Z 00409fd0 f i AuthFrame.obj
 0001:00009030       ?Initialize@?$CMemoryPoolFactory@VAuthAgentServerSession@@@util@@UAE_NIIPBDPAX@Z 0040a030 f i AuthFrame.obj
 0001:00009090       ?Initialize@?$CMemoryPoolFactory@VRTTAServerSession@@@util@@UAE_NIIPBDPAX@Z 0040a090 f i AuthFrame.obj
 0001:000090f0       ?Initialize@?$CMemoryPoolFactory@VIntegratedBillingServerSession@@@util@@UAE_NIIPBDPAX@Z 0040a0f0 f i AuthFrame.obj
 0001:00009150       ??_E?$CMemoryPoolFactory@VLoginFrontServerSession@@@util@@UAEPAXI@Z 0040a150 f i AuthFrame.obj
 0001:00009150       ??_G?$CMemoryPoolFactory@VLoginFrontServerSession@@@util@@UAEPAXI@Z 0040a150 f i AuthFrame.obj
 0001:00009180       ??1?$CMemoryPoolFactory@VLoginFrontServerSession@@@util@@UAE@XZ 0040a180 f i AuthFrame.obj
 0001:00009210       ??_G?$CMemoryPoolFactory@VAuthAgentServerSession@@@util@@UAEPAXI@Z 0040a210 f i AuthFrame.obj
 0001:00009210       ??_E?$CMemoryPoolFactory@VAuthAgentServerSession@@@util@@UAEPAXI@Z 0040a210 f i AuthFrame.obj
 0001:00009240       ??1?$CMemoryPoolFactory@VAuthAgentServerSession@@@util@@UAE@XZ 0040a240 f i AuthFrame.obj
 0001:000092d0       ??_E?$CMemoryPoolFactory@VRTTAServerSession@@@util@@UAEPAXI@Z 0040a2d0 f i AuthFrame.obj
 0001:000092d0       ??_G?$CMemoryPoolFactory@VRTTAServerSession@@@util@@UAEPAXI@Z 0040a2d0 f i AuthFrame.obj
 0001:00009300       ??1?$CMemoryPoolFactory@VRTTAServerSession@@@util@@UAE@XZ 0040a300 f i AuthFrame.obj
 0001:00009390       ??_G?$CMemoryPoolFactory@VIntegratedBillingServerSession@@@util@@UAEPAXI@Z 0040a390 f i AuthFrame.obj
 0001:00009390       ??_E?$CMemoryPoolFactory@VIntegratedBillingServerSession@@@util@@UAEPAXI@Z 0040a390 f i AuthFrame.obj
 0001:000093c0       ??1?$CMemoryPoolFactory@VIntegratedBillingServerSession@@@util@@UAE@XZ 0040a3c0 f i AuthFrame.obj
 0001:00009450       ?CreateImpl@?$CMemoryPoolFactory@VLoginFrontServerSession@@@util@@QAEXH@Z 0040a450 f i AuthFrame.obj
 0001:00009880       ?CreateImpl@?$CMemoryPoolFactory@VAuthAgentServerSession@@@util@@QAEXH@Z 0040a880 f i AuthFrame.obj
 0001:00009cb0       ?CreateImpl@?$CMemoryPoolFactory@VRTTAServerSession@@@util@@QAEXH@Z 0040acb0 f i AuthFrame.obj
 0001:0000a0e0       ?CreateImpl@?$CMemoryPoolFactory@VIntegratedBillingServerSession@@@util@@QAEXH@Z 0040b0e0 f i AuthFrame.obj
 0001:0000a520       ?Alloc@?$NotUseChunkImpl@VLoginFrontServerSession@@@internal@util@@UAEPAXXZ 0040b520 f i AuthFrame.obj
 0001:0000a5b0       ?Release@?$VariableSizeChunkImpl@VQueryAuthLog@@@internal@util@@UAEXXZ 0040b5b0 f i QueryManager.obj
 0001:0000a5b0       ?Release@?$VariableSizeChunkImpl@VIntegratedBillingServerSession@@@internal@util@@UAEXXZ 0040b5b0 f i AuthFrame.obj
 0001:0000a5b0       ?Release@?$VariableSizeChunkImpl@VQueryUpdateTokenKey@@@internal@util@@UAEXXZ 0040b5b0 f i QueryManager.obj
 0001:0000a5b0       ?Release@?$VariableSizeChunkImpl@VQueryGspGetAccountByGuid@nsGSP@@@internal@util@@UAEXXZ 0040b5b0 f i QueryManager.obj
 0001:0000a5b0       ?Release@?$VariableSizeChunkImpl@VAuthAgentServerSession@@@internal@util@@UAEXXZ 0040b5b0 f i AuthFrame.obj
 0001:0000a5b0       ?Release@?$VariableSizeChunkImpl@UAccountInfo@@@internal@util@@UAEXXZ 0040b5b0 f i AccountManager.obj
 0001:0000a5b0       ?Release@?$VariableSizeChunkImpl@VLoginFrontServerSession@@@internal@util@@UAEXXZ 0040b5b0 f i AuthFrame.obj
 0001:0000a5b0       ?Release@?$VariableSizeChunkImpl@VQueryCheckPassword@@@internal@util@@UAEXXZ 0040b5b0 f i QueryManager.obj
 0001:0000a5b0       ?Release@?$VariableSizeChunkImpl@VQuerySelectPCRoomIPList@@@internal@util@@UAEXXZ 0040b5b0 f i QueryManager.obj
 0001:0000a5b0       ?Release@?$VariableSizeChunkImpl@VQueryControlIp@@@internal@util@@UAEXXZ 0040b5b0 f i QueryManager.obj
 0001:0000a5b0       ?Release@?$VariableSizeChunkImpl@VQueryNetCafe2ndAuth@@@internal@util@@UAEXXZ 0040b5b0 f i QueryManager.obj
 0001:0000a5b0       ?Release@?$VariableSizeChunkImpl@VQueryGspLoggingUserState@nsGSP@@@internal@util@@UAEXXZ 0040b5b0 f i QueryManager.obj
 0001:0000a5b0       ?Release@?$VariableSizeChunkImpl@VQueryRecoverLocation@@@internal@util@@UAEXXZ 0040b5b0 f i QueryManager.obj
 0001:0000a5b0       ?Release@?$VariableSizeChunkImpl@VQueryGspGetAccount@nsGSP@@@internal@util@@UAEXXZ 0040b5b0 f i QueryManager.obj
 0001:0000a5b0       ?Release@?$VariableSizeChunkImpl@VQueryNetCafeLog@@@internal@util@@UAEXXZ 0040b5b0 f i QueryManager.obj
 0001:0000a5b0       ?Release@?$VariableSizeChunkImpl@VQueryNetCafeLogIn@@@internal@util@@UAEXXZ 0040b5b0 f i QueryManager.obj
 0001:0000a5b0       ?Release@?$VariableSizeChunkImpl@VQueryGameVersionUpdate@@@internal@util@@UAEXXZ 0040b5b0 f i QueryManager.obj
 0001:0000a5b0       ?Release@?$VariableSizeChunkImpl@VQueryUserStsChange@@@internal@util@@UAEXXZ 0040b5b0 f i QueryManager.obj
 0001:0000a5b0       ?Release@?$VariableSizeChunkImpl@VQueryEnd@@@internal@util@@UAEXXZ 0040b5b0 f i QueryManager.obj
 0001:0000a5b0       ?Release@?$VariableSizeChunkImpl@VRTTAServerSession@@@internal@util@@UAEXXZ 0040b5b0 f i AuthFrame.obj
 0001:0000a5b0       ?Release@?$VariableSizeChunkImpl@VQueryUserId@@@internal@util@@UAEXXZ 0040b5b0 f i QueryManager.obj
 0001:0000a5b0       ?Release@?$VariableSizeChunkImpl@VTempServerSession@@@internal@util@@UAEXXZ 0040b5b0 f i AuthFrame.obj
 0001:0000a5b0       ?Release@?$VariableSizeChunkImpl@VQueryGspChangeUserState@nsGSP@@@internal@util@@UAEXXZ 0040b5b0 f i QueryManager.obj
 0001:0000a5b0       ?Release@?$VariableSizeChunkImpl@VQueryAuthLogUpdate@@@internal@util@@UAEXXZ 0040b5b0 f i QueryManager.obj
 0001:0000a5b0       ?Release@?$VariableSizeChunkImpl@VQueryAuth@@@internal@util@@UAEXXZ 0040b5b0 f i QueryManager.obj
 0001:0000a5b0       ?Release@?$VariableSizeChunkImpl@VQueryAuthFailCount@@@internal@util@@UAEXXZ 0040b5b0 f i QueryManager.obj
 0001:0000a5b0       ?Release@?$VariableSizeChunkImpl@VQueryGspCheckAuthKey@nsGSP@@@internal@util@@UAEXXZ 0040b5b0 f i QueryManager.obj
 0001:0000a5d0       ?Alloc@?$FixedSizeChunkImpl@VLoginFrontServerSession@@@internal@util@@UAEPAXXZ 0040b5d0 f i AuthFrame.obj
 0001:0000a690       ?Alloc@?$NotUseChunkImpl@VAuthAgentServerSession@@@internal@util@@UAEPAXXZ 0040b690 f i AuthFrame.obj
 0001:0000a720       ?Alloc@?$FixedSizeChunkImpl@VAuthAgentServerSession@@@internal@util@@UAEPAXXZ 0040b720 f i AuthFrame.obj
 0001:0000a7e0       ?Alloc@?$NotUseChunkImpl@VRTTAServerSession@@@internal@util@@UAEPAXXZ 0040b7e0 f i AuthFrame.obj
 0001:0000a870       ?Alloc@?$FixedSizeChunkImpl@VRTTAServerSession@@@internal@util@@UAEPAXXZ 0040b870 f i AuthFrame.obj
 0001:0000a930       ?Alloc@?$NotUseChunkImpl@VIntegratedBillingServerSession@@@internal@util@@UAEPAXXZ 0040b930 f i AuthFrame.obj
 0001:0000a9c0       ?Alloc@?$FixedSizeChunkImpl@VIntegratedBillingServerSession@@@internal@util@@UAEPAXXZ 0040b9c0 f i AuthFrame.obj
 0001:0000aa80       ??_G?$NotUseChunkImpl@VLoginFrontServerSession@@@internal@util@@UAEPAXI@Z 0040ba80 f i AuthFrame.obj
 0001:0000aa80       ??_E?$NotUseChunkImpl@VLoginFrontServerSession@@@internal@util@@UAEPAXI@Z 0040ba80 f i AuthFrame.obj
 0001:0000aac0       ??_E?$VariableSizeChunkImpl@VLoginFrontServerSession@@@internal@util@@UAEPAXI@Z 0040bac0 f i AuthFrame.obj
 0001:0000aac0       ??_G?$VariableSizeChunkImpl@VLoginFrontServerSession@@@internal@util@@UAEPAXI@Z 0040bac0 f i AuthFrame.obj
 0001:0000ab50       ??_E?$FixedSizeChunkImpl@VLoginFrontServerSession@@@internal@util@@UAEPAXI@Z 0040bb50 f i AuthFrame.obj
 0001:0000ab50       ??_G?$FixedSizeChunkImpl@VLoginFrontServerSession@@@internal@util@@UAEPAXI@Z 0040bb50 f i AuthFrame.obj
 0001:0000abd0       ??_E?$NotUseChunkImpl@VAuthAgentServerSession@@@internal@util@@UAEPAXI@Z 0040bbd0 f i AuthFrame.obj
 0001:0000abd0       ??_G?$NotUseChunkImpl@VAuthAgentServerSession@@@internal@util@@UAEPAXI@Z 0040bbd0 f i AuthFrame.obj
 0001:0000ac10       ??_G?$VariableSizeChunkImpl@VAuthAgentServerSession@@@internal@util@@UAEPAXI@Z 0040bc10 f i AuthFrame.obj
 0001:0000ac10       ??_E?$VariableSizeChunkImpl@VAuthAgentServerSession@@@internal@util@@UAEPAXI@Z 0040bc10 f i AuthFrame.obj
 0001:0000aca0       ??_G?$FixedSizeChunkImpl@VAuthAgentServerSession@@@internal@util@@UAEPAXI@Z 0040bca0 f i AuthFrame.obj
 0001:0000aca0       ??_E?$FixedSizeChunkImpl@VAuthAgentServerSession@@@internal@util@@UAEPAXI@Z 0040bca0 f i AuthFrame.obj
 0001:0000ad20       ??_G?$NotUseChunkImpl@VRTTAServerSession@@@internal@util@@UAEPAXI@Z 0040bd20 f i AuthFrame.obj
 0001:0000ad20       ??_E?$NotUseChunkImpl@VRTTAServerSession@@@internal@util@@UAEPAXI@Z 0040bd20 f i AuthFrame.obj
 0001:0000ad60       ??_E?$VariableSizeChunkImpl@VRTTAServerSession@@@internal@util@@UAEPAXI@Z 0040bd60 f i AuthFrame.obj
 0001:0000ad60       ??_G?$VariableSizeChunkImpl@VRTTAServerSession@@@internal@util@@UAEPAXI@Z 0040bd60 f i AuthFrame.obj
 0001:0000adf0       ??_E?$FixedSizeChunkImpl@VRTTAServerSession@@@internal@util@@UAEPAXI@Z 0040bdf0 f i AuthFrame.obj
 0001:0000adf0       ??_G?$FixedSizeChunkImpl@VRTTAServerSession@@@internal@util@@UAEPAXI@Z 0040bdf0 f i AuthFrame.obj
 0001:0000ae70       ??_G?$NotUseChunkImpl@VIntegratedBillingServerSession@@@internal@util@@UAEPAXI@Z 0040be70 f i AuthFrame.obj
 0001:0000ae70       ??_E?$NotUseChunkImpl@VIntegratedBillingServerSession@@@internal@util@@UAEPAXI@Z 0040be70 f i AuthFrame.obj
 0001:0000aeb0       ??_G?$VariableSizeChunkImpl@VIntegratedBillingServerSession@@@internal@util@@UAEPAXI@Z 0040beb0 f i AuthFrame.obj
 0001:0000aeb0       ??_E?$VariableSizeChunkImpl@VIntegratedBillingServerSession@@@internal@util@@UAEPAXI@Z 0040beb0 f i AuthFrame.obj
 0001:0000af40       ??_E?$FixedSizeChunkImpl@VIntegratedBillingServerSession@@@internal@util@@UAEPAXI@Z 0040bf40 f i AuthFrame.obj
 0001:0000af40       ??_G?$FixedSizeChunkImpl@VIntegratedBillingServerSession@@@internal@util@@UAEPAXI@Z 0040bf40 f i AuthFrame.obj
 0001:0000afc0       ?Create@?$VariableSizeChunkImpl@VLoginFrontServerSession@@@internal@util@@CAXPAX@Z 0040bfc0 f i AuthFrame.obj
 0001:0000b030       ?Create@?$VariableSizeChunkImpl@VAuthAgentServerSession@@@internal@util@@CAXPAX@Z 0040c030 f i AuthFrame.obj
 0001:0000b0a0       ?Create@?$VariableSizeChunkImpl@VRTTAServerSession@@@internal@util@@CAXPAX@Z 0040c0a0 f i AuthFrame.obj
 0001:0000b110       ?Create@?$VariableSizeChunkImpl@VIntegratedBillingServerSession@@@internal@util@@CAXPAX@Z 0040c110 f i AuthFrame.obj
 0001:0000b180       ?Release@?$PoolRouter@$0CA@@util@@QAEXXZ 0040c180 f i AuthFrame.obj
 0001:0000b200       ?segregate@?$simple_segregated_storage@I@boost@@SAPAXPAXII0@Z 0040c200 f i AuthFrame.obj
 0001:0000b270       ?Reset@Timer@util@@QAEXXZ  0040c270 f i AuthFrame.obj
 0001:0000b2c0       ??1IMemoryPoolFactoryImpl@internal@util@@UAE@XZ 0040c2c0 f i AuthFrame.obj
 0001:0000b2e0       ?Initialize@IMemoryPoolFactoryImpl@internal@util@@UAE_NIIPBD@Z 0040c2e0 f i AuthFrame.obj
 0001:0000b2f0       ??_EIMemoryPoolFactoryImpl@internal@util@@UAEPAXI@Z 0040c2f0 f i AuthFrame.obj
 0001:0000b2f0       ??_GIMemoryPoolFactoryImpl@internal@util@@UAEPAXI@Z 0040c2f0 f i AuthFrame.obj
 0001:0000b320       ?append@?$basic_string@DU?$char_traits@D@std@@V?$allocator@D@2@@std@@QAEAAV12@PBDI@Z 0040c320 f i AuthFrame.obj
 0001:0000b460       ?append@?$basic_string@DU?$char_traits@D@std@@V?$allocator@D@2@@std@@QAEAAV12@ABV12@II@Z 0040c460 f i AuthFrame.obj
 0001:0000b5b0       ?ProcCrashHandling@@YAXPBD0@Z 0040c5b0 f   main.obj
 0001:0000b740       ?GenerateDmpName@@YAPBDXZ  0040c740 f   main.obj
 0001:0000b790       ?ErrorHandler@@YAXKPAD@Z   0040c790 f   main.obj
 0001:0000b7b0       ?OnServiceStart@@YA_NXZ    0040c7b0 f   main.obj
 0001:0000b830       ?OnServiceProcess@@YAXXZ   0040c830 f   main.obj
 0001:0000b850       ?OnServiceUpdate@@YA_NXZ   0040c850 f   main.obj
 0001:0000b870       ?OnServiceStop@@YAXXZ      0040c870 f   main.obj
 0001:0000b8a0       _main                      0040c8a0 f   main.obj
 0001:0000b9d0       ?DoAllocClient_NotUsed@AuthFrame@@SAPAVNetworkObject@@XZ 0040c9d0 f i main.obj
 0001:0000b9e0       ?DestroyInstance@?$Singleton@VAuthFrame@@$00@util@@SAXXZ 0040c9e0 f i main.obj
 0001:0000ba30       ??0AuthAgentServerSession@@QAE@XZ 0040ca30 f   AuthAgentServerSession.obj
 0001:0000ba50       ??1AuthAgentServerSession@@UAE@XZ 0040ca50 f   AuthAgentServerSession.obj
 0001:0000ba70       ?OnRedirect@AuthAgentServerSession@@MAEXKQAUMSG_SERVER_TYPE@@@Z 0040ca70 f   AuthAgentServerSession.obj
 0001:0000bb10       ?OnDisconnect@AuthAgentServerSession@@MAEXXZ 0040cb10 f   AuthAgentServerSession.obj
 0001:0000bb40       ?OnRecv@AuthAgentServerSession@@MAEXPAEG@Z 0040cb40 f   AuthAgentServerSession.obj
 0001:0000bcb0       ?OnAS_AUTH_GAMEAGENT_LOGIN_CMD@AuthAgentServerSession@@AAEXPAUMSG_BASE_INTERNAL@@G@Z 0040ccb0 f   AuthAgentServerSession.obj
 0001:0000bda0       ?OnAS_AUTH_NEWCLIENT_TO_GAMEAGENT_ACK@AuthAgentServerSession@@AAEXPAUMSG_BASE_INTERNAL@@G@Z 0040cda0 f   AuthAgentServerSession.obj
 0001:0000bfc0       ?OnAS_AUTH_PC_LOGIN_CMD@AuthAgentServerSession@@AAEXPAUMSG_BASE_INTERNAL@@G@Z 0040cfc0 f   AuthAgentServerSession.obj
 0001:0000c280       ?OnAS_AUTH_PC_LOGOUT_CMD@AuthAgentServerSession@@AAEXPAUMSG_BASE_INTERNAL@@G@Z 0040d280 f   AuthAgentServerSession.obj
 0001:0000c4e0       ?OnAS_AUTH_ASK_PC_LOGOUT_ACK@AuthAgentServerSession@@AAEXPAUMSG_BASE_INTERNAL@@G@Z 0040d4e0 f   AuthAgentServerSession.obj
 0001:0000c690       ?OnAS_AUTH_PC_NAME_NTF@AuthAgentServerSession@@AAEXPAUMSG_BASE_INTERNAL@@G@Z 0040d690 f   AuthAgentServerSession.obj
 0001:0000c790       ?OnAS_AUTH_USER_COUNT_NTF@AuthAgentServerSession@@AAEXPAUMSG_BASE_INTERNAL@@G@Z 0040d790 f   AuthAgentServerSession.obj
 0001:0000c800       ?OnAU_AUTH_SERVER_SELECT_SYN@AuthAgentServerSession@@AAEXPAUMSG_BASE_INTERNAL@@G@Z 0040d800 f   AuthAgentServerSession.obj
 0001:0000ca20       ?OnAU_AUTH_COMMON_QUERY_USER_ID_SYN@AuthAgentServerSession@@AAEXPAUMSG_BASE_INTERNAL@@G@Z 0040da20 f   AuthAgentServerSession.obj
 0001:0000ca80       ?GetServerType@AuthAgentServerSession@@UAE?AW4eSERVER_TYPE@@XZ 0040da80 f i AuthAgentServerSession.obj
 0001:0000ca90       ?SendPacket@RTTAServerSession@@UAEHPAUMSG_BASE_INTERNAL@@G@Z 0040da90 f i RTTAServerSession.obj
 0001:0000ca90       ?SendPacket@ServerSession@@UAEHPAUMSG_BASE_INTERNAL@@G@Z 0040da90 f i LoginFrontServerSession.obj
 0001:0000ca90       ?SendPacket@ServerSession@@UAEHPAUMSG_BASE@@G@Z 0040da90 f i LoginFrontServerSession.obj
 0001:0000ca90       ?SendPacket@RTTAServerSession@@UAEHPAUMSG_BASE@@G@Z 0040da90 f i RTTAServerSession.obj
 0001:0000ca90       ?SendPacket@AuthAgentServerSession@@UAEHPAUMSG_BASE_INTERNAL@@G@Z 0040da90 f i AuthAgentServerSession.obj
 0001:0000ca90       ?SendPacket@AuthAgentServerSession@@UAEHPAUMSG_BASE@@G@Z 0040da90 f i AuthAgentServerSession.obj
 0001:0000cab0       ??_EAuthAgentServerSession@@UAEPAXI@Z 0040dab0 f i AuthAgentServerSession.obj
 0001:0000cab0       ??_GAuthAgentServerSession@@UAEPAXI@Z 0040dab0 f i AuthAgentServerSession.obj
 0001:0000cae0       ?FindSession@ServerFrame@@QAEPAVServerSession@@K@Z 0040dae0 f i AuthAgentServerSession.obj
 0001:0000cb70       ?FindReAuthInfo@ReAuthManager@@QBEPBVReAuthInfo@@G@Z 0040db70 f i AuthAgentServerSession.obj
 0001:0000cbd0       ?lower_bound@?$_Hash@V?$_Hmap_traits@KPAVServerSession@@V?$hash_compare@KU?$less@K@std@@@stdext@@V?$CustomAllocator@PAVServerSession@@@util@@$0A@@stdext@@@stdext@@QAE?AV?$_Iterator@$00@?$list@U?$pair@$$CBKPAVServerSession@@@std@@V?$CustomAllocator@U?$pair@$$CBKPAVServerSession@@@std@@@util@@@std@@ABK@Z 0040dbd0 f i AuthAgentServerSession.obj
 0001:0000cdf0       ??D?$_Const_iterator@$00@?$list@U?$pair@$$CBKPAVServerSession@@@std@@V?$CustomAllocator@U?$pair@$$CBKPAVServerSession@@@std@@@util@@@std@@QBEABU?$pair@$$CBKPAVServerSession@@@2@XZ 0040ddf0 f i AuthAgentServerSession.obj
 0001:0000cdf0       ??D?$_Const_iterator@$00@?$list@PAVQueryObject@@V?$allocator@PAVQueryObject@@@std@@@std@@QBEABQAVQueryObject@@XZ 0040ddf0 f i QueryManager.obj
 0001:0000cdf0       ??D?$_Const_iterator@$00@?$list@KV?$CustomAllocator@K@util@@@std@@QBEABKXZ 0040ddf0 f i IntegratedBillingServerSession.obj
 0001:0000cdf0       ??D?$_Const_iterator@$00@?$list@PAUCONTROL_IP_INFO@@V?$allocator@PAUCONTROL_IP_INFO@@@std@@@std@@QBEABQAUCONTROL_IP_INFO@@XZ 0040ddf0 f i AuthFrame.obj
 0001:0000ce70       ??R?$hash_compare@KU?$less@K@std@@@stdext@@QBEIABK@Z 0040de70 f i AuthAgentServerSession.obj
 0001:0000cee0       ??E?$_Const_iterator@$00@?$list@KV?$CustomAllocator@K@util@@@std@@QAEAAV012@XZ 0040dee0 f i IntegratedBillingServerSession.obj
 0001:0000cee0       ??E?$_Const_iterator@$00@?$list@U?$pair@$$CBKPAVServerSession@@@std@@V?$CustomAllocator@U?$pair@$$CBKPAVServerSession@@@std@@@util@@@std@@QAEAAV012@XZ 0040dee0 f i AuthAgentServerSession.obj
 0001:0000cee0       ??E?$_Const_iterator@$00@?$list@PAVQueryObject@@V?$allocator@PAVQueryObject@@@std@@@std@@QAEAAV012@XZ 0040dee0 f i QueryManager.obj
 0001:0000cee0       ??E?$_Const_iterator@$00@?$list@PAUCONTROL_IP_INFO@@V?$allocator@PAUCONTROL_IP_INFO@@@std@@@std@@QAEAAV012@XZ 0040dee0 f i AuthFrame.obj
 0001:0000cf70       ??$Foreach_ServerData@VAuthAgentDisconnectedHandler@@@ServerDataManager@@QAEXAAVAuthAgentDisconnectedHandler@@@Z 0040df70 f i AuthAgentServerSession.obj
 0001:0000d030       ??$for_each@VSendServerList_broadcast@@@ServerFrame@@QAEXAAVSendServerList_broadcast@@@Z 0040e030 f i AuthAgentServerSession.obj
 0001:0000d0f0       ?begin@?$_Tree@V?$_Tmap_traits@KPAVServerData@@U?$less@K@std@@V?$CustomAllocator@PAVServerData@@@util@@$0A@@std@@@std@@QAE?AViterator@12@XZ 0040e0f0 f i AuthAgentServerSession.obj
 0001:0000d0f0       ?begin@?$_Tree@V?$_Tmap_traits@KPAUAccountInfo@@U?$less@K@std@@V?$CustomAllocator@PAUAccountInfo@@@util@@$0A@@std@@@std@@QAE?AViterator@12@XZ 0040e0f0 f i AccountManager.obj
 0001:0000d140       ?_Inc@const_iterator@?$_Tree@V?$_Tmap_traits@KPAUAccountInfo@@U?$less@K@std@@V?$CustomAllocator@PAUAccountInfo@@@util@@$0A@@std@@@std@@QAEXXZ 0040e140 f i AccountManager.obj
 0001:0000d140       ?_Inc@const_iterator@?$_Tree@V?$_Tmap_traits@KPAVServerData@@U?$less@K@std@@V?$CustomAllocator@PAVServerData@@@util@@$0A@@std@@@std@@QAEXXZ 0040e140 f i AuthAgentServerSession.obj
 0001:0000d140       ?_Inc@const_iterator@?$_Tree@V?$_Tmap_traits@KUPCROOMINFO@PCRoomUserManager@@U?$less@K@std@@V?$CustomAllocator@UPCROOMINFO@PCRoomUserManager@@@util@@$0A@@std@@@std@@QAEXXZ 0040e140 f i IntegratedBillingServerSession.obj
 0001:0000d210       ??$for_each@V?$_Iterator@$00@?$list@U?$pair@$$CBKPAVServerSession@@@std@@V?$CustomAllocator@U?$pair@$$CBKPAVServerSession@@@std@@@util@@@std@@V?$unary_compose@VSendServerList_broadcast@@U?$select2nd@U?$pair@$$CBKPAVServerSession@@@std@@@@@@@std@@YA?AV?$unary_compose@VSendServerList_broadcast@@U?$select2nd@U?$pair@$$CBKPAVServerSession@@@std@@@@@@V?$_Iterator@$00@?$list@U?$pair@$$CBKPAVServerSession@@@std@@V?$CustomAllocator@U?$pair@$$CBKPAVServerSession@@@std@@@util@@@0@0V1@@Z 0040e210 f i AuthAgentServerSession.obj
 0001:0000d2a0       ??9?$_Const_iterator@$0A@@?$list@U?$pair@$$CBKPAVServerSession@@@std@@V?$CustomAllocator@U?$pair@$$CBKPAVServerSession@@@std@@@util@@@std@@QBE_NABV012@@Z 0040e2a0 f i AuthAgentServerSession.obj
 0001:0000d300       ??D?$_Const_iterator@$0A@@?$list@U?$pair@$$CBKPAVServerSession@@@std@@V?$CustomAllocator@U?$pair@$$CBKPAVServerSession@@@std@@@util@@@std@@QBEABU?$pair@$$CBKPAVServerSession@@@2@XZ 0040e300 f i AuthAgentServerSession.obj
 0001:0000d370       ??E?$_Const_iterator@$0A@@?$list@U?$pair@$$CBKPAVServerSession@@@std@@V?$CustomAllocator@U?$pair@$$CBKPAVServerSession@@@std@@@util@@@std@@QAEAAV012@XZ 0040e370 f i AuthAgentServerSession.obj
 0001:0000d3f0       ?_Checked_iterator_base@?$_Iterator@$00@?$list@U?$pair@$$CBKPAVServerSession@@@std@@V?$CustomAllocator@U?$pair@$$CBKPAVServerSession@@@std@@@util@@@std@@QBE?AV?$_Iterator@$0A@@23@XZ 0040e3f0 f i AuthAgentServerSession.obj
 0001:0000d470       ??0LoginFrontServerSession@@QAE@XZ 0040e470 f   LoginFrontServerSession.obj
 0001:0000d4b0       ??1LoginFrontServerSession@@UAE@XZ 0040e4b0 f   LoginFrontServerSession.obj
 0001:0000d4d0       ?OnRedirect@LoginFrontServerSession@@MAEXKQAUMSG_SERVER_TYPE@@@Z 0040e4d0 f   LoginFrontServerSession.obj
 0001:0000d540       ?OnDisconnect@LoginFrontServerSession@@MAEXXZ 0040e540 f   LoginFrontServerSession.obj
 0001:0000d560       ?Update@LoginFrontServerSession@@MAEXXZ 0040e560 f   LoginFrontServerSession.obj
 0001:0000d5d0       ?SendServerList@LoginFrontServerSession@@QAEXXZ 0040e5d0 f   LoginFrontServerSession.obj
 0001:0000d650       ?GetServerType@LoginFrontServerSession@@UAE?AW4eSERVER_TYPE@@XZ 0040e650 f i LoginFrontServerSession.obj
 0001:0000d660       ??_ELoginFrontServerSession@@UAEPAXI@Z 0040e660 f i LoginFrontServerSession.obj
 0001:0000d660       ??_GLoginFrontServerSession@@UAEPAXI@Z 0040e660 f i LoginFrontServerSession.obj
 0001:0000d690       ?OnRecv@LoginFrontServerSession@@MAEXPAEG@Z 0040e690 f   LoginFrontServerSession.PacketHandler.obj
 0001:0000d790       ?OnFS_AUTH_AUTHENTICATION_SYN@LoginFrontServerSession@@IAEXPAUMSG_BASE_INTERNAL@@G@Z 0040e790 f   LoginFrontServerSession.PacketHandler.obj
 0001:0000d820       ?Handling@LoginFrontServerSession@@IAEEPBUMSG_FS_AUTH_TOKEN_PASS_SYN@@G@Z 0040e820 f   LoginFrontServerSession.PacketHandler.obj
 0001:0000d9d0       ?Handling@LoginFrontServerSession@@IAEEPBUMSG_FS_AUTH_ID_PASSWORD_CHECK_SYN@@G@Z 0040e9d0 f   LoginFrontServerSession.PacketHandler.obj
 0001:0000da80       ?Handling@LoginFrontServerSession@@IAEEPBUMSG_FS_AUTH_REAUTH_PASS_SYN@@G@Z 0040ea80 f   LoginFrontServerSession.PacketHandler.obj
 0001:0000e200       ?OnFS_AUTH_SERVER_SELECT_SYN@LoginFrontServerSession@@IAEXPAUMSG_BASE_INTERNAL@@G@Z 0040f200 f   LoginFrontServerSession.PacketHandler.obj
 0001:0000e750       ?OnFS_AUTH_CLIENT_DISCONNECT_CMD@LoginFrontServerSession@@IAEXPAUMSG_BASE_INTERNAL@@G@Z 0040f750 f   LoginFrontServerSession.PacketHandler.obj
 0001:0000e810       ?PostVerifier@AuthStepAuthTokenInAuthServer@@UAEEPBUStream@MSG_CF_AUTH_TOKEN_PASS_SYN@@PAUToken@CSAuthFlow@nsPacket@@1@Z 0040f810 f i LoginFrontServerSession.PacketHandler.obj
 0001:0000e860       ?PostVerifier@AuthStepAuthTokenInAuthServer@@UAEEPBUMSG_CF_AUTH_REAUTH_PASS_SYN@@PAUToken@CSAuthFlow@nsPacket@@1@Z 0040f860 f i LoginFrontServerSession.PacketHandler.obj
 0001:0000e8b0       ??_GAuthStepAuthToken@@UAEPAXI@Z 0040f8b0 f i LoginFrontServerSession.PacketHandler.obj
 0001:0000e8b0       ??_GAuthStepAuthTokenInAuthServer@@UAEPAXI@Z 0040f8b0 f i LoginFrontServerSession.PacketHandler.obj
 0001:0000e8b0       ??_EAuthStepAuthToken@@UAEPAXI@Z 0040f8b0 f i LoginFrontServerSession.PacketHandler.obj
 0001:0000e8b0       ??_EAuthStepAuthTokenInAuthServer@@UAEPAXI@Z 0040f8b0 f i LoginFrontServerSession.PacketHandler.obj
 0001:0000e8e0       ??1AuthStepAuthTokenInAuthServer@@UAE@XZ 0040f8e0 f i LoginFrontServerSession.PacketHandler.obj
 0001:0000e900       ??0RTTAServerSession@@QAE@XZ 0040f900 f   RTTAServerSession.obj
 0001:0000e920       ??1RTTAServerSession@@UAE@XZ 0040f920 f   RTTAServerSession.obj
 0001:0000e940       ?OnConnect@RTTAServerSession@@MAEXHK@Z 0040f940 f   RTTAServerSession.obj
 0001:0000e970       ?SendCertifyReq@RTTAServerSession@@AAEXXZ 0040f970 f   RTTAServerSession.obj
 0001:0000e9b0       ?OnRecv@RTTAServerSession@@MAEXPAEG@Z 0040f9b0 f   RTTAServerSession.obj
 0001:0000eaa0       ?OnRS_RTT_CERTIFY_ACK@RTTAServerSession@@AAEXPAUMSG_BASE_INTERNAL@@G@Z 0040faa0 f   RTTAServerSession.obj
 0001:0000eae0       ?OnRS_RTT_ASK_PC_LOGOUT_SYN@RTTAServerSession@@AAEXPAUMSG_BASE_INTERNAL@@G@Z 0040fae0 f   RTTAServerSession.obj
 0001:0000ecc0       ?OnRS_RTT_ASK_CONTROL_IPLIST_RELOAD_SYN@RTTAServerSession@@AAEXPAUMSG_BASE_INTERNAL@@G@Z 0040fcc0 f   RTTAServerSession.obj
 0001:0000ed20       ?OnRS_RTT_ASK_GAME_VERSION_RELOAD_SYN@RTTAServerSession@@AAEXPAUMSG_BASE_INTERNAL@@G@Z 0040fd20 f   RTTAServerSession.obj
 0001:0000ed80       ?GetServerType@RTTAServerSession@@UAE?AW4eSERVER_TYPE@@XZ 0040fd80 f i RTTAServerSession.obj
 0001:0000ed90       ??_GRTTAServerSession@@UAEPAXI@Z 0040fd90 f i RTTAServerSession.obj
 0001:0000ed90       ??_ERTTAServerSession@@UAEPAXI@Z 0040fd90 f i RTTAServerSession.obj
 0001:0000edc0       ??0BillingServerCommonImpl@@QAE@XZ 0040fdc0 f   BillingServerCommonImpl.obj
 0001:0000edd0       ??1BillingServerCommonImpl@@QAE@XZ 0040fdd0 f   BillingServerCommonImpl.obj
 0001:0000ede0       ?OnBS_BILLING_RESTPOINT_ACK@BillingServerCommonImpl@@QAEXKKE@Z 0040fde0 f   BillingServerCommonImpl.obj
 0001:0000efc0       ?SendPCRoomStatus@BillingServerCommonImpl@@QAEXPAUAccountInfo@@@Z 0040ffc0 f   BillingServerCommonImpl.obj
 0001:0000f040       ?OnBS_BILLING_EXPIRED_NTF@BillingServerCommonImpl@@QAEXKKKFF@Z 00410040 f   BillingServerCommonImpl.obj
 0001:0000f210       ??0IntegratedBillingServerSession@@QAE@XZ 00410210 f   IntegratedBillingServerSession.obj
 0001:0000f310       ??1IntegratedBillingServerSession@@UAE@XZ 00410310 f   IntegratedBillingServerSession.obj
 0001:0000f3d0       ?Connect@IntegratedBillingServerSession@@UAEXXZ 004103d0 f   IntegratedBillingServerSession.obj
 0001:0000f450       ?DoInit@IntegratedBillingServerSession@@QAEXXZ 00410450 f   IntegratedBillingServerSession.obj
 0001:0000f4b0       ?ErrorHandler@IntegratedBillingServerSession@@SAXKPAD@Z 004104b0 f   IntegratedBillingServerSession.obj
 0001:0000f4d0       ?SendLogin@IntegratedBillingServerSession@@QAEXAAUAccountInfo@@@Z 004104d0 f   IntegratedBillingServerSession.obj
 0001:0000f540       ?SendLogout@IntegratedBillingServerSession@@QAEXAAUAccountInfo@@@Z 00410540 f   IntegratedBillingServerSession.obj
 0001:0000f560       ?SendLogout@IntegratedBillingServerSession@@QAEXJ@Z 00410560 f   IntegratedBillingServerSession.obj
 0001:0000f5a0       ?QueryRestPoint@IntegratedBillingServerSession@@QAEXPAUAccountInfo@@@Z 004105a0 f   IntegratedBillingServerSession.obj
 0001:0000f600       ?InquirePersonDeduct@IntegratedBillingServerSession@@QAEXAAUAccountInfo@@@Z 00410600 f   IntegratedBillingServerSession.obj
 0001:0000f660       ?InquireMultiUser@IntegratedBillingServerSession@@QAEXAAUAccountInfo@@@Z 00410660 f   IntegratedBillingServerSession.obj
 0001:0000f6b0       ?OnReceive@IntegratedBillingServerSession@@UAE_NQAUMainLogicHandler@WxMessageIpc@util@@PBUWX_INTER_MSG_HEADER@4@I@Z 004106b0 f   IntegratedBillingServerSession.obj
 0001:0000f980       ?OnDisconnectLib@IntegratedBillingServerSession@@UAEXXZ 00410980 f   IntegratedBillingServerSession.obj
 0001:0000f9d0       ?OnConnectLib@IntegratedBillingServerSession@@UAEX_N@Z 004109d0 f   IntegratedBillingServerSession.obj
 0001:0000fa30       ?OnUserStatus@IntegratedBillingServerSession@@UAEXKJKKNNFFF@Z 00410a30 f   IntegratedBillingServerSession.obj
 0001:0000fac0       ?OnInquirePCRoomPoint@IntegratedBillingServerSession@@UAEXJJJ@Z 00410ac0 f   IntegratedBillingServerSession.obj
 0001:0000fb20       ?OnInquirePersonDeduct@IntegratedBillingServerSession@@UAEXJJ@Z 00410b20 f   IntegratedBillingServerSession.obj
 0001:0000fb80       ?OnCheckLoginUser@IntegratedBillingServerSession@@UAEXJJ@Z 00410b80 f   IntegratedBillingServerSession.obj
 0001:0000fbe0       ?OnPCRoomIPUpdate@IntegratedBillingServerSession@@UAEXJJ@Z 00410be0 f   IntegratedBillingServerSession.obj
 0001:0000fc40       ?OnInquireMultiUser@IntegratedBillingServerSession@@UAEXJJJ@Z 00410c40 f   IntegratedBillingServerSession.obj
 0001:0000fdb0       ?CheckMultiUserTypeAndLogin@IntegratedBillingServerSession@@QAE_NAAUAccountInfo@@@Z 00410db0 f   IntegratedBillingServerSession.obj
 0001:0000fee0       ?CheckIn@IntegratedBillingServerSession@@QAEXAAUAccountInfo@@@Z 00410ee0 f   IntegratedBillingServerSession.obj
 0001:0000ff20       ?CheckOut@IntegratedBillingServerSession@@QAEXAAUAccountInfo@@@Z 00410f20 f   IntegratedBillingServerSession.obj
 0001:00010140       ??0PCRoomUserManager@@QAE@XZ 00411140 f i IntegratedBillingServerSession.obj
 0001:00010200       ??1?$chunk_map@KUPCROOMINFO@PCRoomUserManager@@U?$less@K@std@@@util@@QAE@XZ 00411200 f i IntegratedBillingServerSession.obj
 0001:00010200       ??1?$chunk_map@KPAUAccountInfo@@U?$less@K@std@@@util@@QAE@XZ 00411200 f i AccountManager.obj
 0001:00010280       ?GetServerType@IntegratedBillingServerSession@@UAE?AW4eSERVER_TYPE@@XZ 00411280 f i IntegratedBillingServerSession.obj
 0001:00010280       ?GetServerType@BillingServerSession@@UAE?AW4eSERVER_TYPE@@XZ 00411280 f i BillingServerSession.obj
 0001:00010290       ??_GIntegratedBillingServerSession@@UAEPAXI@Z 00411290 f i IntegratedBillingServerSession.obj
 0001:00010290       ??_EIntegratedBillingServerSession@@UAEPAXI@Z 00411290 f i IntegratedBillingServerSession.obj
 0001:000102c0       ??1PCRoomUserManager@@QAE@XZ 004112c0 f i IntegratedBillingServerSession.obj
 0001:00010380       ?GetFirstUser@PCRoomUserManager@@QAEKV?$basic_string@DU?$char_traits@D@std@@V?$CustomAllocator@D@util@@@std@@@Z 00411380 f i IntegratedBillingServerSession.obj
 0001:000104b0       ?SetPCRoomMultiUserType@PCRoomUserManager@@QAEXKH@Z 004114b0 f i IntegratedBillingServerSession.obj
 0001:00010580       ?GetPCRoomMultiUserType@PCRoomUserManager@@QAEHK@Z 00411580 f i IntegratedBillingServerSession.obj
 0001:000105f0       ?AddAccount@PCRoomUserManager@@QAEXAAUAccountInfo@@@Z 004115f0 f i IntegratedBillingServerSession.obj
 0001:000108f0       ??1?$chunk_list@K@util@@QAE@XZ 004118f0 f i IntegratedBillingServerSession.obj
 0001:00010910       ??1?$pair@$$CBV?$basic_string@DU?$char_traits@D@std@@V?$CustomAllocator@D@util@@@std@@V?$chunk_list@K@util@@@std@@QAE@XZ 00411910 f i IntegratedBillingServerSession.obj
 0001:00010980       ?RemoveAccount@PCRoomUserManager@@QAEXAAUAccountInfo@@@Z 00411980 f i IntegratedBillingServerSession.obj
 0001:00010af0       ?insert@?$_Tree@V?$_Tmap_traits@KUPCROOMINFO@PCRoomUserManager@@U?$less@K@std@@V?$CustomAllocator@UPCROOMINFO@PCRoomUserManager@@@util@@$0A@@std@@@std@@QAE?AU?$pair@Viterator@?$_Tree@V?$_Tmap_traits@KUPCROOMINFO@PCRoomUserManager@@U?$less@K@std@@V?$CustomAllocator@UPCROOMINFO@PCRoomUserManager@@@util@@$0A@@std@@@std@@_N@2@ABU?$pair@$$CBKUPCROOMINFO@PCRoomUserManager@@@2@@Z 00411af0 f i IntegratedBillingServerSession.obj
 0001:00010af0       ?insert@?$_Tree@V?$_Tmap_traits@KPAUAccountInfo@@U?$less@K@std@@V?$CustomAllocator@PAUAccountInfo@@@util@@$0A@@std@@@std@@QAE?AU?$pair@Viterator@?$_Tree@V?$_Tmap_traits@KPAUAccountInfo@@U?$less@K@std@@V?$CustomAllocator@PAUAccountInfo@@@util@@$0A@@std@@@std@@_N@2@ABU?$pair@$$CBKPAUAccountInfo@@@2@@Z 00411af0 f i AccountManager.obj
 0001:00010d30       ?insert@?$_Tree@V?$_Tmap_traits@V?$basic_string@DU?$char_traits@D@std@@V?$CustomAllocator@D@util@@@std@@V?$chunk_list@K@util@@U?$less@V?$basic_string@DU?$char_traits@D@std@@V?$CustomAllocator@D@util@@@std@@@2@V?$CustomAllocator@V?$chunk_list@K@util@@@4@$0A@@std@@@std@@QAE?AU?$pair@Viterator@?$_Tree@V?$_Tmap_traits@V?$basic_string@DU?$char_traits@D@std@@V?$CustomAllocator@D@util@@@std@@V?$chunk_list@K@util@@U?$less@V?$basic_string@DU?$char_traits@D@std@@V?$CustomAllocator@D@util@@@std@@@2@V?$CustomAllocator@V?$chunk_list@K@util@@@4@$0A@@std@@@std@@_N@2@ABU?$pair@$$CBV?$basic_string@DU?$char_traits@D@std@@V?$CustomAllocator@D@util@@@std@@V?$chunk_list@K@util@@@2@@Z 00411d30 f i IntegratedBillingServerSession.obj
 0001:00010f80       ?find@?$_Tree@V?$_Tmap_traits@V?$basic_string@DU?$char_traits@D@std@@V?$CustomAllocator@D@util@@@std@@V?$chunk_list@K@util@@U?$less@V?$basic_string@DU?$char_traits@D@std@@V?$CustomAllocator@D@util@@@std@@@2@V?$CustomAllocator@V?$chunk_list@K@util@@@4@$0A@@std@@@std@@QAE?AViterator@12@ABV?$basic_string@DU?$char_traits@D@std@@V?$CustomAllocator@D@util@@@2@@Z 00411f80 f i IntegratedBillingServerSession.obj
 0001:00011090       ??1?$basic_string@DU?$char_traits@D@std@@V?$CustomAllocator@D@util@@@std@@QAE@XZ 00412090 f i IntegratedBillingServerSession.obj
 0001:000110b0       ??1?$list@KV?$CustomAllocator@K@util@@@std@@QAE@XZ 004120b0 f i IntegratedBillingServerSession.obj
 0001:00011140       ?remove@?$list@KV?$CustomAllocator@K@util@@@std@@QAEXABK@Z 00412140 f i IntegratedBillingServerSession.obj
 0001:000111d0       ??0?$chunk_list@K@util@@QAE@ABV01@@Z 004121d0 f i IntegratedBillingServerSession.obj
 0001:000111f0       ?_Insert@?$_Tree@V?$_Tmap_traits@KPAUAccountInfo@@U?$less@K@std@@V?$CustomAllocator@PAUAccountInfo@@@util@@$0A@@std@@@std@@IAE?AViterator@12@_NPAU_Node@?$_Tree_nod@V?$_Tmap_traits@KPAUAccountInfo@@U?$less@K@std@@V?$CustomAllocator@PAUAccountInfo@@@util@@$0A@@std@@@2@ABU?$pair@$$CBKPAUAccountInfo@@@2@@Z 004121f0 f i AccountManager.obj
 0001:000111f0       ?_Insert@?$_Tree@V?$_Tmap_traits@KUPCROOMINFO@PCRoomUserManager@@U?$less@K@std@@V?$CustomAllocator@UPCROOMINFO@PCRoomUserManager@@@util@@$0A@@std@@@std@@IAE?AViterator@12@_NPAU_Node@?$_Tree_nod@V?$_Tmap_traits@KUPCROOMINFO@PCRoomUserManager@@U?$less@K@std@@V?$CustomAllocator@UPCROOMINFO@PCRoomUserManager@@@util@@$0A@@std@@@2@ABU?$pair@$$CBKUPCROOMINFO@PCRoomUserManager@@@2@@Z 004121f0 f i IntegratedBillingServerSession.obj
 0001:00011630       ?_Tidy@?$_Tree@V?$_Tmap_traits@KPAUAccountInfo@@U?$less@K@std@@V?$CustomAllocator@PAUAccountInfo@@@util@@$0A@@std@@@std@@IAEXXZ 00412630 f i AccountManager.obj
 0001:00011630       ?_Tidy@?$_Tree@V?$_Tmap_traits@KUPCROOMINFO@PCRoomUserManager@@U?$less@K@std@@V?$CustomAllocator@UPCROOMINFO@PCRoomUserManager@@@util@@$0A@@std@@@std@@IAEXXZ 00412630 f i IntegratedBillingServerSession.obj
 0001:00011730       ?_Insert@?$_Tree@V?$_Tmap_traits@V?$basic_string@DU?$char_traits@D@std@@V?$CustomAllocator@D@util@@@std@@V?$chunk_list@K@util@@U?$less@V?$basic_string@DU?$char_traits@D@std@@V?$CustomAllocator@D@util@@@std@@@2@V?$CustomAllocator@V?$chunk_list@K@util@@@4@$0A@@std@@@std@@IAE?AViterator@12@_NPAU_Node@?$_Tree_nod@V?$_Tmap_traits@V?$basic_string@DU?$char_traits@D@std@@V?$CustomAllocator@D@util@@@std@@V?$chunk_list@K@util@@U?$less@V?$basic_string@DU?$char_traits@D@std@@V?$CustomAllocator@D@util@@@std@@@2@V?$CustomAllocator@V?$chunk_list@K@util@@@4@$0A@@std@@@2@ABU?$pair@$$CBV?$basic_string@DU?$char_traits@D@std@@V?$CustomAllocator@D@util@@@std@@V?$chunk_list@K@util@@@2@@Z 00412730 f i IntegratedBillingServerSession.obj
 0001:00011b70       ?_Tidy@?$_Tree@V?$_Tmap_traits@V?$basic_string@DU?$char_traits@D@std@@V?$CustomAllocator@D@util@@@std@@V?$chunk_list@K@util@@U?$less@V?$basic_string@DU?$char_traits@D@std@@V?$CustomAllocator@D@util@@@std@@@2@V?$CustomAllocator@V?$chunk_list@K@util@@@4@$0A@@std@@@std@@IAEXXZ 00412b70 f i IntegratedBillingServerSession.obj
 0001:00011c70       ?_Tidy@?$basic_string@DU?$char_traits@D@std@@V?$CustomAllocator@D@util@@@std@@IAEX_NI@Z 00412c70 f i IntegratedBillingServerSession.obj
 0001:00011d20       ??0?$list@KV?$CustomAllocator@K@util@@@std@@QAE@ABV01@@Z 00412d20 f i IntegratedBillingServerSession.obj
 0001:00011ef0       ?_Insert@?$list@KV?$CustomAllocator@K@util@@@std@@QAEXV?$_Const_iterator@$00@12@ABK@Z 00412ef0 f i IntegratedBillingServerSession.obj
 0001:00011f50       ?erase@?$list@KV?$CustomAllocator@K@util@@@std@@QAE?AV?$_Iterator@$00@12@V?$_Const_iterator@$00@12@@Z 00412f50 f i IntegratedBillingServerSession.obj
 0001:00012010       ?_Tidy@?$list@KV?$CustomAllocator@K@util@@@std@@IAEXXZ 00413010 f i IntegratedBillingServerSession.obj
 0001:00012050       ??9?$_Const_iterator@$00@?$list@KV?$CustomAllocator@K@util@@@std@@QBE_NABV012@@Z 00413050 f i IntegratedBillingServerSession.obj
 0001:00012050       ??9?$_Const_iterator@$00@?$list@U?$pair@$$CBKPAVServerSession@@@std@@V?$CustomAllocator@U?$pair@$$CBKPAVServerSession@@@std@@@util@@@std@@QBE_NABV012@@Z 00413050 f i AuthAgentServerSession.obj
 0001:00012050       ??9?$_Const_iterator@$00@?$list@PAUCONTROL_IP_INFO@@V?$allocator@PAUCONTROL_IP_INFO@@@std@@@std@@QBE_NABV012@@Z 00413050 f i AuthFrame.obj
 0001:00012050       ??9?$_Deque_const_iterator@PAUAccountInfo@@V?$CustomAllocator@PAUAccountInfo@@@util@@$00@std@@QBE_NABV01@@Z 00413050 f i BillingServerSession.obj
 0001:00012050       ??9?$_Const_iterator@$00@?$list@PAVQueryObject@@V?$allocator@PAVQueryObject@@@std@@@std@@QBE_NABV012@@Z 00413050 f i QueryManager.obj
 0001:000120b0       ?erase@?$_Tree@V?$_Tmap_traits@KPAUAccountInfo@@U?$less@K@std@@V?$CustomAllocator@PAUAccountInfo@@@util@@$0A@@std@@@std@@QAE?AViterator@12@Vconst_iterator@12@0@Z 004130b0 f i AccountManager.obj
 0001:000120b0       ?erase@?$_Tree@V?$_Tmap_traits@KUPCROOMINFO@PCRoomUserManager@@U?$less@K@std@@V?$CustomAllocator@UPCROOMINFO@PCRoomUserManager@@@util@@$0A@@std@@@std@@QAE?AViterator@12@Vconst_iterator@12@0@Z 004130b0 f i IntegratedBillingServerSession.obj
 0001:000122a0       ?_Lrotate@?$_Tree@V?$_Tmap_traits@KPAUAccountInfo@@U?$less@K@std@@V?$CustomAllocator@PAUAccountInfo@@@util@@$0A@@std@@@std@@IAEXPAU_Node@?$_Tree_nod@V?$_Tmap_traits@KPAUAccountInfo@@U?$less@K@std@@V?$CustomAllocator@PAUAccountInfo@@@util@@$0A@@std@@@2@@Z 004132a0 f i AccountManager.obj
 0001:000122a0       ?_Lrotate@?$_Tree@V?$_Tmap_traits@KUPCROOMINFO@PCRoomUserManager@@U?$less@K@std@@V?$CustomAllocator@UPCROOMINFO@PCRoomUserManager@@@util@@$0A@@std@@@std@@IAEXPAU_Node@?$_Tree_nod@V?$_Tmap_traits@KUPCROOMINFO@PCRoomUserManager@@U?$less@K@std@@V?$CustomAllocator@UPCROOMINFO@PCRoomUserManager@@@util@@$0A@@std@@@2@@Z 004132a0 f i IntegratedBillingServerSession.obj
 0001:00012350       ?erase@?$_Tree@V?$_Tmap_traits@V?$basic_string@DU?$char_traits@D@std@@V?$CustomAllocator@D@util@@@std@@V?$chunk_list@K@util@@U?$less@V?$basic_string@DU?$char_traits@D@std@@V?$CustomAllocator@D@util@@@std@@@2@V?$CustomAllocator@V?$chunk_list@K@util@@@4@$0A@@std@@@std@@QAE?AViterator@12@Vconst_iterator@12@0@Z 00413350 f i IntegratedBillingServerSession.obj
 0001:00012540       ?_Lbound@?$_Tree@V?$_Tmap_traits@V?$basic_string@DU?$char_traits@D@std@@V?$CustomAllocator@D@util@@@std@@V?$chunk_list@K@util@@U?$less@V?$basic_string@DU?$char_traits@D@std@@V?$CustomAllocator@D@util@@@std@@@2@V?$CustomAllocator@V?$chunk_list@K@util@@@4@$0A@@std@@@std@@IBEPAU_Node@?$_Tree_nod@V?$_Tmap_traits@V?$basic_string@DU?$char_traits@D@std@@V?$CustomAllocator@D@util@@@std@@V?$chunk_list@K@util@@U?$less@V?$basic_string@DU?$char_traits@D@std@@V?$CustomAllocator@D@util@@@std@@@2@V?$CustomAllocator@V?$chunk_list@K@util@@@4@$0A@@std@@@2@ABV?$basic_string@DU?$char_traits@D@std@@V?$CustomAllocator@D@util@@@2@@Z 00413540 f i IntegratedBillingServerSession.obj
 0001:000125b0       ?_Lrotate@?$_Tree@V?$_Tmap_traits@V?$basic_string@DU?$char_traits@D@std@@V?$CustomAllocator@D@util@@@std@@V?$chunk_list@K@util@@U?$less@V?$basic_string@DU?$char_traits@D@std@@V?$CustomAllocator@D@util@@@std@@@2@V?$CustomAllocator@V?$chunk_list@K@util@@@4@$0A@@std@@@std@@IAEXPAU_Node@?$_Tree_nod@V?$_Tmap_traits@V?$basic_string@DU?$char_traits@D@std@@V?$CustomAllocator@D@util@@@std@@V?$chunk_list@K@util@@U?$less@V?$basic_string@DU?$char_traits@D@std@@V?$CustomAllocator@D@util@@@std@@@2@V?$CustomAllocator@V?$chunk_list@K@util@@@4@$0A@@std@@@2@@Z 004135b0 f i IntegratedBillingServerSession.obj
 0001:00012660       ?_Rrotate@?$_Tree@V?$_Tmap_traits@V?$basic_string@DU?$char_traits@D@std@@V?$CustomAllocator@D@util@@@std@@V?$chunk_list@K@util@@U?$less@V?$basic_string@DU?$char_traits@D@std@@V?$CustomAllocator@D@util@@@std@@@2@V?$CustomAllocator@V?$chunk_list@K@util@@@4@$0A@@std@@@std@@IAEXPAU_Node@?$_Tree_nod@V?$_Tmap_traits@V?$basic_string@DU?$char_traits@D@std@@V?$CustomAllocator@D@util@@@std@@V?$chunk_list@K@util@@U?$less@V?$basic_string@DU?$char_traits@D@std@@V?$CustomAllocator@D@util@@@std@@@2@V?$CustomAllocator@V?$chunk_list@K@util@@@4@$0A@@std@@@2@@Z 00413660 f i IntegratedBillingServerSession.obj
 0001:00012710       ?_Buynode@?$_Tree@V?$_Tmap_traits@V?$basic_string@DU?$char_traits@D@std@@V?$CustomAllocator@D@util@@@std@@V?$chunk_list@K@util@@U?$less@V?$basic_string@DU?$char_traits@D@std@@V?$CustomAllocator@D@util@@@std@@@2@V?$CustomAllocator@V?$chunk_list@K@util@@@4@$0A@@std@@@std@@IAEPAU_Node@?$_Tree_nod@V?$_Tmap_traits@V?$basic_string@DU?$char_traits@D@std@@V?$CustomAllocator@D@util@@@std@@V?$chunk_list@K@util@@U?$less@V?$basic_string@DU?$char_traits@D@std@@V?$CustomAllocator@D@util@@@std@@@2@V?$CustomAllocator@V?$chunk_list@K@util@@@4@$0A@@std@@@2@PAU342@00ABU?$pair@$$CBV?$basic_string@DU?$char_traits@D@std@@V?$CustomAllocator@D@util@@@std@@V?$chunk_list@K@util@@@2@D@Z 00413710 f i IntegratedBillingServerSession.obj
 0001:00012800       ?assign@?$basic_string@DU?$char_traits@D@std@@V?$CustomAllocator@D@util@@@std@@QAEAAV12@ABV12@II@Z 00413800 f i IntegratedBillingServerSession.obj
 0001:00012930       ?assign@?$basic_string@DU?$char_traits@D@std@@V?$CustomAllocator@D@util@@@std@@QAEAAV12@PBDI@Z 00413930 f i IntegratedBillingServerSession.obj
 0001:00012a20       ?clear@?$list@KV?$CustomAllocator@K@util@@@std@@QAEXXZ 00413a20 f i IntegratedBillingServerSession.obj
 0001:00012aa0       ?_Buynode@?$list@KV?$CustomAllocator@K@util@@@std@@IAEPAU_Node@?$_List_nod@KV?$CustomAllocator@K@util@@@2@XZ 00413aa0 f i IntegratedBillingServerSession.obj
 0001:00012ba0       ?_Buynode@?$list@KV?$CustomAllocator@K@util@@@std@@IAEPAU_Node@?$_List_nod@KV?$CustomAllocator@K@util@@@2@PAU342@0ABK@Z 00413ba0 f i IntegratedBillingServerSession.obj
 0001:00012cb0       ??0?$_List_val@KV?$CustomAllocator@K@util@@@std@@QAE@V?$CustomAllocator@K@util@@@Z 00413cb0 f i IntegratedBillingServerSession.obj
 0001:00012d20       ??0const_iterator@?$_Tree@V?$_Tmap_traits@KUPCROOMINFO@PCRoomUserManager@@U?$less@K@std@@V?$CustomAllocator@UPCROOMINFO@PCRoomUserManager@@@util@@$0A@@std@@@std@@QAE@PAU_Node@?$_Tree_nod@V?$_Tmap_traits@KUPCROOMINFO@PCRoomUserManager@@U?$less@K@std@@V?$CustomAllocator@UPCROOMINFO@PCRoomUserManager@@@util@@$0A@@std@@@2@PBV12@@Z 00413d20 f i IntegratedBillingServerSession.obj
 0001:00012d20       ??0const_iterator@?$_Tree@V?$_Tmap_traits@KPAUAccountInfo@@U?$less@K@std@@V?$CustomAllocator@PAUAccountInfo@@@util@@$0A@@std@@@std@@QAE@PAU_Node@?$_Tree_nod@V?$_Tmap_traits@KPAUAccountInfo@@U?$less@K@std@@V?$CustomAllocator@PAUAccountInfo@@@util@@$0A@@std@@@2@PBV12@@Z 00413d20 f i AccountManager.obj
 0001:00012d20       ??0const_iterator@?$_Tree@V?$_Tmap_traits@V?$basic_string@DU?$char_traits@D@std@@V?$CustomAllocator@D@util@@@std@@V?$chunk_list@K@util@@U?$less@V?$basic_string@DU?$char_traits@D@std@@V?$CustomAllocator@D@util@@@std@@@2@V?$CustomAllocator@V?$chunk_list@K@util@@@4@$0A@@std@@@std@@QAE@PAU_Node@?$_Tree_nod@V?$_Tmap_traits@V?$basic_string@DU?$char_traits@D@std@@V?$CustomAllocator@D@util@@@std@@V?$chunk_list@K@util@@U?$less@V?$basic_string@DU?$char_traits@D@std@@V?$CustomAllocator@D@util@@@std@@@2@V?$CustomAllocator@V?$chunk_list@K@util@@@4@$0A@@std@@@2@PBV12@@Z 00413d20 f i IntegratedBillingServerSession.obj
 0001:00012d60       ??Dconst_iterator@?$_Tree@V?$_Tmap_traits@KUPCROOMINFO@PCRoomUserManager@@U?$less@K@std@@V?$CustomAllocator@UPCROOMINFO@PCRoomUserManager@@@util@@$0A@@std@@@std@@QBEABU?$pair@$$CBKUPCROOMINFO@PCRoomUserManager@@@2@XZ 00413d60 f i IntegratedBillingServerSession.obj
 0001:00012d60       ??Dconst_iterator@?$_Tree@V?$_Tmap_traits@KPAUAccountInfo@@U?$less@K@std@@V?$CustomAllocator@PAUAccountInfo@@@util@@$0A@@std@@@std@@QBEABU?$pair@$$CBKPAUAccountInfo@@@2@XZ 00413d60 f i AccountManager.obj
 0001:00012d60       ??Dconst_iterator@?$_Tree@V?$_Tmap_traits@KPAVServerData@@U?$less@K@std@@V?$CustomAllocator@PAVServerData@@@util@@$0A@@std@@@std@@QBEABU?$pair@$$CBKPAVServerData@@@2@XZ 00413d60 f i AuthAgentServerSession.obj
 0001:00012d60       ??Dconst_iterator@?$_Tree@V?$_Tmap_traits@V?$basic_string@DU?$char_traits@D@std@@V?$CustomAllocator@D@util@@@std@@V?$chunk_list@K@util@@U?$less@V?$basic_string@DU?$char_traits@D@std@@V?$CustomAllocator@D@util@@@std@@@2@V?$CustomAllocator@V?$chunk_list@K@util@@@4@$0A@@std@@@std@@QBEABU?$pair@$$CBV?$basic_string@DU?$char_traits@D@std@@V?$CustomAllocator@D@util@@@std@@V?$chunk_list@K@util@@@2@XZ 00413d60 f i IntegratedBillingServerSession.obj
 0001:00012dd0       ??0?$_Const_iterator@$00@?$list@KV?$CustomAllocator@K@util@@@std@@QAE@PAU_Node@?$_List_nod@KV?$CustomAllocator@K@util@@@2@PBV12@@Z 00413dd0 f i IntegratedBillingServerSession.obj
 0001:00012dd0       ??0?$_Const_iterator@$00@?$list@PAUCONTROL_IP_INFO@@V?$allocator@PAUCONTROL_IP_INFO@@@std@@@std@@QAE@PAU_Node@?$_List_nod@PAUCONTROL_IP_INFO@@V?$allocator@PAUCONTROL_IP_INFO@@@std@@@2@PBV12@@Z 00413dd0 f i AuthFrame.obj
 0001:00012dd0       ??0?$_Const_iterator@$00@?$list@U?$pair@$$CBKPAVServerSession@@@std@@V?$CustomAllocator@U?$pair@$$CBKPAVServerSession@@@std@@@util@@@std@@QAE@PAU_Node@?$_List_nod@U?$pair@$$CBKPAVServerSession@@@std@@V?$CustomAllocator@U?$pair@$$CBKPAVServerSession@@@std@@@util@@@2@PBV12@@Z 00413dd0 f i AuthAgentServerSession.obj
 0001:00012e10       ?erase@?$_Tree@V?$_Tmap_traits@KUPCROOMINFO@PCRoomUserManager@@U?$less@K@std@@V?$CustomAllocator@UPCROOMINFO@PCRoomUserManager@@@util@@$0A@@std@@@std@@QAE?AViterator@12@Vconst_iterator@12@@Z 00413e10 f i IntegratedBillingServerSession.obj
 0001:00012e10       ?erase@?$_Tree@V?$_Tmap_traits@KPAUAccountInfo@@U?$less@K@std@@V?$CustomAllocator@PAUAccountInfo@@@util@@$0A@@std@@@std@@QAE?AViterator@12@Vconst_iterator@12@@Z 00413e10 f i AccountManager.obj
 0001:00013470       ?erase@?$_Tree@V?$_Tmap_traits@V?$basic_string@DU?$char_traits@D@std@@V?$CustomAllocator@D@util@@@std@@V?$chunk_list@K@util@@U?$less@V?$basic_string@DU?$char_traits@D@std@@V?$CustomAllocator@D@util@@@std@@@2@V?$CustomAllocator@V?$chunk_list@K@util@@@4@$0A@@std@@@std@@QAE?AViterator@12@Vconst_iterator@12@@Z 00414470 f i IntegratedBillingServerSession.obj
 0001:00013b10       ?clear@?$_Tree@V?$_Tmap_traits@V?$basic_string@DU?$char_traits@D@std@@V?$CustomAllocator@D@util@@@std@@V?$chunk_list@K@util@@U?$less@V?$basic_string@DU?$char_traits@D@std@@V?$CustomAllocator@D@util@@@std@@@2@V?$CustomAllocator@V?$chunk_list@K@util@@@4@$0A@@std@@@std@@QAEXXZ 00414b10 f i IntegratedBillingServerSession.obj
 0001:00013b70       ?_Init@?$_Tree@V?$_Tmap_traits@V?$basic_string@DU?$char_traits@D@std@@V?$CustomAllocator@D@util@@@std@@V?$chunk_list@K@util@@U?$less@V?$basic_string@DU?$char_traits@D@std@@V?$CustomAllocator@D@util@@@std@@@2@V?$CustomAllocator@V?$chunk_list@K@util@@@4@$0A@@std@@@std@@IAEXXZ 00414b70 f i IntegratedBillingServerSession.obj
 0001:00013be0       ?erase@?$basic_string@DU?$char_traits@D@std@@V?$CustomAllocator@D@util@@@std@@QAEAAV12@II@Z 00414be0 f i IntegratedBillingServerSession.obj
 0001:00013cf0       ?_Grow@?$basic_string@DU?$char_traits@D@std@@V?$CustomAllocator@D@util@@@std@@IAE_NI_N@Z 00414cf0 f i IntegratedBillingServerSession.obj
 0001:00013df0       ?_Inside@?$basic_string@DU?$char_traits@D@std@@V?$CustomAllocator@D@util@@@std@@IAE_NPBD@Z 00414df0 f i IntegratedBillingServerSession.obj
 0001:00013e60       ?_Dec@const_iterator@?$_Tree@V?$_Tmap_traits@V?$basic_string@DU?$char_traits@D@std@@V?$CustomAllocator@D@util@@@std@@V?$chunk_list@K@util@@U?$less@V?$basic_string@DU?$char_traits@D@std@@V?$CustomAllocator@D@util@@@std@@@2@V?$CustomAllocator@V?$chunk_list@K@util@@@4@$0A@@std@@@std@@QAEXXZ 00414e60 f i IntegratedBillingServerSession.obj
 0001:00013f60       ??0?$pair@$$CBV?$basic_string@DU?$char_traits@D@std@@V?$CustomAllocator@D@util@@@std@@V?$chunk_list@K@util@@@std@@QAE@ABU01@@Z 00414f60 f i IntegratedBillingServerSession.obj
 0001:00013ff0       ?_Erase@?$_Tree@V?$_Tmap_traits@V?$basic_string@DU?$char_traits@D@std@@V?$CustomAllocator@D@util@@@std@@V?$chunk_list@K@util@@U?$less@V?$basic_string@DU?$char_traits@D@std@@V?$CustomAllocator@D@util@@@std@@@2@V?$CustomAllocator@V?$chunk_list@K@util@@@4@$0A@@std@@@std@@IAEXPAU_Node@?$_Tree_nod@V?$_Tmap_traits@V?$basic_string@DU?$char_traits@D@std@@V?$CustomAllocator@D@util@@@std@@V?$chunk_list@K@util@@U?$less@V?$basic_string@DU?$char_traits@D@std@@V?$CustomAllocator@D@util@@@std@@@2@V?$CustomAllocator@V?$chunk_list@K@util@@@4@$0A@@std@@@2@@Z 00414ff0 f i IntegratedBillingServerSession.obj
 0001:000140a0       ?_Buynode@?$_Tree@V?$_Tmap_traits@V?$basic_string@DU?$char_traits@D@std@@V?$CustomAllocator@D@util@@@std@@V?$chunk_list@K@util@@U?$less@V?$basic_string@DU?$char_traits@D@std@@V?$CustomAllocator@D@util@@@std@@@2@V?$CustomAllocator@V?$chunk_list@K@util@@@4@$0A@@std@@@std@@IAEPAU_Node@?$_Tree_nod@V?$_Tmap_traits@V?$basic_string@DU?$char_traits@D@std@@V?$CustomAllocator@D@util@@@std@@V?$chunk_list@K@util@@U?$less@V?$basic_string@DU?$char_traits@D@std@@V?$CustomAllocator@D@util@@@std@@@2@V?$CustomAllocator@V?$chunk_list@K@util@@@4@$0A@@std@@@2@XZ 004150a0 f i IntegratedBillingServerSession.obj
 0001:000141d0       ?_Copy@?$basic_string@DU?$char_traits@D@std@@V?$CustomAllocator@D@util@@@std@@IAEXII@Z 004151d0 f i IntegratedBillingServerSession.obj
 0001:00014400       ??0?$_Tree_nod@V?$_Tmap_traits@KUPCROOMINFO@PCRoomUserManager@@U?$less@K@std@@V?$CustomAllocator@UPCROOMINFO@PCRoomUserManager@@@util@@$0A@@std@@@std@@IAE@ABU?$less@K@1@V?$CustomAllocator@U?$pair@$$CBKUPCROOMINFO@PCRoomUserManager@@@std@@@util@@@Z 00415400 f i IntegratedBillingServerSession.obj
 0001:00014480       ?_Inc@const_iterator@?$_Tree@V?$_Tmap_traits@V?$basic_string@DU?$char_traits@D@std@@V?$CustomAllocator@D@util@@@std@@V?$chunk_list@K@util@@U?$less@V?$basic_string@DU?$char_traits@D@std@@V?$CustomAllocator@D@util@@@std@@@2@V?$CustomAllocator@V?$chunk_list@K@util@@@4@$0A@@std@@@std@@QAEXXZ 00415480 f i IntegratedBillingServerSession.obj
 0001:00014550       ??0?$_Tmap_traits@V?$basic_string@DU?$char_traits@D@std@@V?$CustomAllocator@D@util@@@std@@V?$chunk_list@K@util@@U?$less@V?$basic_string@DU?$char_traits@D@std@@V?$CustomAllocator@D@util@@@std@@@2@V?$CustomAllocator@V?$chunk_list@K@util@@@4@$0A@@std@@QAE@U?$less@V?$basic_string@DU?$char_traits@D@std@@V?$CustomAllocator@D@util@@@std@@@1@V?$CustomAllocator@V?$chunk_list@K@util@@@util@@@Z 00415550 f i IntegratedBillingServerSession.obj
 0001:000145b0       ?compare@?$basic_string@DU?$char_traits@D@std@@V?$CustomAllocator@D@util@@@std@@QBEHABV12@@Z 004155b0 f i IntegratedBillingServerSession.obj
 0001:00014600       ?compare@?$basic_string@DU?$char_traits@D@std@@V?$CustomAllocator@D@util@@@std@@QBEHIIPBDI@Z 00415600 f i IntegratedBillingServerSession.obj
 0001:000146d0       ??$_Insert@V?$_Const_iterator@$00@?$list@KV?$CustomAllocator@K@util@@@std@@@?$list@KV?$CustomAllocator@K@util@@@std@@QAEXV?$_Const_iterator@$00@01@00Uforward_iterator_tag@1@@Z 004156d0 f i IntegratedBillingServerSession.obj
 0001:00014820       ??F?$_Const_iterator@$00@?$list@KV?$CustomAllocator@K@util@@@std@@QAEAAV012@XZ 00415820 f i IntegratedBillingServerSession.obj
 0001:000148b0       ??0IntegratedBillingServerSessionLib@@QAE@XZ 004158b0 f   IntegratedBillingServerSessionLib.obj
 0001:000148d0       ??1IntegratedBillingServerSessionLib@@UAE@XZ 004158d0 f   IntegratedBillingServerSessionLib.obj
 0001:000148f0       ?WriteLog@IntegratedBillingServerSessionLib@@MAEXPAD@Z 004158f0 f   IntegratedBillingServerSessionLib.obj
 0001:00014900       ?OnNetConnect@IntegratedBillingServerSessionLib@@MAEX_NK@Z 00415900 f   IntegratedBillingServerSessionLib.obj
 0001:00014930       ?OnNetSend@IntegratedBillingServerSessionLib@@MAEXH@Z 00415930 f   IntegratedBillingServerSessionLib.obj
 0001:00014940       ?OnNetClose@IntegratedBillingServerSessionLib@@MAEXK@Z 00415940 f   IntegratedBillingServerSessionLib.obj
 0001:00014970       ?OnUserStatus@IntegratedBillingServerSessionLib@@MAEXKJKKNNFFF@Z 00415970 f   IntegratedBillingServerSessionLib.obj
 0001:000149d0       ?OnInquireDeductType@IntegratedBillingServerSessionLib@@IAEXJJ@Z 004159d0 f   IntegratedBillingServerSessionLib.obj
 0001:000149f0       ?OnInquireMultiUser@IntegratedBillingServerSessionLib@@MAEXJJJ@Z 004159f0 f   IntegratedBillingServerSessionLib.obj
 0001:00014a30       ?OnInquirePCRoomPoint@IntegratedBillingServerSessionLib@@MAEXJJJJ@Z 00415a30 f   IntegratedBillingServerSessionLib.obj
 0001:00014a70       ?OnInquirePersonDeduct@IntegratedBillingServerSessionLib@@MAEXJJJ@Z 00415a70 f   IntegratedBillingServerSessionLib.obj
 0001:00014aa0       ?OnCheckLoginUser@IntegratedBillingServerSessionLib@@MAEXJJ@Z 00415aa0 f   IntegratedBillingServerSessionLib.obj
 0001:00014ad0       ?OnPCRoomIPUpdate@IntegratedBillingServerSessionLib@@MAEXJJ@Z 00415ad0 f   IntegratedBillingServerSessionLib.obj
 0001:00014b00       ??_EIntegratedBillingServerSessionLib@@UAEPAXI@Z 00415b00 f i IntegratedBillingServerSessionLib.obj
 0001:00014b00       ??_GIntegratedBillingServerSessionLib@@UAEPAXI@Z 00415b00 f i IntegratedBillingServerSessionLib.obj
 0001:00014b30       ??0BillingServerSession@@QAE@XZ 00415b30 f   BillingServerSession.obj
 0001:00014c20       ??1BillingServerSession@@UAE@XZ 00415c20 f   BillingServerSession.obj
 0001:00014cf0       ?OnConnect@BillingServerSession@@MAEXHK@Z 00415cf0 f   BillingServerSession.obj
 0001:00014d50       ?SendPacket@BillingServerSession@@QAEHPAUMSG_BASE_BILLING@@G@Z 00415d50 f   BillingServerSession.obj
 0001:00014d70       ?OnDisconnect@BillingServerSession@@MAEXXZ 00415d70 f   BillingServerSession.obj
 0001:00014d90       ?OnRecv@BillingServerSession@@MAEXPAEG@Z 00415d90 f   BillingServerSession.obj
 0001:00014e20       ?Update@BillingServerSession@@EAEXXZ 00415e20 f   BillingServerSession.obj
 0001:00014eb0       ?MakeList@BillingServerSession@@AAEXXZ 00415eb0 f   BillingServerSession.obj
 0001:000150f0       ?SendDeduction@BillingServerSession@@AAEXXZ 004160f0 f   BillingServerSession.obj
 0001:00015340       ?SendLogin@BillingServerSession@@QAEXAAUAccountInfo@@@Z 00416340 f   BillingServerSession.obj
 0001:000153b0       ?SendLogout@BillingServerSession@@QAEXAAUAccountInfo@@@Z 004163b0 f   BillingServerSession.obj
 0001:00015470       ?QueryRestPoint@BillingServerSession@@QAEXPAUAccountInfo@@@Z 00416470 f   BillingServerSession.obj
 0001:000154c0       ?OnBS_BILLING_EXPIRED_NTF@BillingServerSession@@QAEXPAUMSG_BASE_BILLING@@G@Z 004164c0 f   BillingServerSession.obj
 0001:00015500       ?OnBS_BILLING_EXPIRED_ALRAM_NTF@BillingServerSession@@QAEXPAUMSG_BASE_BILLING@@G@Z 00416500 f   BillingServerSession.obj
 0001:00015600       ?OnBS_BILLING_RESTPOINT_ACK@BillingServerSession@@QAEXPAUMSG_BASE_BILLING@@G@Z 00416600 f   BillingServerSession.obj
 0001:00015640       ??_GBillingServerSession@@UAEPAXI@Z 00416640 f i BillingServerSession.obj
 0001:00015640       ??_EBillingServerSession@@UAEPAXI@Z 00416640 f i BillingServerSession.obj
 0001:00015670       ??1?$chunk_deque@PAUAccountInfo@@@util@@QAE@XZ 00416670 f i BillingServerSession.obj
 0001:000156e0       ??1?$chunk_vector@PAUAccountInfo@@@util@@QAE@XZ 004166e0 f i BillingServerSession.obj
 0001:00015750       ?end@?$deque@PAUAccountInfo@@V?$CustomAllocator@PAUAccountInfo@@@util@@@std@@QAE?AV?$_Deque_iterator@PAUAccountInfo@@V?$CustomAllocator@PAUAccountInfo@@@util@@$00@2@XZ 00416750 f i BillingServerSession.obj
 0001:000157c0       ?pop_front@?$deque@PAUAccountInfo@@V?$CustomAllocator@PAUAccountInfo@@@util@@@std@@QAEXXZ 004167c0 f i BillingServerSession.obj
 0001:00015840       ?push_back@?$deque@PAUAccountInfo@@V?$CustomAllocator@PAUAccountInfo@@@util@@@std@@QAEXABQAUAccountInfo@@@Z 00416840 f i BillingServerSession.obj
 0001:00015990       ?erase@?$deque@PAUAccountInfo@@V?$CustomAllocator@PAUAccountInfo@@@util@@@std@@QAE?AV?$_Deque_iterator@PAUAccountInfo@@V?$CustomAllocator@PAUAccountInfo@@@util@@$00@2@V?$_Deque_const_iterator@PAUAccountInfo@@V?$CustomAllocator@PAUAccountInfo@@@util@@$00@2@0@Z 00416990 f i BillingServerSession.obj
 0001:00015b70       ?begin@?$deque@PAUAccountInfo@@V?$CustomAllocator@PAUAccountInfo@@@util@@@std@@QAE?AV?$_Deque_iterator@PAUAccountInfo@@V?$CustomAllocator@PAUAccountInfo@@@util@@$00@2@XZ 00416b70 f i BillingServerSession.obj
 0001:00015be0       ?_Growmap@?$deque@PAUAccountInfo@@V?$CustomAllocator@PAUAccountInfo@@@util@@@std@@IAEXI@Z 00416be0 f i BillingServerSession.obj
 0001:00015f50       ?_Tidy@?$deque@PAUAccountInfo@@V?$CustomAllocator@PAUAccountInfo@@@util@@@std@@IAEXXZ 00416f50 f i BillingServerSession.obj
 0001:00016000       ?_Tidy@?$vector@PAUAccountInfo@@V?$CustomAllocator@PAUAccountInfo@@@util@@@std@@IAEXXZ 00417000 f i BillingServerSession.obj
 0001:00016080       ??D?$_Vector_const_iterator@PAUAccountInfo@@V?$CustomAllocator@PAUAccountInfo@@@util@@@std@@QBEABQAUAccountInfo@@XZ 00417080 f i BillingServerSession.obj
 0001:00016080       ??D?$_Vector_const_iterator@GV?$CustomAllocator@G@util@@@std@@QBEABGXZ 00417080 f i ReAuthManager.obj
 0001:000160f0       ??E?$_Vector_const_iterator@PAUAccountInfo@@V?$CustomAllocator@PAUAccountInfo@@@util@@@std@@QAEAAV01@XZ 004170f0 f i BillingServerSession.obj
 0001:00016160       ??D?$_Deque_const_iterator@PAUAccountInfo@@V?$CustomAllocator@PAUAccountInfo@@@util@@$00@std@@QBEABQAUAccountInfo@@XZ 00417160 f i BillingServerSession.obj
 0001:00016160       ??D?$_Deque_const_iterator@PAUAccountInfo@@V?$CustomAllocator@PAUAccountInfo@@@util@@$0A@@std@@QBEABQAUAccountInfo@@XZ 00417160 f i BillingServerSession.obj
 0001:000162b0       ?pop_back@?$deque@PAUAccountInfo@@V?$CustomAllocator@PAUAccountInfo@@@util@@@std@@QAEXXZ 004172b0 f i BillingServerSession.obj
 0001:00016330       ?_Xlen@?$deque@PAUAccountInfo@@V?$CustomAllocator@PAUAccountInfo@@@util@@@std@@KAXXZ 00417330 f i BillingServerSession.obj
 0001:00016420       ?_Buy@?$vector@PAUAccountInfo@@V?$CustomAllocator@PAUAccountInfo@@@util@@@std@@IAE_NI@Z 00417420 f i BillingServerSession.obj
 0001:000164c0       ??0?$_Vector_val@GV?$CustomAllocator@G@util@@@std@@IAE@V?$CustomAllocator@G@util@@@Z 004174c0 f i ReAuthManager.obj
 0001:000164c0       ??0?$_Vector_val@PAUAccountInfo@@V?$CustomAllocator@PAUAccountInfo@@@util@@@std@@IAE@V?$CustomAllocator@PAUAccountInfo@@@util@@@Z 004174c0 f i BillingServerSession.obj
 0001:00016520       ??0?$_Deque_const_iterator@PAUAccountInfo@@V?$CustomAllocator@PAUAccountInfo@@@util@@$00@std@@QAE@IPBV_Container_base_aux@1@@Z 00417520 f i BillingServerSession.obj
 0001:00016580       ??Y?$_Deque_const_iterator@PAUAccountInfo@@V?$CustomAllocator@PAUAccountInfo@@@util@@$00@std@@QAEAAV01@H@Z 00417580 f i BillingServerSession.obj
 0001:00016680       ??0?$_Container_base_aux_alloc_real@V?$CustomAllocator@K@util@@@std@@IAE@V?$CustomAllocator@K@util@@@Z 00417680 f i IntegratedBillingServerSession.obj
 0001:00016680       ??0?$_Container_base_aux_alloc_real@V?$CustomAllocator@PAUAccountInfo@@@util@@@std@@IAE@V?$CustomAllocator@PAUAccountInfo@@@util@@@Z 00417680 f i BillingServerSession.obj
 0001:000166e0       ??G?$_Deque_const_iterator@PAUAccountInfo@@V?$CustomAllocator@PAUAccountInfo@@@util@@$00@std@@QBEHABV01@@Z 004176e0 f i BillingServerSession.obj
 0001:00016760       ??$copy_backward@V?$_Deque_iterator@PAUAccountInfo@@V?$CustomAllocator@PAUAccountInfo@@@util@@$00@std@@V12@@std@@YA?AV?$_Deque_iterator@PAUAccountInfo@@V?$CustomAllocator@PAUAccountInfo@@@util@@$00@0@V10@00@Z 00417760 f i BillingServerSession.obj
 0001:00016840       ??$copy@V?$_Deque_iterator@PAUAccountInfo@@V?$CustomAllocator@PAUAccountInfo@@@util@@$00@std@@V12@@std@@YA?AV?$_Deque_iterator@PAUAccountInfo@@V?$CustomAllocator@PAUAccountInfo@@@util@@$00@0@V10@00@Z 00417840 f i BillingServerSession.obj
 0001:00016920       ??$unchecked_uninitialized_copy@PAPAUAccountInfo@@PAPAU1@V?$CustomAllocator@PAUAccountInfo@@@util@@@stdext@@YAPAPAUAccountInfo@@PAPAU1@00AAV?$CustomAllocator@PAUAccountInfo@@@util@@@Z 00417920 f i AccountManager.obj
 0001:00016920       ??$unchecked_uninitialized_copy@PAPAPAUAccountInfo@@PAPAPAU1@V?$CustomAllocator@PAPAUAccountInfo@@@util@@@stdext@@YAPAPAPAUAccountInfo@@PAPAPAU1@00AAV?$CustomAllocator@PAPAUAccountInfo@@@util@@@Z 00417920 f i BillingServerSession.obj
 0001:00016990       ??$_Copy_backward_opt@V?$_Deque_iterator@PAUAccountInfo@@V?$CustomAllocator@PAUAccountInfo@@@util@@$0A@@std@@V?$_Deque_iterator@PAUAccountInfo@@V?$CustomAllocator@PAUAccountInfo@@@util@@$00@2@@std@@YA?AV?$_Deque_iterator@PAUAccountInfo@@V?$CustomAllocator@PAUAccountInfo@@@util@@$00@0@V?$_Deque_iterator@PAUAccountInfo@@V?$CustomAllocator@PAUAccountInfo@@@util@@$0A@@0@0V10@Urandom_access_iterator_tag@0@U_Nonscalar_ptr_iterator_tag@0@U_Range_checked_iterator_tag@0@@Z 00417990 f i BillingServerSession.obj
 0001:00016b00       ??$_Copy_opt@V?$_Deque_iterator@PAUAccountInfo@@V?$CustomAllocator@PAUAccountInfo@@@util@@$0A@@std@@V?$_Deque_iterator@PAUAccountInfo@@V?$CustomAllocator@PAUAccountInfo@@@util@@$00@2@@std@@YA?AV?$_Deque_iterator@PAUAccountInfo@@V?$CustomAllocator@PAUAccountInfo@@@util@@$00@0@V?$_Deque_iterator@PAUAccountInfo@@V?$CustomAllocator@PAUAccountInfo@@@util@@$0A@@0@0V10@Urandom_access_iterator_tag@0@U_Nonscalar_ptr_iterator_tag@0@U_Range_checked_iterator_tag@0@@Z 00417b00 f i BillingServerSession.obj
 0001:00016c90       ??G?$_Deque_const_iterator@PAUAccountInfo@@V?$CustomAllocator@PAUAccountInfo@@@util@@$0A@@std@@QBEHABV01@@Z 00417c90 f i BillingServerSession.obj
 0001:00016d10       ??0?$_Deque_iterator@PAUAccountInfo@@V?$CustomAllocator@PAUAccountInfo@@@util@@$0A@@std@@QAE@IPBV_Container_base_aux@1@@Z 00417d10 f i BillingServerSession.obj
 0001:00016d70       ??E?$_Deque_const_iterator@PAUAccountInfo@@V?$CustomAllocator@PAUAccountInfo@@@util@@$0A@@std@@QAEAAV01@XZ 00417d70 f i BillingServerSession.obj
 0001:00016e20       ??F?$_Deque_const_iterator@PAUAccountInfo@@V?$CustomAllocator@PAUAccountInfo@@@util@@$0A@@std@@QAEAAV01@XZ 00417e20 f i BillingServerSession.obj
 0001:00016ea0       ??0AccountManager@@QAE@XZ  00417ea0 f   AccountManager.obj
 0001:00016f90       ??1AccountManager@@QAE@XZ  00417f90 f   AccountManager.obj
 0001:00017010       ?Destroy@AccountManager@@QAEXXZ 00418010 f   AccountManager.obj
 0001:000170c0       ?Initialize@AccountManager@@QAEXXZ 004180c0 f   AccountManager.obj
 0001:00017120       ?Update@AccountManager@@QAEXXZ 00418120 f   AccountManager.obj
 0001:000173a0       ?GetHashCode@AccountManager@@AAEKPAD@Z 004183a0 f   AccountManager.obj
 0001:000173f0       ?CalcConnectTime@AccountManager@@SAGPAUAccountInfo@@@Z 004183f0 f   AccountManager.obj
 0001:00017460       ?CreateAccountInfo@AccountManager@@QAEPAUAccountInfo@@PADPAPAU2@@Z 00418460 f   AccountManager.obj
 0001:000175a0       ?Find@AccountManager@@QAEPAUAccountInfo@@PAD@Z 004185a0 f   AccountManager.obj
 0001:00017650       ?FindWithLoginFrontUserID@AccountManager@@QAEPAUAccountInfo@@K@Z 00418650 f   AccountManager.obj
 0001:000176e0       ?FindWithAuthKey@AccountManager@@QAEPAUAccountInfo@@K@Z 004186e0 f   AccountManager.obj
 0001:00017780       ?FindWithUserGuid@AccountManager@@QAEPAUAccountInfo@@K@Z 00418780 f   AccountManager.obj
 0001:00017810       ?ClearInfo@AccountManager@@QAEHPAD@Z 00418810 f   AccountManager.obj
 0001:00017910       ?ClearInfo@AccountManager@@QAEHK@Z 00418910 f   AccountManager.obj
 0001:00017a10       ?ClearLocation@AccountManager@@QAEXG@Z 00418a10 f   AccountManager.obj
 0001:00017b50       ?MakeBillingList@AccountManager@@QAEXPAV?$chunk_vector@PAUAccountInfo@@@util@@@Z 00418b50 f   AccountManager.obj
 0001:00017d20       ?GenerateAuthKey@AccountManager@@QAEXPAUAccountInfo@@@Z 00418d20 f   AccountManager.obj
 0001:00017d70       ?GenerateSerialKey@AccountManager@@QAEXPAUAccountInfo@@@Z 00418d70 f   AccountManager.obj
 0001:00017dc0       ?DisplayInfo@AccountManager@@QAEXXZ 00418dc0 f   AccountManager.obj
 0001:00017ec0       ?DisplayDetailInfo@AccountManager@@QAEXXZ 00418ec0 f   AccountManager.obj
 0001:00018140       ??1ServerData@@QAE@XZ      00419140 f i authcommon:ServerDataManager.obj
 0001:00018140       ??1?$Singleton@VAccountManager@@$00@util@@IAE@XZ 00419140 f i AccountManager.obj
 0001:00018140       ?Connect@ServerSession@@UAEXXZ 00419140 f i AuthAgentServerSession.obj
 0001:00018140       ??1?$Singleton@VReAuthManager@@$00@util@@IAE@XZ 00419140 f i ReAuthManager.obj
 0001:00018140       ??1_Container_base_aux@std@@QAE@XZ 00419140 f i ClientStub_VS2008:Connector.obj
 0001:00018140       ??1Timer@util@@QAE@XZ      00419140 f i AuthFrame.obj
 0001:00018140       ??1?$Singleton@VServerDataManager@@$00@util@@IAE@XZ 00419140 f i authcommon:ServerDataManager.obj
 0001:00018140       ?Release@IMemoryPoolFactoryImpl@internal@util@@UAEXXZ 00419140 f i AuthFrame.obj
 0001:00018140       ??1?$Singleton@VAuthFrame@@$00@util@@IAE@XZ 00419140 f i AuthFrame.obj
 0001:00018140       ?OnAccept@CClientSession@@MAEXXZ 00419140 f i ClientStub_VS2008:BillEventHandler.obj
 0001:00018140       ??1?$Singleton@VQueryManager@@$00@util@@IAE@XZ 00419140 f i QueryManager.obj
 0001:00018140       ?OnAccept@ServerSession@WBANetwork@@MAEXXZ 00419140 f i ClientStub_VS2008:ServerSession.obj
 0001:00018150       ??1?$CMemoryPoolFactory@UAccountInfo@@@util@@UAE@XZ 00419150 f i AccountManager.obj
 0001:000181e0       ?Initialize@?$CMemoryPoolFactory@UAccountInfo@@@util@@UAE_NIIPBDPAX@Z 004191e0 f i AccountManager.obj
 0001:00018240       ??A?$map@KPAUAccountInfo@@U?$less@K@std@@V?$CustomAllocator@PAUAccountInfo@@@util@@@std@@QAEAAPAUAccountInfo@@ABK@Z 00419240 f i AccountManager.obj
 0001:00018340       ?clear@?$_Tree@V?$_Tmap_traits@KPAUAccountInfo@@U?$less@K@std@@V?$CustomAllocator@PAUAccountInfo@@@util@@$0A@@std@@@std@@QAEXXZ 00419340 f i AccountManager.obj
 0001:00018340       ?clear@?$_Tree@V?$_Tmap_traits@KUPCROOMINFO@PCRoomUserManager@@U?$less@K@std@@V?$CustomAllocator@UPCROOMINFO@PCRoomUserManager@@@util@@$0A@@std@@@std@@QAEXXZ 00419340 f i IntegratedBillingServerSession.obj
 0001:000183a0       ?find@?$_Tree@V?$_Tmap_traits@KUPCROOMINFO@PCRoomUserManager@@U?$less@K@std@@V?$CustomAllocator@UPCROOMINFO@PCRoomUserManager@@@util@@$0A@@std@@@std@@QAE?AViterator@12@ABK@Z 004193a0 f i IntegratedBillingServerSession.obj
 0001:000183a0       ?find@?$_Tree@V?$_Tmap_traits@KPAUAccountInfo@@U?$less@K@std@@V?$CustomAllocator@PAUAccountInfo@@@util@@$0A@@std@@@std@@QAE?AViterator@12@ABK@Z 004193a0 f i AccountManager.obj
 0001:000184a0       ?reserve@?$vector@PAUAccountInfo@@V?$CustomAllocator@PAUAccountInfo@@@util@@@std@@QAEXI@Z 004194a0 f i AccountManager.obj
 0001:00018780       ?push_back@?$vector@PAUAccountInfo@@V?$CustomAllocator@PAUAccountInfo@@@util@@@std@@QAEXABQAUAccountInfo@@@Z 00419780 f i AccountManager.obj
 0001:000188c0       ??_G?$CMemoryPoolFactory@UAccountInfo@@@util@@UAEPAXI@Z 004198c0 f i AccountManager.obj
 0001:000188c0       ??_E?$CMemoryPoolFactory@UAccountInfo@@@util@@UAEPAXI@Z 004198c0 f i AccountManager.obj
 0001:000188f0       ?CreateImpl@?$CMemoryPoolFactory@UAccountInfo@@@util@@QAEXH@Z 004198f0 f i AccountManager.obj
 0001:00018d30       ?insert@?$_Tree@V?$_Tmap_traits@KPAUAccountInfo@@U?$less@K@std@@V?$CustomAllocator@PAUAccountInfo@@@util@@$0A@@std@@@std@@QAE?AViterator@12@Vconst_iterator@12@ABU?$pair@$$CBKPAUAccountInfo@@@2@@Z 00419d30 f i AccountManager.obj
 0001:00019470       ??8const_iterator@?$_Tree@V?$_Tmap_traits@KPAUAccountInfo@@U?$less@K@std@@V?$CustomAllocator@PAUAccountInfo@@@util@@$0A@@std@@@std@@QBE_NABV012@@Z 0041a470 f i AccountManager.obj
 0001:000194c0       ?_Erase@?$_Tree@V?$_Tmap_traits@KUPCROOMINFO@PCRoomUserManager@@U?$less@K@std@@V?$CustomAllocator@UPCROOMINFO@PCRoomUserManager@@@util@@$0A@@std@@@std@@IAEXPAU_Node@?$_Tree_nod@V?$_Tmap_traits@KUPCROOMINFO@PCRoomUserManager@@U?$less@K@std@@V?$CustomAllocator@UPCROOMINFO@PCRoomUserManager@@@util@@$0A@@std@@@2@@Z 0041a4c0 f i IntegratedBillingServerSession.obj
 0001:000194c0       ?_Erase@?$_Tree@V?$_Tmap_traits@KPAUAccountInfo@@U?$less@K@std@@V?$CustomAllocator@PAUAccountInfo@@@util@@$0A@@std@@@std@@IAEXPAU_Node@?$_Tree_nod@V?$_Tmap_traits@KPAUAccountInfo@@U?$less@K@std@@V?$CustomAllocator@PAUAccountInfo@@@util@@$0A@@std@@@2@@Z 0041a4c0 f i AccountManager.obj
 0001:00019510       ?insert@?$vector@PAUAccountInfo@@V?$CustomAllocator@PAUAccountInfo@@@util@@@std@@QAE?AV?$_Vector_iterator@PAUAccountInfo@@V?$CustomAllocator@PAUAccountInfo@@@util@@@2@V?$_Vector_const_iterator@PAUAccountInfo@@V?$CustomAllocator@PAUAccountInfo@@@util@@@2@ABQAUAccountInfo@@@Z 0041a510 f i AccountManager.obj
 0001:00019640       ?_Eqrange@?$_Tree@V?$_Tmap_traits@KPAUAccountInfo@@U?$less@K@std@@V?$CustomAllocator@PAUAccountInfo@@@util@@$0A@@std@@@std@@IAE?AU?$pair@Viterator@?$_Tree@V?$_Tmap_traits@KPAUAccountInfo@@U?$less@K@std@@V?$CustomAllocator@PAUAccountInfo@@@util@@$0A@@std@@@std@@V123@@2@ABK@Z 0041a640 f i AccountManager.obj
 0001:000197a0       ?_Lbound@?$_Tree@V?$_Tmap_traits@KUPCROOMINFO@PCRoomUserManager@@U?$less@K@std@@V?$CustomAllocator@UPCROOMINFO@PCRoomUserManager@@@util@@$0A@@std@@@std@@IBEPAU_Node@?$_Tree_nod@V?$_Tmap_traits@KUPCROOMINFO@PCRoomUserManager@@U?$less@K@std@@V?$CustomAllocator@UPCROOMINFO@PCRoomUserManager@@@util@@$0A@@std@@@2@ABK@Z 0041a7a0 f i IntegratedBillingServerSession.obj
 0001:000197a0       ?_Lbound@?$_Tree@V?$_Tmap_traits@KPAUAccountInfo@@U?$less@K@std@@V?$CustomAllocator@PAUAccountInfo@@@util@@$0A@@std@@@std@@IBEPAU_Node@?$_Tree_nod@V?$_Tmap_traits@KPAUAccountInfo@@U?$less@K@std@@V?$CustomAllocator@PAUAccountInfo@@@util@@$0A@@std@@@2@ABK@Z 0041a7a0 f i AccountManager.obj
 0001:00019810       ?_Insert_n@?$vector@PAUAccountInfo@@V?$CustomAllocator@PAUAccountInfo@@@util@@@std@@IAEXV?$_Vector_const_iterator@PAUAccountInfo@@V?$CustomAllocator@PAUAccountInfo@@@util@@@2@IABQAUAccountInfo@@@Z 0041a810 f i AccountManager.obj
 0001:00019f70       ?_Ufill@?$vector@PAUAccountInfo@@V?$CustomAllocator@PAUAccountInfo@@@util@@@std@@IAEPAPAUAccountInfo@@PAPAU3@IABQAU3@@Z 0041af70 f i AccountManager.obj
 0001:00019fc0       ?Alloc@?$NotUseChunkImpl@UAccountInfo@@@internal@util@@UAEPAXXZ 0041afc0 f i AccountManager.obj
 0001:0001a020       ?Free@?$NotUseChunkImpl@UAccountInfo@@@internal@util@@UAEXQAX@Z 0041b020 f i AccountManager.obj
 0001:0001a040       ?Alloc@?$FixedSizeChunkImpl@UAccountInfo@@@internal@util@@UAEPAXXZ 0041b040 f i AccountManager.obj
 0001:0001a0e0       ?Free@?$FixedSizeChunkImpl@UAccountInfo@@@internal@util@@UAEXQAX@Z 0041b0e0 f i AccountManager.obj
 0001:0001a110       ??_G?$NotUseChunkImpl@UAccountInfo@@@internal@util@@UAEPAXI@Z 0041b110 f i AccountManager.obj
 0001:0001a110       ??_E?$NotUseChunkImpl@UAccountInfo@@@internal@util@@UAEPAXI@Z 0041b110 f i AccountManager.obj
 0001:0001a150       ??_G?$VariableSizeChunkImpl@UAccountInfo@@@internal@util@@UAEPAXI@Z 0041b150 f i AccountManager.obj
 0001:0001a150       ??_E?$VariableSizeChunkImpl@UAccountInfo@@@internal@util@@UAEPAXI@Z 0041b150 f i AccountManager.obj
 0001:0001a1e0       ??_E?$FixedSizeChunkImpl@UAccountInfo@@@internal@util@@UAEPAXI@Z 0041b1e0 f i AccountManager.obj
 0001:0001a1e0       ??_G?$FixedSizeChunkImpl@UAccountInfo@@@internal@util@@UAEPAXI@Z 0041b1e0 f i AccountManager.obj
 0001:0001a260       ?_Init@?$_Tree@V?$_Tmap_traits@KUPCROOMINFO@PCRoomUserManager@@U?$less@K@std@@V?$CustomAllocator@UPCROOMINFO@PCRoomUserManager@@@util@@$0A@@std@@@std@@IAEXXZ 0041b260 f i IntegratedBillingServerSession.obj
 0001:0001a260       ?_Init@?$_Tree@V?$_Tmap_traits@KPAUAccountInfo@@U?$less@K@std@@V?$CustomAllocator@PAUAccountInfo@@@util@@$0A@@std@@@std@@IAEXXZ 0041b260 f i AccountManager.obj
 0001:0001a2d0       ?_Rrotate@?$_Tree@V?$_Tmap_traits@KUPCROOMINFO@PCRoomUserManager@@U?$less@K@std@@V?$CustomAllocator@UPCROOMINFO@PCRoomUserManager@@@util@@$0A@@std@@@std@@IAEXPAU_Node@?$_Tree_nod@V?$_Tmap_traits@KUPCROOMINFO@PCRoomUserManager@@U?$less@K@std@@V?$CustomAllocator@UPCROOMINFO@PCRoomUserManager@@@util@@$0A@@std@@@2@@Z 0041b2d0 f i IntegratedBillingServerSession.obj
 0001:0001a2d0       ?_Rrotate@?$_Tree@V?$_Tmap_traits@KPAUAccountInfo@@U?$less@K@std@@V?$CustomAllocator@PAUAccountInfo@@@util@@$0A@@std@@@std@@IAEXPAU_Node@?$_Tree_nod@V?$_Tmap_traits@KPAUAccountInfo@@U?$less@K@std@@V?$CustomAllocator@PAUAccountInfo@@@util@@$0A@@std@@@2@@Z 0041b2d0 f i AccountManager.obj
 0001:0001a380       ?_Buynode@?$_Tree@V?$_Tmap_traits@KUPCROOMINFO@PCRoomUserManager@@U?$less@K@std@@V?$CustomAllocator@UPCROOMINFO@PCRoomUserManager@@@util@@$0A@@std@@@std@@IAEPAU_Node@?$_Tree_nod@V?$_Tmap_traits@KUPCROOMINFO@PCRoomUserManager@@U?$less@K@std@@V?$CustomAllocator@UPCROOMINFO@PCRoomUserManager@@@util@@$0A@@std@@@2@PAU342@00ABU?$pair@$$CBKUPCROOMINFO@PCRoomUserManager@@@2@D@Z 0041b380 f i IntegratedBillingServerSession.obj
 0001:0001a380       ?_Buynode@?$_Tree@V?$_Tmap_traits@KPAUAccountInfo@@U?$less@K@std@@V?$CustomAllocator@PAUAccountInfo@@@util@@$0A@@std@@@std@@IAEPAU_Node@?$_Tree_nod@V?$_Tmap_traits@KPAUAccountInfo@@U?$less@K@std@@V?$CustomAllocator@PAUAccountInfo@@@util@@$0A@@std@@@2@PAU342@00ABU?$pair@$$CBKPAUAccountInfo@@@2@D@Z 0041b380 f i AccountManager.obj
 0001:0001a470       ?_Dec@const_iterator@?$_Tree@V?$_Tmap_traits@KPAUAccountInfo@@U?$less@K@std@@V?$CustomAllocator@PAUAccountInfo@@@util@@$0A@@std@@@std@@QAEXXZ 0041b470 f i AccountManager.obj
 0001:0001a470       ?_Dec@const_iterator@?$_Tree@V?$_Tmap_traits@KUPCROOMINFO@PCRoomUserManager@@U?$less@K@std@@V?$CustomAllocator@UPCROOMINFO@PCRoomUserManager@@@util@@$0A@@std@@@std@@QAEXXZ 0041b470 f i IntegratedBillingServerSession.obj
 0001:0001a570       ?Create@?$VariableSizeChunkImpl@UAccountInfo@@@internal@util@@CAXPAX@Z 0041b570 f i AccountManager.obj
 0001:0001a580       ??$_Destroy@PAU_Node@?$_Tree_nod@V?$_Tmap_traits@KPAVServerSession@WBANetwork@@U?$less@K@std@@V?$allocator@U?$pair@$$CBKPAVServerSession@WBANetwork@@@std@@@4@$0A@@std@@@std@@@std@@YAXPAPAU_Node@?$_Tree_nod@V?$_Tmap_traits@KPAVServerSession@WBANetwork@@U?$less@K@std@@V?$allocator@U?$pair@$$CBKPAVServerSession@WBANetwork@@@std@@@4@$0A@@std@@@0@@Z 0041b580 f i ClientStub_VS2008:SessionManager.obj
 0001:0001a580       ??$_Destroy@PAU_tagConnectInfo@Connector@WBANetwork@@@std@@YAXPAPAU_tagConnectInfo@Connector@WBANetwork@@@Z 0041b580 f i ClientStub_VS2008:Connector.obj
 0001:0001a580       ??$_Destroy@U_Node@?$_List_nod@PAVServerSession@WBANetwork@@V?$allocator@PAVServerSession@WBANetwork@@@std@@@std@@@std@@YAXPAU_Node@?$_List_nod@PAVServerSession@WBANetwork@@V?$allocator@PAVServerSession@WBANetwork@@@std@@@0@@Z 0041b580 f i ClientStub_VS2008:SessionManager.obj
 0001:0001a580       ?DoFreeClient_NotUsed@AuthFrame@@SAXPAVNetworkObject@@@Z 0041b580 f i main.obj
 0001:0001a580       ??3@YAXPAX0@Z              0041b580 f i ClientStub_VS2008:Connector.obj
 0001:0001a580       ?DoFreeConnect_NotUsed@AuthFrame@@SAXPAVNetworkObject@@@Z 0041b580 f i main.obj
 0001:0001a580       ??$_Destroy@PAPAU_tagConnectInfo@Connector@WBANetwork@@@std@@YAXPAPAPAU_tagConnectInfo@Connector@WBANetwork@@@Z 0041b580 f i ClientStub_VS2008:Connector.obj
 0001:0001a580       ?Destroy@?$VariableSizeChunkImpl@UAccountInfo@@@internal@util@@CAXPAX@Z 0041b580 f i AccountManager.obj
 0001:0001a580       ??$_Destroy@PAU_Node@?$_Tree_nod@V?$_Tmap_traits@V?$basic_string@DU?$char_traits@D@std@@V?$allocator@D@2@@std@@EU?$less@V?$basic_string@DU?$char_traits@D@std@@V?$allocator@D@2@@std@@@2@V?$allocator@U?$pair@$$CBV?$basic_string@DU?$char_traits@D@std@@V?$allocator@D@2@@std@@E@std@@@2@$0A@@std@@@std@@@std@@YAXPAPAU_Node@?$_Tree_nod@V?$_Tmap_traits@V?$basic_string@DU?$char_traits@D@std@@V?$allocator@D@2@@std@@EU?$less@V?$basic_string@DU?$char_traits@D@std@@V?$allocator@D@2@@std@@@2@V?$allocator@U?$pair@$$CBV?$basic_string@DU?$char_traits@D@std@@V?$allocator@D@2@@std@@E@std@@@2@$0A@@std@@@0@@Z 0041b580 f i authcommon:csvlib.obj
 0001:0001a580       ??$_Destroy_range@V?$allocator@PAPAU_tagConnectInfo@Connector@WBANetwork@@@std@@@std@@YAXPAPAPAU_tagConnectInfo@Connector@WBANetwork@@0AAV?$allocator@PAPAU_tagConnectInfo@Connector@WBANetwork@@@0@U_Scalar_ptr_iterator_tag@0@@Z 0041b580 f i ClientStub_VS2008:Connector.obj
 0001:0001a580       ??$_Destroy@PAU_Node@?$_List_nod@PAVServerSession@WBANetwork@@V?$allocator@PAVServerSession@WBANetwork@@@std@@@std@@@std@@YAXPAPAU_Node@?$_List_nod@PAVServerSession@WBANetwork@@V?$allocator@PAVServerSession@WBANetwork@@@std@@@0@@Z 0041b580 f i ClientStub_VS2008:SessionManager.obj
 0001:0001a580       ??$_Destroy@U_Node@?$_Tree_nod@V?$_Tmap_traits@KPAVServerSession@WBANetwork@@U?$less@K@std@@V?$allocator@U?$pair@$$CBKPAVServerSession@WBANetwork@@@std@@@4@$0A@@std@@@std@@@std@@YAXPAU_Node@?$_Tree_nod@V?$_Tmap_traits@KPAVServerSession@WBANetwork@@U?$less@K@std@@V?$allocator@U?$pair@$$CBKPAVServerSession@WBANetwork@@@std@@@4@$0A@@std@@@0@@Z 0041b580 f i ClientStub_VS2008:SessionManager.obj
 0001:0001a590       ?_Buynode@?$_Tree@V?$_Tmap_traits@KPAUAccountInfo@@U?$less@K@std@@V?$CustomAllocator@PAUAccountInfo@@@util@@$0A@@std@@@std@@IAEPAU_Node@?$_Tree_nod@V?$_Tmap_traits@KPAUAccountInfo@@U?$less@K@std@@V?$CustomAllocator@PAUAccountInfo@@@util@@$0A@@std@@@2@XZ 0041b590 f i AccountManager.obj
 0001:0001a590       ?_Buynode@?$_Tree@V?$_Tmap_traits@KUPCROOMINFO@PCRoomUserManager@@U?$less@K@std@@V?$CustomAllocator@UPCROOMINFO@PCRoomUserManager@@@util@@$0A@@std@@@std@@IAEPAU_Node@?$_Tree_nod@V?$_Tmap_traits@KUPCROOMINFO@PCRoomUserManager@@U?$less@K@std@@V?$CustomAllocator@UPCROOMINFO@PCRoomUserManager@@@util@@$0A@@std@@@2@XZ 0041b590 f i IntegratedBillingServerSession.obj
 0001:0001a6c0       ??0?$_Tree_ptr@V?$_Tmap_traits@KPAUAccountInfo@@U?$less@K@std@@V?$CustomAllocator@PAUAccountInfo@@@util@@$0A@@std@@@std@@IAE@ABU?$less@K@1@V?$CustomAllocator@U?$pair@$$CBKPAUAccountInfo@@@std@@@util@@@Z 0041b6c0 f i AccountManager.obj
 0001:0001a740       ??Y?$_Vector_const_iterator@PAUAccountInfo@@V?$CustomAllocator@PAUAccountInfo@@@util@@@std@@QAEAAV01@H@Z 0041b740 f i AccountManager.obj
 0001:0001a800       ??$_Distance@Viterator@?$_Tree@V?$_Tmap_traits@KPAUAccountInfo@@U?$less@K@std@@V?$CustomAllocator@PAUAccountInfo@@@util@@$0A@@std@@@std@@I@std@@YAXViterator@?$_Tree@V?$_Tmap_traits@KPAUAccountInfo@@U?$less@K@std@@V?$CustomAllocator@PAUAccountInfo@@@util@@$0A@@std@@@0@0AAI@Z 0041b800 f i AccountManager.obj
 0001:0001a890       ??$_Unchecked_move_backward@PAPAUAccountInfo@@PAPAU1@@stdext@@YAPAPAUAccountInfo@@PAPAU1@00@Z 0041b890 f i AccountManager.obj
 0001:0001a930       ??$_Unchecked_uninitialized_move@V?$_Vector_iterator@PAUAccountInfo@@V?$CustomAllocator@PAUAccountInfo@@@util@@@std@@PAPAUAccountInfo@@V?$CustomAllocator@PAUAccountInfo@@@util@@@stdext@@YAPAPAUAccountInfo@@V?$_Vector_iterator@PAUAccountInfo@@V?$CustomAllocator@PAUAccountInfo@@@util@@@std@@0PAPAU1@AAV?$CustomAllocator@PAUAccountInfo@@@util@@@Z 0041b930 f i AccountManager.obj
 0001:0001a980       ??$_Unchecked_uninitialized_move@PAPAUAccountInfo@@PAPAU1@V?$CustomAllocator@PAUAccountInfo@@@util@@@stdext@@YAPAPAUAccountInfo@@PAPAU1@00AAV?$CustomAllocator@PAUAccountInfo@@@util@@@Z 0041b980 f i AccountManager.obj
 0001:0001a9d0       ??$unchecked_fill_n@PAPAUAccountInfo@@IPAU1@@stdext@@YAXPAPAUAccountInfo@@IABQAU1@@Z 0041b9d0 f i AccountManager.obj
 0001:0001a9d0       ??$unchecked_fill_n@PAPAPAUAccountInfo@@IPAPAU1@@stdext@@YAXPAPAPAUAccountInfo@@IABQAPAU1@@Z 0041b9d0 f i BillingServerSession.obj
 0001:0001aa40       ??0ReAuthManager@@QAE@XZ   0041ba40 f   ReAuthManager.obj
 0001:0001ab40       ??1ReAuthManager@@QAE@XZ   0041bb40 f   ReAuthManager.obj
 0001:0001ac40       ?AllocReAuthInfo@ReAuthManager@@QAEPBVReAuthInfo@@KKQBDPAUAccountInfo@@@Z 0041bc40 f   ReAuthManager.obj
 0001:0001ad90       ?FreeReAuthInfo@ReAuthManager@@AAEEPAVReAuthInfo@@@Z 0041bd90 f   ReAuthManager.obj
 0001:0001ae60       ?Randomize@ReAuthManager@@QAEXXZ 0041be60 f   ReAuthManager.obj
 0001:0001b0e0       ?NumberOfFreeReAuthKey@ReAuthManager@@QBEGXZ 0041c0e0 f   ReAuthManager.obj
 0001:0001b100       ?Update@ReAuthManager@@QAEXXZ 0041c100 f   ReAuthManager.obj
 0001:0001b1a0       ?OnAcceptReAuthClient@ReAuthManager@@QAEEPBVReAuthInfo@@@Z 0041c1a0 f   ReAuthManager.obj
 0001:0001b200       ?OnAcceptQueryLoginUser@ReAuthManager@@QAEEPBVReAuthInfo@@@Z 0041c200 f   ReAuthManager.obj
 0001:0001b230       ?OnCancelByGameServer@ReAuthManager@@QAEEPBVReAuthInfo@@@Z 0041c230 f   ReAuthManager.obj
 0001:0001b260       ??0ObjectKeyGeneratorBase@internal@util@@QAE@XZ 0041c260 f i ReAuthManager.obj
 0001:0001b2c0       ?Clear@ReAuthInfo@@QAEXXZ  0041c2c0 f i ReAuthManager.obj
 0001:0001b340       ??1?$chunk_vector@G@util@@QAE@XZ 0041c340 f i ReAuthManager.obj
 0001:0001b3b0       ?reserve@?$vector@GV?$CustomAllocator@G@util@@@std@@QAEXI@Z 0041c3b0 f i ReAuthManager.obj
 0001:0001b680       ?push_back@?$vector@GV?$CustomAllocator@G@util@@@std@@QAEXABG@Z 0041c680 f i ReAuthManager.obj
 0001:0001b7b0       ??9?$_Vector_const_iterator@PAUAccountInfo@@V?$CustomAllocator@PAUAccountInfo@@@util@@@std@@QBE_NABV01@@Z 0041c7b0 f i BillingServerSession.obj
 0001:0001b7b0       ??9?$_Vector_const_iterator@GV?$CustomAllocator@G@util@@@std@@QBE_NABV01@@Z 0041c7b0 f i ReAuthManager.obj
 0001:0001b7b0       ??9const_iterator@?$_Tree@V?$_Tmap_traits@KUPCROOMINFO@PCRoomUserManager@@U?$less@K@std@@V?$CustomAllocator@UPCROOMINFO@PCRoomUserManager@@@util@@$0A@@std@@@std@@QBE_NABV012@@Z 0041c7b0 f i IntegratedBillingServerSession.obj
 0001:0001b7b0       ??9const_iterator@?$_Tree@V?$_Tmap_traits@KPAVServerData@@U?$less@K@std@@V?$CustomAllocator@PAVServerData@@@util@@$0A@@std@@@std@@QBE_NABV012@@Z 0041c7b0 f i AuthAgentServerSession.obj
 0001:0001b7b0       ??9const_iterator@?$_Tree@V?$_Tmap_traits@V?$basic_string@DU?$char_traits@D@std@@V?$CustomAllocator@D@util@@@std@@V?$chunk_list@K@util@@U?$less@V?$basic_string@DU?$char_traits@D@std@@V?$CustomAllocator@D@util@@@std@@@2@V?$CustomAllocator@V?$chunk_list@K@util@@@4@$0A@@std@@@std@@QBE_NABV012@@Z 0041c7b0 f i IntegratedBillingServerSession.obj
 0001:0001b7b0       ??9const_iterator@?$_Tree@V?$_Tmap_traits@KPAUAccountInfo@@U?$less@K@std@@V?$CustomAllocator@PAUAccountInfo@@@util@@$0A@@std@@@std@@QBE_NABV012@@Z 0041c7b0 f i AccountManager.obj
 0001:0001b810       ??1?$_Tree_val@V?$_Tmap_traits@KUPCROOMINFO@PCRoomUserManager@@U?$less@K@std@@V?$CustomAllocator@UPCROOMINFO@PCRoomUserManager@@@util@@$0A@@std@@@std@@QAE@XZ 0041c810 f i IntegratedBillingServerSession.obj
 0001:0001b810       ??1?$_Container_base_aux_alloc_real@V?$CustomAllocator@K@util@@@std@@IAE@XZ 0041c810 f i IntegratedBillingServerSession.obj
 0001:0001b810       ??1?$_Tree_val@V?$_Tmap_traits@V?$basic_string@DU?$char_traits@D@std@@V?$CustomAllocator@D@util@@@std@@V?$chunk_list@K@util@@U?$less@V?$basic_string@DU?$char_traits@D@std@@V?$CustomAllocator@D@util@@@std@@@2@V?$CustomAllocator@V?$chunk_list@K@util@@@4@$0A@@std@@@std@@QAE@XZ 0041c810 f i IntegratedBillingServerSession.obj
 0001:0001b810       ??1?$_Vector_val@GV?$CustomAllocator@G@util@@@std@@QAE@XZ 0041c810 f i ReAuthManager.obj
 0001:0001b810       ??1?$_Tree_val@V?$_Tmap_traits@KPAUAccountInfo@@U?$less@K@std@@V?$CustomAllocator@PAUAccountInfo@@@util@@$0A@@std@@@std@@QAE@XZ 0041c810 f i AccountManager.obj
 0001:0001b810       ??1?$_Deque_val@PAUAccountInfo@@V?$CustomAllocator@PAUAccountInfo@@@util@@@std@@QAE@XZ 0041c810 f i BillingServerSession.obj
 0001:0001b810       ??1?$_Vector_val@PAUAccountInfo@@V?$CustomAllocator@PAUAccountInfo@@@util@@@std@@QAE@XZ 0041c810 f i BillingServerSession.obj
 0001:0001b810       ??1?$_List_val@KV?$CustomAllocator@K@util@@@std@@QAE@XZ 0041c810 f i IntegratedBillingServerSession.obj
 0001:0001b840       ??0?$deque@PAUAlignNode@ObjectKeyGeneratorBase@internal@util@@V?$CustomAllocator@PAUAlignNode@ObjectKeyGeneratorBase@internal@util@@@4@@std@@QAE@ABV?$CustomAllocator@PAUAlignNode@ObjectKeyGeneratorBase@internal@util@@@util@@@Z 0041c840 f i ReAuthManager.obj
 0001:0001b840       ??0?$deque@PAUAccountInfo@@V?$CustomAllocator@PAUAccountInfo@@@util@@@std@@QAE@ABV?$CustomAllocator@PAUAccountInfo@@@util@@@Z 0041c840 f i BillingServerSession.obj
 0001:0001b8e0       ?insert@?$vector@GV?$CustomAllocator@G@util@@@std@@QAE?AV?$_Vector_iterator@GV?$CustomAllocator@G@util@@@2@V?$_Vector_const_iterator@GV?$CustomAllocator@G@util@@@2@ABG@Z 0041c8e0 f i ReAuthManager.obj
 0001:0001ba00       ?_Tidy@?$vector@GV?$CustomAllocator@G@util@@@std@@IAEXXZ 0041ca00 f i ReAuthManager.obj
 0001:0001ba80       ?_Xlen@?$vector@PAUAccountInfo@@V?$CustomAllocator@PAUAccountInfo@@@util@@@std@@KAXXZ 0041ca80 f i BillingServerSession.obj
 0001:0001ba80       ?_Xlen@?$vector@GV?$CustomAllocator@G@util@@@std@@KAXXZ 0041ca80 f i ReAuthManager.obj
 0001:0001bb70       ??E?$_Vector_const_iterator@GV?$CustomAllocator@G@util@@@std@@QAEAAV01@XZ 0041cb70 f i ReAuthManager.obj
 0001:0001bbe0       ?_Buy@?$vector@GV?$CustomAllocator@G@util@@@std@@IAE_NI@Z 0041cbe0 f i ReAuthManager.obj
 0001:0001bc80       ?_Insert_n@?$vector@GV?$CustomAllocator@G@util@@@std@@IAEXV?$_Vector_const_iterator@GV?$CustomAllocator@G@util@@@2@IABG@Z 0041cc80 f i ReAuthManager.obj
 0001:0001c3e0       ?_Ufill@?$vector@GV?$CustomAllocator@G@util@@@std@@IAEPAGPAGIABG@Z 0041d3e0 f i ReAuthManager.obj
 0001:0001c430       ??0?$_Vector_const_iterator@GV?$CustomAllocator@G@util@@@std@@QAE@PAGPBV_Container_base_aux@1@@Z 0041d430 f i ReAuthManager.obj
 0001:0001c430       ??0?$_Vector_const_iterator@PAUAccountInfo@@V?$CustomAllocator@PAUAccountInfo@@@util@@@std@@QAE@PAPAUAccountInfo@@PBV_Container_base_aux@1@@Z 0041d430 f i BillingServerSession.obj
 0001:0001c480       ??Y?$_Vector_const_iterator@GV?$CustomAllocator@G@util@@@std@@QAEAAV01@H@Z 0041d480 f i ReAuthManager.obj
 0001:0001c540       ??$random_shuffle@V?$_Vector_iterator@GV?$CustomAllocator@G@util@@@std@@@std@@YAXV?$_Vector_iterator@GV?$CustomAllocator@G@util@@@0@0@Z 0041d540 f i ReAuthManager.obj
 0001:0001c5b0       ??$_Unchecked_move_backward@PAGPAG@stdext@@YAPAGPAG00@Z 0041d5b0 f i ReAuthManager.obj
 0001:0001c650       ??$_Random_shuffle@PAGH@std@@YAXPAG0PAH@Z 0041d650 f i ReAuthManager.obj
 0001:0001c720       ??$_Unchecked_uninitialized_move@V?$_Vector_iterator@GV?$CustomAllocator@G@util@@@std@@PAGV?$CustomAllocator@G@util@@@stdext@@YAPAGV?$_Vector_iterator@GV?$CustomAllocator@G@util@@@std@@0PAGAAV?$CustomAllocator@G@util@@@Z 0041d720 f i ReAuthManager.obj
 0001:0001c770       ??$_Unchecked_uninitialized_move@PAGPAGV?$CustomAllocator@G@util@@@stdext@@YAPAGPAG00AAV?$CustomAllocator@G@util@@@Z 0041d770 f i ReAuthManager.obj
 0001:0001c7c0       ??$unchecked_fill_n@PAGIG@stdext@@YAXPAGIABG@Z 0041d7c0 f i ReAuthManager.obj
 0001:0001c830       ??$unchecked_uninitialized_copy@PAGPAGV?$CustomAllocator@G@util@@@stdext@@YAPAGPAG00AAV?$CustomAllocator@G@util@@@Z 0041d830 f i ReAuthManager.obj
 0001:0001c8a0       ??0DBWorker@@QAE@XZ        0041d8a0 f   DBWorker.obj
 0001:0001c940       ??1DBWorker@@UAE@XZ        0041d940 f   DBWorker.obj
 0001:0001c9b0       ?CallbackErrorDBC@DBWorker@@CAXPAVDBC@eXtreme@@JV_bstr_t@@11@Z 0041d9b0 f   DBWorker.obj
 0001:0001cac0       ?CallbackErrorRecordSet@DBWorker@@CAXPAVRecordSet@eXtreme@@JV_bstr_t@@11@Z 0041dac0 f   DBWorker.obj
 0001:0001cbd0       ?Initialize@DBWorker@@QAEXXZ 0041dbd0 f   DBWorker.obj
 0001:0001cc00       ?Destroy@DBWorker@@QAEXXZ  0041dc00 f   DBWorker.obj
 0001:0001cc50       ?Run@DBWorker@@MAEHXZ      0041dc50 f   DBWorker.obj
 0001:0001cdf0       ?ConnectDB@DBWorker@@AAEHXZ 0041ddf0 f   DBWorker.obj
 0001:0001d150       ??_GDBWorker@@UAEPAXI@Z    0041e150 f i DBWorker.obj
 0001:0001d150       ??_EDBWorker@@UAEPAXI@Z    0041e150 f i DBWorker.obj
 0001:0001d180       ??1_bstr_t@@QAE@XZ         0041e180 f i DBWorker.obj
 0001:0001d1b0       ??B_bstr_t@@QBEPADXZ       0041e1b0 f i DBWorker.obj
 0001:0001d210       ?Release@Data_t@_bstr_t@@QAEKXZ 0041e210 f i DBWorker.obj
 0001:0001d260       ??_GData_t@_bstr_t@@AAEPAXI@Z 0041e260 f i DBWorker.obj
 0001:0001d2c0       ??0_bstr_t@@QAE@PBD@Z      0041e2c0 f i DBWorker.obj
 0001:0001d370       ?ILoad@DBDecryptFileReader@@UAEHKPAEK@Z 0041e370 f i DBWorker.obj
 0001:0001d370       ?ILoad@CryptFileReader@@UAEHKPAEK@Z 0041e370 f i DBWorker.obj
 0001:0001d380       ??0QueryAuth@@QAE@XZ       0041e380 f   Query_Auth.obj
 0001:0001d690       ?Configuration@QueryAuth@@QAEXW4eAuthToken@@@Z 0041e690 f   Query_Auth.obj
 0001:0001d790       ?ValidClientAuthInfo@QueryAuth@@AAEEXZ 0041e790 f   Query_Auth.obj
 0001:0001d8a0       ?ReauthTokenAuthentication@QueryAuth@@AAEEXZ 0041e8a0 f   Query_Auth.obj
 0001:0001d900       ?CheckPassword@QueryAuth@@AAEEXZ 0041e900 f   Query_Auth.obj
 0001:0001dd60       ?CheckOverlapLogin@QueryAuth@@AAEPAUAccountInfo@@KPADKKAAE@Z 0041ed60 f   Query_Auth.obj
 0001:0001df00       ?onResult@QueryAuth@@UAEXXZ 0041ef00 f   Query_Auth.obj
 0001:0001e3c0       ?onResult@QueryRecoverLocation@@UAEXXZ 0041f3c0 f   Query_Auth.obj
 0001:0001e650       ?onResult@QueryAuthFailCount@@UAEXXZ 0041f650 f   Query_Auth.obj
 0001:0001e810       ??0QueryCheckPassword@@QAE@XZ 0041f810 f   Query_Auth.obj
 0001:0001e910       ?onResult@QueryCheckPassword@@UAEXXZ 0041f910 f   Query_Auth.obj
 0001:0001e9d0       ??0QueryObject@@QAE@W4eQUERYTYPE@@@Z 0041f9d0 f i Query_Auth.obj
 0001:0001ea80       ??1EventHandler@eXtreme@@UAE@XZ 0041fa80 f i Query_Auth.obj
 0001:0001eaa0       ??_EEventHandler@eXtreme@@UAEPAXI@Z 0041faa0 f i Query_Auth.obj
 0001:0001eaa0       ??_GEventHandler@eXtreme@@UAEPAXI@Z 0041faa0 f i Query_Auth.obj
 0001:0001ead0       ??1QueryObject@@UAE@XZ     0041fad0 f i Query_Auth.obj
 0001:0001eb60       ?onResult@QueryObject@@UAEXXZ 0041fb60 f i Query_Auth.obj
 0001:0001eba0       ?imbue@?$basic_streambuf@DU?$char_traits@D@std@@@std@@MAEXABVlocale@2@@Z 0041fba0 f i authcommon:csvlib.obj
 0001:0001eba0       ?OnClose@CClientSession@@MAEXK@Z 0041fba0 f i ClientStub_VS2008:ClientSession.obj
 0001:0001eba0       ?destroy@?$CustomAllocator@PAU_Node@?$_Tree_nod@V?$_Tmap_traits@KPAVServerData@@U?$less@K@std@@V?$CustomAllocator@PAVServerData@@@util@@$0A@@std@@@std@@@util@@QAEXPAPAU_Node@?$_Tree_nod@V?$_Tmap_traits@KPAVServerData@@U?$less@K@std@@V?$CustomAllocator@PAVServerData@@@util@@$0A@@std@@@std@@@Z 0041fba0 f i authcommon:ServerDataManager.obj
 0001:0001eba0       ?_Init@?$codecvt@DDH@std@@IAEXABV_Locinfo@2@@Z 0041fba0 f i authcommon:csvlib.obj
 0001:0001eba0       ?SetTypeName@IMemoryPoolFactoryImpl@internal@util@@UAEXPBD@Z 0041fba0 f i AuthFrame.obj
 0001:0001eba0       ?HandleEvent@QueryObject@@EAEXPAUtag_AsyncResult@eXtreme@@@Z 0041fba0 f i Query_Auth.obj
 0001:0001eba0       ?SendServerType@AuthFrame@@MAEXPAVServerSession@@@Z 0041fba0 f i AuthFrame.obj
 0001:0001eba0       ?destroy@?$CustomAllocator@PAU_Node@?$_Tree_nod@V?$_Tmap_traits@KPAUGROUP_DATA@@U?$less@K@std@@V?$CustomAllocator@PAUGROUP_DATA@@@util@@$0A@@std@@@std@@@util@@QAEXPAPAU_Node@?$_Tree_nod@V?$_Tmap_traits@KPAUGROUP_DATA@@U?$less@K@std@@V?$CustomAllocator@PAUGROUP_DATA@@@util@@$0A@@std@@@std@@@Z 0041fba0 f i authcommon:ServerDataManager.obj
 0001:0001eba0       ?OnSend@ServerSession@WBANetwork@@MAEXH@Z 0041fba0 f i ClientStub_VS2008:ServerSession.obj
 0001:0001eba0       ?OnClose@ServerSession@WBANetwork@@MAEXK@Z 0041fba0 f i ClientStub_VS2008:ServerSession.obj
 0001:0001eba0       ?destroy@?$CustomAllocator@U_Node@?$_Tree_nod@V?$_Tmap_traits@KPAVServerData@@U?$less@K@std@@V?$CustomAllocator@PAVServerData@@@util@@$0A@@std@@@std@@@util@@QAEXPAU_Node@?$_Tree_nod@V?$_Tmap_traits@KPAVServerData@@U?$less@K@std@@V?$CustomAllocator@PAVServerData@@@util@@$0A@@std@@@std@@@Z 0041fba0 f i authcommon:ServerDataManager.obj
 0001:0001eba0       ?OnSend@CClientSession@@MAEXH@Z 0041fba0 f i ClientStub_VS2008:ClientSession.obj
 0001:0001eba0       ?destroy@?$CustomAllocator@U_Node@?$_Tree_nod@V?$_Tmap_traits@KPAUGROUP_DATA@@U?$less@K@std@@V?$CustomAllocator@PAUGROUP_DATA@@@util@@$0A@@std@@@std@@@util@@QAEXPAU_Node@?$_Tree_nod@V?$_Tmap_traits@KPAUGROUP_DATA@@U?$less@K@std@@V?$CustomAllocator@PAUGROUP_DATA@@@util@@$0A@@std@@@std@@@Z 0041fba0 f i authcommon:ServerDataManager.obj
 0001:0001ebb0       ??0QueryUserId@@QAE@XZ     0041fbb0 f   Query_Extra.obj
 0001:0001ec50       ??1QueryUserId@@UAE@XZ     0041fc50 f   Query_Extra.obj
 0001:0001ece0       ?AlignQueryUserIdInfo@QueryUserId@@QAEXPBUQueryUserIdInfo@@@Z 0041fce0 f   Query_Extra.obj
 0001:0001ed50       ?onResult@QueryUserId@@UAEXXZ 0041fd50 f   Query_Extra.obj
 0001:0001ef80       ??0QueryUpdateTokenKey@@QAE@XZ 0041ff80 f   Query_Extra.obj
 0001:0001f030       ??1QueryUpdateTokenKey@@UAE@XZ 00420030 f   Query_Extra.obj
 0001:0001f050       ?onResult@QueryUpdateTokenKey@@UAEXXZ 00420050 f   Query_Extra.obj
 0001:0001f090       ??0QuerySelectPCRoomIPList@@QAE@XZ 00420090 f   Query_Extra.obj
 0001:0001f120       ??1QuerySelectPCRoomIPList@@UAE@XZ 00420120 f   Query_Extra.obj
 0001:0001f140       ?onResult@QuerySelectPCRoomIPList@@UAEXXZ 00420140 f   Query_Extra.obj
 0001:0001f160       ??_GQueryUserId@@UAEPAXI@Z 00420160 f i Query_Extra.obj
 0001:0001f160       ??_EQueryUserId@@UAEPAXI@Z 00420160 f i Query_Extra.obj
 0001:0001f190       ??_EQueryUpdateTokenKey@@UAEPAXI@Z 00420190 f i Query_Extra.obj
 0001:0001f190       ??_GQueryUpdateTokenKey@@UAEPAXI@Z 00420190 f i Query_Extra.obj
 0001:0001f1c0       ??_EQuerySelectPCRoomIPList@@UAEPAXI@Z 004201c0 f i Query_Extra.obj
 0001:0001f1c0       ??_GQuerySelectPCRoomIPList@@UAEPAXI@Z 004201c0 f i Query_Extra.obj
 0001:0001f1f0       ??0QueryGspCheckAuthKey@nsGSP@@QAE@XZ 004201f0 f   Query_GSP.obj
 0001:0001f270       ??1QueryGspCheckAuthKey@nsGSP@@UAE@XZ 00420270 f   Query_GSP.obj
 0001:0001f300       ?Clear@QueryGspCheckAuthKey@nsGSP@@QAEXW4eAuthToken@@@Z 00420300 f   Query_GSP.obj
 0001:0001f3b0       ?ReauthByServerSelect@QueryGspCheckAuthKey@nsGSP@@QAEXG@Z 004203b0 f   Query_GSP.obj
 0001:0001f3d0       ?onResult@QueryGspCheckAuthKey@nsGSP@@UAEXXZ 004203d0 f   Query_GSP.obj
 0001:0001f3f0       ?onResult_ByServerSelect@QueryGspCheckAuthKey@nsGSP@@QAEEPAVLoginFrontServerSession@@@Z 004203f0 f   Query_GSP.obj
 0001:0001f400       ??0QueryGspChangeUserState@nsGSP@@QAE@XZ 00420400 f   Query_GSP.obj
 0001:0001f430       ??1QueryGspChangeUserState@nsGSP@@UAE@XZ 00420430 f   Query_GSP.obj
 0001:0001f450       ?Clear@QueryGspChangeUserState@nsGSP@@QAEXXZ 00420450 f   Query_GSP.obj
 0001:0001f490       ?onResult@QueryGspChangeUserState@nsGSP@@UAEXXZ 00420490 f   Query_GSP.obj
 0001:0001f4b0       ??0QueryGspLoggingUserState@nsGSP@@QAE@XZ 004204b0 f   Query_GSP.obj
 0001:0001f4e0       ??1QueryGspLoggingUserState@nsGSP@@UAE@XZ 004204e0 f   Query_GSP.obj
 0001:0001f500       ?Clear@QueryGspLoggingUserState@nsGSP@@QAEXXZ 00420500 f   Query_GSP.obj
 0001:0001f530       ?onResult@QueryGspLoggingUserState@nsGSP@@UAEXXZ 00420530 f   Query_GSP.obj
 0001:0001f550       ??0QueryGspGetAccount@nsGSP@@QAE@XZ 00420550 f   Query_GSP.obj
 0001:0001f590       ??1QueryGspGetAccount@nsGSP@@UAE@XZ 00420590 f   Query_GSP.obj
 0001:0001f640       ?PrepareForAuthStep@QueryGspGetAccount@nsGSP@@QAEXPAUAccountInfo@@@Z 00420640 f   Query_GSP.obj
 0001:0001f6c0       ?onResult@QueryGspGetAccount@nsGSP@@UAEXXZ 004206c0 f   Query_GSP.obj
 0001:0001f720       ?CheckOverlapLogin@QueryGspGetAccount@nsGSP@@AAEPAUAccountInfo@@AAE@Z 00420720 f   Query_GSP.obj
 0001:0001f920       ??0QueryGspGetAccountByGuid@nsGSP@@QAE@XZ 00420920 f   Query_GSP.obj
 0001:0001f960       ??1QueryGspGetAccountByGuid@nsGSP@@UAE@XZ 00420960 f   Query_GSP.obj
 0001:0001fa10       ?PrepareQueryUserIdInfo@QueryGspGetAccountByGuid@nsGSP@@QAEXGPBUQueryUserIdInfo@@@Z 00420a10 f   Query_GSP.obj
 0001:0001fac0       ?onResult@QueryGspGetAccountByGuid@nsGSP@@UAEXXZ 00420ac0 f   Query_GSP.obj
 0001:0001fb20       ??_GQueryGspCheckAuthKey@nsGSP@@UAEPAXI@Z 00420b20 f i Query_GSP.obj
 0001:0001fb20       ??_EQueryGspCheckAuthKey@nsGSP@@UAEPAXI@Z 00420b20 f i Query_GSP.obj
 0001:0001fb50       ??_GQueryGspChangeUserState@nsGSP@@UAEPAXI@Z 00420b50 f i Query_GSP.obj
 0001:0001fb50       ??_EQueryGspChangeUserState@nsGSP@@UAEPAXI@Z 00420b50 f i Query_GSP.obj
 0001:0001fb80       ??_EQueryGspLoggingUserState@nsGSP@@UAEPAXI@Z 00420b80 f i Query_GSP.obj
 0001:0001fb80       ??_GQueryGspLoggingUserState@nsGSP@@UAEPAXI@Z 00420b80 f i Query_GSP.obj
 0001:0001fbb0       ??_EQueryGspGetAccount@nsGSP@@UAEPAXI@Z 00420bb0 f i Query_GSP.obj
 0001:0001fbb0       ??_GQueryGspGetAccount@nsGSP@@UAEPAXI@Z 00420bb0 f i Query_GSP.obj
 0001:0001fbe0       ??_EQueryGspGetAccountByGuid@nsGSP@@UAEPAXI@Z 00420be0 f i Query_GSP.obj
 0001:0001fbe0       ??_GQueryGspGetAccountByGuid@nsGSP@@UAEPAXI@Z 00420be0 f i Query_GSP.obj
 0001:0001fc10       ?onResult@QueryAuthLog@@UAEXXZ 00420c10 f   Query_Log.obj
 0001:0001fcb0       ?ClearField@QueryNetCafeLog@@QAEXXZ 00420cb0 f   Query_Netcafe.obj
 0001:0001fd20       ??0QueryNetCafeLogIn@@QAE@XZ 00420d20 f   Query_Netcafe.obj
 0001:0001fe00       ?onResult@QueryNetCafeLog@@UAEXXZ 00420e00 f   Query_Netcafe.obj
 0001:0001fe20       ??0QueryNetCafe2ndAuth@@QAE@XZ 00420e20 f   Query_Netcafe.obj
 0001:0001ff10       ?onResult@QueryNetCafe2ndAuth@@UAEXXZ 00420f10 f   Query_Netcafe.obj
 0001:0001ff30       ?GetDBType@QueryNetCafe2ndAuth@@UAE?AW4DB_TYPE@@XZ 00420f30 f i Query_Netcafe.obj
 0001:0001ff30       ?GetDBType@QueryNetCafeLog@@UAE?AW4DB_TYPE@@XZ 00420f30 f i Query_Netcafe.obj
 0001:0001ff40       ??1QueryNetCafeLog@@UAE@XZ 00420f40 f i Query_Netcafe.obj
 0001:0001ff60       ?onResult@QueryControlIp@@UAEXXZ 00420f60 f   Query_RTT.obj
 0001:00020010       ?ParseVersion@QueryGameVersionUpdate@@AAEXPADPAE@Z 00421010 f   Query_RTT.obj
 0001:00020080       ?onResult@QueryGameVersionUpdate@@UAEXXZ 00421080 f   Query_RTT.obj
 0001:00020610       ??0QueryManager@@QAE@XZ    00421610 f   QueryManager.obj
 0001:000206d0       ??1QueryManager@@QAE@XZ    004216d0 f   QueryManager.obj
 0001:00020760       ?Create@QueryManager@@QAEXH@Z 00421760 f   QueryManager.obj
 0001:00020b40       ?Destroy@QueryManager@@QAEXXZ 00421b40 f   QueryManager.obj
 0001:00020c40       ?Update@QueryManager@@QAEXXZ 00421c40 f   QueryManager.obj
 0001:00020d40       ?AddQueryResult@QueryManager@@QAEXPAVQueryObject@@@Z 00421d40 f   QueryManager.obj
 0001:00020e00       ?AllocQuery@QueryManager@@QAEPAVQueryObject@@W4eQUERYTYPE@@@Z 00421e00 f   QueryManager.obj
 0001:00020ec0       ?FreeQuery@QueryManager@@QAEXPAVQueryObject@@@Z 00421ec0 f   QueryManager.obj
 0001:00020f70       ?EndQuery@QueryManager@@QAEXXZ 00421f70 f   QueryManager.obj
 0001:00020fa0       ?WaitForQueryObj@QueryManager@@QAEPAVQueryObject@@H@Z 00421fa0 f   QueryManager.obj
 0001:00021010       ?QueryLoginUserByAuthTokenKorea@QueryManager@@QAEXKPADPAEGKG00@Z 00422010 f   QueryManager.obj
 0001:00021520       ?QueryLoginUser@QueryManager@@QAEXKPAD0KG00@Z 00422520 f   QueryManager.obj
 0001:00021a00       ?QueryChangeUserSts@QueryManager@@QAEXPADK0G00W4USERSTATUS_TYPE@@AAU_SYSTEMTIME@@K@Z 00422a00 f   QueryManager.obj
 0001:00022390       ?QueryConnectLog@QueryManager@@QAEXKPADK0FG0HHAAU_SYSTEMTIME@@E@Z 00423390 f   QueryManager.obj
 0001:00022e70       ?QueryConnectLogUpdate@QueryManager@@QAEXKKPADAAU_SYSTEMTIME@@@Z 00423e70 f   QueryManager.obj
 0001:00023350       ?QueryRecoverSts@QueryManager@@QAEXXZ 00424350 f   QueryManager.obj
 0001:00023530       ?QueryControlIpList@QueryManager@@QAEXXZ 00424530 f   QueryManager.obj
 0001:000235e0       ?QueryGameVersion@QueryManager@@QAEXXZ 004245e0 f   QueryManager.obj
 0001:00023690       ?QueryUpdateAuthFailCount@QueryManager@@QAEXPAD0EKKE@Z 00424690 f   QueryManager.obj
 0001:00023b80       ?Query_UserId@QueryManager@@QAEXGABUQueryUserIdInfo@@@Z 00424b80 f   QueryManager.obj
 0001:00023db0       ?QueryPCRoomIPList@QueryManager@@QAEXJ@Z 00424db0 f   QueryManager.obj
 0001:00023fa0       ??1_variant_t@@QAE@XZ      00424fa0 f i QueryManager.obj
 0001:00023fc0       ??0_bstr_t@@QAE@ABV_variant_t@@@Z 00424fc0 f i QueryManager.obj
 0001:000240a0       ??4_bstr_t@@QAEAAV0@PB_W@Z 004250a0 f i QueryManager.obj
 0001:000241c0       ??0_variant_t@@QAE@JG@Z    004251c0 f i QueryManager.obj
 0001:00024250       ?begin@?$list@PAUCONTROL_IP_INFO@@V?$allocator@PAUCONTROL_IP_INFO@@@std@@@std@@QAE?AV?$_Iterator@$00@12@XZ 00425250 f i AuthFrame.obj
 0001:00024250       ?begin@?$list@KV?$CustomAllocator@K@util@@@std@@QAE?AV?$_Iterator@$00@12@XZ 00425250 f i IntegratedBillingServerSession.obj
 0001:00024250       ?begin@?$list@PAVQueryObject@@V?$allocator@PAVQueryObject@@@std@@@std@@QAE?AV?$_Iterator@$00@12@XZ 00425250 f i QueryManager.obj
 0001:000242b0       ?erase@?$list@PAVQueryObject@@V?$allocator@PAVQueryObject@@@std@@@std@@QAE?AV?$_Iterator@$00@12@V?$_Const_iterator@$00@12@@Z 004252b0 f i QueryManager.obj
 0001:000242b0       ?erase@?$list@PAUCONTROL_IP_INFO@@V?$allocator@PAUCONTROL_IP_INFO@@@std@@@std@@QAE?AV?$_Iterator@$00@12@V?$_Const_iterator@$00@12@@Z 004252b0 f i AuthFrame.obj
 0001:00024370       ??1?$Guard@VMutex@eXtreme@@@eXtreme@@QAE@XZ 00425370 f i QueryManager.obj
 0001:00024390       ?_Insert@?$list@PAUCONTROL_IP_INFO@@V?$allocator@PAUCONTROL_IP_INFO@@@std@@@std@@QAEXV?$_Const_iterator@$00@12@ABQAUCONTROL_IP_INFO@@@Z 00425390 f i AuthFrame.obj
 0001:00024390       ?_Insert@?$list@PAVQueryObject@@V?$allocator@PAVQueryObject@@@std@@@std@@QAEXV?$_Const_iterator@$00@12@ABQAVQueryObject@@@Z 00425390 f i QueryManager.obj
 0001:000243f0       ?_Buynode@?$list@PAUCONTROL_IP_INFO@@V?$allocator@PAUCONTROL_IP_INFO@@@std@@@std@@IAEPAU_Node@?$_List_nod@PAUCONTROL_IP_INFO@@V?$allocator@PAUCONTROL_IP_INFO@@@std@@@2@PAU342@0ABQAUCONTROL_IP_INFO@@@Z 004253f0 f i AuthFrame.obj
 0001:000243f0       ?_Buynode@?$list@PAVQueryObject@@V?$allocator@PAVQueryObject@@@std@@@std@@IAEPAU_Node@?$_List_nod@PAVQueryObject@@V?$allocator@PAVQueryObject@@@std@@@2@PAU342@0ABQAVQueryObject@@@Z 004253f0 f i QueryManager.obj
 0001:00024520       ?_Incsize@?$list@PAUCONTROL_IP_INFO@@V?$allocator@PAUCONTROL_IP_INFO@@@std@@@std@@IAEXI@Z 00425520 f i AuthFrame.obj
 0001:00024520       ?_Incsize@?$list@PAVQueryObject@@V?$allocator@PAVQueryObject@@@std@@@std@@IAEXI@Z 00425520 f i QueryManager.obj
 0001:00024520       ?_Incsize@?$list@KV?$CustomAllocator@K@util@@@std@@IAEXI@Z 00425520 f i IntegratedBillingServerSession.obj
 0001:00024660       ??0?$_List_ptr@PAUCONTROL_IP_INFO@@V?$allocator@PAUCONTROL_IP_INFO@@@std@@@std@@IAE@V?$allocator@PAUCONTROL_IP_INFO@@@1@@Z 00425660 f i AuthFrame.obj
 0001:00024660       ??0?$_List_ptr@PAVQueryObject@@V?$allocator@PAVQueryObject@@@std@@@std@@IAE@V?$allocator@PAVQueryObject@@@1@@Z 00425660 f i QueryManager.obj
 0001:00024710       ??1?$PoolRouter@$0BF@@util@@QAE@XZ 00425710 f i QueryManager.obj
 0001:00024730       ?Release@?$PoolRouter@$0BF@@util@@QAEXXZ 00425730 f i QueryManager.obj
 0001:000247b0       ?Initialize@?$PoolRouter@$0BF@@util@@QAE_NKKKPBDPAX@Z 004257b0 f i QueryManager.obj
 0001:00024800       ??$Register@VQueryAuth@@@?$PoolRouter@$0BF@@util@@QAE_NK@Z 00425800 f i QueryManager.obj
 0001:000248b0       ??$Register@VQueryUserStsChange@@@?$PoolRouter@$0BF@@util@@QAE_NK@Z 004258b0 f i QueryManager.obj
 0001:00024960       ??$Register@VQueryRecoverLocation@@@?$PoolRouter@$0BF@@util@@QAE_NK@Z 00425960 f i QueryManager.obj
 0001:00024a10       ??$Register@VQueryAuthLog@@@?$PoolRouter@$0BF@@util@@QAE_NK@Z 00425a10 f i QueryManager.obj
 0001:00024ac0       ??$Register@VQueryControlIp@@@?$PoolRouter@$0BF@@util@@QAE_NK@Z 00425ac0 f i QueryManager.obj
 0001:00024b70       ??$Register@VQueryGameVersionUpdate@@@?$PoolRouter@$0BF@@util@@QAE_NK@Z 00425b70 f i QueryManager.obj
 0001:00024c20       ??$Register@VQueryAuthFailCount@@@?$PoolRouter@$0BF@@util@@QAE_NK@Z 00425c20 f i QueryManager.obj
 0001:00024cd0       ??$Register@VQueryAuthLogUpdate@@@?$PoolRouter@$0BF@@util@@QAE_NK@Z 00425cd0 f i QueryManager.obj
 0001:00024d80       ??$Register@VQueryNetCafeLog@@@?$PoolRouter@$0BF@@util@@QAE_NK@Z 00425d80 f i QueryManager.obj
 0001:00024e30       ??$Register@VQueryNetCafeLogIn@@@?$PoolRouter@$0BF@@util@@QAE_NK@Z 00425e30 f i QueryManager.obj
 0001:00024ee0       ??$Register@VQueryNetCafe2ndAuth@@@?$PoolRouter@$0BF@@util@@QAE_NK@Z 00425ee0 f i QueryManager.obj
 0001:00024f90       ??$Register@VQueryUserId@@@?$PoolRouter@$0BF@@util@@QAE_NK@Z 00425f90 f i QueryManager.obj
 0001:00025040       ??$Register@VQueryGspCheckAuthKey@nsGSP@@@?$PoolRouter@$0BF@@util@@QAE_NK@Z 00426040 f i QueryManager.obj
 0001:000250f0       ??$Register@VQueryGspChangeUserState@nsGSP@@@?$PoolRouter@$0BF@@util@@QAE_NK@Z 004260f0 f i QueryManager.obj
 0001:000251a0       ??$Register@VQueryGspLoggingUserState@nsGSP@@@?$PoolRouter@$0BF@@util@@QAE_NK@Z 004261a0 f i QueryManager.obj
 0001:00025250       ??$Register@VQueryGspGetAccount@nsGSP@@@?$PoolRouter@$0BF@@util@@QAE_NK@Z 00426250 f i QueryManager.obj
 0001:00025300       ??$Register@VQueryGspGetAccountByGuid@nsGSP@@@?$PoolRouter@$0BF@@util@@QAE_NK@Z 00426300 f i QueryManager.obj
 0001:000253b0       ??$Register@VQueryUpdateTokenKey@@@?$PoolRouter@$0BF@@util@@QAE_NK@Z 004263b0 f i QueryManager.obj
 0001:00025460       ??$Register@VQuerySelectPCRoomIPList@@@?$PoolRouter@$0BF@@util@@QAE_NK@Z 00426460 f i QueryManager.obj
 0001:00025510       ??$Register@VQueryCheckPassword@@@?$PoolRouter@$0BF@@util@@QAE_NK@Z 00426510 f i QueryManager.obj
 0001:000255c0       ??$Register@VQueryEnd@@@?$PoolRouter@$0BF@@util@@QAE_NK@Z 004265c0 f i QueryManager.obj
 0001:00025670       ?Initialize@?$CMemoryPoolFactory@VQueryAuth@@@util@@UAE_NIIPBDPAX@Z 00426670 f i QueryManager.obj
 0001:000256d0       ?Initialize@?$CMemoryPoolFactory@VQueryUserStsChange@@@util@@UAE_NIIPBDPAX@Z 004266d0 f i QueryManager.obj
 0001:00025730       ?Initialize@?$CMemoryPoolFactory@VQueryRecoverLocation@@@util@@UAE_NIIPBDPAX@Z 00426730 f i QueryManager.obj
 0001:00025790       ?Initialize@?$CMemoryPoolFactory@VQueryAuthLog@@@util@@UAE_NIIPBDPAX@Z 00426790 f i QueryManager.obj
 0001:000257f0       ?Alloc@?$CMemoryPoolFactory@VQueryAuthLogUpdate@@@util@@UAEPAXXZ 004267f0 f i QueryManager.obj
 0001:000257f0       ?Alloc@?$CMemoryPoolFactory@VTempServerSession@@@util@@UAEPAXXZ 004267f0 f i AuthFrame.obj
 0001:000257f0       ?Alloc@?$CMemoryPoolFactory@VQueryAuth@@@util@@UAEPAXXZ 004267f0 f i QueryManager.obj
 0001:000257f0       ?Alloc@?$CMemoryPoolFactory@UAccountInfo@@@util@@UAEPAXXZ 004267f0 f i AccountManager.obj
 0001:000257f0       ?Alloc@?$CMemoryPoolFactory@VQueryGspCheckAuthKey@nsGSP@@@util@@UAEPAXXZ 004267f0 f i QueryManager.obj
 0001:000257f0       ?Alloc@?$CMemoryPoolFactory@VQueryGameVersionUpdate@@@util@@UAEPAXXZ 004267f0 f i QueryManager.obj
 0001:000257f0       ?Alloc@?$CMemoryPoolFactory@VQueryUserId@@@util@@UAEPAXXZ 004267f0 f i QueryManager.obj
 0001:000257f0       ?Alloc@?$CMemoryPoolFactory@VQueryNetCafeLog@@@util@@UAEPAXXZ 004267f0 f i QueryManager.obj
 0001:000257f0       ?Alloc@?$CMemoryPoolFactory@VQueryControlIp@@@util@@UAEPAXXZ 004267f0 f i QueryManager.obj
 0001:000257f0       ?Alloc@?$CMemoryPoolFactory@VQueryEnd@@@util@@UAEPAXXZ 004267f0 f i QueryManager.obj
 0001:000257f0       ?Alloc@?$CMemoryPoolFactory@VQueryCheckPassword@@@util@@UAEPAXXZ 004267f0 f i QueryManager.obj
 0001:000257f0       ?Alloc@?$CMemoryPoolFactory@VQueryAuthFailCount@@@util@@UAEPAXXZ 004267f0 f i QueryManager.obj
 0001:000257f0       ?Alloc@?$CMemoryPoolFactory@VQueryAuthLog@@@util@@UAEPAXXZ 004267f0 f i QueryManager.obj
 0001:000257f0       ?Alloc@?$CMemoryPoolFactory@VQueryGspGetAccountByGuid@nsGSP@@@util@@UAEPAXXZ 004267f0 f i QueryManager.obj
 0001:000257f0       ?Alloc@?$CMemoryPoolFactory@VLoginFrontServerSession@@@util@@UAEPAXXZ 004267f0 f i AuthFrame.obj
 0001:000257f0       ?Alloc@?$CMemoryPoolFactory@VQueryUserStsChange@@@util@@UAEPAXXZ 004267f0 f i QueryManager.obj
 0001:000257f0       ?Alloc@?$CMemoryPoolFactory@VQueryNetCafeLogIn@@@util@@UAEPAXXZ 004267f0 f i QueryManager.obj
 0001:000257f0       ?Alloc@?$CMemoryPoolFactory@VQuerySelectPCRoomIPList@@@util@@UAEPAXXZ 004267f0 f i QueryManager.obj
 0001:000257f0       ?Alloc@?$CMemoryPoolFactory@VQueryGspGetAccount@nsGSP@@@util@@UAEPAXXZ 004267f0 f i QueryManager.obj
 0001:000257f0       ?Alloc@?$CMemoryPoolFactory@VIntegratedBillingServerSession@@@util@@UAEPAXXZ 004267f0 f i AuthFrame.obj
 0001:000257f0       ?Alloc@?$CMemoryPoolFactory@VAuthAgentServerSession@@@util@@UAEPAXXZ 004267f0 f i AuthFrame.obj
 0001:000257f0       ?Alloc@?$CMemoryPoolFactory@VQueryUpdateTokenKey@@@util@@UAEPAXXZ 004267f0 f i QueryManager.obj
 0001:000257f0       ?Alloc@?$CMemoryPoolFactory@VQueryGspChangeUserState@nsGSP@@@util@@UAEPAXXZ 004267f0 f i QueryManager.obj
 0001:000257f0       ?Alloc@?$CMemoryPoolFactory@VRTTAServerSession@@@util@@UAEPAXXZ 004267f0 f i AuthFrame.obj
 0001:000257f0       ?Alloc@?$CMemoryPoolFactory@VQueryGspLoggingUserState@nsGSP@@@util@@UAEPAXXZ 004267f0 f i QueryManager.obj
 0001:000257f0       ?Alloc@?$CMemoryPoolFactory@VQueryRecoverLocation@@@util@@UAEPAXXZ 004267f0 f i QueryManager.obj
 0001:000257f0       ?Alloc@?$CMemoryPoolFactory@VQueryNetCafe2ndAuth@@@util@@UAEPAXXZ 004267f0 f i QueryManager.obj
 0001:00025820       ?Initialize@?$CMemoryPoolFactory@VQueryControlIp@@@util@@UAE_NIIPBDPAX@Z 00426820 f i QueryManager.obj
 0001:00025880       ?Free@?$CMemoryPoolFactory@VTempServerSession@@@util@@UAEHPAX@Z 00426880 f i AuthFrame.obj
 0001:00025880       ?Free@?$CMemoryPoolFactory@VQueryNetCafe2ndAuth@@@util@@UAEHPAX@Z 00426880 f i QueryManager.obj
 0001:00025880       ?Free@?$CMemoryPoolFactory@VQueryGspCheckAuthKey@nsGSP@@@util@@UAEHPAX@Z 00426880 f i QueryManager.obj
 0001:00025880       ?Free@?$CMemoryPoolFactory@VQueryCheckPassword@@@util@@UAEHPAX@Z 00426880 f i QueryManager.obj
 0001:00025880       ?Free@?$CMemoryPoolFactory@VAuthAgentServerSession@@@util@@UAEHPAX@Z 00426880 f i AuthFrame.obj
 0001:00025880       ?Free@?$CMemoryPoolFactory@VQueryUpdateTokenKey@@@util@@UAEHPAX@Z 00426880 f i QueryManager.obj
 0001:00025880       ?Free@?$CMemoryPoolFactory@UAccountInfo@@@util@@UAEHPAX@Z 00426880 f i AccountManager.obj
 0001:00025880       ?Free@?$CMemoryPoolFactory@VQueryUserId@@@util@@UAEHPAX@Z 00426880 f i QueryManager.obj
 0001:00025880       ?Free@?$CMemoryPoolFactory@VQueryGspLoggingUserState@nsGSP@@@util@@UAEHPAX@Z 00426880 f i QueryManager.obj
 0001:00025880       ?Free@?$CMemoryPoolFactory@VQueryGspGetAccountByGuid@nsGSP@@@util@@UAEHPAX@Z 00426880 f i QueryManager.obj
 0001:00025880       ?Free@?$CMemoryPoolFactory@VQueryGspGetAccount@nsGSP@@@util@@UAEHPAX@Z 00426880 f i QueryManager.obj
 0001:00025880       ?Free@?$CMemoryPoolFactory@VQueryGameVersionUpdate@@@util@@UAEHPAX@Z 00426880 f i QueryManager.obj
 0001:00025880       ?Free@?$CMemoryPoolFactory@VQueryNetCafeLogIn@@@util@@UAEHPAX@Z 00426880 f i QueryManager.obj
 0001:00025880       ?Free@?$CMemoryPoolFactory@VQueryAuth@@@util@@UAEHPAX@Z 00426880 f i QueryManager.obj
 0001:00025880       ?Free@?$CMemoryPoolFactory@VQuerySelectPCRoomIPList@@@util@@UAEHPAX@Z 00426880 f i QueryManager.obj
 0001:00025880       ?Free@?$CMemoryPoolFactory@VQueryNetCafeLog@@@util@@UAEHPAX@Z 00426880 f i QueryManager.obj
 0001:00025880       ?Free@?$CMemoryPoolFactory@VQueryControlIp@@@util@@UAEHPAX@Z 00426880 f i QueryManager.obj
 0001:00025880       ?Free@?$CMemoryPoolFactory@VLoginFrontServerSession@@@util@@UAEHPAX@Z 00426880 f i AuthFrame.obj
 0001:00025880       ?Free@?$CMemoryPoolFactory@VQueryUserStsChange@@@util@@UAEHPAX@Z 00426880 f i QueryManager.obj
 0001:00025880       ?Free@?$CMemoryPoolFactory@VQueryAuthLogUpdate@@@util@@UAEHPAX@Z 00426880 f i QueryManager.obj
 0001:00025880       ?Free@?$CMemoryPoolFactory@VIntegratedBillingServerSession@@@util@@UAEHPAX@Z 00426880 f i AuthFrame.obj
 0001:00025880       ?Free@?$CMemoryPoolFactory@VQueryGspChangeUserState@nsGSP@@@util@@UAEHPAX@Z 00426880 f i QueryManager.obj
 0001:00025880       ?Free@?$CMemoryPoolFactory@VRTTAServerSession@@@util@@UAEHPAX@Z 00426880 f i AuthFrame.obj
 0001:00025880       ?Free@?$CMemoryPoolFactory@VQueryRecoverLocation@@@util@@UAEHPAX@Z 00426880 f i QueryManager.obj
 0001:00025880       ?Free@?$CMemoryPoolFactory@VQueryAuthFailCount@@@util@@UAEHPAX@Z 00426880 f i QueryManager.obj
 0001:00025880       ?Free@?$CMemoryPoolFactory@VQueryAuthLog@@@util@@UAEHPAX@Z 00426880 f i QueryManager.obj
 0001:00025880       ?Free@?$CMemoryPoolFactory@VQueryEnd@@@util@@UAEHPAX@Z 00426880 f i QueryManager.obj
 0001:000258c0       ?Initialize@?$CMemoryPoolFactory@VQueryGameVersionUpdate@@@util@@UAE_NIIPBDPAX@Z 004268c0 f i QueryManager.obj
 0001:00025920       ?Release@?$CMemoryPoolFactory@VQueryRecoverLocation@@@util@@UAEXXZ 00426920 f i QueryManager.obj
 0001:00025920       ?Release@?$CMemoryPoolFactory@VQueryGspGetAccount@nsGSP@@@util@@UAEXXZ 00426920 f i QueryManager.obj
 0001:00025920       ?Release@?$CMemoryPoolFactory@VQueryAuthLogUpdate@@@util@@UAEXXZ 00426920 f i QueryManager.obj
 0001:00025920       ?Release@?$CMemoryPoolFactory@VQueryAuthFailCount@@@util@@UAEXXZ 00426920 f i QueryManager.obj
 0001:00025920       ?Release@?$CMemoryPoolFactory@VQueryAuth@@@util@@UAEXXZ 00426920 f i QueryManager.obj
 0001:00025920       ?Release@?$CMemoryPoolFactory@VLoginFrontServerSession@@@util@@UAEXXZ 00426920 f i AuthFrame.obj
 0001:00025920       ?Release@?$CMemoryPoolFactory@VTempServerSession@@@util@@UAEXXZ 00426920 f i AuthFrame.obj
 0001:00025920       ?Release@?$CMemoryPoolFactory@VRTTAServerSession@@@util@@UAEXXZ 00426920 f i AuthFrame.obj
 0001:00025920       ?Release@?$CMemoryPoolFactory@VQueryGspCheckAuthKey@nsGSP@@@util@@UAEXXZ 00426920 f i QueryManager.obj
 0001:00025920       ?Release@?$CMemoryPoolFactory@VAuthAgentServerSession@@@util@@UAEXXZ 00426920 f i AuthFrame.obj
 0001:00025920       ?Release@?$CMemoryPoolFactory@VQueryUserStsChange@@@util@@UAEXXZ 00426920 f i QueryManager.obj
 0001:00025920       ?Release@?$CMemoryPoolFactory@VQueryUserId@@@util@@UAEXXZ 00426920 f i QueryManager.obj
 0001:00025920       ?Release@?$CMemoryPoolFactory@VQueryUpdateTokenKey@@@util@@UAEXXZ 00426920 f i QueryManager.obj
 0001:00025920       ?Release@?$CMemoryPoolFactory@VQueryControlIp@@@util@@UAEXXZ 00426920 f i QueryManager.obj
 0001:00025920       ?Release@?$CMemoryPoolFactory@VQueryGameVersionUpdate@@@util@@UAEXXZ 00426920 f i QueryManager.obj
 0001:00025920       ?Release@?$CMemoryPoolFactory@VQueryNetCafe2ndAuth@@@util@@UAEXXZ 00426920 f i QueryManager.obj
 0001:00025920       ?Release@?$CMemoryPoolFactory@VQueryGspChangeUserState@nsGSP@@@util@@UAEXXZ 00426920 f i QueryManager.obj
 0001:00025920       ?Release@?$CMemoryPoolFactory@VQueryGspGetAccountByGuid@nsGSP@@@util@@UAEXXZ 00426920 f i QueryManager.obj
 0001:00025920       ?Release@?$CMemoryPoolFactory@VQueryNetCafeLogIn@@@util@@UAEXXZ 00426920 f i QueryManager.obj
 0001:00025920       ?Release@?$CMemoryPoolFactory@VQueryAuthLog@@@util@@UAEXXZ 00426920 f i QueryManager.obj
 0001:00025920       ?Release@?$CMemoryPoolFactory@VQueryEnd@@@util@@UAEXXZ 00426920 f i QueryManager.obj
 0001:00025920       ?Release@?$CMemoryPoolFactory@UAccountInfo@@@util@@UAEXXZ 00426920 f i AccountManager.obj
 0001:00025920       ?Release@?$CMemoryPoolFactory@VQueryNetCafeLog@@@util@@UAEXXZ 00426920 f i QueryManager.obj
 0001:00025920       ?Release@?$CMemoryPoolFactory@VIntegratedBillingServerSession@@@util@@UAEXXZ 00426920 f i AuthFrame.obj
 0001:00025920       ?Release@?$CMemoryPoolFactory@VQueryCheckPassword@@@util@@UAEXXZ 00426920 f i QueryManager.obj
 0001:00025920       ?Release@?$CMemoryPoolFactory@VQueryGspLoggingUserState@nsGSP@@@util@@UAEXXZ 00426920 f i QueryManager.obj
 0001:00025920       ?Release@?$CMemoryPoolFactory@VQuerySelectPCRoomIPList@@@util@@UAEXXZ 00426920 f i QueryManager.obj
 0001:00025950       ?Initialize@?$CMemoryPoolFactory@VQueryAuthFailCount@@@util@@UAE_NIIPBDPAX@Z 00426950 f i QueryManager.obj
 0001:000259b0       ?Initialize@?$CMemoryPoolFactory@VQueryAuthLogUpdate@@@util@@UAE_NIIPBDPAX@Z 004269b0 f i QueryManager.obj
 0001:00025a10       ?Initialize@?$CMemoryPoolFactory@VQueryNetCafeLog@@@util@@UAE_NIIPBDPAX@Z 00426a10 f i QueryManager.obj
 0001:00025a70       ?Initialize@?$CMemoryPoolFactory@VQueryNetCafeLogIn@@@util@@UAE_NIIPBDPAX@Z 00426a70 f i QueryManager.obj
 0001:00025ad0       ?Initialize@?$CMemoryPoolFactory@VQueryNetCafe2ndAuth@@@util@@UAE_NIIPBDPAX@Z 00426ad0 f i QueryManager.obj
 0001:00025b30       ?Initialize@?$CMemoryPoolFactory@VQueryUserId@@@util@@UAE_NIIPBDPAX@Z 00426b30 f i QueryManager.obj
 0001:00025b90       ?Initialize@?$CMemoryPoolFactory@VQueryGspCheckAuthKey@nsGSP@@@util@@UAE_NIIPBDPAX@Z 00426b90 f i QueryManager.obj
 0001:00025bf0       ?Initialize@?$CMemoryPoolFactory@VQueryGspChangeUserState@nsGSP@@@util@@UAE_NIIPBDPAX@Z 00426bf0 f i QueryManager.obj
 0001:00025c50       ?Initialize@?$CMemoryPoolFactory@VQueryGspLoggingUserState@nsGSP@@@util@@UAE_NIIPBDPAX@Z 00426c50 f i QueryManager.obj
 0001:00025cb0       ?Initialize@?$CMemoryPoolFactory@VQueryGspGetAccount@nsGSP@@@util@@UAE_NIIPBDPAX@Z 00426cb0 f i QueryManager.obj
 0001:00025d10       ?Initialize@?$CMemoryPoolFactory@VQueryGspGetAccountByGuid@nsGSP@@@util@@UAE_NIIPBDPAX@Z 00426d10 f i QueryManager.obj
 0001:00025d70       ?Initialize@?$CMemoryPoolFactory@VQueryUpdateTokenKey@@@util@@UAE_NIIPBDPAX@Z 00426d70 f i QueryManager.obj
 0001:00025dd0       ?Initialize@?$CMemoryPoolFactory@VQuerySelectPCRoomIPList@@@util@@UAE_NIIPBDPAX@Z 00426dd0 f i QueryManager.obj
 0001:00025e30       ?Initialize@?$CMemoryPoolFactory@VQueryCheckPassword@@@util@@UAE_NIIPBDPAX@Z 00426e30 f i QueryManager.obj
 0001:00025e90       ?Initialize@?$CMemoryPoolFactory@VQueryEnd@@@util@@UAE_NIIPBDPAX@Z 00426e90 f i QueryManager.obj
 0001:00025ef0       ??_E?$CMemoryPoolFactory@VQueryAuth@@@util@@UAEPAXI@Z 00426ef0 f i QueryManager.obj
 0001:00025ef0       ??_G?$CMemoryPoolFactory@VQueryAuth@@@util@@UAEPAXI@Z 00426ef0 f i QueryManager.obj
 0001:00025f20       ??1?$CMemoryPoolFactory@VQueryAuth@@@util@@UAE@XZ 00426f20 f i QueryManager.obj
 0001:00025fb0       ??_G?$CMemoryPoolFactory@VQueryUserStsChange@@@util@@UAEPAXI@Z 00426fb0 f i QueryManager.obj
 0001:00025fb0       ??_E?$CMemoryPoolFactory@VQueryUserStsChange@@@util@@UAEPAXI@Z 00426fb0 f i QueryManager.obj
 0001:00025fe0       ??1?$CMemoryPoolFactory@VQueryUserStsChange@@@util@@UAE@XZ 00426fe0 f i QueryManager.obj
 0001:00026070       ??_G?$CMemoryPoolFactory@VQueryRecoverLocation@@@util@@UAEPAXI@Z 00427070 f i QueryManager.obj
 0001:00026070       ??_E?$CMemoryPoolFactory@VQueryRecoverLocation@@@util@@UAEPAXI@Z 00427070 f i QueryManager.obj
 0001:000260a0       ??1?$CMemoryPoolFactory@VQueryRecoverLocation@@@util@@UAE@XZ 004270a0 f i QueryManager.obj
 0001:00026130       ??_G?$CMemoryPoolFactory@VQueryAuthLog@@@util@@UAEPAXI@Z 00427130 f i QueryManager.obj
 0001:00026130       ??_E?$CMemoryPoolFactory@VQueryAuthLog@@@util@@UAEPAXI@Z 00427130 f i QueryManager.obj
 0001:00026160       ??1?$CMemoryPoolFactory@VQueryAuthLog@@@util@@UAE@XZ 00427160 f i QueryManager.obj
 0001:000261f0       ??_G?$CMemoryPoolFactory@VQueryControlIp@@@util@@UAEPAXI@Z 004271f0 f i QueryManager.obj
 0001:000261f0       ??_E?$CMemoryPoolFactory@VQueryControlIp@@@util@@UAEPAXI@Z 004271f0 f i QueryManager.obj
 0001:00026220       ??1?$CMemoryPoolFactory@VQueryControlIp@@@util@@UAE@XZ 00427220 f i QueryManager.obj
 0001:000262b0       ??_G?$CMemoryPoolFactory@VQueryGameVersionUpdate@@@util@@UAEPAXI@Z 004272b0 f i QueryManager.obj
 0001:000262b0       ??_E?$CMemoryPoolFactory@VQueryGameVersionUpdate@@@util@@UAEPAXI@Z 004272b0 f i QueryManager.obj
 0001:000262e0       ??1?$CMemoryPoolFactory@VQueryGameVersionUpdate@@@util@@UAE@XZ 004272e0 f i QueryManager.obj
 0001:00026370       ??_E?$CMemoryPoolFactory@VQueryAuthFailCount@@@util@@UAEPAXI@Z 00427370 f i QueryManager.obj
 0001:00026370       ??_G?$CMemoryPoolFactory@VQueryAuthFailCount@@@util@@UAEPAXI@Z 00427370 f i QueryManager.obj
 0001:000263a0       ??1?$CMemoryPoolFactory@VQueryAuthFailCount@@@util@@UAE@XZ 004273a0 f i QueryManager.obj
 0001:00026430       ??_E?$CMemoryPoolFactory@VQueryAuthLogUpdate@@@util@@UAEPAXI@Z 00427430 f i QueryManager.obj
 0001:00026430       ??_G?$CMemoryPoolFactory@VQueryAuthLogUpdate@@@util@@UAEPAXI@Z 00427430 f i QueryManager.obj
 0001:00026460       ??1?$CMemoryPoolFactory@VQueryAuthLogUpdate@@@util@@UAE@XZ 00427460 f i QueryManager.obj
 0001:000264f0       ??_G?$CMemoryPoolFactory@VQueryNetCafeLog@@@util@@UAEPAXI@Z 004274f0 f i QueryManager.obj
 0001:000264f0       ??_E?$CMemoryPoolFactory@VQueryNetCafeLog@@@util@@UAEPAXI@Z 004274f0 f i QueryManager.obj
 0001:00026520       ??1?$CMemoryPoolFactory@VQueryNetCafeLog@@@util@@UAE@XZ 00427520 f i QueryManager.obj
 0001:000265b0       ??_G?$CMemoryPoolFactory@VQueryNetCafeLogIn@@@util@@UAEPAXI@Z 004275b0 f i QueryManager.obj
 0001:000265b0       ??_E?$CMemoryPoolFactory@VQueryNetCafeLogIn@@@util@@UAEPAXI@Z 004275b0 f i QueryManager.obj
 0001:000265e0       ??1?$CMemoryPoolFactory@VQueryNetCafeLogIn@@@util@@UAE@XZ 004275e0 f i QueryManager.obj
 0001:00026670       ??_G?$CMemoryPoolFactory@VQueryNetCafe2ndAuth@@@util@@UAEPAXI@Z 00427670 f i QueryManager.obj
 0001:00026670       ??_E?$CMemoryPoolFactory@VQueryNetCafe2ndAuth@@@util@@UAEPAXI@Z 00427670 f i QueryManager.obj
 0001:000266a0       ??1?$CMemoryPoolFactory@VQueryNetCafe2ndAuth@@@util@@UAE@XZ 004276a0 f i QueryManager.obj
 0001:00026730       ??_G?$CMemoryPoolFactory@VQueryUserId@@@util@@UAEPAXI@Z 00427730 f i QueryManager.obj
 0001:00026730       ??_E?$CMemoryPoolFactory@VQueryUserId@@@util@@UAEPAXI@Z 00427730 f i QueryManager.obj
 0001:00026760       ??1?$CMemoryPoolFactory@VQueryUserId@@@util@@UAE@XZ 00427760 f i QueryManager.obj
 0001:000267f0       ??_G?$CMemoryPoolFactory@VQueryGspCheckAuthKey@nsGSP@@@util@@UAEPAXI@Z 004277f0 f i QueryManager.obj
 0001:000267f0       ??_E?$CMemoryPoolFactory@VQueryGspCheckAuthKey@nsGSP@@@util@@UAEPAXI@Z 004277f0 f i QueryManager.obj
 0001:00026820       ??1?$CMemoryPoolFactory@VQueryGspCheckAuthKey@nsGSP@@@util@@UAE@XZ 00427820 f i QueryManager.obj
 0001:000268b0       ??_E?$CMemoryPoolFactory@VQueryGspChangeUserState@nsGSP@@@util@@UAEPAXI@Z 004278b0 f i QueryManager.obj
 0001:000268b0       ??_G?$CMemoryPoolFactory@VQueryGspChangeUserState@nsGSP@@@util@@UAEPAXI@Z 004278b0 f i QueryManager.obj
 0001:000268e0       ??1?$CMemoryPoolFactory@VQueryGspChangeUserState@nsGSP@@@util@@UAE@XZ 004278e0 f i QueryManager.obj
 0001:00026970       ??_E?$CMemoryPoolFactory@VQueryGspLoggingUserState@nsGSP@@@util@@UAEPAXI@Z 00427970 f i QueryManager.obj
 0001:00026970       ??_G?$CMemoryPoolFactory@VQueryGspLoggingUserState@nsGSP@@@util@@UAEPAXI@Z 00427970 f i QueryManager.obj
 0001:000269a0       ??1?$CMemoryPoolFactory@VQueryGspLoggingUserState@nsGSP@@@util@@UAE@XZ 004279a0 f i QueryManager.obj
 0001:00026a30       ??_G?$CMemoryPoolFactory@VQueryGspGetAccount@nsGSP@@@util@@UAEPAXI@Z 00427a30 f i QueryManager.obj
 0001:00026a30       ??_E?$CMemoryPoolFactory@VQueryGspGetAccount@nsGSP@@@util@@UAEPAXI@Z 00427a30 f i QueryManager.obj
 0001:00026a60       ??1?$CMemoryPoolFactory@VQueryGspGetAccount@nsGSP@@@util@@UAE@XZ 00427a60 f i QueryManager.obj
 0001:00026af0       ??_G?$CMemoryPoolFactory@VQueryGspGetAccountByGuid@nsGSP@@@util@@UAEPAXI@Z 00427af0 f i QueryManager.obj
 0001:00026af0       ??_E?$CMemoryPoolFactory@VQueryGspGetAccountByGuid@nsGSP@@@util@@UAEPAXI@Z 00427af0 f i QueryManager.obj
 0001:00026b20       ??1?$CMemoryPoolFactory@VQueryGspGetAccountByGuid@nsGSP@@@util@@UAE@XZ 00427b20 f i QueryManager.obj
 0001:00026bb0       ??_G?$CMemoryPoolFactory@VQueryUpdateTokenKey@@@util@@UAEPAXI@Z 00427bb0 f i QueryManager.obj
 0001:00026bb0       ??_E?$CMemoryPoolFactory@VQueryUpdateTokenKey@@@util@@UAEPAXI@Z 00427bb0 f i QueryManager.obj
 0001:00026be0       ??1?$CMemoryPoolFactory@VQueryUpdateTokenKey@@@util@@UAE@XZ 00427be0 f i QueryManager.obj
 0001:00026c70       ??_E?$CMemoryPoolFactory@VQuerySelectPCRoomIPList@@@util@@UAEPAXI@Z 00427c70 f i QueryManager.obj
 0001:00026c70       ??_G?$CMemoryPoolFactory@VQuerySelectPCRoomIPList@@@util@@UAEPAXI@Z 00427c70 f i QueryManager.obj
 0001:00026ca0       ??1?$CMemoryPoolFactory@VQuerySelectPCRoomIPList@@@util@@UAE@XZ 00427ca0 f i QueryManager.obj
 0001:00026d30       ??_G?$CMemoryPoolFactory@VQueryCheckPassword@@@util@@UAEPAXI@Z 00427d30 f i QueryManager.obj
 0001:00026d30       ??_E?$CMemoryPoolFactory@VQueryCheckPassword@@@util@@UAEPAXI@Z 00427d30 f i QueryManager.obj
 0001:00026d60       ??1?$CMemoryPoolFactory@VQueryCheckPassword@@@util@@UAE@XZ 00427d60 f i QueryManager.obj
 0001:00026df0       ??_G?$CMemoryPoolFactory@VQueryEnd@@@util@@UAEPAXI@Z 00427df0 f i QueryManager.obj
 0001:00026df0       ??_E?$CMemoryPoolFactory@VQueryEnd@@@util@@UAEPAXI@Z 00427df0 f i QueryManager.obj
 0001:00026e20       ??1?$CMemoryPoolFactory@VQueryEnd@@@util@@UAE@XZ 00427e20 f i QueryManager.obj
 0001:00026eb0       ?CreateImpl@?$CMemoryPoolFactory@VQueryAuth@@@util@@QAEXH@Z 00427eb0 f i QueryManager.obj
 0001:000272f0       ?CreateImpl@?$CMemoryPoolFactory@VQueryUserStsChange@@@util@@QAEXH@Z 004282f0 f i QueryManager.obj
 0001:00027730       ?CreateImpl@?$CMemoryPoolFactory@VQueryRecoverLocation@@@util@@QAEXH@Z 00428730 f i QueryManager.obj
 0001:00027b70       ?CreateImpl@?$CMemoryPoolFactory@VQueryAuthLog@@@util@@QAEXH@Z 00428b70 f i QueryManager.obj
 0001:00027fb0       ?CreateImpl@?$CMemoryPoolFactory@VQueryControlIp@@@util@@QAEXH@Z 00428fb0 f i QueryManager.obj
 0001:000283f0       ?CreateImpl@?$CMemoryPoolFactory@VQueryGameVersionUpdate@@@util@@QAEXH@Z 004293f0 f i QueryManager.obj
 0001:00028830       ?CreateImpl@?$CMemoryPoolFactory@VQueryAuthFailCount@@@util@@QAEXH@Z 00429830 f i QueryManager.obj
 0001:00028c70       ?CreateImpl@?$CMemoryPoolFactory@VQueryAuthLogUpdate@@@util@@QAEXH@Z 00429c70 f i QueryManager.obj
 0001:000290b0       ?CreateImpl@?$CMemoryPoolFactory@VQueryNetCafeLog@@@util@@QAEXH@Z 0042a0b0 f i QueryManager.obj
 0001:000294f0       ?CreateImpl@?$CMemoryPoolFactory@VQueryNetCafeLogIn@@@util@@QAEXH@Z 0042a4f0 f i QueryManager.obj
 0001:00029930       ?CreateImpl@?$CMemoryPoolFactory@VQueryNetCafe2ndAuth@@@util@@QAEXH@Z 0042a930 f i QueryManager.obj
 0001:00029d70       ?CreateImpl@?$CMemoryPoolFactory@VQueryUserId@@@util@@QAEXH@Z 0042ad70 f i QueryManager.obj
 0001:0002a1b0       ?CreateImpl@?$CMemoryPoolFactory@VQueryGspCheckAuthKey@nsGSP@@@util@@QAEXH@Z 0042b1b0 f i QueryManager.obj
 0001:0002a5f0       ?CreateImpl@?$CMemoryPoolFactory@VQueryGspChangeUserState@nsGSP@@@util@@QAEXH@Z 0042b5f0 f i QueryManager.obj
 0001:0002aa30       ?CreateImpl@?$CMemoryPoolFactory@VQueryGspLoggingUserState@nsGSP@@@util@@QAEXH@Z 0042ba30 f i QueryManager.obj
 0001:0002ae70       ?CreateImpl@?$CMemoryPoolFactory@VQueryGspGetAccount@nsGSP@@@util@@QAEXH@Z 0042be70 f i QueryManager.obj
 0001:0002b2b0       ?CreateImpl@?$CMemoryPoolFactory@VQueryGspGetAccountByGuid@nsGSP@@@util@@QAEXH@Z 0042c2b0 f i QueryManager.obj
 0001:0002b6f0       ?CreateImpl@?$CMemoryPoolFactory@VQueryUpdateTokenKey@@@util@@QAEXH@Z 0042c6f0 f i QueryManager.obj
 0001:0002bb30       ?CreateImpl@?$CMemoryPoolFactory@VQuerySelectPCRoomIPList@@@util@@QAEXH@Z 0042cb30 f i QueryManager.obj
 0001:0002bf70       ?CreateImpl@?$CMemoryPoolFactory@VQueryCheckPassword@@@util@@QAEXH@Z 0042cf70 f i QueryManager.obj
 0001:0002c3b0       ?CreateImpl@?$CMemoryPoolFactory@VQueryEnd@@@util@@QAEXH@Z 0042d3b0 f i QueryManager.obj
 0001:0002c7f0       ?Alloc@?$NotUseChunkImpl@VQueryAuth@@@internal@util@@UAEPAXXZ 0042d7f0 f i QueryManager.obj
 0001:0002c880       ?Alloc@?$FixedSizeChunkImpl@VQueryAuth@@@internal@util@@UAEPAXXZ 0042d880 f i QueryManager.obj
 0001:0002c940       ?Alloc@?$NotUseChunkImpl@VQueryUserStsChange@@@internal@util@@UAEPAXXZ 0042d940 f i QueryManager.obj
 0001:0002c9e0       ??_EQueryAuthLog@@UAEPAXI@Z 0042d9e0 f i QueryManager.obj
 0001:0002c9e0       ??_EQueryAuth@@UAEPAXI@Z   0042d9e0 f i Query_Auth.obj
 0001:0002c9e0       ??_EQueryNetCafeLog@@UAEPAXI@Z 0042d9e0 f i Query_Netcafe.obj
 0001:0002c9e0       ??_EQueryNetCafeLogIn@@UAEPAXI@Z 0042d9e0 f i Query_Netcafe.obj
 0001:0002c9e0       ??_EQueryUserStsChange@@UAEPAXI@Z 0042d9e0 f i QueryManager.obj
 0001:0002c9e0       ??_EQueryCheckPassword@@UAEPAXI@Z 0042d9e0 f i Query_Auth.obj
 0001:0002c9e0       ??_GQueryEnd@@UAEPAXI@Z    0042d9e0 f i QueryManager.obj
 0001:0002c9e0       ??_GQueryObject@@UAEPAXI@Z 0042d9e0 f i Query_Auth.obj
 0001:0002c9e0       ??_EQueryNetCafe2ndAuth@@UAEPAXI@Z 0042d9e0 f i Query_Netcafe.obj
 0001:0002c9e0       ??_EQueryAuthFailCount@@UAEPAXI@Z 0042d9e0 f i QueryManager.obj
 0001:0002c9e0       ??_GQueryControlIp@@UAEPAXI@Z 0042d9e0 f i QueryManager.obj
 0001:0002c9e0       ??_GQueryNetCafeLogIn@@UAEPAXI@Z 0042d9e0 f i Query_Netcafe.obj
 0001:0002c9e0       ??_EQueryGameVersionUpdate@@UAEPAXI@Z 0042d9e0 f i QueryManager.obj
 0001:0002c9e0       ??_EQueryAuthLogUpdate@@UAEPAXI@Z 0042d9e0 f i QueryManager.obj
 0001:0002c9e0       ??_EQueryEnd@@UAEPAXI@Z    0042d9e0 f i QueryManager.obj
 0001:0002c9e0       ??_GQueryNetCafeLog@@UAEPAXI@Z 0042d9e0 f i Query_Netcafe.obj
 0001:0002c9e0       ??_GQueryAuthLog@@UAEPAXI@Z 0042d9e0 f i QueryManager.obj
 0001:0002c9e0       ??_GQueryGameVersionUpdate@@UAEPAXI@Z 0042d9e0 f i QueryManager.obj
 0001:0002c9e0       ??_EQueryControlIp@@UAEPAXI@Z 0042d9e0 f i QueryManager.obj
 0001:0002c9e0       ??_EQueryRecoverLocation@@UAEPAXI@Z 0042d9e0 f i QueryManager.obj
 0001:0002c9e0       ??_GQueryAuthLogUpdate@@UAEPAXI@Z 0042d9e0 f i QueryManager.obj
 0001:0002c9e0       ??_GQueryNetCafe2ndAuth@@UAEPAXI@Z 0042d9e0 f i Query_Netcafe.obj
 0001:0002c9e0       ??_GQueryAuthFailCount@@UAEPAXI@Z 0042d9e0 f i QueryManager.obj
 0001:0002c9e0       ??_GQueryRecoverLocation@@UAEPAXI@Z 0042d9e0 f i QueryManager.obj
 0001:0002c9e0       ??_GQueryUserStsChange@@UAEPAXI@Z 0042d9e0 f i QueryManager.obj
 0001:0002c9e0       ??_GQueryCheckPassword@@UAEPAXI@Z 0042d9e0 f i Query_Auth.obj
 0001:0002c9e0       ??_EQueryObject@@UAEPAXI@Z 0042d9e0 f i Query_Auth.obj
 0001:0002c9e0       ??_GQueryAuth@@UAEPAXI@Z   0042d9e0 f i Query_Auth.obj
 0001:0002ca10       ?Alloc@?$FixedSizeChunkImpl@VQueryUserStsChange@@@internal@util@@UAEPAXXZ 0042da10 f i QueryManager.obj
 0001:0002cae0       ?Alloc@?$NotUseChunkImpl@VQueryRecoverLocation@@@internal@util@@UAEPAXXZ 0042dae0 f i QueryManager.obj
 0001:0002cb70       ??0QueryRecoverLocation@@QAE@XZ 0042db70 f i QueryManager.obj
 0001:0002cdd0       ?Alloc@?$FixedSizeChunkImpl@VQueryRecoverLocation@@@internal@util@@UAEPAXXZ 0042ddd0 f i QueryManager.obj
 0001:0002ce90       ?Alloc@?$NotUseChunkImpl@VQueryAuthLog@@@internal@util@@UAEPAXXZ 0042de90 f i QueryManager.obj
 0001:0002cf20       ??0QueryAuthLog@@QAE@XZ    0042df20 f i QueryManager.obj
 0001:0002cf80       ?Alloc@?$FixedSizeChunkImpl@VQueryAuthLog@@@internal@util@@UAEPAXXZ 0042df80 f i QueryManager.obj
 0001:0002d040       ?Alloc@?$NotUseChunkImpl@VQueryControlIp@@@internal@util@@UAEPAXXZ 0042e040 f i QueryManager.obj
 0001:0002d0d0       ??0QueryControlIp@@QAE@XZ  0042e0d0 f i QueryManager.obj
 0001:0002d1d0       ?Alloc@?$FixedSizeChunkImpl@VQueryControlIp@@@internal@util@@UAEPAXXZ 0042e1d0 f i QueryManager.obj
 0001:0002d290       ?Alloc@?$NotUseChunkImpl@VQueryGameVersionUpdate@@@internal@util@@UAEPAXXZ 0042e290 f i QueryManager.obj
 0001:0002d320       ??0QueryGameVersionUpdate@@QAE@XZ 0042e320 f i QueryManager.obj
 0001:0002d3d0       ?GetDBType@QueryGameVersionUpdate@@UAE?AW4DB_TYPE@@XZ 0042e3d0 f i QueryManager.obj
 0001:0002d3d0       ?GetDBType@QueryControlIp@@UAE?AW4DB_TYPE@@XZ 0042e3d0 f i QueryManager.obj
 0001:0002d3e0       ?Alloc@?$FixedSizeChunkImpl@VQueryGameVersionUpdate@@@internal@util@@UAEPAXXZ 0042e3e0 f i QueryManager.obj
 0001:0002d4a0       ?Alloc@?$NotUseChunkImpl@VQueryAuthFailCount@@@internal@util@@UAEPAXXZ 0042e4a0 f i QueryManager.obj
 0001:0002d530       ??0QueryAuthFailCount@@QAE@XZ 0042e530 f i QueryManager.obj
 0001:0002d5c0       ?Alloc@?$FixedSizeChunkImpl@VQueryAuthFailCount@@@internal@util@@UAEPAXXZ 0042e5c0 f i QueryManager.obj
 0001:0002d680       ?Alloc@?$NotUseChunkImpl@VQueryAuthLogUpdate@@@internal@util@@UAEPAXXZ 0042e680 f i QueryManager.obj
 0001:0002d720       ?Alloc@?$FixedSizeChunkImpl@VQueryAuthLogUpdate@@@internal@util@@UAEPAXXZ 0042e720 f i QueryManager.obj
 0001:0002d7f0       ?Alloc@?$NotUseChunkImpl@VQueryNetCafeLog@@@internal@util@@UAEPAXXZ 0042e7f0 f i QueryManager.obj
 0001:0002d8a0       ?GetNumberOfBands@?$VariableSizeChunkImpl@VAuthAgentServerSession@@@internal@util@@UBEHXZ 0042e8a0 f i AuthFrame.obj
 0001:0002d8a0       ?GetNumberOfBands@?$VariableSizeChunkImpl@VQueryNetCafeLogIn@@@internal@util@@UBEHXZ 0042e8a0 f i QueryManager.obj
 0001:0002d8a0       ?GetNumberOfBands@?$VariableSizeChunkImpl@VQueryAuth@@@internal@util@@UBEHXZ 0042e8a0 f i QueryManager.obj
 0001:0002d8a0       ?GetNumberOfBands@?$VariableSizeChunkImpl@VTempServerSession@@@internal@util@@UBEHXZ 0042e8a0 f i AuthFrame.obj
 0001:0002d8a0       ?GetNumberOfBands@?$VariableSizeChunkImpl@VQueryRecoverLocation@@@internal@util@@UBEHXZ 0042e8a0 f i QueryManager.obj
 0001:0002d8a0       ?GetNumberOfBands@?$VariableSizeChunkImpl@VQueryAuthLog@@@internal@util@@UBEHXZ 0042e8a0 f i QueryManager.obj
 0001:0002d8a0       ?GetNumberOfBands@?$VariableSizeChunkImpl@VQueryUserId@@@internal@util@@UBEHXZ 0042e8a0 f i QueryManager.obj
 0001:0002d8a0       ?GetNumberOfBands@?$VariableSizeChunkImpl@UAccountInfo@@@internal@util@@UBEHXZ 0042e8a0 f i AccountManager.obj
 0001:0002d8a0       ?GetNumberOfBands@?$VariableSizeChunkImpl@VQueryControlIp@@@internal@util@@UBEHXZ 0042e8a0 f i QueryManager.obj
 0001:0002d8a0       ?GetNumberOfBands@?$VariableSizeChunkImpl@VLoginFrontServerSession@@@internal@util@@UBEHXZ 0042e8a0 f i AuthFrame.obj
 0001:0002d8a0       ?GetNumberOfBands@?$VariableSizeChunkImpl@VRTTAServerSession@@@internal@util@@UBEHXZ 0042e8a0 f i AuthFrame.obj
 0001:0002d8a0       ?GetNumberOfBands@?$VariableSizeChunkImpl@VIntegratedBillingServerSession@@@internal@util@@UBEHXZ 0042e8a0 f i AuthFrame.obj
 0001:0002d8a0       ?GetNumberOfBands@?$VariableSizeChunkImpl@VQuerySelectPCRoomIPList@@@internal@util@@UBEHXZ 0042e8a0 f i QueryManager.obj
 0001:0002d8a0       ?GetNumberOfBands@?$VariableSizeChunkImpl@VQueryGspCheckAuthKey@nsGSP@@@internal@util@@UBEHXZ 0042e8a0 f i QueryManager.obj
 0001:0002d8a0       ?GetNumberOfBands@?$VariableSizeChunkImpl@VQueryGspLoggingUserState@nsGSP@@@internal@util@@UBEHXZ 0042e8a0 f i QueryManager.obj
 0001:0002d8a0       ?GetNumberOfBands@?$VariableSizeChunkImpl@VQueryNetCafe2ndAuth@@@internal@util@@UBEHXZ 0042e8a0 f i QueryManager.obj
 0001:0002d8a0       ?GetNumberOfBands@?$VariableSizeChunkImpl@VQueryAuthFailCount@@@internal@util@@UBEHXZ 0042e8a0 f i QueryManager.obj
 0001:0002d8a0       ?GetNumberOfBands@?$VariableSizeChunkImpl@VQueryGspChangeUserState@nsGSP@@@internal@util@@UBEHXZ 0042e8a0 f i QueryManager.obj
 0001:0002d8a0       ?GetNumberOfBands@?$VariableSizeChunkImpl@VQueryNetCafeLog@@@internal@util@@UBEHXZ 0042e8a0 f i QueryManager.obj
 0001:0002d8a0       ?GetNumberOfBands@?$VariableSizeChunkImpl@VQueryEnd@@@internal@util@@UBEHXZ 0042e8a0 f i QueryManager.obj
 0001:0002d8a0       ?GetNumberOfBands@?$VariableSizeChunkImpl@VQueryCheckPassword@@@internal@util@@UBEHXZ 0042e8a0 f i QueryManager.obj
 0001:0002d8a0       ?GetNumberOfBands@?$VariableSizeChunkImpl@VQueryGspGetAccount@nsGSP@@@internal@util@@UBEHXZ 0042e8a0 f i QueryManager.obj
 0001:0002d8a0       ?GetNumberOfBands@?$VariableSizeChunkImpl@VQueryGameVersionUpdate@@@internal@util@@UBEHXZ 0042e8a0 f i QueryManager.obj
 0001:0002d8a0       ?GetNumberOfBands@?$VariableSizeChunkImpl@VQueryAuthLogUpdate@@@internal@util@@UBEHXZ 0042e8a0 f i QueryManager.obj
 0001:0002d8a0       ?GetNumberOfBands@?$VariableSizeChunkImpl@VQueryUserStsChange@@@internal@util@@UBEHXZ 0042e8a0 f i QueryManager.obj
 0001:0002d8a0       ?GetNumberOfBands@?$VariableSizeChunkImpl@VQueryGspGetAccountByGuid@nsGSP@@@internal@util@@UBEHXZ 0042e8a0 f i QueryManager.obj
 0001:0002d8a0       ?GetNumberOfBands@?$VariableSizeChunkImpl@VQueryUpdateTokenKey@@@internal@util@@UBEHXZ 0042e8a0 f i QueryManager.obj
 0001:0002d8c0       ?Alloc@?$FixedSizeChunkImpl@VQueryNetCafeLog@@@internal@util@@UAEPAXXZ 0042e8c0 f i QueryManager.obj
 0001:0002d9a0       ?Alloc@?$NotUseChunkImpl@VQueryNetCafeLogIn@@@internal@util@@UAEPAXXZ 0042e9a0 f i QueryManager.obj
 0001:0002da30       ?Alloc@?$VariableSizeChunkImpl@VQueryGspLoggingUserState@nsGSP@@@internal@util@@UAEPAXXZ 0042ea30 f i QueryManager.obj
 0001:0002da30       ?Alloc@?$VariableSizeChunkImpl@VQueryRecoverLocation@@@internal@util@@UAEPAXXZ 0042ea30 f i QueryManager.obj
 0001:0002da30       ?Alloc@?$VariableSizeChunkImpl@VQueryGspGetAccount@nsGSP@@@internal@util@@UAEPAXXZ 0042ea30 f i QueryManager.obj
 0001:0002da30       ?Alloc@?$VariableSizeChunkImpl@VQueryControlIp@@@internal@util@@UAEPAXXZ 0042ea30 f i QueryManager.obj
 0001:0002da30       ?Alloc@?$VariableSizeChunkImpl@VRTTAServerSession@@@internal@util@@UAEPAXXZ 0042ea30 f i AuthFrame.obj
 0001:0002da30       ?Alloc@?$VariableSizeChunkImpl@VQueryAuthLog@@@internal@util@@UAEPAXXZ 0042ea30 f i QueryManager.obj
 0001:0002da30       ?Alloc@?$VariableSizeChunkImpl@VQueryAuthFailCount@@@internal@util@@UAEPAXXZ 0042ea30 f i QueryManager.obj
 0001:0002da30       ?Alloc@?$VariableSizeChunkImpl@VQueryGspGetAccountByGuid@nsGSP@@@internal@util@@UAEPAXXZ 0042ea30 f i QueryManager.obj
 0001:0002da30       ?Alloc@?$VariableSizeChunkImpl@VQuerySelectPCRoomIPList@@@internal@util@@UAEPAXXZ 0042ea30 f i QueryManager.obj
 0001:0002da30       ?Alloc@?$VariableSizeChunkImpl@VQueryNetCafe2ndAuth@@@internal@util@@UAEPAXXZ 0042ea30 f i QueryManager.obj
 0001:0002da30       ?Alloc@?$VariableSizeChunkImpl@VTempServerSession@@@internal@util@@UAEPAXXZ 0042ea30 f i AuthFrame.obj
 0001:0002da30       ?Alloc@?$VariableSizeChunkImpl@VQueryGameVersionUpdate@@@internal@util@@UAEPAXXZ 0042ea30 f i QueryManager.obj
 0001:0002da30       ?Alloc@?$VariableSizeChunkImpl@VQueryUpdateTokenKey@@@internal@util@@UAEPAXXZ 0042ea30 f i QueryManager.obj
 0001:0002da30       ?Alloc@?$VariableSizeChunkImpl@VQueryGspCheckAuthKey@nsGSP@@@internal@util@@UAEPAXXZ 0042ea30 f i QueryManager.obj
 0001:0002da30       ?Alloc@?$VariableSizeChunkImpl@VQueryAuth@@@internal@util@@UAEPAXXZ 0042ea30 f i QueryManager.obj
 0001:0002da30       ?Alloc@?$VariableSizeChunkImpl@VQueryNetCafeLog@@@internal@util@@UAEPAXXZ 0042ea30 f i QueryManager.obj
 0001:0002da30       ?Alloc@?$VariableSizeChunkImpl@VLoginFrontServerSession@@@internal@util@@UAEPAXXZ 0042ea30 f i AuthFrame.obj
 0001:0002da30       ?Alloc@?$VariableSizeChunkImpl@VQueryCheckPassword@@@internal@util@@UAEPAXXZ 0042ea30 f i QueryManager.obj
 0001:0002da30       ?Alloc@?$VariableSizeChunkImpl@VQueryUserStsChange@@@internal@util@@UAEPAXXZ 0042ea30 f i QueryManager.obj
 0001:0002da30       ?Alloc@?$VariableSizeChunkImpl@VAuthAgentServerSession@@@internal@util@@UAEPAXXZ 0042ea30 f i AuthFrame.obj
 0001:0002da30       ?Alloc@?$VariableSizeChunkImpl@VQueryAuthLogUpdate@@@internal@util@@UAEPAXXZ 0042ea30 f i QueryManager.obj
 0001:0002da30       ?Alloc@?$VariableSizeChunkImpl@VQueryEnd@@@internal@util@@UAEPAXXZ 0042ea30 f i QueryManager.obj
 0001:0002da30       ?Alloc@?$VariableSizeChunkImpl@VIntegratedBillingServerSession@@@internal@util@@UAEPAXXZ 0042ea30 f i AuthFrame.obj
 0001:0002da30       ?Alloc@?$VariableSizeChunkImpl@UAccountInfo@@@internal@util@@UAEPAXXZ 0042ea30 f i AccountManager.obj
 0001:0002da30       ?Alloc@?$VariableSizeChunkImpl@VQueryNetCafeLogIn@@@internal@util@@UAEPAXXZ 0042ea30 f i QueryManager.obj
 0001:0002da30       ?Alloc@?$VariableSizeChunkImpl@VQueryGspChangeUserState@nsGSP@@@internal@util@@UAEPAXXZ 0042ea30 f i QueryManager.obj
 0001:0002da30       ?Alloc@?$VariableSizeChunkImpl@VQueryUserId@@@internal@util@@UAEPAXXZ 0042ea30 f i QueryManager.obj
 0001:0002da50       ?Alloc@?$FixedSizeChunkImpl@VQueryNetCafeLogIn@@@internal@util@@UAEPAXXZ 0042ea50 f i QueryManager.obj
 0001:0002db10       ?Alloc@?$NotUseChunkImpl@VQueryNetCafe2ndAuth@@@internal@util@@UAEPAXXZ 0042eb10 f i QueryManager.obj
 0001:0002dba0       ?Alloc@?$FixedSizeChunkImpl@VQueryNetCafe2ndAuth@@@internal@util@@UAEPAXXZ 0042eba0 f i QueryManager.obj
 0001:0002dc60       ?Alloc@?$NotUseChunkImpl@VQueryUserId@@@internal@util@@UAEPAXXZ 0042ec60 f i QueryManager.obj
 0001:0002dcf0       ?Alloc@?$FixedSizeChunkImpl@VQueryUserId@@@internal@util@@UAEPAXXZ 0042ecf0 f i QueryManager.obj
 0001:0002ddb0       ?Free@?$FixedSizeChunkImpl@VQueryNetCafeLog@@@internal@util@@UAEXQAX@Z 0042edb0 f i QueryManager.obj
 0001:0002ddb0       ?Free@?$FixedSizeChunkImpl@VQueryEnd@@@internal@util@@UAEXQAX@Z 0042edb0 f i QueryManager.obj
 0001:0002ddb0       ?Free@?$FixedSizeChunkImpl@VQueryGameVersionUpdate@@@internal@util@@UAEXQAX@Z 0042edb0 f i QueryManager.obj
 0001:0002ddb0       ?Free@?$FixedSizeChunkImpl@VQueryUserId@@@internal@util@@UAEXQAX@Z 0042edb0 f i QueryManager.obj
 0001:0002ddb0       ?Free@?$FixedSizeChunkImpl@VQueryAuth@@@internal@util@@UAEXQAX@Z 0042edb0 f i QueryManager.obj
 0001:0002ddb0       ?Free@?$FixedSizeChunkImpl@VQueryRecoverLocation@@@internal@util@@UAEXQAX@Z 0042edb0 f i QueryManager.obj
 0001:0002ddb0       ?Free@?$FixedSizeChunkImpl@VIntegratedBillingServerSession@@@internal@util@@UAEXQAX@Z 0042edb0 f i AuthFrame.obj
 0001:0002ddb0       ?Free@?$FixedSizeChunkImpl@VQueryCheckPassword@@@internal@util@@UAEXQAX@Z 0042edb0 f i QueryManager.obj
 0001:0002ddb0       ?Free@?$FixedSizeChunkImpl@VTempServerSession@@@internal@util@@UAEXQAX@Z 0042edb0 f i AuthFrame.obj
 0001:0002ddb0       ?Free@?$FixedSizeChunkImpl@VQueryGspChangeUserState@nsGSP@@@internal@util@@UAEXQAX@Z 0042edb0 f i QueryManager.obj
 0001:0002ddb0       ?Free@?$FixedSizeChunkImpl@VQueryControlIp@@@internal@util@@UAEXQAX@Z 0042edb0 f i QueryManager.obj
 0001:0002ddb0       ?Free@?$FixedSizeChunkImpl@VQueryGspLoggingUserState@nsGSP@@@internal@util@@UAEXQAX@Z 0042edb0 f i QueryManager.obj
 0001:0002ddb0       ?Free@?$FixedSizeChunkImpl@VQueryAuthLogUpdate@@@internal@util@@UAEXQAX@Z 0042edb0 f i QueryManager.obj
 0001:0002ddb0       ?Free@?$FixedSizeChunkImpl@VQueryNetCafeLogIn@@@internal@util@@UAEXQAX@Z 0042edb0 f i QueryManager.obj
 0001:0002ddb0       ?Free@?$FixedSizeChunkImpl@VQueryAuthFailCount@@@internal@util@@UAEXQAX@Z 0042edb0 f i QueryManager.obj
 0001:0002ddb0       ?Free@?$FixedSizeChunkImpl@VAuthAgentServerSession@@@internal@util@@UAEXQAX@Z 0042edb0 f i AuthFrame.obj
 0001:0002ddb0       ?Free@?$FixedSizeChunkImpl@VQueryNetCafe2ndAuth@@@internal@util@@UAEXQAX@Z 0042edb0 f i QueryManager.obj
 0001:0002ddb0       ?Free@?$FixedSizeChunkImpl@VQueryGspGetAccount@nsGSP@@@internal@util@@UAEXQAX@Z 0042edb0 f i QueryManager.obj
 0001:0002ddb0       ?Free@?$FixedSizeChunkImpl@VQueryGspCheckAuthKey@nsGSP@@@internal@util@@UAEXQAX@Z 0042edb0 f i QueryManager.obj
 0001:0002ddb0       ?Free@?$FixedSizeChunkImpl@VQuerySelectPCRoomIPList@@@internal@util@@UAEXQAX@Z 0042edb0 f i QueryManager.obj
 0001:0002ddb0       ?Free@?$FixedSizeChunkImpl@VQueryUpdateTokenKey@@@internal@util@@UAEXQAX@Z 0042edb0 f i QueryManager.obj
 0001:0002ddb0       ?Free@?$FixedSizeChunkImpl@VLoginFrontServerSession@@@internal@util@@UAEXQAX@Z 0042edb0 f i AuthFrame.obj
 0001:0002ddb0       ?Free@?$FixedSizeChunkImpl@VQueryGspGetAccountByGuid@nsGSP@@@internal@util@@UAEXQAX@Z 0042edb0 f i QueryManager.obj
 0001:0002ddb0       ?Free@?$FixedSizeChunkImpl@VQueryUserStsChange@@@internal@util@@UAEXQAX@Z 0042edb0 f i QueryManager.obj
 0001:0002ddb0       ?Free@?$FixedSizeChunkImpl@VRTTAServerSession@@@internal@util@@UAEXQAX@Z 0042edb0 f i AuthFrame.obj
 0001:0002ddb0       ?Free@?$FixedSizeChunkImpl@VQueryAuthLog@@@internal@util@@UAEXQAX@Z 0042edb0 f i QueryManager.obj
 0001:0002ddf0       ?Alloc@?$NotUseChunkImpl@VQueryGspCheckAuthKey@nsGSP@@@internal@util@@UAEPAXXZ 0042edf0 f i QueryManager.obj
 0001:0002de80       ?GetAvailableNumberOfTypes@?$VariableSizeChunkImpl@VQueryGspCheckAuthKey@nsGSP@@@internal@util@@UBEHXZ 0042ee80 f i QueryManager.obj
 0001:0002de80       ?GetAvailableNumberOfTypes@?$VariableSizeChunkImpl@VAuthAgentServerSession@@@internal@util@@UBEHXZ 0042ee80 f i AuthFrame.obj
 0001:0002de80       ?GetAvailableNumberOfTypes@?$VariableSizeChunkImpl@VRTTAServerSession@@@internal@util@@UBEHXZ 0042ee80 f i AuthFrame.obj
 0001:0002de80       ?GetAvailableNumberOfTypes@?$VariableSizeChunkImpl@VQueryNetCafeLogIn@@@internal@util@@UBEHXZ 0042ee80 f i QueryManager.obj
 0001:0002de80       ?GetAvailableNumberOfTypes@?$VariableSizeChunkImpl@VIntegratedBillingServerSession@@@internal@util@@UBEHXZ 0042ee80 f i AuthFrame.obj
 0001:0002de80       ?GetAvailableNumberOfTypes@?$VariableSizeChunkImpl@VQueryAuthLogUpdate@@@internal@util@@UBEHXZ 0042ee80 f i QueryManager.obj
 0001:0002de80       ?GetAvailableNumberOfTypes@?$VariableSizeChunkImpl@VQueryNetCafeLog@@@internal@util@@UBEHXZ 0042ee80 f i QueryManager.obj
 0001:0002de80       ?GetAvailableNumberOfTypes@?$VariableSizeChunkImpl@VQueryGspGetAccount@nsGSP@@@internal@util@@UBEHXZ 0042ee80 f i QueryManager.obj
 0001:0002de80       ?GetAvailableNumberOfTypes@?$VariableSizeChunkImpl@VQueryEnd@@@internal@util@@UBEHXZ 0042ee80 f i QueryManager.obj
 0001:0002de80       ?GetAvailableNumberOfTypes@?$VariableSizeChunkImpl@VQueryAuth@@@internal@util@@UBEHXZ 0042ee80 f i QueryManager.obj
 0001:0002de80       ?GetAvailableNumberOfTypes@?$VariableSizeChunkImpl@VQueryAuthLog@@@internal@util@@UBEHXZ 0042ee80 f i QueryManager.obj
 0001:0002de80       ?GetAvailableNumberOfTypes@?$VariableSizeChunkImpl@VQueryGspChangeUserState@nsGSP@@@internal@util@@UBEHXZ 0042ee80 f i QueryManager.obj
 0001:0002de80       ?GetAvailableNumberOfTypes@?$VariableSizeChunkImpl@VQueryNetCafe2ndAuth@@@internal@util@@UBEHXZ 0042ee80 f i QueryManager.obj
 0001:0002de80       ?GetAvailableNumberOfTypes@?$VariableSizeChunkImpl@VQueryGameVersionUpdate@@@internal@util@@UBEHXZ 0042ee80 f i QueryManager.obj
 0001:0002de80       ?GetAvailableNumberOfTypes@?$VariableSizeChunkImpl@VQueryGspGetAccountByGuid@nsGSP@@@internal@util@@UBEHXZ 0042ee80 f i QueryManager.obj
 0001:0002de80       ?GetAvailableNumberOfTypes@?$VariableSizeChunkImpl@VQueryUserId@@@internal@util@@UBEHXZ 0042ee80 f i QueryManager.obj
 0001:0002de80       ?GetAvailableNumberOfTypes@?$VariableSizeChunkImpl@VQueryRecoverLocation@@@internal@util@@UBEHXZ 0042ee80 f i QueryManager.obj
 0001:0002de80       ?GetAvailableNumberOfTypes@?$VariableSizeChunkImpl@VQueryControlIp@@@internal@util@@UBEHXZ 0042ee80 f i QueryManager.obj
 0001:0002de80       ?GetAvailableNumberOfTypes@?$VariableSizeChunkImpl@UAccountInfo@@@internal@util@@UBEHXZ 0042ee80 f i AccountManager.obj
 0001:0002de80       ?GetAvailableNumberOfTypes@?$VariableSizeChunkImpl@VQueryUpdateTokenKey@@@internal@util@@UBEHXZ 0042ee80 f i QueryManager.obj
 0001:0002de80       ?GetAvailableNumberOfTypes@?$VariableSizeChunkImpl@VQueryGspLoggingUserState@nsGSP@@@internal@util@@UBEHXZ 0042ee80 f i QueryManager.obj
 0001:0002de80       ?GetAvailableNumberOfTypes@?$VariableSizeChunkImpl@VQueryUserStsChange@@@internal@util@@UBEHXZ 0042ee80 f i QueryManager.obj
 0001:0002de80       ?GetAvailableNumberOfTypes@?$VariableSizeChunkImpl@VQueryCheckPassword@@@internal@util@@UBEHXZ 0042ee80 f i QueryManager.obj
 0001:0002de80       ?GetAvailableNumberOfTypes@?$VariableSizeChunkImpl@VQuerySelectPCRoomIPList@@@internal@util@@UBEHXZ 0042ee80 f i QueryManager.obj
 0001:0002de80       ?GetAvailableNumberOfTypes@?$VariableSizeChunkImpl@VTempServerSession@@@internal@util@@UBEHXZ 0042ee80 f i AuthFrame.obj
 0001:0002de80       ?GetAvailableNumberOfTypes@?$VariableSizeChunkImpl@VLoginFrontServerSession@@@internal@util@@UBEHXZ 0042ee80 f i AuthFrame.obj
 0001:0002de80       ?GetAvailableNumberOfTypes@?$VariableSizeChunkImpl@VQueryAuthFailCount@@@internal@util@@UBEHXZ 0042ee80 f i QueryManager.obj
 0001:0002dea0       ?Alloc@?$FixedSizeChunkImpl@VQueryGspCheckAuthKey@nsGSP@@@internal@util@@UAEPAXXZ 0042eea0 f i QueryManager.obj
 0001:0002df60       ?Alloc@?$NotUseChunkImpl@VQueryGspChangeUserState@nsGSP@@@internal@util@@UAEPAXXZ 0042ef60 f i QueryManager.obj
 0001:0002dff0       ?Alloc@?$FixedSizeChunkImpl@VQueryGspChangeUserState@nsGSP@@@internal@util@@UAEPAXXZ 0042eff0 f i QueryManager.obj
 0001:0002e0b0       ?Alloc@?$NotUseChunkImpl@VQueryGspLoggingUserState@nsGSP@@@internal@util@@UAEPAXXZ 0042f0b0 f i QueryManager.obj
 0001:0002e140       ?Initialize@?$VariableSizeChunkImpl@VQueryUpdateTokenKey@@@internal@util@@UAE_NIIPBD@Z 0042f140 f i QueryManager.obj
 0001:0002e140       ?Initialize@?$VariableSizeChunkImpl@VQueryUserId@@@internal@util@@UAE_NIIPBD@Z 0042f140 f i QueryManager.obj
 0001:0002e140       ?Initialize@?$VariableSizeChunkImpl@VQueryAuthLog@@@internal@util@@UAE_NIIPBD@Z 0042f140 f i QueryManager.obj
 0001:0002e140       ?Initialize@?$VariableSizeChunkImpl@VRTTAServerSession@@@internal@util@@UAE_NIIPBD@Z 0042f140 f i AuthFrame.obj
 0001:0002e140       ?Initialize@?$VariableSizeChunkImpl@UAccountInfo@@@internal@util@@UAE_NIIPBD@Z 0042f140 f i AccountManager.obj
 0001:0002e140       ?Initialize@?$VariableSizeChunkImpl@VQueryAuth@@@internal@util@@UAE_NIIPBD@Z 0042f140 f i QueryManager.obj
 0001:0002e140       ?Initialize@?$VariableSizeChunkImpl@VQueryNetCafe2ndAuth@@@internal@util@@UAE_NIIPBD@Z 0042f140 f i QueryManager.obj
 0001:0002e140       ?Initialize@?$VariableSizeChunkImpl@VLoginFrontServerSession@@@internal@util@@UAE_NIIPBD@Z 0042f140 f i AuthFrame.obj
 0001:0002e140       ?Initialize@?$VariableSizeChunkImpl@VQueryGspLoggingUserState@nsGSP@@@internal@util@@UAE_NIIPBD@Z 0042f140 f i QueryManager.obj
 0001:0002e140       ?Initialize@?$VariableSizeChunkImpl@VQueryEnd@@@internal@util@@UAE_NIIPBD@Z 0042f140 f i QueryManager.obj
 0001:0002e140       ?Initialize@?$VariableSizeChunkImpl@VQueryGspGetAccount@nsGSP@@@internal@util@@UAE_NIIPBD@Z 0042f140 f i QueryManager.obj
 0001:0002e140       ?Initialize@?$VariableSizeChunkImpl@VQueryGspCheckAuthKey@nsGSP@@@internal@util@@UAE_NIIPBD@Z 0042f140 f i QueryManager.obj
 0001:0002e140       ?Initialize@?$VariableSizeChunkImpl@VQueryNetCafeLogIn@@@internal@util@@UAE_NIIPBD@Z 0042f140 f i QueryManager.obj
 0001:0002e140       ?Initialize@?$VariableSizeChunkImpl@VQueryGspGetAccountByGuid@nsGSP@@@internal@util@@UAE_NIIPBD@Z 0042f140 f i QueryManager.obj
 0001:0002e140       ?Initialize@?$VariableSizeChunkImpl@VAuthAgentServerSession@@@internal@util@@UAE_NIIPBD@Z 0042f140 f i AuthFrame.obj
 0001:0002e140       ?Initialize@?$VariableSizeChunkImpl@VQueryControlIp@@@internal@util@@UAE_NIIPBD@Z 0042f140 f i QueryManager.obj
 0001:0002e140       ?Initialize@?$VariableSizeChunkImpl@VQueryNetCafeLog@@@internal@util@@UAE_NIIPBD@Z 0042f140 f i QueryManager.obj
 0001:0002e140       ?Initialize@?$VariableSizeChunkImpl@VQueryAuthLogUpdate@@@internal@util@@UAE_NIIPBD@Z 0042f140 f i QueryManager.obj
 0001:0002e140       ?Initialize@?$VariableSizeChunkImpl@VQueryGspChangeUserState@nsGSP@@@internal@util@@UAE_NIIPBD@Z 0042f140 f i QueryManager.obj
 0001:0002e140       ?Initialize@?$VariableSizeChunkImpl@VIntegratedBillingServerSession@@@internal@util@@UAE_NIIPBD@Z 0042f140 f i AuthFrame.obj
 0001:0002e140       ?Initialize@?$VariableSizeChunkImpl@VQueryGameVersionUpdate@@@internal@util@@UAE_NIIPBD@Z 0042f140 f i QueryManager.obj
 0001:0002e140       ?Initialize@?$VariableSizeChunkImpl@VTempServerSession@@@internal@util@@UAE_NIIPBD@Z 0042f140 f i AuthFrame.obj
 0001:0002e140       ?Initialize@?$VariableSizeChunkImpl@VQueryRecoverLocation@@@internal@util@@UAE_NIIPBD@Z 0042f140 f i QueryManager.obj
 0001:0002e140       ?Initialize@?$VariableSizeChunkImpl@VQueryAuthFailCount@@@internal@util@@UAE_NIIPBD@Z 0042f140 f i QueryManager.obj
 0001:0002e140       ?Initialize@?$VariableSizeChunkImpl@VQueryCheckPassword@@@internal@util@@UAE_NIIPBD@Z 0042f140 f i QueryManager.obj
 0001:0002e140       ?Initialize@?$VariableSizeChunkImpl@VQueryUserStsChange@@@internal@util@@UAE_NIIPBD@Z 0042f140 f i QueryManager.obj
 0001:0002e140       ?Initialize@?$VariableSizeChunkImpl@VQuerySelectPCRoomIPList@@@internal@util@@UAE_NIIPBD@Z 0042f140 f i QueryManager.obj
 0001:0002e170       ?Alloc@?$FixedSizeChunkImpl@VQueryGspLoggingUserState@nsGSP@@@internal@util@@UAEPAXXZ 0042f170 f i QueryManager.obj
 0001:0002e230       ?Alloc@?$NotUseChunkImpl@VQueryGspGetAccount@nsGSP@@@internal@util@@UAEPAXXZ 0042f230 f i QueryManager.obj
 0001:0002e2c0       ?Alloc@?$FixedSizeChunkImpl@VQueryGspGetAccount@nsGSP@@@internal@util@@UAEPAXXZ 0042f2c0 f i QueryManager.obj
 0001:0002e380       ?Alloc@?$NotUseChunkImpl@VQueryGspGetAccountByGuid@nsGSP@@@internal@util@@UAEPAXXZ 0042f380 f i QueryManager.obj
 0001:0002e410       ?Free@?$VariableSizeChunkImpl@VQueryAuthFailCount@@@internal@util@@UAEXQAX@Z 0042f410 f i QueryManager.obj
 0001:0002e410       ?Free@?$VariableSizeChunkImpl@VQueryUserId@@@internal@util@@UAEXQAX@Z 0042f410 f i QueryManager.obj
 0001:0002e410       ?Free@?$VariableSizeChunkImpl@VQueryGspChangeUserState@nsGSP@@@internal@util@@UAEXQAX@Z 0042f410 f i QueryManager.obj
 0001:0002e410       ?Free@?$VariableSizeChunkImpl@VTempServerSession@@@internal@util@@UAEXQAX@Z 0042f410 f i AuthFrame.obj
 0001:0002e410       ?Free@?$VariableSizeChunkImpl@VRTTAServerSession@@@internal@util@@UAEXQAX@Z 0042f410 f i AuthFrame.obj
 0001:0002e410       ?Free@?$VariableSizeChunkImpl@UAccountInfo@@@internal@util@@UAEXQAX@Z 0042f410 f i AccountManager.obj
 0001:0002e410       ?Free@?$VariableSizeChunkImpl@VQueryRecoverLocation@@@internal@util@@UAEXQAX@Z 0042f410 f i QueryManager.obj
 0001:0002e410       ?Free@?$VariableSizeChunkImpl@VQuerySelectPCRoomIPList@@@internal@util@@UAEXQAX@Z 0042f410 f i QueryManager.obj
 0001:0002e410       ?Free@?$VariableSizeChunkImpl@VQueryUserStsChange@@@internal@util@@UAEXQAX@Z 0042f410 f i QueryManager.obj
 0001:0002e410       ?Free@?$VariableSizeChunkImpl@VQueryAuthLog@@@internal@util@@UAEXQAX@Z 0042f410 f i QueryManager.obj
 0001:0002e410       ?Free@?$VariableSizeChunkImpl@VQueryControlIp@@@internal@util@@UAEXQAX@Z 0042f410 f i QueryManager.obj
 0001:0002e410       ?Free@?$VariableSizeChunkImpl@VQueryGspLoggingUserState@nsGSP@@@internal@util@@UAEXQAX@Z 0042f410 f i QueryManager.obj
 0001:0002e410       ?Free@?$VariableSizeChunkImpl@VQueryUpdateTokenKey@@@internal@util@@UAEXQAX@Z 0042f410 f i QueryManager.obj
 0001:0002e410       ?Free@?$VariableSizeChunkImpl@VQueryGspCheckAuthKey@nsGSP@@@internal@util@@UAEXQAX@Z 0042f410 f i QueryManager.obj
 0001:0002e410       ?Free@?$VariableSizeChunkImpl@VQueryNetCafeLog@@@internal@util@@UAEXQAX@Z 0042f410 f i QueryManager.obj
 0001:0002e410       ?Free@?$VariableSizeChunkImpl@VQueryEnd@@@internal@util@@UAEXQAX@Z 0042f410 f i QueryManager.obj
 0001:0002e410       ?Free@?$VariableSizeChunkImpl@VQueryAuthLogUpdate@@@internal@util@@UAEXQAX@Z 0042f410 f i QueryManager.obj
 0001:0002e410       ?Free@?$VariableSizeChunkImpl@VAuthAgentServerSession@@@internal@util@@UAEXQAX@Z 0042f410 f i AuthFrame.obj
 0001:0002e410       ?Free@?$VariableSizeChunkImpl@VQueryAuth@@@internal@util@@UAEXQAX@Z 0042f410 f i QueryManager.obj
 0001:0002e410       ?Free@?$VariableSizeChunkImpl@VQueryGameVersionUpdate@@@internal@util@@UAEXQAX@Z 0042f410 f i QueryManager.obj
 0001:0002e410       ?Free@?$VariableSizeChunkImpl@VIntegratedBillingServerSession@@@internal@util@@UAEXQAX@Z 0042f410 f i AuthFrame.obj
 0001:0002e410       ?Free@?$VariableSizeChunkImpl@VLoginFrontServerSession@@@internal@util@@UAEXQAX@Z 0042f410 f i AuthFrame.obj
 0001:0002e410       ?Free@?$VariableSizeChunkImpl@VQueryNetCafeLogIn@@@internal@util@@UAEXQAX@Z 0042f410 f i QueryManager.obj
 0001:0002e410       ?Free@?$VariableSizeChunkImpl@VQueryCheckPassword@@@internal@util@@UAEXQAX@Z 0042f410 f i QueryManager.obj
 0001:0002e410       ?Free@?$VariableSizeChunkImpl@VQueryNetCafe2ndAuth@@@internal@util@@UAEXQAX@Z 0042f410 f i QueryManager.obj
 0001:0002e410       ?Free@?$VariableSizeChunkImpl@VQueryGspGetAccount@nsGSP@@@internal@util@@UAEXQAX@Z 0042f410 f i QueryManager.obj
 0001:0002e410       ?Free@?$VariableSizeChunkImpl@VQueryGspGetAccountByGuid@nsGSP@@@internal@util@@UAEXQAX@Z 0042f410 f i QueryManager.obj
 0001:0002e430       ?SetTypeName@?$VariableSizeChunkImpl@VQueryGspChangeUserState@nsGSP@@@internal@util@@UAEXPBD@Z 0042f430 f i QueryManager.obj
 0001:0002e430       ?SetTypeName@?$VariableSizeChunkImpl@VQueryUserStsChange@@@internal@util@@UAEXPBD@Z 0042f430 f i QueryManager.obj
 0001:0002e430       ?SetTypeName@?$VariableSizeChunkImpl@VQueryAuthLog@@@internal@util@@UAEXPBD@Z 0042f430 f i QueryManager.obj
 0001:0002e430       ?SetTypeName@?$VariableSizeChunkImpl@VQueryGspGetAccountByGuid@nsGSP@@@internal@util@@UAEXPBD@Z 0042f430 f i QueryManager.obj
 0001:0002e430       ?SetTypeName@?$VariableSizeChunkImpl@VQueryUserId@@@internal@util@@UAEXPBD@Z 0042f430 f i QueryManager.obj
 0001:0002e430       ?SetTypeName@?$VariableSizeChunkImpl@VQueryGspLoggingUserState@nsGSP@@@internal@util@@UAEXPBD@Z 0042f430 f i QueryManager.obj
 0001:0002e430       ?SetTypeName@?$VariableSizeChunkImpl@VQueryGspGetAccount@nsGSP@@@internal@util@@UAEXPBD@Z 0042f430 f i QueryManager.obj
 0001:0002e430       ?SetTypeName@?$VariableSizeChunkImpl@VQueryRecoverLocation@@@internal@util@@UAEXPBD@Z 0042f430 f i QueryManager.obj
 0001:0002e430       ?SetTypeName@?$VariableSizeChunkImpl@VQueryControlIp@@@internal@util@@UAEXPBD@Z 0042f430 f i QueryManager.obj
 0001:0002e430       ?SetTypeName@?$VariableSizeChunkImpl@VQueryAuth@@@internal@util@@UAEXPBD@Z 0042f430 f i QueryManager.obj
 0001:0002e430       ?SetTypeName@?$VariableSizeChunkImpl@VQueryGspCheckAuthKey@nsGSP@@@internal@util@@UAEXPBD@Z 0042f430 f i QueryManager.obj
 0001:0002e430       ?SetTypeName@?$VariableSizeChunkImpl@VQueryUpdateTokenKey@@@internal@util@@UAEXPBD@Z 0042f430 f i QueryManager.obj
 0001:0002e430       ?SetTypeName@?$VariableSizeChunkImpl@VQuerySelectPCRoomIPList@@@internal@util@@UAEXPBD@Z 0042f430 f i QueryManager.obj
 0001:0002e430       ?SetTypeName@?$VariableSizeChunkImpl@VQueryNetCafeLogIn@@@internal@util@@UAEXPBD@Z 0042f430 f i QueryManager.obj
 0001:0002e430       ?SetTypeName@?$VariableSizeChunkImpl@VLoginFrontServerSession@@@internal@util@@UAEXPBD@Z 0042f430 f i AuthFrame.obj
 0001:0002e430       ?SetTypeName@?$VariableSizeChunkImpl@VQueryEnd@@@internal@util@@UAEXPBD@Z 0042f430 f i QueryManager.obj
 0001:0002e430       ?SetTypeName@?$VariableSizeChunkImpl@VQueryAuthFailCount@@@internal@util@@UAEXPBD@Z 0042f430 f i QueryManager.obj
 0001:0002e430       ?SetTypeName@?$VariableSizeChunkImpl@VQueryAuthLogUpdate@@@internal@util@@UAEXPBD@Z 0042f430 f i QueryManager.obj
 0001:0002e430       ?SetTypeName@?$VariableSizeChunkImpl@VRTTAServerSession@@@internal@util@@UAEXPBD@Z 0042f430 f i AuthFrame.obj
 0001:0002e430       ?SetTypeName@?$VariableSizeChunkImpl@UAccountInfo@@@internal@util@@UAEXPBD@Z 0042f430 f i AccountManager.obj
 0001:0002e430       ?SetTypeName@?$VariableSizeChunkImpl@VAuthAgentServerSession@@@internal@util@@UAEXPBD@Z 0042f430 f i AuthFrame.obj
 0001:0002e430       ?SetTypeName@?$VariableSizeChunkImpl@VTempServerSession@@@internal@util@@UAEXPBD@Z 0042f430 f i AuthFrame.obj
 0001:0002e430       ?SetTypeName@?$VariableSizeChunkImpl@VIntegratedBillingServerSession@@@internal@util@@UAEXPBD@Z 0042f430 f i AuthFrame.obj
 0001:0002e430       ?SetTypeName@?$VariableSizeChunkImpl@VQueryGameVersionUpdate@@@internal@util@@UAEXPBD@Z 0042f430 f i QueryManager.obj
 0001:0002e430       ?SetTypeName@?$VariableSizeChunkImpl@VQueryNetCafeLog@@@internal@util@@UAEXPBD@Z 0042f430 f i QueryManager.obj
 0001:0002e430       ?SetTypeName@?$VariableSizeChunkImpl@VQueryNetCafe2ndAuth@@@internal@util@@UAEXPBD@Z 0042f430 f i QueryManager.obj
 0001:0002e430       ?SetTypeName@?$VariableSizeChunkImpl@VQueryCheckPassword@@@internal@util@@UAEXPBD@Z 0042f430 f i QueryManager.obj
 0001:0002e450       ?Alloc@?$FixedSizeChunkImpl@VQueryGspGetAccountByGuid@nsGSP@@@internal@util@@UAEPAXXZ 0042f450 f i QueryManager.obj
 0001:0002e510       ?Alloc@?$NotUseChunkImpl@VQueryUpdateTokenKey@@@internal@util@@UAEPAXXZ 0042f510 f i QueryManager.obj
 0001:0002e5a0       ?Alloc@?$FixedSizeChunkImpl@VQueryUpdateTokenKey@@@internal@util@@UAEPAXXZ 0042f5a0 f i QueryManager.obj
 0001:0002e660       ?Alloc@?$NotUseChunkImpl@VQuerySelectPCRoomIPList@@@internal@util@@UAEPAXXZ 0042f660 f i QueryManager.obj
 0001:0002e6f0       ?Alloc@?$FixedSizeChunkImpl@VQuerySelectPCRoomIPList@@@internal@util@@UAEPAXXZ 0042f6f0 f i QueryManager.obj
 0001:0002e7b0       ?Alloc@?$NotUseChunkImpl@VQueryCheckPassword@@@internal@util@@UAEPAXXZ 0042f7b0 f i QueryManager.obj
 0001:0002e840       ?Free@?$NotUseChunkImpl@VQueryAuthLogUpdate@@@internal@util@@UAEXQAX@Z 0042f840 f i QueryManager.obj
 0001:0002e840       ?Free@?$NotUseChunkImpl@VQueryUserId@@@internal@util@@UAEXQAX@Z 0042f840 f i QueryManager.obj
 0001:0002e840       ?Free@?$NotUseChunkImpl@VQueryGspGetAccountByGuid@nsGSP@@@internal@util@@UAEXQAX@Z 0042f840 f i QueryManager.obj
 0001:0002e840       ?Free@?$NotUseChunkImpl@VIntegratedBillingServerSession@@@internal@util@@UAEXQAX@Z 0042f840 f i AuthFrame.obj
 0001:0002e840       ?Free@?$NotUseChunkImpl@VQueryNetCafeLogIn@@@internal@util@@UAEXQAX@Z 0042f840 f i QueryManager.obj
 0001:0002e840       ?Free@?$NotUseChunkImpl@VQueryNetCafeLog@@@internal@util@@UAEXQAX@Z 0042f840 f i QueryManager.obj
 0001:0002e840       ?Free@?$NotUseChunkImpl@VQuerySelectPCRoomIPList@@@internal@util@@UAEXQAX@Z 0042f840 f i QueryManager.obj
 0001:0002e840       ?Free@?$NotUseChunkImpl@VQueryUserStsChange@@@internal@util@@UAEXQAX@Z 0042f840 f i QueryManager.obj
 0001:0002e840       ?Free@?$NotUseChunkImpl@VQueryRecoverLocation@@@internal@util@@UAEXQAX@Z 0042f840 f i QueryManager.obj
 0001:0002e840       ?Free@?$NotUseChunkImpl@VQueryCheckPassword@@@internal@util@@UAEXQAX@Z 0042f840 f i QueryManager.obj
 0001:0002e840       ?Free@?$NotUseChunkImpl@VLoginFrontServerSession@@@internal@util@@UAEXQAX@Z 0042f840 f i AuthFrame.obj
 0001:0002e840       ?Free@?$NotUseChunkImpl@VQueryGameVersionUpdate@@@internal@util@@UAEXQAX@Z 0042f840 f i QueryManager.obj
 0001:0002e840       ?Free@?$NotUseChunkImpl@VQueryEnd@@@internal@util@@UAEXQAX@Z 0042f840 f i QueryManager.obj
 0001:0002e840       ?Free@?$NotUseChunkImpl@VQueryAuthLog@@@internal@util@@UAEXQAX@Z 0042f840 f i QueryManager.obj
 0001:0002e840       ?Free@?$NotUseChunkImpl@VQueryGspLoggingUserState@nsGSP@@@internal@util@@UAEXQAX@Z 0042f840 f i QueryManager.obj
 0001:0002e840       ?Free@?$NotUseChunkImpl@VRTTAServerSession@@@internal@util@@UAEXQAX@Z 0042f840 f i AuthFrame.obj
 0001:0002e840       ?Free@?$NotUseChunkImpl@VAuthAgentServerSession@@@internal@util@@UAEXQAX@Z 0042f840 f i AuthFrame.obj
 0001:0002e840       ?Free@?$NotUseChunkImpl@VTempServerSession@@@internal@util@@UAEXQAX@Z 0042f840 f i AuthFrame.obj
 0001:0002e840       ?Free@?$NotUseChunkImpl@VQueryControlIp@@@internal@util@@UAEXQAX@Z 0042f840 f i QueryManager.obj
 0001:0002e840       ?Free@?$NotUseChunkImpl@VQueryNetCafe2ndAuth@@@internal@util@@UAEXQAX@Z 0042f840 f i QueryManager.obj
 0001:0002e840       ?Free@?$NotUseChunkImpl@VQueryGspChangeUserState@nsGSP@@@internal@util@@UAEXQAX@Z 0042f840 f i QueryManager.obj
 0001:0002e840       ?Free@?$NotUseChunkImpl@VQueryGspGetAccount@nsGSP@@@internal@util@@UAEXQAX@Z 0042f840 f i QueryManager.obj
 0001:0002e840       ?Free@?$NotUseChunkImpl@VQueryAuthFailCount@@@internal@util@@UAEXQAX@Z 0042f840 f i QueryManager.obj
 0001:0002e840       ?Free@?$NotUseChunkImpl@VQueryGspCheckAuthKey@nsGSP@@@internal@util@@UAEXQAX@Z 0042f840 f i QueryManager.obj
 0001:0002e840       ?Free@?$NotUseChunkImpl@VQueryUpdateTokenKey@@@internal@util@@UAEXQAX@Z 0042f840 f i QueryManager.obj
 0001:0002e840       ?Free@?$NotUseChunkImpl@VQueryAuth@@@internal@util@@UAEXQAX@Z 0042f840 f i QueryManager.obj
 0001:0002e870       ?Release@?$FixedSizeChunkImpl@VTempServerSession@@@internal@util@@UAEXXZ 0042f870 f i AuthFrame.obj
 0001:0002e870       ?Release@?$FixedSizeChunkImpl@VQueryGspCheckAuthKey@nsGSP@@@internal@util@@UAEXXZ 0042f870 f i QueryManager.obj
 0001:0002e870       ?Release@?$FixedSizeChunkImpl@VQueryUpdateTokenKey@@@internal@util@@UAEXXZ 0042f870 f i QueryManager.obj
 0001:0002e870       ?Release@?$FixedSizeChunkImpl@VQueryAuth@@@internal@util@@UAEXXZ 0042f870 f i QueryManager.obj
 0001:0002e870       ?Release@?$FixedSizeChunkImpl@VQueryNetCafeLogIn@@@internal@util@@UAEXXZ 0042f870 f i QueryManager.obj
 0001:0002e870       ?Release@?$FixedSizeChunkImpl@VQueryCheckPassword@@@internal@util@@UAEXXZ 0042f870 f i QueryManager.obj
 0001:0002e870       ?Release@?$FixedSizeChunkImpl@VQueryRecoverLocation@@@internal@util@@UAEXXZ 0042f870 f i QueryManager.obj
 0001:0002e870       ?Release@?$FixedSizeChunkImpl@VQueryEnd@@@internal@util@@UAEXXZ 0042f870 f i QueryManager.obj
 0001:0002e870       ?Release@?$FixedSizeChunkImpl@VQueryControlIp@@@internal@util@@UAEXXZ 0042f870 f i QueryManager.obj
 0001:0002e870       ?Release@?$FixedSizeChunkImpl@VQueryAuthLogUpdate@@@internal@util@@UAEXXZ 0042f870 f i QueryManager.obj
 0001:0002e870       ?Release@?$FixedSizeChunkImpl@VQueryUserStsChange@@@internal@util@@UAEXXZ 0042f870 f i QueryManager.obj
 0001:0002e870       ?Release@?$FixedSizeChunkImpl@VQueryAuthLog@@@internal@util@@UAEXXZ 0042f870 f i QueryManager.obj
 0001:0002e870       ?Release@?$FixedSizeChunkImpl@VQueryGspGetAccount@nsGSP@@@internal@util@@UAEXXZ 0042f870 f i QueryManager.obj
 0001:0002e870       ?Release@?$FixedSizeChunkImpl@UAccountInfo@@@internal@util@@UAEXXZ 0042f870 f i AccountManager.obj
 0001:0002e870       ?Release@?$FixedSizeChunkImpl@VQuerySelectPCRoomIPList@@@internal@util@@UAEXXZ 0042f870 f i QueryManager.obj
 0001:0002e870       ?Release@?$FixedSizeChunkImpl@VIntegratedBillingServerSession@@@internal@util@@UAEXXZ 0042f870 f i AuthFrame.obj
 0001:0002e870       ?Release@?$FixedSizeChunkImpl@VLoginFrontServerSession@@@internal@util@@UAEXXZ 0042f870 f i AuthFrame.obj
 0001:0002e870       ?Release@?$FixedSizeChunkImpl@VQueryAuthFailCount@@@internal@util@@UAEXXZ 0042f870 f i QueryManager.obj
 0001:0002e870       ?Release@?$FixedSizeChunkImpl@VQueryNetCafe2ndAuth@@@internal@util@@UAEXXZ 0042f870 f i QueryManager.obj
 0001:0002e870       ?Release@?$FixedSizeChunkImpl@VQueryGspChangeUserState@nsGSP@@@internal@util@@UAEXXZ 0042f870 f i QueryManager.obj
 0001:0002e870       ?Release@?$FixedSizeChunkImpl@VQueryGameVersionUpdate@@@internal@util@@UAEXXZ 0042f870 f i QueryManager.obj
 0001:0002e870       ?Release@?$FixedSizeChunkImpl@VQueryGspGetAccountByGuid@nsGSP@@@internal@util@@UAEXXZ 0042f870 f i QueryManager.obj
 0001:0002e870       ?Release@?$FixedSizeChunkImpl@VQueryNetCafeLog@@@internal@util@@UAEXXZ 0042f870 f i QueryManager.obj
 0001:0002e870       ?Release@?$FixedSizeChunkImpl@VQueryGspLoggingUserState@nsGSP@@@internal@util@@UAEXXZ 0042f870 f i QueryManager.obj
 0001:0002e870       ?Release@?$FixedSizeChunkImpl@VAuthAgentServerSession@@@internal@util@@UAEXXZ 0042f870 f i AuthFrame.obj
 0001:0002e870       ?Release@?$FixedSizeChunkImpl@VQueryUserId@@@internal@util@@UAEXXZ 0042f870 f i QueryManager.obj
 0001:0002e870       ?Release@?$FixedSizeChunkImpl@VRTTAServerSession@@@internal@util@@UAEXXZ 0042f870 f i AuthFrame.obj
 0001:0002e890       ?Alloc@?$FixedSizeChunkImpl@VQueryCheckPassword@@@internal@util@@UAEPAXXZ 0042f890 f i QueryManager.obj
 0001:0002e950       ?Alloc@?$NotUseChunkImpl@VQueryEnd@@@internal@util@@UAEPAXXZ 0042f950 f i QueryManager.obj
 0001:0002e9f0       ?GetDBType@QueryEnd@@UAE?AW4DB_TYPE@@XZ 0042f9f0 f i QueryManager.obj
 0001:0002ea00       ?Alloc@?$FixedSizeChunkImpl@VQueryEnd@@@internal@util@@UAEPAXXZ 0042fa00 f i QueryManager.obj
 0001:0002ead0       ??_G?$NotUseChunkImpl@VQueryAuth@@@internal@util@@UAEPAXI@Z 0042fad0 f i QueryManager.obj
 0001:0002ead0       ??_E?$NotUseChunkImpl@VQueryAuth@@@internal@util@@UAEPAXI@Z 0042fad0 f i QueryManager.obj
 0001:0002eb10       ??_E?$VariableSizeChunkImpl@VQueryAuth@@@internal@util@@UAEPAXI@Z 0042fb10 f i QueryManager.obj
 0001:0002eb10       ??_G?$VariableSizeChunkImpl@VQueryAuth@@@internal@util@@UAEPAXI@Z 0042fb10 f i QueryManager.obj
 0001:0002eba0       ??_G?$FixedSizeChunkImpl@VQueryAuth@@@internal@util@@UAEPAXI@Z 0042fba0 f i QueryManager.obj
 0001:0002eba0       ??_E?$FixedSizeChunkImpl@VQueryAuth@@@internal@util@@UAEPAXI@Z 0042fba0 f i QueryManager.obj
 0001:0002ec20       ??_E?$NotUseChunkImpl@VQueryUserStsChange@@@internal@util@@UAEPAXI@Z 0042fc20 f i QueryManager.obj
 0001:0002ec20       ??_G?$NotUseChunkImpl@VQueryUserStsChange@@@internal@util@@UAEPAXI@Z 0042fc20 f i QueryManager.obj
 0001:0002ec60       ??_E?$VariableSizeChunkImpl@VQueryUserStsChange@@@internal@util@@UAEPAXI@Z 0042fc60 f i QueryManager.obj
 0001:0002ec60       ??_G?$VariableSizeChunkImpl@VQueryUserStsChange@@@internal@util@@UAEPAXI@Z 0042fc60 f i QueryManager.obj
 0001:0002ecf0       ??_E?$FixedSizeChunkImpl@VQueryUserStsChange@@@internal@util@@UAEPAXI@Z 0042fcf0 f i QueryManager.obj
 0001:0002ecf0       ??_G?$FixedSizeChunkImpl@VQueryUserStsChange@@@internal@util@@UAEPAXI@Z 0042fcf0 f i QueryManager.obj
 0001:0002ed70       ??_E?$NotUseChunkImpl@VQueryRecoverLocation@@@internal@util@@UAEPAXI@Z 0042fd70 f i QueryManager.obj
 0001:0002ed70       ??_G?$NotUseChunkImpl@VQueryRecoverLocation@@@internal@util@@UAEPAXI@Z 0042fd70 f i QueryManager.obj
 0001:0002edb0       ??_E?$VariableSizeChunkImpl@VQueryRecoverLocation@@@internal@util@@UAEPAXI@Z 0042fdb0 f i QueryManager.obj
 0001:0002edb0       ??_G?$VariableSizeChunkImpl@VQueryRecoverLocation@@@internal@util@@UAEPAXI@Z 0042fdb0 f i QueryManager.obj
 0001:0002ee40       ??_G?$FixedSizeChunkImpl@VQueryRecoverLocation@@@internal@util@@UAEPAXI@Z 0042fe40 f i QueryManager.obj
 0001:0002ee40       ??_E?$FixedSizeChunkImpl@VQueryRecoverLocation@@@internal@util@@UAEPAXI@Z 0042fe40 f i QueryManager.obj
 0001:0002eec0       ??_E?$NotUseChunkImpl@VQueryAuthLog@@@internal@util@@UAEPAXI@Z 0042fec0 f i QueryManager.obj
 0001:0002eec0       ??_G?$NotUseChunkImpl@VQueryAuthLog@@@internal@util@@UAEPAXI@Z 0042fec0 f i QueryManager.obj
 0001:0002ef00       ??_E?$VariableSizeChunkImpl@VQueryAuthLog@@@internal@util@@UAEPAXI@Z 0042ff00 f i QueryManager.obj
 0001:0002ef00       ??_G?$VariableSizeChunkImpl@VQueryAuthLog@@@internal@util@@UAEPAXI@Z 0042ff00 f i QueryManager.obj
 0001:0002ef90       ??_G?$FixedSizeChunkImpl@VQueryAuthLog@@@internal@util@@UAEPAXI@Z 0042ff90 f i QueryManager.obj
 0001:0002ef90       ??_E?$FixedSizeChunkImpl@VQueryAuthLog@@@internal@util@@UAEPAXI@Z 0042ff90 f i QueryManager.obj
 0001:0002f010       ??_G?$NotUseChunkImpl@VQueryControlIp@@@internal@util@@UAEPAXI@Z 00430010 f i QueryManager.obj
 0001:0002f010       ??_E?$NotUseChunkImpl@VQueryControlIp@@@internal@util@@UAEPAXI@Z 00430010 f i QueryManager.obj
 0001:0002f050       ??_E?$VariableSizeChunkImpl@VQueryControlIp@@@internal@util@@UAEPAXI@Z 00430050 f i QueryManager.obj
 0001:0002f050       ??_G?$VariableSizeChunkImpl@VQueryControlIp@@@internal@util@@UAEPAXI@Z 00430050 f i QueryManager.obj
 0001:0002f0e0       ??_G?$FixedSizeChunkImpl@VQueryControlIp@@@internal@util@@UAEPAXI@Z 004300e0 f i QueryManager.obj
 0001:0002f0e0       ??_E?$FixedSizeChunkImpl@VQueryControlIp@@@internal@util@@UAEPAXI@Z 004300e0 f i QueryManager.obj
 0001:0002f160       ??_E?$NotUseChunkImpl@VQueryGameVersionUpdate@@@internal@util@@UAEPAXI@Z 00430160 f i QueryManager.obj
 0001:0002f160       ??_G?$NotUseChunkImpl@VQueryGameVersionUpdate@@@internal@util@@UAEPAXI@Z 00430160 f i QueryManager.obj
 0001:0002f1a0       ??_E?$VariableSizeChunkImpl@VQueryGameVersionUpdate@@@internal@util@@UAEPAXI@Z 004301a0 f i QueryManager.obj
 0001:0002f1a0       ??_G?$VariableSizeChunkImpl@VQueryGameVersionUpdate@@@internal@util@@UAEPAXI@Z 004301a0 f i QueryManager.obj
 0001:0002f230       ??_E?$FixedSizeChunkImpl@VQueryGameVersionUpdate@@@internal@util@@UAEPAXI@Z 00430230 f i QueryManager.obj
 0001:0002f230       ??_G?$FixedSizeChunkImpl@VQueryGameVersionUpdate@@@internal@util@@UAEPAXI@Z 00430230 f i QueryManager.obj
 0001:0002f2b0       ??_G?$NotUseChunkImpl@VQueryAuthFailCount@@@internal@util@@UAEPAXI@Z 004302b0 f i QueryManager.obj
 0001:0002f2b0       ??_E?$NotUseChunkImpl@VQueryAuthFailCount@@@internal@util@@UAEPAXI@Z 004302b0 f i QueryManager.obj
 0001:0002f2f0       ??_G?$VariableSizeChunkImpl@VQueryAuthFailCount@@@internal@util@@UAEPAXI@Z 004302f0 f i QueryManager.obj
 0001:0002f2f0       ??_E?$VariableSizeChunkImpl@VQueryAuthFailCount@@@internal@util@@UAEPAXI@Z 004302f0 f i QueryManager.obj
 0001:0002f380       ??_G?$FixedSizeChunkImpl@VQueryAuthFailCount@@@internal@util@@UAEPAXI@Z 00430380 f i QueryManager.obj
 0001:0002f380       ??_E?$FixedSizeChunkImpl@VQueryAuthFailCount@@@internal@util@@UAEPAXI@Z 00430380 f i QueryManager.obj
 0001:0002f400       ??_G?$NotUseChunkImpl@VQueryAuthLogUpdate@@@internal@util@@UAEPAXI@Z 00430400 f i QueryManager.obj
 0001:0002f400       ??_E?$NotUseChunkImpl@VQueryAuthLogUpdate@@@internal@util@@UAEPAXI@Z 00430400 f i QueryManager.obj
 0001:0002f440       ??_G?$VariableSizeChunkImpl@VQueryAuthLogUpdate@@@internal@util@@UAEPAXI@Z 00430440 f i QueryManager.obj
 0001:0002f440       ??_E?$VariableSizeChunkImpl@VQueryAuthLogUpdate@@@internal@util@@UAEPAXI@Z 00430440 f i QueryManager.obj
 0001:0002f4d0       ??_E?$FixedSizeChunkImpl@VQueryAuthLogUpdate@@@internal@util@@UAEPAXI@Z 004304d0 f i QueryManager.obj
 0001:0002f4d0       ??_G?$FixedSizeChunkImpl@VQueryAuthLogUpdate@@@internal@util@@UAEPAXI@Z 004304d0 f i QueryManager.obj
 0001:0002f550       ??_E?$NotUseChunkImpl@VQueryNetCafeLog@@@internal@util@@UAEPAXI@Z 00430550 f i QueryManager.obj
 0001:0002f550       ??_G?$NotUseChunkImpl@VQueryNetCafeLog@@@internal@util@@UAEPAXI@Z 00430550 f i QueryManager.obj
 0001:0002f590       ??_E?$VariableSizeChunkImpl@VQueryNetCafeLog@@@internal@util@@UAEPAXI@Z 00430590 f i QueryManager.obj
 0001:0002f590       ??_G?$VariableSizeChunkImpl@VQueryNetCafeLog@@@internal@util@@UAEPAXI@Z 00430590 f i QueryManager.obj
 0001:0002f620       ??_G?$FixedSizeChunkImpl@VQueryNetCafeLog@@@internal@util@@UAEPAXI@Z 00430620 f i QueryManager.obj
 0001:0002f620       ??_E?$FixedSizeChunkImpl@VQueryNetCafeLog@@@internal@util@@UAEPAXI@Z 00430620 f i QueryManager.obj
 0001:0002f6a0       ??_E?$NotUseChunkImpl@VQueryNetCafeLogIn@@@internal@util@@UAEPAXI@Z 004306a0 f i QueryManager.obj
 0001:0002f6a0       ??_G?$NotUseChunkImpl@VQueryNetCafeLogIn@@@internal@util@@UAEPAXI@Z 004306a0 f i QueryManager.obj
 0001:0002f6e0       ??_E?$VariableSizeChunkImpl@VQueryNetCafeLogIn@@@internal@util@@UAEPAXI@Z 004306e0 f i QueryManager.obj
 0001:0002f6e0       ??_G?$VariableSizeChunkImpl@VQueryNetCafeLogIn@@@internal@util@@UAEPAXI@Z 004306e0 f i QueryManager.obj
 0001:0002f770       ??_E?$FixedSizeChunkImpl@VQueryNetCafeLogIn@@@internal@util@@UAEPAXI@Z 00430770 f i QueryManager.obj
 0001:0002f770       ??_G?$FixedSizeChunkImpl@VQueryNetCafeLogIn@@@internal@util@@UAEPAXI@Z 00430770 f i QueryManager.obj
 0001:0002f7f0       ??_E?$NotUseChunkImpl@VQueryNetCafe2ndAuth@@@internal@util@@UAEPAXI@Z 004307f0 f i QueryManager.obj
 0001:0002f7f0       ??_G?$NotUseChunkImpl@VQueryNetCafe2ndAuth@@@internal@util@@UAEPAXI@Z 004307f0 f i QueryManager.obj
 0001:0002f830       ??_E?$VariableSizeChunkImpl@VQueryNetCafe2ndAuth@@@internal@util@@UAEPAXI@Z 00430830 f i QueryManager.obj
 0001:0002f830       ??_G?$VariableSizeChunkImpl@VQueryNetCafe2ndAuth@@@internal@util@@UAEPAXI@Z 00430830 f i QueryManager.obj
 0001:0002f8c0       ??_E?$FixedSizeChunkImpl@VQueryNetCafe2ndAuth@@@internal@util@@UAEPAXI@Z 004308c0 f i QueryManager.obj
 0001:0002f8c0       ??_G?$FixedSizeChunkImpl@VQueryNetCafe2ndAuth@@@internal@util@@UAEPAXI@Z 004308c0 f i QueryManager.obj
 0001:0002f940       ??_E?$NotUseChunkImpl@VQueryUserId@@@internal@util@@UAEPAXI@Z 00430940 f i QueryManager.obj
 0001:0002f940       ??_G?$NotUseChunkImpl@VQueryUserId@@@internal@util@@UAEPAXI@Z 00430940 f i QueryManager.obj
 0001:0002f980       ??_G?$VariableSizeChunkImpl@VQueryUserId@@@internal@util@@UAEPAXI@Z 00430980 f i QueryManager.obj
 0001:0002f980       ??_E?$VariableSizeChunkImpl@VQueryUserId@@@internal@util@@UAEPAXI@Z 00430980 f i QueryManager.obj
 0001:0002fa10       ??_E?$FixedSizeChunkImpl@VQueryUserId@@@internal@util@@UAEPAXI@Z 00430a10 f i QueryManager.obj
 0001:0002fa10       ??_G?$FixedSizeChunkImpl@VQueryUserId@@@internal@util@@UAEPAXI@Z 00430a10 f i QueryManager.obj
 0001:0002fa90       ??_G?$NotUseChunkImpl@VQueryGspCheckAuthKey@nsGSP@@@internal@util@@UAEPAXI@Z 00430a90 f i QueryManager.obj
 0001:0002fa90       ??_E?$NotUseChunkImpl@VQueryGspCheckAuthKey@nsGSP@@@internal@util@@UAEPAXI@Z 00430a90 f i QueryManager.obj
 0001:0002fad0       ??_E?$VariableSizeChunkImpl@VQueryGspCheckAuthKey@nsGSP@@@internal@util@@UAEPAXI@Z 00430ad0 f i QueryManager.obj
 0001:0002fad0       ??_G?$VariableSizeChunkImpl@VQueryGspCheckAuthKey@nsGSP@@@internal@util@@UAEPAXI@Z 00430ad0 f i QueryManager.obj
 0001:0002fb60       ??_G?$FixedSizeChunkImpl@VQueryGspCheckAuthKey@nsGSP@@@internal@util@@UAEPAXI@Z 00430b60 f i QueryManager.obj
 0001:0002fb60       ??_E?$FixedSizeChunkImpl@VQueryGspCheckAuthKey@nsGSP@@@internal@util@@UAEPAXI@Z 00430b60 f i QueryManager.obj
 0001:0002fbe0       ??_G?$NotUseChunkImpl@VQueryGspChangeUserState@nsGSP@@@internal@util@@UAEPAXI@Z 00430be0 f i QueryManager.obj
 0001:0002fbe0       ??_E?$NotUseChunkImpl@VQueryGspChangeUserState@nsGSP@@@internal@util@@UAEPAXI@Z 00430be0 f i QueryManager.obj
 0001:0002fc20       ??_E?$VariableSizeChunkImpl@VQueryGspChangeUserState@nsGSP@@@internal@util@@UAEPAXI@Z 00430c20 f i QueryManager.obj
 0001:0002fc20       ??_G?$VariableSizeChunkImpl@VQueryGspChangeUserState@nsGSP@@@internal@util@@UAEPAXI@Z 00430c20 f i QueryManager.obj
 0001:0002fcb0       ??_G?$FixedSizeChunkImpl@VQueryGspChangeUserState@nsGSP@@@internal@util@@UAEPAXI@Z 00430cb0 f i QueryManager.obj
 0001:0002fcb0       ??_E?$FixedSizeChunkImpl@VQueryGspChangeUserState@nsGSP@@@internal@util@@UAEPAXI@Z 00430cb0 f i QueryManager.obj
 0001:0002fd30       ??_G?$NotUseChunkImpl@VQueryGspLoggingUserState@nsGSP@@@internal@util@@UAEPAXI@Z 00430d30 f i QueryManager.obj
 0001:0002fd30       ??_E?$NotUseChunkImpl@VQueryGspLoggingUserState@nsGSP@@@internal@util@@UAEPAXI@Z 00430d30 f i QueryManager.obj
 0001:0002fd70       ??_E?$VariableSizeChunkImpl@VQueryGspLoggingUserState@nsGSP@@@internal@util@@UAEPAXI@Z 00430d70 f i QueryManager.obj
 0001:0002fd70       ??_G?$VariableSizeChunkImpl@VQueryGspLoggingUserState@nsGSP@@@internal@util@@UAEPAXI@Z 00430d70 f i QueryManager.obj
 0001:0002fe00       ??_G?$FixedSizeChunkImpl@VQueryGspLoggingUserState@nsGSP@@@internal@util@@UAEPAXI@Z 00430e00 f i QueryManager.obj
 0001:0002fe00       ??_E?$FixedSizeChunkImpl@VQueryGspLoggingUserState@nsGSP@@@internal@util@@UAEPAXI@Z 00430e00 f i QueryManager.obj
 0001:0002fe80       ??_G?$NotUseChunkImpl@VQueryGspGetAccount@nsGSP@@@internal@util@@UAEPAXI@Z 00430e80 f i QueryManager.obj
 0001:0002fe80       ??_E?$NotUseChunkImpl@VQueryGspGetAccount@nsGSP@@@internal@util@@UAEPAXI@Z 00430e80 f i QueryManager.obj
 0001:0002fec0       ??_G?$VariableSizeChunkImpl@VQueryGspGetAccount@nsGSP@@@internal@util@@UAEPAXI@Z 00430ec0 f i QueryManager.obj
 0001:0002fec0       ??_E?$VariableSizeChunkImpl@VQueryGspGetAccount@nsGSP@@@internal@util@@UAEPAXI@Z 00430ec0 f i QueryManager.obj
 0001:0002ff50       ??_E?$FixedSizeChunkImpl@VQueryGspGetAccount@nsGSP@@@internal@util@@UAEPAXI@Z 00430f50 f i QueryManager.obj
 0001:0002ff50       ??_G?$FixedSizeChunkImpl@VQueryGspGetAccount@nsGSP@@@internal@util@@UAEPAXI@Z 00430f50 f i QueryManager.obj
 0001:0002ffd0       ??_E?$NotUseChunkImpl@VQueryGspGetAccountByGuid@nsGSP@@@internal@util@@UAEPAXI@Z 00430fd0 f i QueryManager.obj
 0001:0002ffd0       ??_G?$NotUseChunkImpl@VQueryGspGetAccountByGuid@nsGSP@@@internal@util@@UAEPAXI@Z 00430fd0 f i QueryManager.obj
 0001:00030010       ??_E?$VariableSizeChunkImpl@VQueryGspGetAccountByGuid@nsGSP@@@internal@util@@UAEPAXI@Z 00431010 f i QueryManager.obj
 0001:00030010       ??_G?$VariableSizeChunkImpl@VQueryGspGetAccountByGuid@nsGSP@@@internal@util@@UAEPAXI@Z 00431010 f i QueryManager.obj
 0001:000300a0       ??_G?$FixedSizeChunkImpl@VQueryGspGetAccountByGuid@nsGSP@@@internal@util@@UAEPAXI@Z 004310a0 f i QueryManager.obj
 0001:000300a0       ??_E?$FixedSizeChunkImpl@VQueryGspGetAccountByGuid@nsGSP@@@internal@util@@UAEPAXI@Z 004310a0 f i QueryManager.obj
 0001:00030120       ??_E?$NotUseChunkImpl@VQueryUpdateTokenKey@@@internal@util@@UAEPAXI@Z 00431120 f i QueryManager.obj
 0001:00030120       ??_G?$NotUseChunkImpl@VQueryUpdateTokenKey@@@internal@util@@UAEPAXI@Z 00431120 f i QueryManager.obj
 0001:00030160       ??_G?$VariableSizeChunkImpl@VQueryUpdateTokenKey@@@internal@util@@UAEPAXI@Z 00431160 f i QueryManager.obj
 0001:00030160       ??_E?$VariableSizeChunkImpl@VQueryUpdateTokenKey@@@internal@util@@UAEPAXI@Z 00431160 f i QueryManager.obj
 0001:000301f0       ??_G?$FixedSizeChunkImpl@VQueryUpdateTokenKey@@@internal@util@@UAEPAXI@Z 004311f0 f i QueryManager.obj
 0001:000301f0       ??_E?$FixedSizeChunkImpl@VQueryUpdateTokenKey@@@internal@util@@UAEPAXI@Z 004311f0 f i QueryManager.obj
 0001:00030270       ??_E?$NotUseChunkImpl@VQuerySelectPCRoomIPList@@@internal@util@@UAEPAXI@Z 00431270 f i QueryManager.obj
 0001:00030270       ??_G?$NotUseChunkImpl@VQuerySelectPCRoomIPList@@@internal@util@@UAEPAXI@Z 00431270 f i QueryManager.obj
 0001:000302b0       ??_G?$VariableSizeChunkImpl@VQuerySelectPCRoomIPList@@@internal@util@@UAEPAXI@Z 004312b0 f i QueryManager.obj
 0001:000302b0       ??_E?$VariableSizeChunkImpl@VQuerySelectPCRoomIPList@@@internal@util@@UAEPAXI@Z 004312b0 f i QueryManager.obj
 0001:00030340       ??_G?$FixedSizeChunkImpl@VQuerySelectPCRoomIPList@@@internal@util@@UAEPAXI@Z 00431340 f i QueryManager.obj
 0001:00030340       ??_E?$FixedSizeChunkImpl@VQuerySelectPCRoomIPList@@@internal@util@@UAEPAXI@Z 00431340 f i QueryManager.obj
 0001:000303c0       ??_G?$NotUseChunkImpl@VQueryCheckPassword@@@internal@util@@UAEPAXI@Z 004313c0 f i QueryManager.obj
 0001:000303c0       ??_E?$NotUseChunkImpl@VQueryCheckPassword@@@internal@util@@UAEPAXI@Z 004313c0 f i QueryManager.obj
 0001:00030400       ??_E?$VariableSizeChunkImpl@VQueryCheckPassword@@@internal@util@@UAEPAXI@Z 00431400 f i QueryManager.obj
 0001:00030400       ??_G?$VariableSizeChunkImpl@VQueryCheckPassword@@@internal@util@@UAEPAXI@Z 00431400 f i QueryManager.obj
 0001:00030490       ??_G?$FixedSizeChunkImpl@VQueryCheckPassword@@@internal@util@@UAEPAXI@Z 00431490 f i QueryManager.obj
 0001:00030490       ??_E?$FixedSizeChunkImpl@VQueryCheckPassword@@@internal@util@@UAEPAXI@Z 00431490 f i QueryManager.obj
 0001:00030510       ??_E?$NotUseChunkImpl@VQueryEnd@@@internal@util@@UAEPAXI@Z 00431510 f i QueryManager.obj
 0001:00030510       ??_G?$NotUseChunkImpl@VQueryEnd@@@internal@util@@UAEPAXI@Z 00431510 f i QueryManager.obj
 0001:00030550       ??_G?$VariableSizeChunkImpl@VQueryEnd@@@internal@util@@UAEPAXI@Z 00431550 f i QueryManager.obj
 0001:00030550       ??_E?$VariableSizeChunkImpl@VQueryEnd@@@internal@util@@UAEPAXI@Z 00431550 f i QueryManager.obj
 0001:000305e0       ??_G?$FixedSizeChunkImpl@VQueryEnd@@@internal@util@@UAEPAXI@Z 004315e0 f i QueryManager.obj
 0001:000305e0       ??_E?$FixedSizeChunkImpl@VQueryEnd@@@internal@util@@UAEPAXI@Z 004315e0 f i QueryManager.obj
 0001:00030660       ?Create@?$VariableSizeChunkImpl@VQueryAuth@@@internal@util@@CAXPAX@Z 00431660 f i QueryManager.obj
 0001:000306d0       ?Create@?$VariableSizeChunkImpl@VQueryUserStsChange@@@internal@util@@CAXPAX@Z 004316d0 f i QueryManager.obj
 0001:00030750       ?Create@?$VariableSizeChunkImpl@VQueryRecoverLocation@@@internal@util@@CAXPAX@Z 00431750 f i QueryManager.obj
 0001:000307c0       ?Create@?$VariableSizeChunkImpl@VQueryAuthLog@@@internal@util@@CAXPAX@Z 004317c0 f i QueryManager.obj
 0001:00030830       ?Create@?$VariableSizeChunkImpl@VQueryControlIp@@@internal@util@@CAXPAX@Z 00431830 f i QueryManager.obj
 0001:000308a0       ?Create@?$VariableSizeChunkImpl@VQueryGameVersionUpdate@@@internal@util@@CAXPAX@Z 004318a0 f i QueryManager.obj
 0001:00030910       ?Create@?$VariableSizeChunkImpl@VQueryAuthFailCount@@@internal@util@@CAXPAX@Z 00431910 f i QueryManager.obj
 0001:00030980       ?Create@?$VariableSizeChunkImpl@VQueryAuthLogUpdate@@@internal@util@@CAXPAX@Z 00431980 f i QueryManager.obj
 0001:00030a00       ?Create@?$VariableSizeChunkImpl@VQueryNetCafeLog@@@internal@util@@CAXPAX@Z 00431a00 f i QueryManager.obj
 0001:00030a90       ?Create@?$VariableSizeChunkImpl@VQueryNetCafeLogIn@@@internal@util@@CAXPAX@Z 00431a90 f i QueryManager.obj
 0001:00030b00       ?Destroy@?$VariableSizeChunkImpl@VAuthAgentServerSession@@@internal@util@@CAXPAX@Z 00431b00 f i AuthFrame.obj
 0001:00030b00       ?Destroy@?$VariableSizeChunkImpl@VTempServerSession@@@internal@util@@CAXPAX@Z 00431b00 f i AuthFrame.obj
 0001:00030b00       ?Destroy@?$VariableSizeChunkImpl@VQueryCheckPassword@@@internal@util@@CAXPAX@Z 00431b00 f i QueryManager.obj
 0001:00030b00       ?Destroy@?$VariableSizeChunkImpl@VQueryAuthLog@@@internal@util@@CAXPAX@Z 00431b00 f i QueryManager.obj
 0001:00030b00       ?Destroy@?$VariableSizeChunkImpl@VRTTAServerSession@@@internal@util@@CAXPAX@Z 00431b00 f i AuthFrame.obj
 0001:00030b00       ?Destroy@?$VariableSizeChunkImpl@VQueryGspGetAccountByGuid@nsGSP@@@internal@util@@CAXPAX@Z 00431b00 f i QueryManager.obj
 0001:00030b00       ?Destroy@?$VariableSizeChunkImpl@VQueryAuthLogUpdate@@@internal@util@@CAXPAX@Z 00431b00 f i QueryManager.obj
 0001:00030b00       ?Destroy@?$VariableSizeChunkImpl@VQueryAuthFailCount@@@internal@util@@CAXPAX@Z 00431b00 f i QueryManager.obj
 0001:00030b00       ?Destroy@?$VariableSizeChunkImpl@VQueryRecoverLocation@@@internal@util@@CAXPAX@Z 00431b00 f i QueryManager.obj
 0001:00030b00       ?Destroy@?$VariableSizeChunkImpl@VQueryAuth@@@internal@util@@CAXPAX@Z 00431b00 f i QueryManager.obj
 0001:00030b00       ?Destroy@?$VariableSizeChunkImpl@VQueryEnd@@@internal@util@@CAXPAX@Z 00431b00 f i QueryManager.obj
 0001:00030b00       ?Destroy@?$VariableSizeChunkImpl@VQueryUserId@@@internal@util@@CAXPAX@Z 00431b00 f i QueryManager.obj
 0001:00030b00       ?Destroy@?$VariableSizeChunkImpl@VQueryUpdateTokenKey@@@internal@util@@CAXPAX@Z 00431b00 f i QueryManager.obj
 0001:00030b00       ?Destroy@?$VariableSizeChunkImpl@VQueryGameVersionUpdate@@@internal@util@@CAXPAX@Z 00431b00 f i QueryManager.obj
 0001:00030b00       ?Destroy@?$VariableSizeChunkImpl@VQueryNetCafe2ndAuth@@@internal@util@@CAXPAX@Z 00431b00 f i QueryManager.obj
 0001:00030b00       ?Destroy@?$VariableSizeChunkImpl@VQueryControlIp@@@internal@util@@CAXPAX@Z 00431b00 f i QueryManager.obj
 0001:00030b00       ?Destroy@?$VariableSizeChunkImpl@VIntegratedBillingServerSession@@@internal@util@@CAXPAX@Z 00431b00 f i AuthFrame.obj
 0001:00030b00       ?Destroy@?$VariableSizeChunkImpl@VQueryNetCafeLog@@@internal@util@@CAXPAX@Z 00431b00 f i QueryManager.obj
 0001:00030b00       ?Destroy@?$VariableSizeChunkImpl@VLoginFrontServerSession@@@internal@util@@CAXPAX@Z 00431b00 f i AuthFrame.obj
 0001:00030b00       ?Destroy@?$VariableSizeChunkImpl@VQueryGspChangeUserState@nsGSP@@@internal@util@@CAXPAX@Z 00431b00 f i QueryManager.obj
 0001:00030b00       ?Destroy@?$VariableSizeChunkImpl@VQueryGspCheckAuthKey@nsGSP@@@internal@util@@CAXPAX@Z 00431b00 f i QueryManager.obj
 0001:00030b00       ?Destroy@?$VariableSizeChunkImpl@VQueryGspLoggingUserState@nsGSP@@@internal@util@@CAXPAX@Z 00431b00 f i QueryManager.obj
 0001:00030b00       ?Destroy@?$VariableSizeChunkImpl@VQuerySelectPCRoomIPList@@@internal@util@@CAXPAX@Z 00431b00 f i QueryManager.obj
 0001:00030b00       ?Destroy@?$VariableSizeChunkImpl@VQueryNetCafeLogIn@@@internal@util@@CAXPAX@Z 00431b00 f i QueryManager.obj
 0001:00030b00       ?Destroy@?$VariableSizeChunkImpl@VQueryGspGetAccount@nsGSP@@@internal@util@@CAXPAX@Z 00431b00 f i QueryManager.obj
 0001:00030b00       ?Destroy@?$VariableSizeChunkImpl@VQueryUserStsChange@@@internal@util@@CAXPAX@Z 00431b00 f i QueryManager.obj
 0001:00030b20       ?Create@?$VariableSizeChunkImpl@VQueryNetCafe2ndAuth@@@internal@util@@CAXPAX@Z 00431b20 f i QueryManager.obj
 0001:00030b90       ?Create@?$VariableSizeChunkImpl@VQueryUserId@@@internal@util@@CAXPAX@Z 00431b90 f i QueryManager.obj
 0001:00030c00       ?Create@?$VariableSizeChunkImpl@VQueryGspCheckAuthKey@nsGSP@@@internal@util@@CAXPAX@Z 00431c00 f i QueryManager.obj
 0001:00030c70       ?Create@?$VariableSizeChunkImpl@VQueryGspChangeUserState@nsGSP@@@internal@util@@CAXPAX@Z 00431c70 f i QueryManager.obj
 0001:00030ce0       ?Create@?$VariableSizeChunkImpl@VQueryGspLoggingUserState@nsGSP@@@internal@util@@CAXPAX@Z 00431ce0 f i QueryManager.obj
 0001:00030d50       ?Create@?$VariableSizeChunkImpl@VQueryGspGetAccount@nsGSP@@@internal@util@@CAXPAX@Z 00431d50 f i QueryManager.obj
 0001:00030dc0       ?Create@?$VariableSizeChunkImpl@VQueryGspGetAccountByGuid@nsGSP@@@internal@util@@CAXPAX@Z 00431dc0 f i QueryManager.obj
 0001:00030e30       ?Create@?$VariableSizeChunkImpl@VQueryUpdateTokenKey@@@internal@util@@CAXPAX@Z 00431e30 f i QueryManager.obj
 0001:00030ea0       ?Create@?$VariableSizeChunkImpl@VQuerySelectPCRoomIPList@@@internal@util@@CAXPAX@Z 00431ea0 f i QueryManager.obj
 0001:00030f10       ?Create@?$VariableSizeChunkImpl@VQueryCheckPassword@@@internal@util@@CAXPAX@Z 00431f10 f i QueryManager.obj
 0001:00030f80       ?Create@?$VariableSizeChunkImpl@VQueryEnd@@@internal@util@@CAXPAX@Z 00431f80 f i QueryManager.obj
 0001:00031000       ??0ServerDataManager@@QAE@XZ 00432000 f   authcommon:ServerDataManager.obj
 0001:00031090       ??1ServerDataManager@@QAE@XZ 00432090 f   authcommon:ServerDataManager.obj
 0001:00031100       ?Destroy@ServerDataManager@@QAEXXZ 00432100 f   authcommon:ServerDataManager.obj
 0001:00031210       ?Init@ServerDataManager@@QAEXXZ 00432210 f   authcommon:ServerDataManager.obj
 0001:00031240       ?LoadGroupData@ServerDataManager@@AAEXXZ 00432240 f   authcommon:ServerDataManager.obj
 0001:000314c0       ?LoadServerData@ServerDataManager@@AAEXXZ 004324c0 f   authcommon:ServerDataManager.obj
 0001:00031aa0       ?MakeGameAgentID@ServerDataManager@@AAEGEE@Z 00432aa0 f   authcommon:ServerDataManager.obj
 0001:00031ad0       ?FindGroupData@ServerDataManager@@QAEPAUGROUP_DATA@@E@Z 00432ad0 f   authcommon:ServerDataManager.obj
 0001:00031b30       ?FindServerData@ServerDataManager@@QAEPAVServerData@@G@Z 00432b30 f   authcommon:ServerDataManager.obj
 0001:00031b90       ?FindServerData@ServerDataManager@@QAEPAVServerData@@EE@Z 00432b90 f   authcommon:ServerDataManager.obj
 0001:00031bd0       ?FindAuthAgentServerSession@ServerDataManager@@QAEPAVAuthAgentServerSession@@G@Z 00432bd0 f   authcommon:ServerDataManager.obj
 0001:00031c10       ?Display@ServerDataManager@@QAEXXZ 00432c10 f   authcommon:ServerDataManager.obj
 0001:00031cf0       ?GetLiveGroupListInfo@ServerDataManager@@QAEEPAUGROUP_DATA@@QBD@Z 00432cf0 f   authcommon:ServerDataManager.obj
 0001:00031d80       ?GetLiveServerListInfo@ServerDataManager@@QAEEPAUSERVER_DATA@@QBD@Z 00432d80 f   authcommon:ServerDataManager.obj
 0001:00031e20       ?GetServerIPListInfo@ServerDataManager@@QAEEPAUsGAME_AGENT_INFO@@@Z 00432e20 f   authcommon:ServerDataManager.obj
 0001:00031f00       ?GetDynamicServerListInfo@ServerDataManager@@QAEEPAUDYNAMIC_SERVER_DATA@@@Z 00432f00 f   authcommon:ServerDataManager.obj
 0001:00031fc0       ?SetDynamicServerListInfo@ServerDataManager@@QAEXPAUDYNAMIC_SERVER_DATA@@E@Z 00432fc0 f   authcommon:ServerDataManager.obj
 0001:00032100       ??1?$chunk_map@KPAUGROUP_DATA@@U?$less@K@std@@@util@@QAE@XZ 00433100 f i authcommon:ServerDataManager.obj
 0001:00032120       ??1?$map@KPAUGROUP_DATA@@U?$less@K@std@@V?$CustomAllocator@PAUGROUP_DATA@@@util@@@std@@QAE@XZ 00433120 f i authcommon:ServerDataManager.obj
 0001:00032140       ??1?$chunk_map@KPAVServerData@@U?$less@K@std@@@util@@QAE@XZ 00433140 f i authcommon:ServerDataManager.obj
 0001:00032160       ??1?$map@KPAVServerData@@U?$less@K@std@@V?$CustomAllocator@PAVServerData@@@util@@@std@@QAE@XZ 00433160 f i authcommon:ServerDataManager.obj
 0001:00032180       ??_GServerData@@QAEPAXI@Z  00433180 f i authcommon:ServerDataManager.obj
 0001:000321b0       ?GetCount@Csvlib@@QAEHXZ   004331b0 f i authcommon:ServerDataManager.obj
 0001:000321d0       ?SetBaseServerData@ServerData@@QAEXAAUSERVER_DATA@@@Z 004331d0 f i authcommon:ServerDataManager.obj
 0001:000321f0       ?SetGameAgentID@ServerData@@QAEXG@Z 004331f0 f i authcommon:ServerDataManager.obj
 0001:00032210       ?GetGameAgentID@ServerData@@QBEGXZ 00433210 f i authcommon:ServerDataManager.obj
 0001:00032230       ?SetCrowdBase@ServerData@@QAEXG@Z 00433230 f i authcommon:ServerDataManager.obj
 0001:00032250       ?SetGameAgentPort@ServerData@@QAEXG@Z 00433250 f i authcommon:ServerDataManager.obj
 0001:00032270       ?SetAuthAgentSession@ServerData@@QAEXPAVAuthAgentServerSession@@@Z 00433270 f i authcommon:ServerDataManager.obj
 0001:00032290       ?SetGameAgentPublicIP@ServerData@@QAEXPBD@Z 00433290 f i authcommon:ServerDataManager.obj
 0001:000322c0       ?SetGameAgentPrivateIP@ServerData@@QAEXPBD@Z 004332c0 f i authcommon:ServerDataManager.obj
 0001:000322f0       ?GetAuthAgentSession@ServerData@@QAEPAVAuthAgentServerSession@@XZ 004332f0 f i authcommon:ServerDataManager.obj
 0001:00032310       ?GetConnectStatus@ServerData@@QBEEXZ 00433310 f i authcommon:ServerDataManager.obj
 0001:00032330       ?GetGameAgentPublicIP@ServerData@@QBEPBDXZ 00433330 f i authcommon:ServerDataManager.obj
 0001:00032350       ?GetGameAgentPrivateIP@ServerData@@QBEPBDXZ 00433350 f i authcommon:ServerDataManager.obj
 0001:00032370       ?GetGameAgentPort@ServerData@@QBEGXZ 00433370 f i authcommon:ServerDataManager.obj
 0001:00032390       ?GetLoginUserCnt@ServerData@@QBEFXZ 00433390 f i authcommon:ServerDataManager.obj
 0001:000323b0       ?SetConnectStatus@ServerData@@QAEXE@Z 004333b0 f i authcommon:ServerDataManager.obj
 0001:000323d0       ?SetCrowdGrade@ServerData@@QAEXE@Z 004333d0 f i authcommon:ServerDataManager.obj
 0001:000323f0       ?SetLoginUserCnt@ServerData@@QAEXF@Z 004333f0 f i authcommon:ServerDataManager.obj
 0001:00032410       ??1?$_Tree@V?$_Tmap_traits@KPAUGROUP_DATA@@U?$less@K@std@@V?$CustomAllocator@PAUGROUP_DATA@@@util@@$0A@@std@@@std@@QAE@XZ 00433410 f i authcommon:ServerDataManager.obj
 0001:00032470       ?insert@?$_Tree@V?$_Tmap_traits@KPAUGROUP_DATA@@U?$less@K@std@@V?$CustomAllocator@PAUGROUP_DATA@@@util@@$0A@@std@@@std@@QAE?AU?$pair@Viterator@?$_Tree@V?$_Tmap_traits@KPAUGROUP_DATA@@U?$less@K@std@@V?$CustomAllocator@PAUGROUP_DATA@@@util@@$0A@@std@@@std@@_N@2@ABU?$pair@$$CBKPAUGROUP_DATA@@@2@@Z 00433470 f i authcommon:ServerDataManager.obj
 0001:00032640       ?clear@?$_Tree@V?$_Tmap_traits@KPAVServerData@@U?$less@K@std@@V?$CustomAllocator@PAVServerData@@@util@@$0A@@std@@@std@@QAEXXZ 00433640 f i authcommon:ServerDataManager.obj
 0001:00032640       ?clear@?$_Tree@V?$_Tmap_traits@KPAUGROUP_DATA@@U?$less@K@std@@V?$CustomAllocator@PAUGROUP_DATA@@@util@@$0A@@std@@@std@@QAEXXZ 00433640 f i authcommon:ServerDataManager.obj
 0001:000326a0       ??0?$chunk_map@KPAUGROUP_DATA@@U?$less@K@std@@@util@@QAE@ABU?$less@K@std@@ABV?$CustomAllocator@U?$pair@$$CBKPAUGROUP_DATA@@@std@@@1@@Z 004336a0 f i authcommon:ServerDataManager.obj
 0001:000326a0       ??0?$chunk_map@KPAVServerData@@U?$less@K@std@@@util@@QAE@ABU?$less@K@std@@ABV?$CustomAllocator@U?$pair@$$CBKPAVServerData@@@std@@@1@@Z 004336a0 f i authcommon:ServerDataManager.obj
 0001:000326c0       ??1?$_Tree@V?$_Tmap_traits@KPAVServerData@@U?$less@K@std@@V?$CustomAllocator@PAVServerData@@@util@@$0A@@std@@@std@@QAE@XZ 004336c0 f i authcommon:ServerDataManager.obj
 0001:00032720       ?insert@?$_Tree@V?$_Tmap_traits@KPAVServerData@@U?$less@K@std@@V?$CustomAllocator@PAVServerData@@@util@@$0A@@std@@@std@@QAE?AU?$pair@Viterator@?$_Tree@V?$_Tmap_traits@KPAVServerData@@U?$less@K@std@@V?$CustomAllocator@PAVServerData@@@util@@$0A@@std@@@std@@_N@2@ABU?$pair@$$CBKPAVServerData@@@2@@Z 00433720 f i authcommon:ServerDataManager.obj
 0001:000328f0       ?find@?$_Tree@V?$_Tmap_traits@KPAUGROUP_DATA@@U?$less@K@std@@V?$CustomAllocator@PAUGROUP_DATA@@@util@@$0A@@std@@@std@@QAE?AViterator@12@ABK@Z 004338f0 f i authcommon:ServerDataManager.obj
 0001:000328f0       ?find@?$_Tree@V?$_Tmap_traits@KPAVServerSession@WBANetwork@@U?$less@K@std@@V?$allocator@U?$pair@$$CBKPAVServerSession@WBANetwork@@@std@@@4@$0A@@std@@@std@@QAE?AViterator@12@ABK@Z 004338f0 f i ClientStub_VS2008:SessionManager.obj
 0001:000328f0       ?find@?$_Tree@V?$_Tmap_traits@KPAVServerData@@U?$less@K@std@@V?$CustomAllocator@PAVServerData@@@util@@$0A@@std@@@std@@QAE?AViterator@12@ABK@Z 004338f0 f i authcommon:ServerDataManager.obj
 0001:00032990       ??Eiterator@?$_Tree@V?$_Tmap_traits@KPAVServerSession@WBANetwork@@U?$less@K@std@@V?$allocator@U?$pair@$$CBKPAVServerSession@WBANetwork@@@std@@@4@$0A@@std@@@std@@QAEAAV012@XZ 00433990 f i ClientStub_VS2008:SessionManager.obj
 0001:00032990       ??Eiterator@?$_Tree@V?$_Tmap_traits@KPAUGROUP_DATA@@U?$less@K@std@@V?$CustomAllocator@PAUGROUP_DATA@@@util@@$0A@@std@@@std@@QAEAAV012@XZ 00433990 f i authcommon:ServerDataManager.obj
 0001:000329b0       ??Citerator@?$_Tree@V?$_Tmap_traits@KPAVServerData@@U?$less@K@std@@V?$CustomAllocator@PAVServerData@@@util@@$0A@@std@@@std@@QBEPAU?$pair@$$CBKPAVServerData@@@2@XZ 004339b0 f i authcommon:ServerDataManager.obj
 0001:000329d0       ??Eiterator@?$_Tree@V?$_Tmap_traits@KPAVServerData@@U?$less@K@std@@V?$CustomAllocator@PAVServerData@@@util@@$0A@@std@@@std@@QAEAAV012@XZ 004339d0 f i authcommon:ServerDataManager.obj
 0001:000329f0       ??1?$_Tree_val@V?$_Tmap_traits@KPAUGROUP_DATA@@U?$less@K@std@@V?$CustomAllocator@PAUGROUP_DATA@@@util@@$0A@@std@@@std@@QAE@XZ 004339f0 f i authcommon:ServerDataManager.obj
 0001:000329f0       ??1?$_Tree_val@V?$_Tmap_traits@KPAVServerData@@U?$less@K@std@@V?$CustomAllocator@PAVServerData@@@util@@$0A@@std@@@std@@QAE@XZ 004339f0 f i authcommon:ServerDataManager.obj
 0001:00032a10       ??1?$_Tree_ptr@V?$_Tmap_traits@KPAVServerData@@U?$less@K@std@@V?$CustomAllocator@PAVServerData@@@util@@$0A@@std@@@std@@QAE@XZ 00433a10 f i authcommon:ServerDataManager.obj
 0001:00032a10       ??1?$_Tree_ptr@V?$_Tmap_traits@KPAUGROUP_DATA@@U?$less@K@std@@V?$CustomAllocator@PAUGROUP_DATA@@@util@@$0A@@std@@@std@@QAE@XZ 00433a10 f i authcommon:ServerDataManager.obj
 0001:00032a30       ??1?$_Tree_nod@V?$_Tmap_traits@KPAUGROUP_DATA@@U?$less@K@std@@V?$CustomAllocator@PAUGROUP_DATA@@@util@@$0A@@std@@@std@@QAE@XZ 00433a30 f i authcommon:ServerDataManager.obj
 0001:00032a30       ??1?$_Tree_nod@V?$_Tmap_traits@KPAVServerData@@U?$less@K@std@@V?$CustomAllocator@PAVServerData@@@util@@$0A@@std@@@std@@QAE@XZ 00433a30 f i authcommon:ServerDataManager.obj
 0001:00032a50       ??1?$_Tmap_traits@KPAVServerData@@U?$less@K@std@@V?$CustomAllocator@PAVServerData@@@util@@$0A@@std@@QAE@XZ 00433a50 f i authcommon:ServerDataManager.obj
 0001:00032a50       ??1?$_Tmap_traits@KPAUGROUP_DATA@@U?$less@K@std@@V?$CustomAllocator@PAUGROUP_DATA@@@util@@$0A@@std@@QAE@XZ 00433a50 f i authcommon:ServerDataManager.obj
 0001:00032a70       ?_Isnil@?$_Tree@V?$_Tmap_traits@KPAVServerData@@U?$less@K@std@@V?$CustomAllocator@PAVServerData@@@util@@$0A@@std@@@std@@KAAADPAU_Node@?$_Tree_nod@V?$_Tmap_traits@KPAVServerData@@U?$less@K@std@@V?$CustomAllocator@PAVServerData@@@util@@$0A@@std@@@2@@Z 00433a70 f i authcommon:ServerDataManager.obj
 0001:00032a70       ?_Isnil@?$_Tree@V?$_Tmap_traits@KPAUGROUP_DATA@@U?$less@K@std@@V?$CustomAllocator@PAUGROUP_DATA@@@util@@$0A@@std@@@std@@KAAADPAU_Node@?$_Tree_nod@V?$_Tmap_traits@KPAUGROUP_DATA@@U?$less@K@std@@V?$CustomAllocator@PAUGROUP_DATA@@@util@@$0A@@std@@@2@@Z 00433a70 f i authcommon:ServerDataManager.obj
 0001:00032a70       ?_Isnil@?$_Tree@V?$_Tmap_traits@KPAVServerSession@WBANetwork@@U?$less@K@std@@V?$allocator@U?$pair@$$CBKPAVServerSession@WBANetwork@@@std@@@4@$0A@@std@@@std@@KAAADPAU_Node@?$_Tree_nod@V?$_Tmap_traits@KPAVServerSession@WBANetwork@@U?$less@K@std@@V?$allocator@U?$pair@$$CBKPAVServerSession@WBANetwork@@@std@@@4@$0A@@std@@@2@@Z 00433a70 f i ClientStub_VS2008:SessionManager.obj
 0001:00032a80       ?_Kfn@?$_Tmap_traits@KPAVServerData@@U?$less@K@std@@V?$CustomAllocator@PAVServerData@@@util@@$0A@@std@@SAABKABU?$pair@$$CBKPAVServerData@@@2@@Z 00433a80 f i authcommon:ServerDataManager.obj
 0001:00032a80       ?_Kfn@?$_Tmap_traits@KPAVServerSession@WBANetwork@@U?$less@K@std@@V?$allocator@U?$pair@$$CBKPAVServerSession@WBANetwork@@@std@@@4@$0A@@std@@SAABKABU?$pair@$$CBKPAVServerSession@WBANetwork@@@2@@Z 00433a80 f i ClientStub_VS2008:SessionManager.obj
 0001:00032a80       ?_Nextnode@?$list@PAVServerSession@WBANetwork@@V?$allocator@PAVServerSession@WBANetwork@@@std@@@std@@KAAAPAU_Node@?$_List_nod@PAVServerSession@WBANetwork@@V?$allocator@PAVServerSession@WBANetwork@@@std@@@2@PAU342@@Z 00433a80 f i ClientStub_VS2008:SessionManager.obj
 0001:00032a80       ?_Kfn@?$_Tmap_traits@V?$basic_string@DU?$char_traits@D@std@@V?$allocator@D@2@@std@@EU?$less@V?$basic_string@DU?$char_traits@D@std@@V?$allocator@D@2@@std@@@2@V?$allocator@U?$pair@$$CBV?$basic_string@DU?$char_traits@D@std@@V?$allocator@D@2@@std@@E@std@@@2@$0A@@std@@SAABV?$basic_string@DU?$char_traits@D@std@@V?$allocator@D@2@@2@ABU?$pair@$$CBV?$basic_string@DU?$char_traits@D@std@@V?$allocator@D@2@@std@@E@2@@Z 00433a80 f i authcommon:csvlib.obj
 0001:00032a80       ?_Kfn@?$_Tmap_traits@KPAUGROUP_DATA@@U?$less@K@std@@V?$CustomAllocator@PAUGROUP_DATA@@@util@@$0A@@std@@SAABKABU?$pair@$$CBKPAUGROUP_DATA@@@2@@Z 00433a80 f i authcommon:ServerDataManager.obj
 0001:00032a80       ?_Left@?$_Tree@V?$_Tmap_traits@KPAVServerData@@U?$less@K@std@@V?$CustomAllocator@PAVServerData@@@util@@$0A@@std@@@std@@KAAAPAU_Node@?$_Tree_nod@V?$_Tmap_traits@KPAVServerData@@U?$less@K@std@@V?$CustomAllocator@PAVServerData@@@util@@$0A@@std@@@2@PAU342@@Z 00433a80 f i authcommon:ServerDataManager.obj
 0001:00032a80       ?_Left@?$_Tree@V?$_Tmap_traits@V?$basic_string@DU?$char_traits@D@std@@V?$allocator@D@2@@std@@EU?$less@V?$basic_string@DU?$char_traits@D@std@@V?$allocator@D@2@@std@@@2@V?$allocator@U?$pair@$$CBV?$basic_string@DU?$char_traits@D@std@@V?$allocator@D@2@@std@@E@std@@@2@$0A@@std@@@std@@KAAAPAU_Node@?$_Tree_nod@V?$_Tmap_traits@V?$basic_string@DU?$char_traits@D@std@@V?$allocator@D@2@@std@@EU?$less@V?$basic_string@DU?$char_traits@D@std@@V?$allocator@D@2@@std@@@2@V?$allocator@U?$pair@$$CBV?$basic_string@DU?$char_traits@D@std@@V?$allocator@D@2@@std@@E@std@@@2@$0A@@std@@@2@PAU342@@Z 00433a80 f i authcommon:csvlib.obj
 0001:00032a80       ?_Left@?$_Tree@V?$_Tmap_traits@KPAUGROUP_DATA@@U?$less@K@std@@V?$CustomAllocator@PAUGROUP_DATA@@@util@@$0A@@std@@@std@@KAAAPAU_Node@?$_Tree_nod@V?$_Tmap_traits@KPAUGROUP_DATA@@U?$less@K@std@@V?$CustomAllocator@PAUGROUP_DATA@@@util@@$0A@@std@@@2@PAU342@@Z 00433a80 f i authcommon:ServerDataManager.obj
 0001:00032a80       ?_Left@?$_Tree@V?$_Tmap_traits@KPAVServerSession@WBANetwork@@U?$less@K@std@@V?$allocator@U?$pair@$$CBKPAVServerSession@WBANetwork@@@std@@@4@$0A@@std@@@std@@KAAAPAU_Node@?$_Tree_nod@V?$_Tmap_traits@KPAVServerSession@WBANetwork@@U?$less@K@std@@V?$allocator@U?$pair@$$CBKPAVServerSession@WBANetwork@@@std@@@4@$0A@@std@@@2@PAU342@@Z 00433a80 f i ClientStub_VS2008:SessionManager.obj
 0001:00032a90       ?lower_bound@?$_Tree@V?$_Tmap_traits@KPAVServerData@@U?$less@K@std@@V?$CustomAllocator@PAVServerData@@@util@@$0A@@std@@@std@@QAE?AViterator@12@ABK@Z 00433a90 f i authcommon:ServerDataManager.obj
 0001:00032a90       ?lower_bound@?$_Tree@V?$_Tmap_traits@KPAUGROUP_DATA@@U?$less@K@std@@V?$CustomAllocator@PAUGROUP_DATA@@@util@@$0A@@std@@@std@@QAE?AViterator@12@ABK@Z 00433a90 f i authcommon:ServerDataManager.obj
 0001:00032a90       ?lower_bound@?$_Tree@V?$_Tmap_traits@KPAVServerSession@WBANetwork@@U?$less@K@std@@V?$allocator@U?$pair@$$CBKPAVServerSession@WBANetwork@@@std@@@4@$0A@@std@@@std@@QAE?AViterator@12@ABK@Z 00433a90 f i ClientStub_VS2008:SessionManager.obj
 0001:00032ac0       ?_Erase@?$_Tree@V?$_Tmap_traits@KPAUGROUP_DATA@@U?$less@K@std@@V?$CustomAllocator@PAUGROUP_DATA@@@util@@$0A@@std@@@std@@IAEXPAU_Node@?$_Tree_nod@V?$_Tmap_traits@KPAUGROUP_DATA@@U?$less@K@std@@V?$CustomAllocator@PAUGROUP_DATA@@@util@@$0A@@std@@@2@@Z 00433ac0 f i authcommon:ServerDataManager.obj
 0001:00032ac0       ?_Erase@?$_Tree@V?$_Tmap_traits@KPAVServerData@@U?$less@K@std@@V?$CustomAllocator@PAVServerData@@@util@@$0A@@std@@@std@@IAEXPAU_Node@?$_Tree_nod@V?$_Tmap_traits@KPAVServerData@@U?$less@K@std@@V?$CustomAllocator@PAVServerData@@@util@@$0A@@std@@@2@@Z 00433ac0 f i authcommon:ServerDataManager.obj
 0001:00032b40       ?_Lmost@?$_Tree@V?$_Tmap_traits@KPAVServerSession@WBANetwork@@U?$less@K@std@@V?$allocator@U?$pair@$$CBKPAVServerSession@WBANetwork@@@std@@@4@$0A@@std@@@std@@IBEAAPAU_Node@?$_Tree_nod@V?$_Tmap_traits@KPAVServerSession@WBANetwork@@U?$less@K@std@@V?$allocator@U?$pair@$$CBKPAVServerSession@WBANetwork@@@std@@@4@$0A@@std@@@2@XZ 00433b40 f i ClientStub_VS2008:SessionManager.obj
 0001:00032b40       ?_Lmost@?$_Tree@V?$_Tmap_traits@V?$basic_string@DU?$char_traits@D@std@@V?$allocator@D@2@@std@@EU?$less@V?$basic_string@DU?$char_traits@D@std@@V?$allocator@D@2@@std@@@2@V?$allocator@U?$pair@$$CBV?$basic_string@DU?$char_traits@D@std@@V?$allocator@D@2@@std@@E@std@@@2@$0A@@std@@@std@@IBEAAPAU_Node@?$_Tree_nod@V?$_Tmap_traits@V?$basic_string@DU?$char_traits@D@std@@V?$allocator@D@2@@std@@EU?$less@V?$basic_string@DU?$char_traits@D@std@@V?$allocator@D@2@@std@@@2@V?$allocator@U?$pair@$$CBV?$basic_string@DU?$char_traits@D@std@@V?$allocator@D@2@@std@@E@std@@@2@$0A@@std@@@2@XZ 00433b40 f i authcommon:csvlib.obj
 0001:00032b40       ?_Lmost@?$_Tree@V?$_Tmap_traits@KPAUGROUP_DATA@@U?$less@K@std@@V?$CustomAllocator@PAUGROUP_DATA@@@util@@$0A@@std@@@std@@IBEAAPAU_Node@?$_Tree_nod@V?$_Tmap_traits@KPAUGROUP_DATA@@U?$less@K@std@@V?$CustomAllocator@PAUGROUP_DATA@@@util@@$0A@@std@@@2@XZ 00433b40 f i authcommon:ServerDataManager.obj
 0001:00032b40       ?_Lmost@?$_Tree@V?$_Tmap_traits@KPAVServerData@@U?$less@K@std@@V?$CustomAllocator@PAVServerData@@@util@@$0A@@std@@@std@@IBEAAPAU_Node@?$_Tree_nod@V?$_Tmap_traits@KPAVServerData@@U?$less@K@std@@V?$CustomAllocator@PAVServerData@@@util@@$0A@@std@@@2@XZ 00433b40 f i authcommon:ServerDataManager.obj
 0001:00032b60       ?_Tidy@?$_Tree@V?$_Tmap_traits@KPAUGROUP_DATA@@U?$less@K@std@@V?$CustomAllocator@PAUGROUP_DATA@@@util@@$0A@@std@@@std@@IAEXXZ 00433b60 f i authcommon:ServerDataManager.obj
 0001:00032c30       ??0?$map@KPAUGROUP_DATA@@U?$less@K@std@@V?$CustomAllocator@PAUGROUP_DATA@@@util@@@std@@QAE@ABU?$less@K@1@ABV?$CustomAllocator@U?$pair@$$CBKPAUGROUP_DATA@@@std@@@util@@@Z 00433c30 f i authcommon:ServerDataManager.obj
 0001:00032c30       ??0?$map@KPAVServerData@@U?$less@K@std@@V?$CustomAllocator@PAVServerData@@@util@@@std@@QAE@ABU?$less@K@1@ABV?$CustomAllocator@U?$pair@$$CBKPAVServerData@@@std@@@util@@@Z 00433c30 f i authcommon:ServerDataManager.obj
 0001:00032c50       ?_Key@?$_Tree@V?$_Tmap_traits@KPAUGROUP_DATA@@U?$less@K@std@@V?$CustomAllocator@PAUGROUP_DATA@@@util@@$0A@@std@@@std@@KAABKPAU_Node@?$_Tree_nod@V?$_Tmap_traits@KPAUGROUP_DATA@@U?$less@K@std@@V?$CustomAllocator@PAUGROUP_DATA@@@util@@$0A@@std@@@2@@Z 00433c50 f i authcommon:ServerDataManager.obj
 0001:00032c50       ?_Key@?$_Tree@V?$_Tmap_traits@KPAVServerSession@WBANetwork@@U?$less@K@std@@V?$allocator@U?$pair@$$CBKPAVServerSession@WBANetwork@@@std@@@4@$0A@@std@@@std@@KAABKPAU_Node@?$_Tree_nod@V?$_Tmap_traits@KPAVServerSession@WBANetwork@@U?$less@K@std@@V?$allocator@U?$pair@$$CBKPAVServerSession@WBANetwork@@@std@@@4@$0A@@std@@@2@@Z 00433c50 f i ClientStub_VS2008:SessionManager.obj
 0001:00032c50       ?_Key@?$_Tree@V?$_Tmap_traits@KPAVServerData@@U?$less@K@std@@V?$CustomAllocator@PAVServerData@@@util@@$0A@@std@@@std@@KAABKPAU_Node@?$_Tree_nod@V?$_Tmap_traits@KPAVServerData@@U?$less@K@std@@V?$CustomAllocator@PAVServerData@@@util@@$0A@@std@@@2@@Z 00433c50 f i authcommon:ServerDataManager.obj
 0001:00032c50       ?_Key@?$_Tree@V?$_Tmap_traits@V?$basic_string@DU?$char_traits@D@std@@V?$allocator@D@2@@std@@EU?$less@V?$basic_string@DU?$char_traits@D@std@@V?$allocator@D@2@@std@@@2@V?$allocator@U?$pair@$$CBV?$basic_string@DU?$char_traits@D@std@@V?$allocator@D@2@@std@@E@std@@@2@$0A@@std@@@std@@KAABV?$basic_string@DU?$char_traits@D@std@@V?$allocator@D@2@@2@PAU_Node@?$_Tree_nod@V?$_Tmap_traits@V?$basic_string@DU?$char_traits@D@std@@V?$allocator@D@2@@std@@EU?$less@V?$basic_string@DU?$char_traits@D@std@@V?$allocator@D@2@@std@@@2@V?$allocator@U?$pair@$$CBV?$basic_string@DU?$char_traits@D@std@@V?$allocator@D@2@@std@@E@std@@@2@$0A@@std@@@2@@Z 00433c50 f i authcommon:csvlib.obj
 0001:00032c70       ?_Right@?$_Tree@V?$_Tmap_traits@V?$basic_string@DU?$char_traits@D@std@@V?$allocator@D@2@@std@@EU?$less@V?$basic_string@DU?$char_traits@D@std@@V?$allocator@D@2@@std@@@2@V?$allocator@U?$pair@$$CBV?$basic_string@DU?$char_traits@D@std@@V?$allocator@D@2@@std@@E@std@@@2@$0A@@std@@@std@@KAAAPAU_Node@?$_Tree_nod@V?$_Tmap_traits@V?$basic_string@DU?$char_traits@D@std@@V?$allocator@D@2@@std@@EU?$less@V?$basic_string@DU?$char_traits@D@std@@V?$allocator@D@2@@std@@@2@V?$allocator@U?$pair@$$CBV?$basic_string@DU?$char_traits@D@std@@V?$allocator@D@2@@std@@E@std@@@2@$0A@@std@@@2@PAU342@@Z 00433c70 f i authcommon:csvlib.obj
 0001:00032c70       ?_Right@?$_Tree@V?$_Tmap_traits@KPAVServerData@@U?$less@K@std@@V?$CustomAllocator@PAVServerData@@@util@@$0A@@std@@@std@@KAAAPAU_Node@?$_Tree_nod@V?$_Tmap_traits@KPAVServerData@@U?$less@K@std@@V?$CustomAllocator@PAVServerData@@@util@@$0A@@std@@@2@PAU342@@Z 00433c70 f i authcommon:ServerDataManager.obj
 0001:00032c70       ?_Right@?$_Tree@V?$_Tmap_traits@KPAVServerSession@WBANetwork@@U?$less@K@std@@V?$allocator@U?$pair@$$CBKPAVServerSession@WBANetwork@@@std@@@4@$0A@@std@@@std@@KAAAPAU_Node@?$_Tree_nod@V?$_Tmap_traits@KPAVServerSession@WBANetwork@@U?$less@K@std@@V?$allocator@U?$pair@$$CBKPAVServerSession@WBANetwork@@@std@@@4@$0A@@std@@@2@PAU342@@Z 00433c70 f i ClientStub_VS2008:SessionManager.obj
 0001:00032c70       ?_Right@?$_Tree@V?$_Tmap_traits@KPAUGROUP_DATA@@U?$less@K@std@@V?$CustomAllocator@PAUGROUP_DATA@@@util@@$0A@@std@@@std@@KAAAPAU_Node@?$_Tree_nod@V?$_Tmap_traits@KPAUGROUP_DATA@@U?$less@K@std@@V?$CustomAllocator@PAUGROUP_DATA@@@util@@$0A@@std@@@2@PAU342@@Z 00433c70 f i authcommon:ServerDataManager.obj
 0001:00032c70       ?_Myval@?$list@PAVServerSession@WBANetwork@@V?$allocator@PAVServerSession@WBANetwork@@@std@@@std@@KAAAPAVServerSession@WBANetwork@@PAU_Node@?$_List_nod@PAVServerSession@WBANetwork@@V?$allocator@PAVServerSession@WBANetwork@@@std@@@2@@Z 00433c70 f i ClientStub_VS2008:SessionManager.obj
 0001:00032c80       ?_Insert@?$_Tree@V?$_Tmap_traits@KPAVServerData@@U?$less@K@std@@V?$CustomAllocator@PAVServerData@@@util@@$0A@@std@@@std@@IAE?AViterator@12@_NPAU_Node@?$_Tree_nod@V?$_Tmap_traits@KPAVServerData@@U?$less@K@std@@V?$CustomAllocator@PAVServerData@@@util@@$0A@@std@@@2@ABU?$pair@$$CBKPAVServerData@@@2@@Z 00433c80 f i authcommon:ServerDataManager.obj
 0001:00032c80       ?_Insert@?$_Tree@V?$_Tmap_traits@KPAUGROUP_DATA@@U?$less@K@std@@V?$CustomAllocator@PAUGROUP_DATA@@@util@@$0A@@std@@@std@@IAE?AViterator@12@_NPAU_Node@?$_Tree_nod@V?$_Tmap_traits@KPAUGROUP_DATA@@U?$less@K@std@@V?$CustomAllocator@PAUGROUP_DATA@@@util@@$0A@@std@@@2@ABU?$pair@$$CBKPAUGROUP_DATA@@@2@@Z 00433c80 f i authcommon:ServerDataManager.obj
 0001:00033100       ?_Root@?$_Tree@V?$_Tmap_traits@KPAVServerData@@U?$less@K@std@@V?$CustomAllocator@PAVServerData@@@util@@$0A@@std@@@std@@IBEAAPAU_Node@?$_Tree_nod@V?$_Tmap_traits@KPAVServerData@@U?$less@K@std@@V?$CustomAllocator@PAVServerData@@@util@@$0A@@std@@@2@XZ 00434100 f i authcommon:ServerDataManager.obj
 0001:00033100       ?_Root@?$_Tree@V?$_Tmap_traits@KPAUGROUP_DATA@@U?$less@K@std@@V?$CustomAllocator@PAUGROUP_DATA@@@util@@$0A@@std@@@std@@IBEAAPAU_Node@?$_Tree_nod@V?$_Tmap_traits@KPAUGROUP_DATA@@U?$less@K@std@@V?$CustomAllocator@PAUGROUP_DATA@@@util@@$0A@@std@@@2@XZ 00434100 f i authcommon:ServerDataManager.obj
 0001:00033100       ?_Root@?$_Tree@V?$_Tmap_traits@V?$basic_string@DU?$char_traits@D@std@@V?$allocator@D@2@@std@@EU?$less@V?$basic_string@DU?$char_traits@D@std@@V?$allocator@D@2@@std@@@2@V?$allocator@U?$pair@$$CBV?$basic_string@DU?$char_traits@D@std@@V?$allocator@D@2@@std@@E@std@@@2@$0A@@std@@@std@@IBEAAPAU_Node@?$_Tree_nod@V?$_Tmap_traits@V?$basic_string@DU?$char_traits@D@std@@V?$allocator@D@2@@std@@EU?$less@V?$basic_string@DU?$char_traits@D@std@@V?$allocator@D@2@@std@@@2@V?$allocator@U?$pair@$$CBV?$basic_string@DU?$char_traits@D@std@@V?$allocator@D@2@@std@@E@std@@@2@$0A@@std@@@2@XZ 00434100 f i authcommon:csvlib.obj
 0001:00033100       ?_Root@?$_Tree@V?$_Tmap_traits@KPAVServerSession@WBANetwork@@U?$less@K@std@@V?$allocator@U?$pair@$$CBKPAVServerSession@WBANetwork@@@std@@@4@$0A@@std@@@std@@IBEAAPAU_Node@?$_Tree_nod@V?$_Tmap_traits@KPAVServerSession@WBANetwork@@U?$less@K@std@@V?$allocator@U?$pair@$$CBKPAVServerSession@WBANetwork@@@std@@@4@$0A@@std@@@2@XZ 00434100 f i ClientStub_VS2008:SessionManager.obj
 0001:00033120       ?_Tidy@?$_Tree@V?$_Tmap_traits@KPAVServerData@@U?$less@K@std@@V?$CustomAllocator@PAVServerData@@@util@@$0A@@std@@@std@@IAEXXZ 00434120 f i authcommon:ServerDataManager.obj
 0001:000331f0       ??1?$_Container_base_aux_alloc_real@V?$CustomAllocator@PAUGROUP_DATA@@@util@@@std@@IAE@XZ 004341f0 f i authcommon:ServerDataManager.obj
 0001:000331f0       ??1?$_Container_base_aux_alloc_real@V?$CustomAllocator@PAVServerData@@@util@@@std@@IAE@XZ 004341f0 f i authcommon:ServerDataManager.obj
 0001:00033250       ??Fiterator@?$_Tree@V?$_Tmap_traits@KPAVServerSession@WBANetwork@@U?$less@K@std@@V?$allocator@U?$pair@$$CBKPAVServerSession@WBANetwork@@@std@@@4@$0A@@std@@@std@@QAEAAV012@XZ 00434250 f i ClientStub_VS2008:SessionManager.obj
 0001:00033250       ??Fiterator@?$_Tree@V?$_Tmap_traits@KPAVServerData@@U?$less@K@std@@V?$CustomAllocator@PAVServerData@@@util@@$0A@@std@@@std@@QAEAAV012@XZ 00434250 f i authcommon:ServerDataManager.obj
 0001:00033250       ??Fiterator@?$_Tree@V?$_Tmap_traits@KPAUGROUP_DATA@@U?$less@K@std@@V?$CustomAllocator@PAUGROUP_DATA@@@util@@$0A@@std@@@std@@QAEAAV012@XZ 00434250 f i authcommon:ServerDataManager.obj
 0001:00033270       ??Econst_iterator@?$_Tree@V?$_Tmap_traits@KPAVServerSession@WBANetwork@@U?$less@K@std@@V?$allocator@U?$pair@$$CBKPAVServerSession@WBANetwork@@@std@@@4@$0A@@std@@@std@@QAEAAV012@XZ 00434270 f i ClientStub_VS2008:SessionManager.obj
 0001:00033270       ??Econst_iterator@?$_Tree@V?$_Tmap_traits@KPAUGROUP_DATA@@U?$less@K@std@@V?$CustomAllocator@PAUGROUP_DATA@@@util@@$0A@@std@@@std@@QAEAAV012@XZ 00434270 f i authcommon:ServerDataManager.obj
 0001:00033290       ??Diterator@?$_Tree@V?$_Tmap_traits@KPAVServerData@@U?$less@K@std@@V?$CustomAllocator@PAVServerData@@@util@@$0A@@std@@@std@@QBEAAU?$pair@$$CBKPAVServerData@@@2@XZ 00434290 f i authcommon:ServerDataManager.obj
 0001:000332b0       ??Econst_iterator@?$_Tree@V?$_Tmap_traits@KPAVServerData@@U?$less@K@std@@V?$CustomAllocator@PAVServerData@@@util@@$0A@@std@@@std@@QAEAAV012@XZ 004342b0 f i authcommon:ServerDataManager.obj
 0001:000332d0       ??8const_iterator@?$_Tree@V?$_Tmap_traits@V?$basic_string@DU?$char_traits@D@std@@V?$allocator@D@2@@std@@EU?$less@V?$basic_string@DU?$char_traits@D@std@@V?$allocator@D@2@@std@@@2@V?$allocator@U?$pair@$$CBV?$basic_string@DU?$char_traits@D@std@@V?$allocator@D@2@@std@@E@std@@@2@$0A@@std@@@std@@QBE_NABV012@@Z 004342d0 f i authcommon:csvlib.obj
 0001:000332d0       ??8const_iterator@?$_Tree@V?$_Tmap_traits@KPAVServerData@@U?$less@K@std@@V?$CustomAllocator@PAVServerData@@@util@@$0A@@std@@@std@@QBE_NABV012@@Z 004342d0 f i authcommon:ServerDataManager.obj
 0001:000332d0       ??8const_iterator@?$_Tree@V?$_Tmap_traits@KPAVServerSession@WBANetwork@@U?$less@K@std@@V?$allocator@U?$pair@$$CBKPAVServerSession@WBANetwork@@@std@@@4@$0A@@std@@@std@@QBE_NABV012@@Z 004342d0 f i ClientStub_VS2008:SessionManager.obj
 0001:000332d0       ??8const_iterator@?$_Tree@V?$_Tmap_traits@KPAUGROUP_DATA@@U?$less@K@std@@V?$CustomAllocator@PAUGROUP_DATA@@@util@@$0A@@std@@@std@@QBE_NABV012@@Z 004342d0 f i authcommon:ServerDataManager.obj
 0001:000332d0       ??8?$_Vector_const_iterator@V?$basic_string@DU?$char_traits@D@std@@V?$allocator@D@2@@std@@V?$allocator@V?$basic_string@DU?$char_traits@D@std@@V?$allocator@D@2@@std@@@2@@std@@QBE_NABV01@@Z 004342d0 f i authcommon:csvlib.obj
 0001:00033320       ??0?$pair@Viterator@?$_Tree@V?$_Tmap_traits@KPAUGROUP_DATA@@U?$less@K@std@@V?$CustomAllocator@PAUGROUP_DATA@@@util@@$0A@@std@@@std@@_N@std@@QAE@ABViterator@?$_Tree@V?$_Tmap_traits@KPAUGROUP_DATA@@U?$less@K@std@@V?$CustomAllocator@PAUGROUP_DATA@@@util@@$0A@@std@@@1@AB_N@Z 00434320 f i authcommon:ServerDataManager.obj
 0001:00033320       ??0?$pair@Viterator@?$_Tree@V?$_Tmap_traits@KPAVServerData@@U?$less@K@std@@V?$CustomAllocator@PAVServerData@@@util@@$0A@@std@@@std@@_N@std@@QAE@ABViterator@?$_Tree@V?$_Tmap_traits@KPAVServerData@@U?$less@K@std@@V?$CustomAllocator@PAVServerData@@@util@@$0A@@std@@@1@AB_N@Z 00434320 f i authcommon:ServerDataManager.obj
 0001:00033320       ??0?$pair@Viterator@?$_Tree@V?$_Tmap_traits@KPAVServerSession@WBANetwork@@U?$less@K@std@@V?$allocator@U?$pair@$$CBKPAVServerSession@WBANetwork@@@std@@@4@$0A@@std@@@std@@_N@std@@QAE@ABViterator@?$_Tree@V?$_Tmap_traits@KPAVServerSession@WBANetwork@@U?$less@K@std@@V?$allocator@U?$pair@$$CBKPAVServerSession@WBANetwork@@@std@@@4@$0A@@std@@@1@AB_N@Z 00434320 f i ClientStub_VS2008:SessionManager.obj
 0001:00033320       ??0?$pair@Viterator@?$_Tree@V?$_Tmap_traits@V?$basic_string@DU?$char_traits@D@std@@V?$allocator@D@2@@std@@EU?$less@V?$basic_string@DU?$char_traits@D@std@@V?$allocator@D@2@@std@@@2@V?$allocator@U?$pair@$$CBV?$basic_string@DU?$char_traits@D@std@@V?$allocator@D@2@@std@@E@std@@@2@$0A@@std@@@std@@_N@std@@QAE@ABViterator@?$_Tree@V?$_Tmap_traits@V?$basic_string@DU?$char_traits@D@std@@V?$allocator@D@2@@std@@EU?$less@V?$basic_string@DU?$char_traits@D@std@@V?$allocator@D@2@@std@@@2@V?$allocator@U?$pair@$$CBV?$basic_string@DU?$char_traits@D@std@@V?$allocator@D@2@@std@@E@std@@@2@$0A@@std@@@1@AB_N@Z 00434320 f i authcommon:csvlib.obj
 0001:00033350       ?_Color@?$_Tree@V?$_Tmap_traits@KPAVServerData@@U?$less@K@std@@V?$CustomAllocator@PAVServerData@@@util@@$0A@@std@@@std@@KAAADPAU_Node@?$_Tree_nod@V?$_Tmap_traits@KPAVServerData@@U?$less@K@std@@V?$CustomAllocator@PAVServerData@@@util@@$0A@@std@@@2@@Z 00434350 f i authcommon:ServerDataManager.obj
 0001:00033350       ?_Color@?$_Tree@V?$_Tmap_traits@KPAVServerSession@WBANetwork@@U?$less@K@std@@V?$allocator@U?$pair@$$CBKPAVServerSession@WBANetwork@@@std@@@4@$0A@@std@@@std@@KAAADPAU_Node@?$_Tree_nod@V?$_Tmap_traits@KPAVServerSession@WBANetwork@@U?$less@K@std@@V?$allocator@U?$pair@$$CBKPAVServerSession@WBANetwork@@@std@@@4@$0A@@std@@@2@@Z 00434350 f i ClientStub_VS2008:SessionManager.obj
 0001:00033350       ?_Color@?$_Tree@V?$_Tmap_traits@KPAUGROUP_DATA@@U?$less@K@std@@V?$CustomAllocator@PAUGROUP_DATA@@@util@@$0A@@std@@@std@@KAAADPAU_Node@?$_Tree_nod@V?$_Tmap_traits@KPAUGROUP_DATA@@U?$less@K@std@@V?$CustomAllocator@PAUGROUP_DATA@@@util@@$0A@@std@@@2@@Z 00434350 f i authcommon:ServerDataManager.obj
 0001:00033360       ?erase@?$_Tree@V?$_Tmap_traits@KPAUGROUP_DATA@@U?$less@K@std@@V?$CustomAllocator@PAUGROUP_DATA@@@util@@$0A@@std@@@std@@QAE?AViterator@12@Vconst_iterator@12@0@Z 00434360 f i authcommon:ServerDataManager.obj
 0001:00033410       ?_Lbound@?$_Tree@V?$_Tmap_traits@KPAVServerSession@WBANetwork@@U?$less@K@std@@V?$allocator@U?$pair@$$CBKPAVServerSession@WBANetwork@@@std@@@4@$0A@@std@@@std@@IBEPAU_Node@?$_Tree_nod@V?$_Tmap_traits@KPAVServerSession@WBANetwork@@U?$less@K@std@@V?$allocator@U?$pair@$$CBKPAVServerSession@WBANetwork@@@std@@@4@$0A@@std@@@2@ABK@Z 00434410 f i ClientStub_VS2008:SessionManager.obj
 0001:00033410       ?_Lbound@?$_Tree@V?$_Tmap_traits@KPAVServerData@@U?$less@K@std@@V?$CustomAllocator@PAVServerData@@@util@@$0A@@std@@@std@@IBEPAU_Node@?$_Tree_nod@V?$_Tmap_traits@KPAVServerData@@U?$less@K@std@@V?$CustomAllocator@PAVServerData@@@util@@$0A@@std@@@2@ABK@Z 00434410 f i authcommon:ServerDataManager.obj
 0001:00033410       ?_Lbound@?$_Tree@V?$_Tmap_traits@KPAUGROUP_DATA@@U?$less@K@std@@V?$CustomAllocator@PAUGROUP_DATA@@@util@@$0A@@std@@@std@@IBEPAU_Node@?$_Tree_nod@V?$_Tmap_traits@KPAUGROUP_DATA@@U?$less@K@std@@V?$CustomAllocator@PAUGROUP_DATA@@@util@@$0A@@std@@@2@ABK@Z 00434410 f i authcommon:ServerDataManager.obj
 0001:000334a0       ??0?$_Tree@V?$_Tmap_traits@KPAUGROUP_DATA@@U?$less@K@std@@V?$CustomAllocator@PAUGROUP_DATA@@@util@@$0A@@std@@@std@@QAE@ABU?$less@K@1@ABV?$CustomAllocator@U?$pair@$$CBKPAUGROUP_DATA@@@std@@@util@@@Z 004344a0 f i authcommon:ServerDataManager.obj
 0001:000334a0       ??0?$_Tree@V?$_Tmap_traits@KPAVServerData@@U?$less@K@std@@V?$CustomAllocator@PAVServerData@@@util@@$0A@@std@@@std@@QAE@ABU?$less@K@1@ABV?$CustomAllocator@U?$pair@$$CBKPAVServerData@@@std@@@util@@@Z 004344a0 f i authcommon:ServerDataManager.obj
 0001:00033510       ?max_size@?$_Tree@V?$_Tmap_traits@KPAVServerSession@WBANetwork@@U?$less@K@std@@V?$allocator@U?$pair@$$CBKPAVServerSession@WBANetwork@@@std@@@4@$0A@@std@@@std@@QBEIXZ 00434510 f i ClientStub_VS2008:SessionManager.obj
 0001:00033510       ?max_size@?$_Tree@V?$_Tmap_traits@KPAUGROUP_DATA@@U?$less@K@std@@V?$CustomAllocator@PAUGROUP_DATA@@@util@@$0A@@std@@@std@@QBEIXZ 00434510 f i authcommon:ServerDataManager.obj
 0001:00033510       ?max_size@?$_Tree@V?$_Tmap_traits@KPAVServerData@@U?$less@K@std@@V?$CustomAllocator@PAVServerData@@@util@@$0A@@std@@@std@@QBEIXZ 00434510 f i authcommon:ServerDataManager.obj
 0001:00033530       ?erase@?$_Tree@V?$_Tmap_traits@KPAVServerData@@U?$less@K@std@@V?$CustomAllocator@PAVServerData@@@util@@$0A@@std@@@std@@QAE?AViterator@12@Vconst_iterator@12@0@Z 00434530 f i authcommon:ServerDataManager.obj
 0001:000335e0       ?_Rrotate@?$_Tree@V?$_Tmap_traits@KPAVServerSession@WBANetwork@@U?$less@K@std@@V?$allocator@U?$pair@$$CBKPAVServerSession@WBANetwork@@@std@@@4@$0A@@std@@@std@@IAEXPAU_Node@?$_Tree_nod@V?$_Tmap_traits@KPAVServerSession@WBANetwork@@U?$less@K@std@@V?$allocator@U?$pair@$$CBKPAVServerSession@WBANetwork@@@std@@@4@$0A@@std@@@2@@Z 004345e0 f i ClientStub_VS2008:SessionManager.obj
 0001:000335e0       ?_Rrotate@?$_Tree@V?$_Tmap_traits@KPAVServerData@@U?$less@K@std@@V?$CustomAllocator@PAVServerData@@@util@@$0A@@std@@@std@@IAEXPAU_Node@?$_Tree_nod@V?$_Tmap_traits@KPAVServerData@@U?$less@K@std@@V?$CustomAllocator@PAVServerData@@@util@@$0A@@std@@@2@@Z 004345e0 f i authcommon:ServerDataManager.obj
 0001:000335e0       ?_Rrotate@?$_Tree@V?$_Tmap_traits@KPAUGROUP_DATA@@U?$less@K@std@@V?$CustomAllocator@PAUGROUP_DATA@@@util@@$0A@@std@@@std@@IAEXPAU_Node@?$_Tree_nod@V?$_Tmap_traits@KPAUGROUP_DATA@@U?$less@K@std@@V?$CustomAllocator@PAUGROUP_DATA@@@util@@$0A@@std@@@2@@Z 004345e0 f i authcommon:ServerDataManager.obj
 0001:00033710       ?_Buynode@?$_Tree@V?$_Tmap_traits@KPAUGROUP_DATA@@U?$less@K@std@@V?$CustomAllocator@PAUGROUP_DATA@@@util@@$0A@@std@@@std@@IAEPAU_Node@?$_Tree_nod@V?$_Tmap_traits@KPAUGROUP_DATA@@U?$less@K@std@@V?$CustomAllocator@PAUGROUP_DATA@@@util@@$0A@@std@@@2@PAU342@00ABU?$pair@$$CBKPAUGROUP_DATA@@@2@D@Z 00434710 f i authcommon:ServerDataManager.obj
 0001:00033710       ?_Buynode@?$_Tree@V?$_Tmap_traits@KPAVServerData@@U?$less@K@std@@V?$CustomAllocator@PAVServerData@@@util@@$0A@@std@@@std@@IAEPAU_Node@?$_Tree_nod@V?$_Tmap_traits@KPAVServerData@@U?$less@K@std@@V?$CustomAllocator@PAVServerData@@@util@@$0A@@std@@@2@PAU342@00ABU?$pair@$$CBKPAVServerData@@@2@D@Z 00434710 f i authcommon:ServerDataManager.obj
 0001:00033800       ??Fconst_iterator@?$_Tree@V?$_Tmap_traits@KPAVServerSession@WBANetwork@@U?$less@K@std@@V?$allocator@U?$pair@$$CBKPAVServerSession@WBANetwork@@@std@@@4@$0A@@std@@@std@@QAEAAV012@XZ 00434800 f i ClientStub_VS2008:SessionManager.obj
 0001:00033800       ??Fconst_iterator@?$_Tree@V?$_Tmap_traits@KPAUGROUP_DATA@@U?$less@K@std@@V?$CustomAllocator@PAUGROUP_DATA@@@util@@$0A@@std@@@std@@QAEAAV012@XZ 00434800 f i authcommon:ServerDataManager.obj
 0001:00033800       ??Fconst_iterator@?$_Tree@V?$_Tmap_traits@KPAVServerData@@U?$less@K@std@@V?$CustomAllocator@PAVServerData@@@util@@$0A@@std@@@std@@QAEAAV012@XZ 00434800 f i authcommon:ServerDataManager.obj
 0001:00033820       ?_Inc@const_iterator@?$_Tree@V?$_Tmap_traits@KPAUGROUP_DATA@@U?$less@K@std@@V?$CustomAllocator@PAUGROUP_DATA@@@util@@$0A@@std@@@std@@QAEXXZ 00434820 f i authcommon:ServerDataManager.obj
 0001:00033820       ?_Inc@const_iterator@?$_Tree@V?$_Tmap_traits@KPAVServerSession@WBANetwork@@U?$less@K@std@@V?$allocator@U?$pair@$$CBKPAVServerSession@WBANetwork@@@std@@@4@$0A@@std@@@std@@QAEXXZ 00434820 f i ClientStub_VS2008:SessionManager.obj
 0001:00033900       ?erase@?$_Tree@V?$_Tmap_traits@KPAUGROUP_DATA@@U?$less@K@std@@V?$CustomAllocator@PAUGROUP_DATA@@@util@@$0A@@std@@@std@@QAE?AViterator@12@Vconst_iterator@12@@Z 00434900 f i authcommon:ServerDataManager.obj
 0001:000340e0       ?_Make_iter@?$_Tree@V?$_Tmap_traits@KPAVServerSession@WBANetwork@@U?$less@K@std@@V?$allocator@U?$pair@$$CBKPAVServerSession@WBANetwork@@@std@@@4@$0A@@std@@@std@@QBE?AViterator@12@Vconst_iterator@12@@Z 004350e0 f i ClientStub_VS2008:SessionManager.obj
 0001:000340e0       ?_Make_iter@?$_Tree@V?$_Tmap_traits@KPAVServerData@@U?$less@K@std@@V?$CustomAllocator@PAVServerData@@@util@@$0A@@std@@@std@@QBE?AViterator@12@Vconst_iterator@12@@Z 004350e0 f i authcommon:ServerDataManager.obj
 0001:000340e0       ?_Make_iter@?$_Tree@V?$_Tmap_traits@KPAUGROUP_DATA@@U?$less@K@std@@V?$CustomAllocator@PAUGROUP_DATA@@@util@@$0A@@std@@@std@@QBE?AViterator@12@Vconst_iterator@12@@Z 004350e0 f i authcommon:ServerDataManager.obj
 0001:000340e0       ?_Make_iter@?$_Tree@V?$_Tmap_traits@V?$basic_string@DU?$char_traits@D@std@@V?$allocator@D@2@@std@@EU?$less@V?$basic_string@DU?$char_traits@D@std@@V?$allocator@D@2@@std@@@2@V?$allocator@U?$pair@$$CBV?$basic_string@DU?$char_traits@D@std@@V?$allocator@D@2@@std@@E@std@@@2@$0A@@std@@@std@@QBE?AViterator@12@Vconst_iterator@12@@Z 004350e0 f i authcommon:csvlib.obj
 0001:00034110       ?erase@?$_Tree@V?$_Tmap_traits@KPAVServerData@@U?$less@K@std@@V?$CustomAllocator@PAVServerData@@@util@@$0A@@std@@@std@@QAE?AViterator@12@Vconst_iterator@12@@Z 00435110 f i authcommon:ServerDataManager.obj
 0001:000348f0       ?_Init@?$_Tree@V?$_Tmap_traits@KPAVServerData@@U?$less@K@std@@V?$CustomAllocator@PAVServerData@@@util@@$0A@@std@@@std@@IAEXXZ 004358f0 f i authcommon:ServerDataManager.obj
 0001:000348f0       ?_Init@?$_Tree@V?$_Tmap_traits@KPAUGROUP_DATA@@U?$less@K@std@@V?$CustomAllocator@PAUGROUP_DATA@@@util@@$0A@@std@@@std@@IAEXXZ 004358f0 f i authcommon:ServerDataManager.obj
 0001:00034960       ?_Min@?$_Tree@V?$_Tmap_traits@KPAUGROUP_DATA@@U?$less@K@std@@V?$CustomAllocator@PAUGROUP_DATA@@@util@@$0A@@std@@@std@@KAPAU_Node@?$_Tree_nod@V?$_Tmap_traits@KPAUGROUP_DATA@@U?$less@K@std@@V?$CustomAllocator@PAUGROUP_DATA@@@util@@$0A@@std@@@2@PAU342@@Z 00435960 f i authcommon:ServerDataManager.obj
 0001:00034960       ?_Min@?$_Tree@V?$_Tmap_traits@KPAVServerSession@WBANetwork@@U?$less@K@std@@V?$allocator@U?$pair@$$CBKPAVServerSession@WBANetwork@@@std@@@4@$0A@@std@@@std@@KAPAU_Node@?$_Tree_nod@V?$_Tmap_traits@KPAVServerSession@WBANetwork@@U?$less@K@std@@V?$allocator@U?$pair@$$CBKPAVServerSession@WBANetwork@@@std@@@4@$0A@@std@@@2@PAU342@@Z 00435960 f i ClientStub_VS2008:SessionManager.obj
 0001:00034960       ?_Min@?$_Tree@V?$_Tmap_traits@KPAVServerData@@U?$less@K@std@@V?$CustomAllocator@PAVServerData@@@util@@$0A@@std@@@std@@KAPAU_Node@?$_Tree_nod@V?$_Tmap_traits@KPAVServerData@@U?$less@K@std@@V?$CustomAllocator@PAVServerData@@@util@@$0A@@std@@@2@PAU342@@Z 00435960 f i authcommon:ServerDataManager.obj
 0001:000349a0       ??0?$_Tree_val@V?$_Tmap_traits@KPAUGROUP_DATA@@U?$less@K@std@@V?$CustomAllocator@PAUGROUP_DATA@@@util@@$0A@@std@@@std@@IAE@ABU?$less@K@1@V?$CustomAllocator@U?$pair@$$CBKPAUGROUP_DATA@@@std@@@util@@@Z 004359a0 f i authcommon:ServerDataManager.obj
 0001:000349a0       ??0?$_Tree_val@V?$_Tmap_traits@KPAVServerData@@U?$less@K@std@@V?$CustomAllocator@PAVServerData@@@util@@$0A@@std@@@std@@IAE@ABU?$less@K@1@V?$CustomAllocator@U?$pair@$$CBKPAVServerData@@@std@@@util@@@Z 004359a0 f i authcommon:ServerDataManager.obj
 0001:000349d0       ??Econst_iterator@?$_Tree@V?$_Tmap_traits@KPAUGROUP_DATA@@U?$less@K@std@@V?$CustomAllocator@PAUGROUP_DATA@@@util@@$0A@@std@@@std@@QAE?AV012@H@Z 004359d0 f i authcommon:ServerDataManager.obj
 0001:000349d0       ??Econst_iterator@?$_Tree@V?$_Tmap_traits@KPAVServerSession@WBANetwork@@U?$less@K@std@@V?$allocator@U?$pair@$$CBKPAVServerSession@WBANetwork@@@std@@@4@$0A@@std@@@std@@QAE?AV012@H@Z 004359d0 f i ClientStub_VS2008:SessionManager.obj
 0001:00034a10       ?_Dec@const_iterator@?$_Tree@V?$_Tmap_traits@KPAVServerSession@WBANetwork@@U?$less@K@std@@V?$allocator@U?$pair@$$CBKPAVServerSession@WBANetwork@@@std@@@4@$0A@@std@@@std@@QAEXXZ 00435a10 f i ClientStub_VS2008:SessionManager.obj
 0001:00034a10       ?_Dec@const_iterator@?$_Tree@V?$_Tmap_traits@KPAUGROUP_DATA@@U?$less@K@std@@V?$CustomAllocator@PAUGROUP_DATA@@@util@@$0A@@std@@@std@@QAEXXZ 00435a10 f i authcommon:ServerDataManager.obj
 0001:00034a10       ?_Dec@const_iterator@?$_Tree@V?$_Tmap_traits@KPAVServerData@@U?$less@K@std@@V?$CustomAllocator@PAVServerData@@@util@@$0A@@std@@@std@@QAEXXZ 00435a10 f i authcommon:ServerDataManager.obj
 0001:00034b40       ??Econst_iterator@?$_Tree@V?$_Tmap_traits@KPAVServerData@@U?$less@K@std@@V?$CustomAllocator@PAVServerData@@@util@@$0A@@std@@@std@@QAE?AV012@H@Z 00435b40 f i authcommon:ServerDataManager.obj
 0001:00034b80       ??0_Node@?$_Tree_nod@V?$_Tmap_traits@KPAVServerSession@WBANetwork@@U?$less@K@std@@V?$allocator@U?$pair@$$CBKPAVServerSession@WBANetwork@@@std@@@4@$0A@@std@@@std@@QAE@PAU012@00ABU?$pair@$$CBKPAVServerSession@WBANetwork@@@2@D@Z 00435b80 f i ClientStub_VS2008:SessionManager.obj
 0001:00034b80       ??0_Node@?$_Tree_nod@V?$_Tmap_traits@KPAUGROUP_DATA@@U?$less@K@std@@V?$CustomAllocator@PAUGROUP_DATA@@@util@@$0A@@std@@@std@@QAE@PAU012@00ABU?$pair@$$CBKPAUGROUP_DATA@@@2@D@Z 00435b80 f i authcommon:ServerDataManager.obj
 0001:00034b80       ??0_Node@?$_Tree_nod@V?$_Tmap_traits@KPAVServerData@@U?$less@K@std@@V?$CustomAllocator@PAVServerData@@@util@@$0A@@std@@@std@@QAE@PAU012@00ABU?$pair@$$CBKPAVServerData@@@2@D@Z 00435b80 f i authcommon:ServerDataManager.obj
 0001:00034bd0       ?_Max@?$_Tree@V?$_Tmap_traits@KPAVServerSession@WBANetwork@@U?$less@K@std@@V?$allocator@U?$pair@$$CBKPAVServerSession@WBANetwork@@@std@@@4@$0A@@std@@@std@@KAPAU_Node@?$_Tree_nod@V?$_Tmap_traits@KPAVServerSession@WBANetwork@@U?$less@K@std@@V?$allocator@U?$pair@$$CBKPAVServerSession@WBANetwork@@@std@@@4@$0A@@std@@@2@PAU342@@Z 00435bd0 f i ClientStub_VS2008:SessionManager.obj
 0001:00034bd0       ?_Max@?$_Tree@V?$_Tmap_traits@KPAVServerData@@U?$less@K@std@@V?$CustomAllocator@PAVServerData@@@util@@$0A@@std@@@std@@KAPAU_Node@?$_Tree_nod@V?$_Tmap_traits@KPAVServerData@@U?$less@K@std@@V?$CustomAllocator@PAVServerData@@@util@@$0A@@std@@@2@PAU342@@Z 00435bd0 f i authcommon:ServerDataManager.obj
 0001:00034bd0       ?_Max@?$_Tree@V?$_Tmap_traits@KPAUGROUP_DATA@@U?$less@K@std@@V?$CustomAllocator@PAUGROUP_DATA@@@util@@$0A@@std@@@std@@KAPAU_Node@?$_Tree_nod@V?$_Tmap_traits@KPAUGROUP_DATA@@U?$less@K@std@@V?$CustomAllocator@PAUGROUP_DATA@@@util@@$0A@@std@@@2@PAU342@@Z 00435bd0 f i authcommon:ServerDataManager.obj
 0001:00034c10       ?_Buynode@?$_Tree@V?$_Tmap_traits@KPAVServerData@@U?$less@K@std@@V?$CustomAllocator@PAVServerData@@@util@@$0A@@std@@@std@@IAEPAU_Node@?$_Tree_nod@V?$_Tmap_traits@KPAVServerData@@U?$less@K@std@@V?$CustomAllocator@PAVServerData@@@util@@$0A@@std@@@2@XZ 00435c10 f i authcommon:ServerDataManager.obj
 0001:00034c10       ?_Buynode@?$_Tree@V?$_Tmap_traits@KPAUGROUP_DATA@@U?$less@K@std@@V?$CustomAllocator@PAUGROUP_DATA@@@util@@$0A@@std@@@std@@IAEPAU_Node@?$_Tree_nod@V?$_Tmap_traits@KPAUGROUP_DATA@@U?$less@K@std@@V?$CustomAllocator@PAUGROUP_DATA@@@util@@$0A@@std@@@2@XZ 00435c10 f i authcommon:ServerDataManager.obj
 0001:00034d90       ??0?$_Tree_ptr@V?$_Tmap_traits@KPAUGROUP_DATA@@U?$less@K@std@@V?$CustomAllocator@PAUGROUP_DATA@@@util@@$0A@@std@@@std@@IAE@ABU?$less@K@1@V?$CustomAllocator@U?$pair@$$CBKPAUGROUP_DATA@@@std@@@util@@@Z 00435d90 f i authcommon:ServerDataManager.obj
 0001:00034d90       ??0?$_Tree_ptr@V?$_Tmap_traits@KPAVServerData@@U?$less@K@std@@V?$CustomAllocator@PAVServerData@@@util@@$0A@@std@@@std@@IAE@ABU?$less@K@1@V?$CustomAllocator@U?$pair@$$CBKPAVServerData@@@std@@@util@@@Z 00435d90 f i authcommon:ServerDataManager.obj
 0001:00034e00       ??0?$_Tree_nod@V?$_Tmap_traits@KPAVServerData@@U?$less@K@std@@V?$CustomAllocator@PAVServerData@@@util@@$0A@@std@@@std@@IAE@ABU?$less@K@1@V?$CustomAllocator@U?$pair@$$CBKPAVServerData@@@std@@@util@@@Z 00435e00 f i authcommon:ServerDataManager.obj
 0001:00034e00       ??0?$_Tree_nod@V?$_Tmap_traits@KPAUGROUP_DATA@@U?$less@K@std@@V?$CustomAllocator@PAUGROUP_DATA@@@util@@$0A@@std@@@std@@IAE@ABU?$less@K@1@V?$CustomAllocator@U?$pair@$$CBKPAUGROUP_DATA@@@std@@@util@@@Z 00435e00 f i authcommon:ServerDataManager.obj
 0001:00034e80       ??0?$_Tmap_traits@KPAVServerData@@U?$less@K@std@@V?$CustomAllocator@PAVServerData@@@util@@$0A@@std@@QAE@U?$less@K@1@V?$CustomAllocator@PAVServerData@@@util@@@Z 00435e80 f i authcommon:ServerDataManager.obj
 0001:00034e80       ??0?$_Tmap_traits@KPAUGROUP_DATA@@U?$less@K@std@@V?$CustomAllocator@PAUGROUP_DATA@@@util@@$0A@@std@@QAE@U?$less@K@1@V?$CustomAllocator@PAUGROUP_DATA@@@util@@@Z 00435e80 f i authcommon:ServerDataManager.obj
 0001:00034ea0       ??0?$_Container_base_aux_alloc_real@V?$CustomAllocator@PAVServerData@@@util@@@std@@IAE@V?$CustomAllocator@PAVServerData@@@util@@@Z 00435ea0 f i authcommon:ServerDataManager.obj
 0001:00034ea0       ??0?$_Container_base_aux_alloc_real@V?$CustomAllocator@PAUGROUP_DATA@@@util@@@std@@IAE@V?$CustomAllocator@PAUGROUP_DATA@@@util@@@Z 00435ea0 f i authcommon:ServerDataManager.obj
 0001:00034f60       ?allocate@?$CustomAllocator@U_Node@?$_Tree_nod@V?$_Tmap_traits@KPAVServerData@@U?$less@K@std@@V?$CustomAllocator@PAVServerData@@@util@@$0A@@std@@@std@@@util@@QAEPAU_Node@?$_Tree_nod@V?$_Tmap_traits@KPAVServerData@@U?$less@K@std@@V?$CustomAllocator@PAVServerData@@@util@@$0A@@std@@@std@@IPBX@Z 00435f60 f i authcommon:ServerDataManager.obj
 0001:00034f60       ?allocate@?$CustomAllocator@U_Node@?$_Tree_nod@V?$_Tmap_traits@KPAUGROUP_DATA@@U?$less@K@std@@V?$CustomAllocator@PAUGROUP_DATA@@@util@@$0A@@std@@@std@@@util@@QAEPAU_Node@?$_Tree_nod@V?$_Tmap_traits@KPAUGROUP_DATA@@U?$less@K@std@@V?$CustomAllocator@PAUGROUP_DATA@@@util@@$0A@@std@@@std@@IPBX@Z 00435f60 f i authcommon:ServerDataManager.obj
 0001:00034f80       ?deallocate@?$CustomAllocator@V_Aux_cont@std@@@util@@QAEXPAXI@Z 00435f80 f i authcommon:ServerDataManager.obj
 0001:00034f80       ?deallocate@?$CustomAllocator@U_Node@?$_Tree_nod@V?$_Tmap_traits@KPAVServerData@@U?$less@K@std@@V?$CustomAllocator@PAVServerData@@@util@@$0A@@std@@@std@@@util@@QAEXPAXI@Z 00435f80 f i authcommon:ServerDataManager.obj
 0001:00034f80       ?deallocate@?$CustomAllocator@U_Node@?$_Tree_nod@V?$_Tmap_traits@KPAUGROUP_DATA@@U?$less@K@std@@V?$CustomAllocator@PAUGROUP_DATA@@@util@@$0A@@std@@@std@@@util@@QAEXPAXI@Z 00435f80 f i authcommon:ServerDataManager.obj
 0001:00034fa0       ?construct@?$CustomAllocator@PAU_Node@?$_Tree_nod@V?$_Tmap_traits@KPAVServerData@@U?$less@K@std@@V?$CustomAllocator@PAVServerData@@@util@@$0A@@std@@@std@@@util@@QAEXPAPAU_Node@?$_Tree_nod@V?$_Tmap_traits@KPAVServerData@@U?$less@K@std@@V?$CustomAllocator@PAVServerData@@@util@@$0A@@std@@@std@@ABQAU345@@Z 00435fa0 f i authcommon:ServerDataManager.obj
 0001:00034fa0       ?construct@?$CustomAllocator@PAU_Node@?$_Tree_nod@V?$_Tmap_traits@KPAUGROUP_DATA@@U?$less@K@std@@V?$CustomAllocator@PAUGROUP_DATA@@@util@@$0A@@std@@@std@@@util@@QAEXPAPAU_Node@?$_Tree_nod@V?$_Tmap_traits@KPAUGROUP_DATA@@U?$less@K@std@@V?$CustomAllocator@PAUGROUP_DATA@@@util@@$0A@@std@@@std@@ABQAU345@@Z 00435fa0 f i authcommon:ServerDataManager.obj
 0001:00034fe0       ?max_size@?$allocator@U?$pair@$$CBKPAVServerSession@WBANetwork@@@std@@@std@@QBEIXZ 00435fe0 f i ClientStub_VS2008:SessionManager.obj
 0001:00034fe0       ?max_size@?$CustomAllocator@U?$pair@$$CBKPAUGROUP_DATA@@@std@@@util@@QBEIXZ 00435fe0 f i authcommon:ServerDataManager.obj
 0001:00034fe0       ?max_size@?$CustomAllocator@U?$pair@$$CBKPAVServerData@@@std@@@util@@QBEIXZ 00435fe0 f i authcommon:ServerDataManager.obj
 0001:00035010       ?allocate@?$CustomAllocator@V_Aux_cont@std@@@util@@QAEPAV_Aux_cont@std@@IPBX@Z 00436010 f i authcommon:ServerDataManager.obj
 0001:00035030       ??0ServerData@@QAE@XZ      00436030 f   authcommon:ServerData.obj
 0001:000350a0       ?CheckServerCrowd@ServerData@@QAEHXZ 004360a0 f   authcommon:ServerData.obj
 0001:000350e0       ?IncLoginUserCount@ServerData@@QAEXXZ 004360e0 f   authcommon:ServerData.obj
 0001:00035110       ?DecLoginUserCount@ServerData@@QAEXXZ 00436110 f   authcommon:ServerData.obj
 0001:00035150       ?GetProtocolType@AuthStepAuthToken@@SA?AW4eProtocol@1@PAUMSG_BASE_INTERNAL@@G@Z 00436150 f   authcommon:AuthStepAuthToken.obj
 0001:000352a0       ?MakeReAuthToken@AuthStepAuthToken@@SAEKGPAUReAuthStepAuthTokenInfo@@@Z 004362a0 f   authcommon:AuthStepAuthToken.obj
 0001:00035850       ?ExtractReAuthTokenRawIndex@AuthStepAuthToken@@SAEPBUToken@CSAuthFlow@nsPacket@@PAG@Z 00436850 f   authcommon:AuthStepAuthToken.obj
 0001:000358d0       ?ExtractReAuthToken@AuthStepAuthToken@@SAEPBUReAuthStepAuthTokenInfo@@PBUToken@CSAuthFlow@nsPacket@@PAKPAG@Z 004368d0 f   authcommon:AuthStepAuthToken.obj
 0001:000359f0       ?StringTokenConverter@@YAKK@Z 004369f0 f i authcommon:AuthStepAuthToken.obj
 0001:00035a70       ??0Csvlib@@QAE@XZ          00436a70 f   authcommon:csvlib.obj
 0001:00035ae0       ??1Csvlib@@UAE@XZ          00436ae0 f   authcommon:csvlib.obj
 0001:00035b50       ?Clear@Csvlib@@QAEXXZ      00436b50 f   authcommon:csvlib.obj
 0001:00035b80       ?LoadFromFile@Csvlib@@QAE_NPAD@Z 00436b80 f   authcommon:csvlib.obj
 0001:00035cf0       ?Select@Csvlib@@QAE?AV?$basic_string@DU?$char_traits@D@std@@V?$allocator@D@2@@std@@HPAD@Z 00436cf0 f   authcommon:csvlib.obj
 0001:00035e80       ?DecodeCsv@Csvlib@@AAEXW4CSV_TYPE@1@PAD@Z 00436e80 f   authcommon:csvlib.obj
 0001:00036140       ??_ECsvlib@@UAEPAXI@Z      00437140 f i authcommon:csvlib.obj
 0001:00036140       ??_GCsvlib@@UAEPAXI@Z      00437140 f i authcommon:csvlib.obj
 0001:00036170       ??1?$map@V?$basic_string@DU?$char_traits@D@std@@V?$allocator@D@2@@std@@EU?$less@V?$basic_string@DU?$char_traits@D@std@@V?$allocator@D@2@@std@@@2@V?$allocator@U?$pair@$$CBV?$basic_string@DU?$char_traits@D@std@@V?$allocator@D@2@@std@@E@std@@@2@@std@@QAE@XZ 00437170 f i authcommon:csvlib.obj
 0001:00036190       ??_D?$basic_ifstream@DU?$char_traits@D@std@@@std@@QAEXXZ 00437190 f i authcommon:csvlib.obj
 0001:000361c0       ??1?$pair@$$CBV?$basic_string@DU?$char_traits@D@std@@V?$allocator@D@2@@std@@E@std@@QAE@XZ 004371c0 f i authcommon:csvlib.obj
 0001:000361c0       ??1?$pair@V?$basic_string@DU?$char_traits@D@std@@V?$allocator@D@2@@std@@E@std@@QAE@XZ 004371c0 f i authcommon:csvlib.obj
 0001:000361e0       ?getline@?$basic_istream@DU?$char_traits@D@std@@@std@@QAEAAV12@PADH@Z 004371e0 f i authcommon:csvlib.obj
 0001:00036220       ??0?$map@V?$basic_string@DU?$char_traits@D@std@@V?$allocator@D@2@@std@@EU?$less@V?$basic_string@DU?$char_traits@D@std@@V?$allocator@D@2@@std@@@2@V?$allocator@U?$pair@$$CBV?$basic_string@DU?$char_traits@D@std@@V?$allocator@D@2@@std@@E@std@@@2@@std@@QAE@XZ 00437220 f i authcommon:csvlib.obj
 0001:00036250       ??1?$_Tree@V?$_Tmap_traits@V?$basic_string@DU?$char_traits@D@std@@V?$allocator@D@2@@std@@EU?$less@V?$basic_string@DU?$char_traits@D@std@@V?$allocator@D@2@@std@@@2@V?$allocator@U?$pair@$$CBV?$basic_string@DU?$char_traits@D@std@@V?$allocator@D@2@@std@@E@std@@@2@$0A@@std@@@std@@QAE@XZ 00437250 f i authcommon:csvlib.obj
 0001:000362b0       ?end@?$_Tree@V?$_Tmap_traits@KPAVServerData@@U?$less@K@std@@V?$CustomAllocator@PAVServerData@@@util@@$0A@@std@@@std@@QAE?AViterator@12@XZ 004372b0 f i authcommon:ServerDataManager.obj
 0001:000362b0       ?end@?$_Tree@V?$_Tmap_traits@KPAVServerSession@WBANetwork@@U?$less@K@std@@V?$allocator@U?$pair@$$CBKPAVServerSession@WBANetwork@@@std@@@4@$0A@@std@@@std@@QAE?AViterator@12@XZ 004372b0 f i ClientStub_VS2008:SessionManager.obj
 0001:000362b0       ?end@?$_Tree@V?$_Tmap_traits@V?$basic_string@DU?$char_traits@D@std@@V?$allocator@D@2@@std@@EU?$less@V?$basic_string@DU?$char_traits@D@std@@V?$allocator@D@2@@std@@@2@V?$allocator@U?$pair@$$CBV?$basic_string@DU?$char_traits@D@std@@V?$allocator@D@2@@std@@E@std@@@2@$0A@@std@@@std@@QAE?AViterator@12@XZ 004372b0 f i authcommon:csvlib.obj
 0001:000362b0       ?end@?$_Tree@V?$_Tmap_traits@KPAUGROUP_DATA@@U?$less@K@std@@V?$CustomAllocator@PAUGROUP_DATA@@@util@@$0A@@std@@@std@@QAE?AViterator@12@XZ 004372b0 f i authcommon:ServerDataManager.obj
 0001:000362e0       ?size@?$_Tree@V?$_Tmap_traits@V?$basic_string@DU?$char_traits@D@std@@V?$allocator@D@2@@std@@EU?$less@V?$basic_string@DU?$char_traits@D@std@@V?$allocator@D@2@@std@@@2@V?$allocator@U?$pair@$$CBV?$basic_string@DU?$char_traits@D@std@@V?$allocator@D@2@@std@@E@std@@@2@$0A@@std@@@std@@QBEIXZ 004372e0 f i authcommon:csvlib.obj
 0001:000362e0       ?size@?$deque@PAU_tagConnectInfo@Connector@WBANetwork@@V?$allocator@PAU_tagConnectInfo@Connector@WBANetwork@@@std@@@std@@QBEIXZ 004372e0 f i ClientStub_VS2008:Connector.obj
 0001:000362e0       ?size@?$_Tree@V?$_Tmap_traits@KPAVServerSession@WBANetwork@@U?$less@K@std@@V?$allocator@U?$pair@$$CBKPAVServerSession@WBANetwork@@@std@@@4@$0A@@std@@@std@@QBEIXZ 004372e0 f i ClientStub_VS2008:SessionManager.obj
 0001:000362e0       ?size@?$_Tree@V?$_Tmap_traits@KPAVServerData@@U?$less@K@std@@V?$CustomAllocator@PAVServerData@@@util@@$0A@@std@@@std@@QBEIXZ 004372e0 f i authcommon:ServerDataManager.obj
 0001:00036300       ?insert@?$_Tree@V?$_Tmap_traits@V?$basic_string@DU?$char_traits@D@std@@V?$allocator@D@2@@std@@EU?$less@V?$basic_string@DU?$char_traits@D@std@@V?$allocator@D@2@@std@@@2@V?$allocator@U?$pair@$$CBV?$basic_string@DU?$char_traits@D@std@@V?$allocator@D@2@@std@@E@std@@@2@$0A@@std@@@std@@QAE?AU?$pair@Viterator@?$_Tree@V?$_Tmap_traits@V?$basic_string@DU?$char_traits@D@std@@V?$allocator@D@2@@std@@EU?$less@V?$basic_string@DU?$char_traits@D@std@@V?$allocator@D@2@@std@@@2@V?$allocator@U?$pair@$$CBV?$basic_string@DU?$char_traits@D@std@@V?$allocator@D@2@@std@@E@std@@@2@$0A@@std@@@std@@_N@2@ABU?$pair@$$CBV?$basic_string@DU?$char_traits@D@std@@V?$allocator@D@2@@std@@E@2@@Z 00437300 f i authcommon:csvlib.obj
 0001:000364d0       ?clear@?$_Tree@V?$_Tmap_traits@V?$basic_string@DU?$char_traits@D@std@@V?$allocator@D@2@@std@@EU?$less@V?$basic_string@DU?$char_traits@D@std@@V?$allocator@D@2@@std@@@2@V?$allocator@U?$pair@$$CBV?$basic_string@DU?$char_traits@D@std@@V?$allocator@D@2@@std@@E@std@@@2@$0A@@std@@@std@@QAEXXZ 004374d0 f i authcommon:csvlib.obj
 0001:00036530       ?find@?$_Tree@V?$_Tmap_traits@V?$basic_string@DU?$char_traits@D@std@@V?$allocator@D@2@@std@@EU?$less@V?$basic_string@DU?$char_traits@D@std@@V?$allocator@D@2@@std@@@2@V?$allocator@U?$pair@$$CBV?$basic_string@DU?$char_traits@D@std@@V?$allocator@D@2@@std@@E@std@@@2@$0A@@std@@@std@@QAE?AViterator@12@ABV?$basic_string@DU?$char_traits@D@std@@V?$allocator@D@2@@2@@Z 00437530 f i authcommon:csvlib.obj
 0001:000365d0       ??0?$vector@V?$basic_string@DU?$char_traits@D@std@@V?$allocator@D@2@@std@@V?$allocator@V?$basic_string@DU?$char_traits@D@std@@V?$allocator@D@2@@std@@@2@@std@@QAE@XZ 004375d0 f i authcommon:csvlib.obj
 0001:00036640       ??1?$vector@V?$basic_string@DU?$char_traits@D@std@@V?$allocator@D@2@@std@@V?$allocator@V?$basic_string@DU?$char_traits@D@std@@V?$allocator@D@2@@std@@@2@@std@@QAE@XZ 00437640 f i authcommon:csvlib.obj
 0001:000366a0       ?size@?$vector@V?$basic_string@DU?$char_traits@D@std@@V?$allocator@D@2@@std@@V?$allocator@V?$basic_string@DU?$char_traits@D@std@@V?$allocator@D@2@@std@@@2@@std@@QBEIXZ 004376a0 f i authcommon:csvlib.obj
 0001:000366c0       ??A?$vector@V?$basic_string@DU?$char_traits@D@std@@V?$allocator@D@2@@std@@V?$allocator@V?$basic_string@DU?$char_traits@D@std@@V?$allocator@D@2@@std@@@2@@std@@QAEAAV?$basic_string@DU?$char_traits@D@std@@V?$allocator@D@2@@1@I@Z 004376c0 f i authcommon:csvlib.obj
 0001:000366f0       ?push_back@?$vector@V?$basic_string@DU?$char_traits@D@std@@V?$allocator@D@2@@std@@V?$allocator@V?$basic_string@DU?$char_traits@D@std@@V?$allocator@D@2@@std@@@2@@std@@QAEXABV?$basic_string@DU?$char_traits@D@std@@V?$allocator@D@2@@2@@Z 004376f0 f i authcommon:csvlib.obj
 0001:00036770       ?clear@?$vector@V?$basic_string@DU?$char_traits@D@std@@V?$allocator@D@2@@std@@V?$allocator@V?$basic_string@DU?$char_traits@D@std@@V?$allocator@D@2@@std@@@2@@std@@QAEXXZ 00437770 f i authcommon:csvlib.obj
 0001:000367d0       ??0?$basic_ifstream@DU?$char_traits@D@std@@@std@@QAE@PBDHH@Z 004377d0 f i authcommon:csvlib.obj
 0001:000368c0       ??1?$basic_ifstream@DU?$char_traits@D@std@@@std@@UAE@XZ 004378c0 f i authcommon:csvlib.obj
 0001:00036930       ??1?$basic_filebuf@DU?$char_traits@D@std@@@std@@UAE@XZ 00437930 f i authcommon:csvlib.obj
 0001:000369a0       ?overflow@?$basic_filebuf@DU?$char_traits@D@std@@@std@@MAEHH@Z 004379a0 f i authcommon:csvlib.obj
 0001:00036ce0       ??$_Fputc@D@std@@YA_NDPAU_iobuf@@@Z 00437ce0 f i authcommon:csvlib.obj
 0001:00036d00       ?pbackfail@?$basic_filebuf@DU?$char_traits@D@std@@@std@@MAEHH@Z 00437d00 f i authcommon:csvlib.obj
 0001:00036e50       ??$_Ungetc@D@std@@YA_NABDPAU_iobuf@@@Z 00437e50 f i authcommon:csvlib.obj
 0001:00036e80       ?underflow@?$basic_filebuf@DU?$char_traits@D@std@@@std@@MAEHXZ 00437e80 f i authcommon:csvlib.obj
 0001:00036f10       ?uflow@?$basic_filebuf@DU?$char_traits@D@std@@@std@@MAEHXZ 00437f10 f i authcommon:csvlib.obj
 0001:00037210       ??$_Fgetc@D@std@@YA_NAADPAU_iobuf@@@Z 00438210 f i authcommon:csvlib.obj
 0001:00037240       ?to_char_type@?$char_traits@D@std@@SADABH@Z 00438240 f i authcommon:csvlib.obj
 0001:00037250       ?to_int_type@?$char_traits@D@std@@SAHABD@Z 00438250 f i authcommon:csvlib.obj
 0001:00037260       ?eq_int_type@?$char_traits@D@std@@SA_NABH0@Z 00438260 f i authcommon:csvlib.obj
 0001:00037280       ?eof@?$char_traits@D@std@@SAHXZ 00438280 f i authcommon:csvlib.obj
 0001:00037290       ?not_eof@?$char_traits@D@std@@SAHABH@Z 00438290 f i authcommon:csvlib.obj
 0001:000372c0       ?seekoff@?$basic_filebuf@DU?$char_traits@D@std@@@std@@MAE?AV?$fpos@H@2@JHH@Z 004382c0 f i authcommon:csvlib.obj
 0001:000373b0       ?seekpos@?$basic_filebuf@DU?$char_traits@D@std@@@std@@MAE?AV?$fpos@H@2@V32@H@Z 004383b0 f i authcommon:csvlib.obj
 0001:000374b0       ?setbuf@?$basic_filebuf@DU?$char_traits@D@std@@@std@@MAEPAV?$basic_streambuf@DU?$char_traits@D@std@@@2@PADH@Z 004384b0 f i authcommon:csvlib.obj
 0001:00037520       ?sync@?$basic_filebuf@DU?$char_traits@D@std@@@std@@MAEHXZ 00438520 f i authcommon:csvlib.obj
 0001:000375a0       ?imbue@?$basic_filebuf@DU?$char_traits@D@std@@@std@@MAEXABVlocale@2@@Z 004385a0 f i authcommon:csvlib.obj
 0001:000375d0       ??0iterator@?$_Tree@V?$_Tmap_traits@V?$basic_string@DU?$char_traits@D@std@@V?$allocator@D@2@@std@@EU?$less@V?$basic_string@DU?$char_traits@D@std@@V?$allocator@D@2@@std@@@2@V?$allocator@U?$pair@$$CBV?$basic_string@DU?$char_traits@D@std@@V?$allocator@D@2@@std@@E@std@@@2@$0A@@std@@@std@@QAE@XZ 004385d0 f i authcommon:csvlib.obj
 0001:000375f0       ??0?$pair@V?$basic_string@DU?$char_traits@D@std@@V?$allocator@D@2@@std@@E@std@@QAE@ABV?$basic_string@DU?$char_traits@D@std@@V?$allocator@D@2@@1@ABE@Z 004385f0 f i authcommon:csvlib.obj
 0001:00037620       ??1?$_Tree_val@V?$_Tmap_traits@V?$basic_string@DU?$char_traits@D@std@@V?$allocator@D@2@@std@@EU?$less@V?$basic_string@DU?$char_traits@D@std@@V?$allocator@D@2@@std@@@2@V?$allocator@U?$pair@$$CBV?$basic_string@DU?$char_traits@D@std@@V?$allocator@D@2@@std@@E@std@@@2@$0A@@std@@@std@@QAE@XZ 00438620 f i authcommon:csvlib.obj
 0001:00037640       ??1?$_Vector_val@V?$basic_string@DU?$char_traits@D@std@@V?$allocator@D@2@@std@@V?$allocator@V?$basic_string@DU?$char_traits@D@std@@V?$allocator@D@2@@std@@@2@@std@@QAE@XZ 00438640 f i authcommon:csvlib.obj
 0001:00037640       ??1?$_Tmap_traits@V?$basic_string@DU?$char_traits@D@std@@V?$allocator@D@2@@std@@EU?$less@V?$basic_string@DU?$char_traits@D@std@@V?$allocator@D@2@@std@@@2@V?$allocator@U?$pair@$$CBV?$basic_string@DU?$char_traits@D@std@@V?$allocator@D@2@@std@@E@std@@@2@$0A@@std@@QAE@XZ 00438640 f i authcommon:csvlib.obj
 0001:00037660       ??_E?$basic_ifstream@DU?$char_traits@D@std@@@std@@UAEPAXI@Z 00438660 f i authcommon:csvlib.obj
 0001:00037660       ??_G?$basic_ifstream@DU?$char_traits@D@std@@@std@@UAEPAXI@Z 00438660 f i authcommon:csvlib.obj
 0001:000376a0       ??_G?$basic_filebuf@DU?$char_traits@D@std@@@std@@UAEPAXI@Z 004386a0 f i authcommon:csvlib.obj
 0001:000376a0       ??_E?$basic_filebuf@DU?$char_traits@D@std@@@std@@UAEPAXI@Z 004386a0 f i authcommon:csvlib.obj
 0001:000376d0       ??1?$_Tree_ptr@V?$_Tmap_traits@V?$basic_string@DU?$char_traits@D@std@@V?$allocator@D@2@@std@@EU?$less@V?$basic_string@DU?$char_traits@D@std@@V?$allocator@D@2@@std@@@2@V?$allocator@U?$pair@$$CBV?$basic_string@DU?$char_traits@D@std@@V?$allocator@D@2@@std@@E@std@@@2@$0A@@std@@@std@@QAE@XZ 004386d0 f i authcommon:csvlib.obj
 0001:000376f0       ??1?$_Tree_nod@V?$_Tmap_traits@V?$basic_string@DU?$char_traits@D@std@@V?$allocator@D@2@@std@@EU?$less@V?$basic_string@DU?$char_traits@D@std@@V?$allocator@D@2@@std@@@2@V?$allocator@U?$pair@$$CBV?$basic_string@DU?$char_traits@D@std@@V?$allocator@D@2@@std@@E@std@@@2@$0A@@std@@@std@@QAE@XZ 004386f0 f i authcommon:csvlib.obj
 0001:00037710       ??0?$basic_string@DU?$char_traits@D@std@@V?$allocator@D@2@@std@@QAE@ID@Z 00438710 f i authcommon:csvlib.obj
 0001:00037750       ?append@?$basic_string@DU?$char_traits@D@std@@V?$allocator@D@2@@std@@QAEAAV12@ID@Z 00438750 f i authcommon:csvlib.obj
 0001:000377c0       ?begin@?$basic_string@DU?$char_traits@D@std@@V?$allocator@D@2@@std@@QAE?AV?$_String_iterator@DU?$char_traits@D@std@@V?$allocator@D@2@@2@XZ 004387c0 f i authcommon:csvlib.obj
 0001:000377f0       ?widen@?$basic_ios@DU?$char_traits@D@std@@@std@@QBEDD@Z 004387f0 f i authcommon:csvlib.obj
 0001:00037870       ??0?$basic_ios@DU?$char_traits@D@std@@@std@@IAE@XZ 00438870 f i authcommon:csvlib.obj
 0001:00037890       ??0?$basic_istream@DU?$char_traits@D@std@@@std@@QAE@PAV?$basic_streambuf@DU?$char_traits@D@std@@@1@_N@Z 00438890 f i authcommon:csvlib.obj
 0001:00037940       ?getline@?$basic_istream@DU?$char_traits@D@std@@@std@@QAEAAV12@PADHD@Z 00438940 f i authcommon:csvlib.obj
 0001:00037b60       ?eback@?$basic_streambuf@DU?$char_traits@D@std@@@std@@IBEPADXZ 00438b60 f i authcommon:csvlib.obj
 0001:00037b80       ?egptr@?$basic_streambuf@DU?$char_traits@D@std@@@std@@IBEPADXZ 00438b80 f i authcommon:csvlib.obj
 0001:00037ba0       ?setg@?$basic_streambuf@DU?$char_traits@D@std@@@std@@IAEXPAD00@Z 00438ba0 f i authcommon:csvlib.obj
 0001:00037be0       ?epptr@?$basic_streambuf@DU?$char_traits@D@std@@@std@@IBEPADXZ 00438be0 f i authcommon:csvlib.obj
 0001:00037c00       ?_Gndec@?$basic_streambuf@DU?$char_traits@D@std@@@std@@IAEPADXZ 00438c00 f i authcommon:csvlib.obj
 0001:00037c40       ??0?$fpos@H@std@@QAE@H_J@Z 00438c40 f i authcommon:csvlib.obj
 0001:00037c80       ?state@?$fpos@H@std@@QBEHXZ 00438c80 f i authcommon:csvlib.obj
 0001:00037c80       ?flags@ios_base@std@@QBEHXZ 00438c80 f i authcommon:csvlib.obj
 0001:00037ca0       ?seekpos@?$fpos@H@std@@QBE_JXZ 00438ca0 f i authcommon:csvlib.obj
 0001:00037cc0       ??B?$fpos@H@std@@QBEJXZ    00438cc0 f i authcommon:csvlib.obj
 0001:00037ce0       ?_Isnil@?$_Tree@V?$_Tmap_traits@V?$basic_string@DU?$char_traits@D@std@@V?$allocator@D@2@@std@@EU?$less@V?$basic_string@DU?$char_traits@D@std@@V?$allocator@D@2@@std@@@2@V?$allocator@U?$pair@$$CBV?$basic_string@DU?$char_traits@D@std@@V?$allocator@D@2@@std@@E@std@@@2@$0A@@std@@@std@@KAAADPAU_Node@?$_Tree_nod@V?$_Tmap_traits@V?$basic_string@DU?$char_traits@D@std@@V?$allocator@D@2@@std@@EU?$less@V?$basic_string@DU?$char_traits@D@std@@V?$allocator@D@2@@std@@@2@V?$allocator@U?$pair@$$CBV?$basic_string@DU?$char_traits@D@std@@V?$allocator@D@2@@std@@E@std@@@2@$0A@@std@@@2@@Z 00438ce0 f i authcommon:csvlib.obj
 0001:00037cf0       ??0?$_Tree@V?$_Tmap_traits@V?$basic_string@DU?$char_traits@D@std@@V?$allocator@D@2@@std@@EU?$less@V?$basic_string@DU?$char_traits@D@std@@V?$allocator@D@2@@std@@@2@V?$allocator@U?$pair@$$CBV?$basic_string@DU?$char_traits@D@std@@V?$allocator@D@2@@std@@E@std@@@2@$0A@@std@@@std@@QAE@ABU?$less@V?$basic_string@DU?$char_traits@D@std@@V?$allocator@D@2@@std@@@1@ABV?$allocator@U?$pair@$$CBV?$basic_string@DU?$char_traits@D@std@@V?$allocator@D@2@@std@@E@std@@@1@@Z 00438cf0 f i authcommon:csvlib.obj
 0001:00037d60       ?lower_bound@?$_Tree@V?$_Tmap_traits@V?$basic_string@DU?$char_traits@D@std@@V?$allocator@D@2@@std@@EU?$less@V?$basic_string@DU?$char_traits@D@std@@V?$allocator@D@2@@std@@@2@V?$allocator@U?$pair@$$CBV?$basic_string@DU?$char_traits@D@std@@V?$allocator@D@2@@std@@E@std@@@2@$0A@@std@@@std@@QAE?AViterator@12@ABV?$basic_string@DU?$char_traits@D@std@@V?$allocator@D@2@@2@@Z 00438d60 f i authcommon:csvlib.obj
 0001:00037d90       ?_Erase@?$_Tree@V?$_Tmap_traits@V?$basic_string@DU?$char_traits@D@std@@V?$allocator@D@2@@std@@EU?$less@V?$basic_string@DU?$char_traits@D@std@@V?$allocator@D@2@@std@@@2@V?$allocator@U?$pair@$$CBV?$basic_string@DU?$char_traits@D@std@@V?$allocator@D@2@@std@@E@std@@@2@$0A@@std@@@std@@IAEXPAU_Node@?$_Tree_nod@V?$_Tmap_traits@V?$basic_string@DU?$char_traits@D@std@@V?$allocator@D@2@@std@@EU?$less@V?$basic_string@DU?$char_traits@D@std@@V?$allocator@D@2@@std@@@2@V?$allocator@U?$pair@$$CBV?$basic_string@DU?$char_traits@D@std@@V?$allocator@D@2@@std@@E@std@@@2@$0A@@std@@@2@@Z 00438d90 f i authcommon:csvlib.obj
 0001:00037e10       ?_Insert@?$_Tree@V?$_Tmap_traits@V?$basic_string@DU?$char_traits@D@std@@V?$allocator@D@2@@std@@EU?$less@V?$basic_string@DU?$char_traits@D@std@@V?$allocator@D@2@@std@@@2@V?$allocator@U?$pair@$$CBV?$basic_string@DU?$char_traits@D@std@@V?$allocator@D@2@@std@@E@std@@@2@$0A@@std@@@std@@IAE?AViterator@12@_NPAU_Node@?$_Tree_nod@V?$_Tmap_traits@V?$basic_string@DU?$char_traits@D@std@@V?$allocator@D@2@@std@@EU?$less@V?$basic_string@DU?$char_traits@D@std@@V?$allocator@D@2@@std@@@2@V?$allocator@U?$pair@$$CBV?$basic_string@DU?$char_traits@D@std@@V?$allocator@D@2@@std@@E@std@@@2@$0A@@std@@@2@ABU?$pair@$$CBV?$basic_string@DU?$char_traits@D@std@@V?$allocator@D@2@@std@@E@2@@Z 00438e10 f i authcommon:csvlib.obj
 0001:00038290       ?_Tidy@?$_Tree@V?$_Tmap_traits@V?$basic_string@DU?$char_traits@D@std@@V?$allocator@D@2@@std@@EU?$less@V?$basic_string@DU?$char_traits@D@std@@V?$allocator@D@2@@std@@@2@V?$allocator@U?$pair@$$CBV?$basic_string@DU?$char_traits@D@std@@V?$allocator@D@2@@std@@E@std@@@2@$0A@@std@@@std@@IAEXXZ 00439290 f i authcommon:csvlib.obj
 0001:00038360       ??R?$less@V?$basic_string@DU?$char_traits@D@std@@V?$allocator@D@2@@std@@@std@@QBE_NABV?$basic_string@DU?$char_traits@D@std@@V?$allocator@D@2@@1@0@Z 00439360 f i authcommon:csvlib.obj
 0001:00038380       ?capacity@?$vector@V?$basic_string@DU?$char_traits@D@std@@V?$allocator@D@2@@std@@V?$allocator@V?$basic_string@DU?$char_traits@D@std@@V?$allocator@D@2@@std@@@2@@std@@QBEIXZ 00439380 f i authcommon:csvlib.obj
 0001:000383c0       ?begin@?$vector@V?$basic_string@DU?$char_traits@D@std@@V?$allocator@D@2@@std@@V?$allocator@V?$basic_string@DU?$char_traits@D@std@@V?$allocator@D@2@@std@@@2@@std@@QAE?AV?$_Vector_iterator@V?$basic_string@DU?$char_traits@D@std@@V?$allocator@D@2@@std@@V?$allocator@V?$basic_string@DU?$char_traits@D@std@@V?$allocator@D@2@@std@@@2@@2@XZ 004393c0 f i authcommon:csvlib.obj
 0001:000383f0       ?end@?$vector@V?$basic_string@DU?$char_traits@D@std@@V?$allocator@D@2@@std@@V?$allocator@V?$basic_string@DU?$char_traits@D@std@@V?$allocator@D@2@@std@@@2@@std@@QAE?AV?$_Vector_iterator@V?$basic_string@DU?$char_traits@D@std@@V?$allocator@D@2@@std@@V?$allocator@V?$basic_string@DU?$char_traits@D@std@@V?$allocator@D@2@@std@@@2@@2@XZ 004393f0 f i authcommon:csvlib.obj
 0001:00038420       ?insert@?$vector@V?$basic_string@DU?$char_traits@D@std@@V?$allocator@D@2@@std@@V?$allocator@V?$basic_string@DU?$char_traits@D@std@@V?$allocator@D@2@@std@@@2@@std@@QAE?AV?$_Vector_iterator@V?$basic_string@DU?$char_traits@D@std@@V?$allocator@D@2@@std@@V?$allocator@V?$basic_string@DU?$char_traits@D@std@@V?$allocator@D@2@@std@@@2@@2@V?$_Vector_const_iterator@V?$basic_string@DU?$char_traits@D@std@@V?$allocator@D@2@@std@@V?$allocator@V?$basic_string@DU?$char_traits@D@std@@V?$allocator@D@2@@std@@@2@@2@ABV?$basic_string@DU?$char_traits@D@std@@V?$allocator@D@2@@2@@Z 00439420 f i authcommon:csvlib.obj
 0001:000384a0       ?erase@?$vector@V?$basic_string@DU?$char_traits@D@std@@V?$allocator@D@2@@std@@V?$allocator@V?$basic_string@DU?$char_traits@D@std@@V?$allocator@D@2@@std@@@2@@std@@QAE?AV?$_Vector_iterator@V?$basic_string@DU?$char_traits@D@std@@V?$allocator@D@2@@std@@V?$allocator@V?$basic_string@DU?$char_traits@D@std@@V?$allocator@D@2@@std@@@2@@2@V?$_Vector_const_iterator@V?$basic_string@DU?$char_traits@D@std@@V?$allocator@D@2@@std@@V?$allocator@V?$basic_string@DU?$char_traits@D@std@@V?$allocator@D@2@@std@@@2@@2@0@Z 004394a0 f i authcommon:csvlib.obj
 0001:00038540       ?_Buy@?$vector@V?$basic_string@DU?$char_traits@D@std@@V?$allocator@D@2@@std@@V?$allocator@V?$basic_string@DU?$char_traits@D@std@@V?$allocator@D@2@@std@@@2@@std@@IAE_NI@Z 00439540 f i authcommon:csvlib.obj
 0001:000385c0       ?_Tidy@?$vector@V?$basic_string@DU?$char_traits@D@std@@V?$allocator@D@2@@std@@V?$allocator@V?$basic_string@DU?$char_traits@D@std@@V?$allocator@D@2@@std@@@2@@std@@IAEXXZ 004395c0 f i authcommon:csvlib.obj
 0001:00038640       ?_Ufill@?$vector@V?$basic_string@DU?$char_traits@D@std@@V?$allocator@D@2@@std@@V?$allocator@V?$basic_string@DU?$char_traits@D@std@@V?$allocator@D@2@@std@@@2@@std@@IAEPAV?$basic_string@DU?$char_traits@D@std@@V?$allocator@D@2@@2@PAV32@IABV32@@Z 00439640 f i authcommon:csvlib.obj
 0001:00038680       ??0?$_Vector_val@V?$basic_string@DU?$char_traits@D@std@@V?$allocator@D@2@@std@@V?$allocator@V?$basic_string@DU?$char_traits@D@std@@V?$allocator@D@2@@std@@@2@@std@@IAE@V?$allocator@V?$basic_string@DU?$char_traits@D@std@@V?$allocator@D@2@@std@@@1@@Z 00439680 f i authcommon:csvlib.obj
 0001:000386c0       ??1?$_Container_base_aux_alloc_real@V?$allocator@U?$pair@$$CBV?$basic_string@DU?$char_traits@D@std@@V?$allocator@D@2@@std@@E@std@@@std@@@std@@IAE@XZ 004396c0 f i authcommon:csvlib.obj
 0001:000386c0       ??1?$_Container_base_aux_alloc_real@V?$allocator@V?$basic_string@DU?$char_traits@D@std@@V?$allocator@D@2@@std@@@std@@@std@@IAE@XZ 004396c0 f i authcommon:csvlib.obj
 0001:00038720       ??0?$basic_filebuf@DU?$char_traits@D@std@@@std@@QAE@PAU_iobuf@@@Z 00439720 f i authcommon:csvlib.obj
 0001:00038790       ?open@?$basic_filebuf@DU?$char_traits@D@std@@@std@@QAEPAV12@PBDHH@Z 00439790 f i authcommon:csvlib.obj
 0001:00038850       ?close@?$basic_filebuf@DU?$char_traits@D@std@@@std@@QAEPAV12@XZ 00439850 f i authcommon:csvlib.obj
 0001:000388c0       ?_Init@?$basic_filebuf@DU?$char_traits@D@std@@@std@@IAEXPAU_iobuf@@W4_Initfl@12@@Z 004398c0 f i authcommon:csvlib.obj
 0001:00038960       ?_Endwrite@?$basic_filebuf@DU?$char_traits@D@std@@@std@@IAE_NXZ 00439960 f i authcommon:csvlib.obj
 0001:00038b70       ??1locale@std@@QAE@XZ      00439b70 f i authcommon:csvlib.obj
 0001:00038bc0       ?_Decref@facet@locale@std@@QAEPAV123@XZ 00439bc0 f i authcommon:csvlib.obj
 0001:00038c20       ?_Initcvt@?$basic_filebuf@DU?$char_traits@D@std@@@std@@IAEXPAV?$codecvt@DDH@2@@Z 00439c20 f i authcommon:csvlib.obj
 0001:00038c60       ??Fiterator@?$_Tree@V?$_Tmap_traits@V?$basic_string@DU?$char_traits@D@std@@V?$allocator@D@2@@std@@EU?$less@V?$basic_string@DU?$char_traits@D@std@@V?$allocator@D@2@@std@@@2@V?$allocator@U?$pair@$$CBV?$basic_string@DU?$char_traits@D@std@@V?$allocator@D@2@@std@@E@std@@@2@$0A@@std@@@std@@QAEAAV012@XZ 00439c60 f i authcommon:csvlib.obj
 0001:00038c80       ?in@?$codecvt@DDH@std@@QBEHAAHPBD1AAPBDPAD3AAPAD@Z 00439c80 f i authcommon:csvlib.obj
 0001:00038cc0       ?out@?$codecvt@DDH@std@@QBEHAAHPBD1AAPBDPAD3AAPAD@Z 00439cc0 f i authcommon:csvlib.obj
 0001:00038d00       ??D?$_String_iterator@DU?$char_traits@D@std@@V?$allocator@D@2@@std@@QBEAADXZ 00439d00 f i authcommon:csvlib.obj
 0001:00038d20       ?always_noconv@codecvt_base@std@@QBE_NXZ 00439d20 f i authcommon:csvlib.obj
 0001:00038d40       ?assign@?$basic_string@DU?$char_traits@D@std@@V?$allocator@D@2@@std@@QAEAAV12@ID@Z 00439d40 f i authcommon:csvlib.obj
 0001:00038d90       ?_Chassign@?$basic_string@DU?$char_traits@D@std@@V?$allocator@D@2@@std@@IAEXIID@Z 00439d90 f i authcommon:csvlib.obj
 0001:00038de0       ?assign@?$char_traits@D@std@@SAPADPADID@Z 00439de0 f i authcommon:csvlib.obj
 0001:00038e00       ?init@?$basic_ios@DU?$char_traits@D@std@@@std@@IAEXPAV?$basic_streambuf@DU?$char_traits@D@std@@@2@_N@Z 00439e00 f i authcommon:csvlib.obj
 0001:00038e70       ??0?$basic_streambuf@DU?$char_traits@D@std@@@std@@IAE@XZ 00439e70 f i authcommon:csvlib.obj
 0001:00038f10       ??0locale@std@@QAE@XZ      00439f10 f i authcommon:csvlib.obj
 0001:00038f40       ?_Incref@facet@locale@std@@QAEXXZ 00439f40 f i authcommon:csvlib.obj
 0001:00038f80       ?getloc@?$basic_streambuf@DU?$char_traits@D@std@@@std@@QBE?AVlocale@2@XZ 00439f80 f i authcommon:csvlib.obj
 0001:00038fc0       ??0locale@std@@QAE@ABV01@@Z 00439fc0 f i authcommon:csvlib.obj
 0001:00038ff0       ?_Init@?$basic_streambuf@DU?$char_traits@D@std@@@std@@IAEXXZ 00439ff0 f i authcommon:csvlib.obj
 0001:00039060       ?_Init@?$basic_streambuf@DU?$char_traits@D@std@@@std@@IAEXPAPAD0PAH001@Z 0043a060 f i authcommon:csvlib.obj
 0001:000390b0       ??D?$_String_const_iterator@DU?$char_traits@D@std@@V?$allocator@D@2@@std@@QBEABDXZ 0043a0b0 f i authcommon:csvlib.obj
 0001:00039110       ?_Has_container@_Iterator_base_aux@std@@QBE_NXZ 0043a110 f i ClientStub_VS2008:Connector.obj
 0001:00039110       ?_Has_container@_Iterator_base_secure@std@@QBE_NXZ 0043a110 f i authcommon:csvlib.obj
 0001:00039130       ?_Color@?$_Tree@V?$_Tmap_traits@V?$basic_string@DU?$char_traits@D@std@@V?$allocator@D@2@@std@@EU?$less@V?$basic_string@DU?$char_traits@D@std@@V?$allocator@D@2@@std@@@2@V?$allocator@U?$pair@$$CBV?$basic_string@DU?$char_traits@D@std@@V?$allocator@D@2@@std@@E@std@@@2@$0A@@std@@@std@@KAAADPAU_Node@?$_Tree_nod@V?$_Tmap_traits@V?$basic_string@DU?$char_traits@D@std@@V?$allocator@D@2@@std@@EU?$less@V?$basic_string@DU?$char_traits@D@std@@V?$allocator@D@2@@std@@@2@V?$allocator@U?$pair@$$CBV?$basic_string@DU?$char_traits@D@std@@V?$allocator@D@2@@std@@E@std@@@2@$0A@@std@@@2@@Z 0043a130 f i authcommon:csvlib.obj
 0001:00039140       ?_Myval@?$_Tree@V?$_Tmap_traits@KPAVServerData@@U?$less@K@std@@V?$CustomAllocator@PAVServerData@@@util@@$0A@@std@@@std@@KAAAU?$pair@$$CBKPAVServerData@@@2@PAU_Node@?$_Tree_nod@V?$_Tmap_traits@KPAVServerData@@U?$less@K@std@@V?$CustomAllocator@PAVServerData@@@util@@$0A@@std@@@2@@Z 0043a140 f i authcommon:ServerDataManager.obj
 0001:00039140       ?_Myval@?$_Tree@V?$_Tmap_traits@V?$basic_string@DU?$char_traits@D@std@@V?$allocator@D@2@@std@@EU?$less@V?$basic_string@DU?$char_traits@D@std@@V?$allocator@D@2@@std@@@2@V?$allocator@U?$pair@$$CBV?$basic_string@DU?$char_traits@D@std@@V?$allocator@D@2@@std@@E@std@@@2@$0A@@std@@@std@@KAAAU?$pair@$$CBV?$basic_string@DU?$char_traits@D@std@@V?$allocator@D@2@@std@@E@2@PAU_Node@?$_Tree_nod@V?$_Tmap_traits@V?$basic_string@DU?$char_traits@D@std@@V?$allocator@D@2@@std@@EU?$less@V?$basic_string@DU?$char_traits@D@std@@V?$allocator@D@2@@std@@@2@V?$allocator@U?$pair@$$CBV?$basic_string@DU?$char_traits@D@std@@V?$allocator@D@2@@std@@E@std@@@2@$0A@@std@@@2@@Z 0043a140 f i authcommon:csvlib.obj
 0001:00039140       ?_Myval@?$_Tree@V?$_Tmap_traits@KPAUGROUP_DATA@@U?$less@K@std@@V?$CustomAllocator@PAUGROUP_DATA@@@util@@$0A@@std@@@std@@KAAAU?$pair@$$CBKPAUGROUP_DATA@@@2@PAU_Node@?$_Tree_nod@V?$_Tmap_traits@KPAUGROUP_DATA@@U?$less@K@std@@V?$CustomAllocator@PAUGROUP_DATA@@@util@@$0A@@std@@@2@@Z 0043a140 f i authcommon:ServerDataManager.obj
 0001:00039140       ?_Myval@?$_Tree@V?$_Tmap_traits@KPAVServerSession@WBANetwork@@U?$less@K@std@@V?$allocator@U?$pair@$$CBKPAVServerSession@WBANetwork@@@std@@@4@$0A@@std@@@std@@KAAAU?$pair@$$CBKPAVServerSession@WBANetwork@@@2@PAU_Node@?$_Tree_nod@V?$_Tmap_traits@KPAVServerSession@WBANetwork@@U?$less@K@std@@V?$allocator@U?$pair@$$CBKPAVServerSession@WBANetwork@@@std@@@4@$0A@@std@@@2@@Z 0043a140 f i ClientStub_VS2008:SessionManager.obj
 0001:00039150       ?max_size@?$_Tree@V?$_Tmap_traits@V?$basic_string@DU?$char_traits@D@std@@V?$allocator@D@2@@std@@EU?$less@V?$basic_string@DU?$char_traits@D@std@@V?$allocator@D@2@@std@@@2@V?$allocator@U?$pair@$$CBV?$basic_string@DU?$char_traits@D@std@@V?$allocator@D@2@@std@@E@std@@@2@$0A@@std@@@std@@QBEIXZ 0043a150 f i authcommon:csvlib.obj
 0001:00039170       ?erase@?$_Tree@V?$_Tmap_traits@V?$basic_string@DU?$char_traits@D@std@@V?$allocator@D@2@@std@@EU?$less@V?$basic_string@DU?$char_traits@D@std@@V?$allocator@D@2@@std@@@2@V?$allocator@U?$pair@$$CBV?$basic_string@DU?$char_traits@D@std@@V?$allocator@D@2@@std@@E@std@@@2@$0A@@std@@@std@@QAE?AViterator@12@Vconst_iterator@12@0@Z 0043a170 f i authcommon:csvlib.obj
 0001:00039220       ?_Init@?$_Tree@V?$_Tmap_traits@V?$basic_string@DU?$char_traits@D@std@@V?$allocator@D@2@@std@@EU?$less@V?$basic_string@DU?$char_traits@D@std@@V?$allocator@D@2@@std@@@2@V?$allocator@U?$pair@$$CBV?$basic_string@DU?$char_traits@D@std@@V?$allocator@D@2@@std@@E@std@@@2@$0A@@std@@@std@@IAEXXZ 0043a220 f i authcommon:csvlib.obj
 0001:00039290       ?_Lbound@?$_Tree@V?$_Tmap_traits@V?$basic_string@DU?$char_traits@D@std@@V?$allocator@D@2@@std@@EU?$less@V?$basic_string@DU?$char_traits@D@std@@V?$allocator@D@2@@std@@@2@V?$allocator@U?$pair@$$CBV?$basic_string@DU?$char_traits@D@std@@V?$allocator@D@2@@std@@E@std@@@2@$0A@@std@@@std@@IBEPAU_Node@?$_Tree_nod@V?$_Tmap_traits@V?$basic_string@DU?$char_traits@D@std@@V?$allocator@D@2@@std@@EU?$less@V?$basic_string@DU?$char_traits@D@std@@V?$allocator@D@2@@std@@@2@V?$allocator@U?$pair@$$CBV?$basic_string@DU?$char_traits@D@std@@V?$allocator@D@2@@std@@E@std@@@2@$0A@@std@@@2@ABV?$basic_string@DU?$char_traits@D@std@@V?$allocator@D@2@@2@@Z 0043a290 f i authcommon:csvlib.obj
 0001:00039320       ?_Lrotate@?$_Tree@V?$_Tmap_traits@V?$basic_string@DU?$char_traits@D@std@@V?$allocator@D@2@@std@@EU?$less@V?$basic_string@DU?$char_traits@D@std@@V?$allocator@D@2@@std@@@2@V?$allocator@U?$pair@$$CBV?$basic_string@DU?$char_traits@D@std@@V?$allocator@D@2@@std@@E@std@@@2@$0A@@std@@@std@@IAEXPAU_Node@?$_Tree_nod@V?$_Tmap_traits@V?$basic_string@DU?$char_traits@D@std@@V?$allocator@D@2@@std@@EU?$less@V?$basic_string@DU?$char_traits@D@std@@V?$allocator@D@2@@std@@@2@V?$allocator@U?$pair@$$CBV?$basic_string@DU?$char_traits@D@std@@V?$allocator@D@2@@std@@E@std@@@2@$0A@@std@@@2@@Z 0043a320 f i authcommon:csvlib.obj
 0001:00039450       ?_Rrotate@?$_Tree@V?$_Tmap_traits@V?$basic_string@DU?$char_traits@D@std@@V?$allocator@D@2@@std@@EU?$less@V?$basic_string@DU?$char_traits@D@std@@V?$allocator@D@2@@std@@@2@V?$allocator@U?$pair@$$CBV?$basic_string@DU?$char_traits@D@std@@V?$allocator@D@2@@std@@E@std@@@2@$0A@@std@@@std@@IAEXPAU_Node@?$_Tree_nod@V?$_Tmap_traits@V?$basic_string@DU?$char_traits@D@std@@V?$allocator@D@2@@std@@EU?$less@V?$basic_string@DU?$char_traits@D@std@@V?$allocator@D@2@@std@@@2@V?$allocator@U?$pair@$$CBV?$basic_string@DU?$char_traits@D@std@@V?$allocator@D@2@@std@@E@std@@@2@$0A@@std@@@2@@Z 0043a450 f i authcommon:csvlib.obj
 0001:00039580       ?_Buynode@?$_Tree@V?$_Tmap_traits@V?$basic_string@DU?$char_traits@D@std@@V?$allocator@D@2@@std@@EU?$less@V?$basic_string@DU?$char_traits@D@std@@V?$allocator@D@2@@std@@@2@V?$allocator@U?$pair@$$CBV?$basic_string@DU?$char_traits@D@std@@V?$allocator@D@2@@std@@E@std@@@2@$0A@@std@@@std@@IAEPAU_Node@?$_Tree_nod@V?$_Tmap_traits@V?$basic_string@DU?$char_traits@D@std@@V?$allocator@D@2@@std@@EU?$less@V?$basic_string@DU?$char_traits@D@std@@V?$allocator@D@2@@std@@@2@V?$allocator@U?$pair@$$CBV?$basic_string@DU?$char_traits@D@std@@V?$allocator@D@2@@std@@E@std@@@2@$0A@@std@@@2@PAU342@00ABU?$pair@$$CBV?$basic_string@DU?$char_traits@D@std@@V?$allocator@D@2@@std@@E@2@D@Z 0043a580 f i authcommon:csvlib.obj
 0001:00039670       ??0?$_Tree_val@V?$_Tmap_traits@V?$basic_string@DU?$char_traits@D@std@@V?$allocator@D@2@@std@@EU?$less@V?$basic_string@DU?$char_traits@D@std@@V?$allocator@D@2@@std@@@2@V?$allocator@U?$pair@$$CBV?$basic_string@DU?$char_traits@D@std@@V?$allocator@D@2@@std@@E@std@@@2@$0A@@std@@@std@@IAE@ABU?$less@V?$basic_string@DU?$char_traits@D@std@@V?$allocator@D@2@@std@@@1@V?$allocator@U?$pair@$$CBV?$basic_string@DU?$char_traits@D@std@@V?$allocator@D@2@@std@@E@std@@@1@@Z 0043a670 f i authcommon:csvlib.obj
 0001:000396b0       ?deallocate@?$allocator@U_Node@?$_Tree_nod@V?$_Tmap_traits@KPAVServerSession@WBANetwork@@U?$less@K@std@@V?$allocator@U?$pair@$$CBKPAVServerSession@WBANetwork@@@std@@@4@$0A@@std@@@std@@@std@@QAEXPAU_Node@?$_Tree_nod@V?$_Tmap_traits@KPAVServerSession@WBANetwork@@U?$less@K@std@@V?$allocator@U?$pair@$$CBKPAVServerSession@WBANetwork@@@std@@@4@$0A@@std@@@2@I@Z 0043a6b0 f i ClientStub_VS2008:SessionManager.obj
 0001:000396b0       ?deallocate@?$allocator@V?$basic_string@DU?$char_traits@D@std@@V?$allocator@D@2@@std@@@std@@QAEXPAV?$basic_string@DU?$char_traits@D@std@@V?$allocator@D@2@@2@I@Z 0043a6b0 f i authcommon:csvlib.obj
 0001:000396b0       ?deallocate@?$allocator@PAPAU_tagConnectInfo@Connector@WBANetwork@@@std@@QAEXPAPAPAU_tagConnectInfo@Connector@WBANetwork@@I@Z 0043a6b0 f i ClientStub_VS2008:Connector.obj
 0001:000396b0       ?deallocate@?$allocator@V_Aux_cont@std@@@std@@QAEXPAV_Aux_cont@2@I@Z 0043a6b0 f i ClientStub_VS2008:Connector.obj
 0001:000396b0       ?deallocate@?$allocator@U_Node@?$_List_nod@PAVServerSession@WBANetwork@@V?$allocator@PAVServerSession@WBANetwork@@@std@@@std@@@std@@QAEXPAU_Node@?$_List_nod@PAVServerSession@WBANetwork@@V?$allocator@PAVServerSession@WBANetwork@@@std@@@2@I@Z 0043a6b0 f i ClientStub_VS2008:SessionManager.obj
 0001:000396b0       ?deallocate@?$allocator@U_Node@?$_Tree_nod@V?$_Tmap_traits@V?$basic_string@DU?$char_traits@D@std@@V?$allocator@D@2@@std@@EU?$less@V?$basic_string@DU?$char_traits@D@std@@V?$allocator@D@2@@std@@@2@V?$allocator@U?$pair@$$CBV?$basic_string@DU?$char_traits@D@std@@V?$allocator@D@2@@std@@E@std@@@2@$0A@@std@@@std@@@std@@QAEXPAU_Node@?$_Tree_nod@V?$_Tmap_traits@V?$basic_string@DU?$char_traits@D@std@@V?$allocator@D@2@@std@@EU?$less@V?$basic_string@DU?$char_traits@D@std@@V?$allocator@D@2@@std@@@2@V?$allocator@U?$pair@$$CBV?$basic_string@DU?$char_traits@D@std@@V?$allocator@D@2@@std@@E@std@@@2@$0A@@std@@@2@I@Z 0043a6b0 f i authcommon:csvlib.obj
 0001:000396b0       ?deallocate@?$allocator@D@std@@QAEXPADI@Z 0043a6b0 f i ClientStub_VS2008:Connector.obj
 0001:000396b0       ?deallocate@?$allocator@PAU_tagConnectInfo@Connector@WBANetwork@@@std@@QAEXPAPAU_tagConnectInfo@Connector@WBANetwork@@I@Z 0043a6b0 f i ClientStub_VS2008:Connector.obj
 0001:000396d0       ?destroy@?$allocator@U_Node@?$_Tree_nod@V?$_Tmap_traits@V?$basic_string@DU?$char_traits@D@std@@V?$allocator@D@2@@std@@EU?$less@V?$basic_string@DU?$char_traits@D@std@@V?$allocator@D@2@@std@@@2@V?$allocator@U?$pair@$$CBV?$basic_string@DU?$char_traits@D@std@@V?$allocator@D@2@@std@@E@std@@@2@$0A@@std@@@std@@@std@@QAEXPAU_Node@?$_Tree_nod@V?$_Tmap_traits@V?$basic_string@DU?$char_traits@D@std@@V?$allocator@D@2@@std@@EU?$less@V?$basic_string@DU?$char_traits@D@std@@V?$allocator@D@2@@std@@@2@V?$allocator@U?$pair@$$CBV?$basic_string@DU?$char_traits@D@std@@V?$allocator@D@2@@std@@E@std@@@2@$0A@@std@@@2@@Z 0043a6d0 f i authcommon:csvlib.obj
 0001:000396f0       ?allocate@?$allocator@V?$basic_string@DU?$char_traits@D@std@@V?$allocator@D@2@@std@@@std@@QAEPAV?$basic_string@DU?$char_traits@D@std@@V?$allocator@D@2@@2@I@Z 0043a6f0 f i authcommon:csvlib.obj
 0001:00039710       ?_Make_iter@?$vector@V?$basic_string@DU?$char_traits@D@std@@V?$allocator@D@2@@std@@V?$allocator@V?$basic_string@DU?$char_traits@D@std@@V?$allocator@D@2@@std@@@2@@std@@QBE?AV?$_Vector_iterator@V?$basic_string@DU?$char_traits@D@std@@V?$allocator@D@2@@std@@V?$allocator@V?$basic_string@DU?$char_traits@D@std@@V?$allocator@D@2@@std@@@2@@2@V?$_Vector_const_iterator@V?$basic_string@DU?$char_traits@D@std@@V?$allocator@D@2@@std@@V?$allocator@V?$basic_string@DU?$char_traits@D@std@@V?$allocator@D@2@@std@@@2@@2@@Z 0043a710 f i authcommon:csvlib.obj
 0001:00039730       ?max_size@?$vector@V?$basic_string@DU?$char_traits@D@std@@V?$allocator@D@2@@std@@V?$allocator@V?$basic_string@DU?$char_traits@D@std@@V?$allocator@D@2@@std@@@2@@std@@QBEIXZ 0043a730 f i authcommon:csvlib.obj
 0001:00039750       ?_Destroy@?$vector@V?$basic_string@DU?$char_traits@D@std@@V?$allocator@D@2@@std@@V?$allocator@V?$basic_string@DU?$char_traits@D@std@@V?$allocator@D@2@@std@@@2@@std@@IAEXPAV?$basic_string@DU?$char_traits@D@std@@V?$allocator@D@2@@2@0@Z 0043a750 f i authcommon:csvlib.obj
 0001:00039780       ?_Insert_n@?$vector@V?$basic_string@DU?$char_traits@D@std@@V?$allocator@D@2@@std@@V?$allocator@V?$basic_string@DU?$char_traits@D@std@@V?$allocator@D@2@@std@@@2@@std@@IAEXV?$_Vector_const_iterator@V?$basic_string@DU?$char_traits@D@std@@V?$allocator@D@2@@std@@V?$allocator@V?$basic_string@DU?$char_traits@D@std@@V?$allocator@D@2@@std@@@2@@2@IABV?$basic_string@DU?$char_traits@D@std@@V?$allocator@D@2@@2@@Z 0043a780 f i authcommon:csvlib.obj
 0001:00039b80       ?_Xlen@?$vector@V?$basic_string@DU?$char_traits@D@std@@V?$allocator@D@2@@std@@V?$allocator@V?$basic_string@DU?$char_traits@D@std@@V?$allocator@D@2@@std@@@2@@std@@KAXXZ 0043ab80 f i authcommon:csvlib.obj
 0001:00039c00       ??0?$_Container_base_aux_alloc_real@V?$allocator@V?$basic_string@DU?$char_traits@D@std@@V?$allocator@D@2@@std@@@std@@@std@@IAE@V?$allocator@V?$basic_string@DU?$char_traits@D@std@@V?$allocator@D@2@@std@@@1@@Z 0043ac00 f i authcommon:csvlib.obj
 0001:00039c00       ??0?$_Container_base_aux_alloc_real@V?$allocator@U?$pair@$$CBV?$basic_string@DU?$char_traits@D@std@@V?$allocator@D@2@@std@@E@std@@@std@@@std@@IAE@V?$allocator@U?$pair@$$CBV?$basic_string@DU?$char_traits@D@std@@V?$allocator@D@2@@std@@E@std@@@1@@Z 0043ac00 f i authcommon:csvlib.obj
 0001:00039cc0       ??Fconst_iterator@?$_Tree@V?$_Tmap_traits@V?$basic_string@DU?$char_traits@D@std@@V?$allocator@D@2@@std@@EU?$less@V?$basic_string@DU?$char_traits@D@std@@V?$allocator@D@2@@std@@@2@V?$allocator@U?$pair@$$CBV?$basic_string@DU?$char_traits@D@std@@V?$allocator@D@2@@std@@E@std@@@2@$0A@@std@@@std@@QAEAAV012@XZ 0043acc0 f i authcommon:csvlib.obj
 0001:00039ce0       ??0?$_Vector_iterator@V?$basic_string@DU?$char_traits@D@std@@V?$allocator@D@2@@std@@V?$allocator@V?$basic_string@DU?$char_traits@D@std@@V?$allocator@D@2@@std@@@2@@std@@QAE@PAV?$basic_string@DU?$char_traits@D@std@@V?$allocator@D@2@@1@PBV_Container_base_aux@1@@Z 0043ace0 f i authcommon:csvlib.obj
 0001:00039d00       ??H?$_Vector_iterator@V?$basic_string@DU?$char_traits@D@std@@V?$allocator@D@2@@std@@V?$allocator@V?$basic_string@DU?$char_traits@D@std@@V?$allocator@D@2@@std@@@2@@std@@QBE?AV01@H@Z 0043ad00 f i authcommon:csvlib.obj
 0001:00039d40       ??G?$_Vector_const_iterator@V?$basic_string@DU?$char_traits@D@std@@V?$allocator@D@2@@std@@V?$allocator@V?$basic_string@DU?$char_traits@D@std@@V?$allocator@D@2@@std@@@2@@std@@QBEHABV01@@Z 0043ad40 f i authcommon:csvlib.obj
 0001:00039d90       ?unshift@?$codecvt@DDH@std@@QBEHAAHPAD1AAPAD@Z 0043ad90 f i authcommon:csvlib.obj
 0001:00039dc0       ??0?$_String_iterator@DU?$char_traits@D@std@@V?$allocator@D@2@@std@@QAE@PADPBV_Container_base_secure@1@@Z 0043adc0 f i authcommon:csvlib.obj
 0001:00039de0       ?setp@?$basic_streambuf@DU?$char_traits@D@std@@@std@@IAEXPAD0@Z 0043ade0 f i authcommon:csvlib.obj
 0001:00039e20       ?widen@?$ctype@D@std@@QBEDD@Z 0043ae20 f i authcommon:csvlib.obj
 0001:00039e40       ?erase@?$_Tree@V?$_Tmap_traits@V?$basic_string@DU?$char_traits@D@std@@V?$allocator@D@2@@std@@EU?$less@V?$basic_string@DU?$char_traits@D@std@@V?$allocator@D@2@@std@@@2@V?$allocator@U?$pair@$$CBV?$basic_string@DU?$char_traits@D@std@@V?$allocator@D@2@@std@@E@std@@@2@$0A@@std@@@std@@QAE?AViterator@12@Vconst_iterator@12@@Z 0043ae40 f i authcommon:csvlib.obj
 0001:0003a620       ?_Buynode@?$_Tree@V?$_Tmap_traits@V?$basic_string@DU?$char_traits@D@std@@V?$allocator@D@2@@std@@EU?$less@V?$basic_string@DU?$char_traits@D@std@@V?$allocator@D@2@@std@@@2@V?$allocator@U?$pair@$$CBV?$basic_string@DU?$char_traits@D@std@@V?$allocator@D@2@@std@@E@std@@@2@$0A@@std@@@std@@IAEPAU_Node@?$_Tree_nod@V?$_Tmap_traits@V?$basic_string@DU?$char_traits@D@std@@V?$allocator@D@2@@std@@EU?$less@V?$basic_string@DU?$char_traits@D@std@@V?$allocator@D@2@@std@@@2@V?$allocator@U?$pair@$$CBV?$basic_string@DU?$char_traits@D@std@@V?$allocator@D@2@@std@@E@std@@@2@$0A@@std@@@2@XZ 0043b620 f i authcommon:csvlib.obj
 0001:0003a7a0       ??0?$_Tree_ptr@V?$_Tmap_traits@V?$basic_string@DU?$char_traits@D@std@@V?$allocator@D@2@@std@@EU?$less@V?$basic_string@DU?$char_traits@D@std@@V?$allocator@D@2@@std@@@2@V?$allocator@U?$pair@$$CBV?$basic_string@DU?$char_traits@D@std@@V?$allocator@D@2@@std@@E@std@@@2@$0A@@std@@@std@@IAE@ABU?$less@V?$basic_string@DU?$char_traits@D@std@@V?$allocator@D@2@@std@@@1@V?$allocator@U?$pair@$$CBV?$basic_string@DU?$char_traits@D@std@@V?$allocator@D@2@@std@@E@std@@@1@@Z 0043b7a0 f i authcommon:csvlib.obj
 0001:0003a7e0       ?max_size@?$allocator@U?$pair@$$CBV?$basic_string@DU?$char_traits@D@std@@V?$allocator@D@2@@std@@E@std@@@std@@QBEIXZ 0043b7e0 f i authcommon:csvlib.obj
 0001:0003a810       ?allocate@?$allocator@U_Node@?$_Tree_nod@V?$_Tmap_traits@V?$basic_string@DU?$char_traits@D@std@@V?$allocator@D@2@@std@@EU?$less@V?$basic_string@DU?$char_traits@D@std@@V?$allocator@D@2@@std@@@2@V?$allocator@U?$pair@$$CBV?$basic_string@DU?$char_traits@D@std@@V?$allocator@D@2@@std@@E@std@@@2@$0A@@std@@@std@@@std@@QAEPAU_Node@?$_Tree_nod@V?$_Tmap_traits@V?$basic_string@DU?$char_traits@D@std@@V?$allocator@D@2@@std@@EU?$less@V?$basic_string@DU?$char_traits@D@std@@V?$allocator@D@2@@std@@@2@V?$allocator@U?$pair@$$CBV?$basic_string@DU?$char_traits@D@std@@V?$allocator@D@2@@std@@E@std@@@2@$0A@@std@@@2@I@Z 0043b810 f i authcommon:csvlib.obj
 0001:0003a830       ?max_size@?$allocator@V?$basic_string@DU?$char_traits@D@std@@V?$allocator@D@2@@std@@@std@@QBEIXZ 0043b830 f i authcommon:csvlib.obj
 0001:0003a860       ??Econst_iterator@?$_Tree@V?$_Tmap_traits@V?$basic_string@DU?$char_traits@D@std@@V?$allocator@D@2@@std@@EU?$less@V?$basic_string@DU?$char_traits@D@std@@V?$allocator@D@2@@std@@@2@V?$allocator@U?$pair@$$CBV?$basic_string@DU?$char_traits@D@std@@V?$allocator@D@2@@std@@E@std@@@2@$0A@@std@@@std@@QAE?AV012@H@Z 0043b860 f i authcommon:csvlib.obj
 0001:0003a8a0       ?_Dec@const_iterator@?$_Tree@V?$_Tmap_traits@V?$basic_string@DU?$char_traits@D@std@@V?$allocator@D@2@@std@@EU?$less@V?$basic_string@DU?$char_traits@D@std@@V?$allocator@D@2@@std@@@2@V?$allocator@U?$pair@$$CBV?$basic_string@DU?$char_traits@D@std@@V?$allocator@D@2@@std@@E@std@@@2@$0A@@std@@@std@@QAEXXZ 0043b8a0 f i authcommon:csvlib.obj
 0001:0003a9d0       ??Y?$_Vector_iterator@V?$basic_string@DU?$char_traits@D@std@@V?$allocator@D@2@@std@@V?$allocator@V?$basic_string@DU?$char_traits@D@std@@V?$allocator@D@2@@std@@@2@@std@@QAEAAV01@H@Z 0043b9d0 f i authcommon:csvlib.obj
 0001:0003a9f0       ??0?$_Vector_const_iterator@V?$basic_string@DU?$char_traits@D@std@@V?$allocator@D@2@@std@@V?$allocator@V?$basic_string@DU?$char_traits@D@std@@V?$allocator@D@2@@std@@@2@@std@@QAE@PAV?$basic_string@DU?$char_traits@D@std@@V?$allocator@D@2@@1@PBV_Container_base_aux@1@@Z 0043b9f0 f i authcommon:csvlib.obj
 0001:0003aa50       ??0_Node@?$_Tree_nod@V?$_Tmap_traits@V?$basic_string@DU?$char_traits@D@std@@V?$allocator@D@2@@std@@EU?$less@V?$basic_string@DU?$char_traits@D@std@@V?$allocator@D@2@@std@@@2@V?$allocator@U?$pair@$$CBV?$basic_string@DU?$char_traits@D@std@@V?$allocator@D@2@@std@@E@std@@@2@$0A@@std@@@std@@QAE@PAU012@00ABU?$pair@$$CBV?$basic_string@DU?$char_traits@D@std@@V?$allocator@D@2@@std@@E@2@D@Z 0043ba50 f i authcommon:csvlib.obj
 0001:0003aaa0       ??0?$_Bidit@U?$pair@$$CBKPAVServerSession@WBANetwork@@@std@@HPBU12@ABU12@@std@@QAE@XZ 0043baa0 f i ClientStub_VS2008:SessionManager.obj
 0001:0003aaa0       ??0?$_Bidit@PAVServerSession@WBANetwork@@HPBQAV12@ABQAV12@@std@@QAE@XZ 0043baa0 f i ClientStub_VS2008:SessionManager.obj
 0001:0003aaa0       ??0?$_Ranit@PAU_tagConnectInfo@Connector@WBANetwork@@HPBQAU123@ABQAU123@@std@@QAE@XZ 0043baa0 f i ClientStub_VS2008:Connector.obj
 0001:0003aaa0       ??0?$_Bidit@U?$pair@$$CBKPAUGROUP_DATA@@@std@@HPBU12@ABU12@@std@@QAE@XZ 0043baa0 f i authcommon:ServerDataManager.obj
 0001:0003aaa0       ??0?$_Bidit@U?$pair@$$CBV?$basic_string@DU?$char_traits@D@std@@V?$allocator@D@2@@std@@E@std@@HPBU12@ABU12@@std@@QAE@XZ 0043baa0 f i authcommon:csvlib.obj
 0001:0003aaa0       ??0?$_Bidit@U?$pair@$$CBKPAVServerData@@@std@@HPBU12@ABU12@@std@@QAE@XZ 0043baa0 f i authcommon:ServerDataManager.obj
 0001:0003aaa0       ??0?$_Ranit@V?$basic_string@DU?$char_traits@D@std@@V?$allocator@D@2@@std@@HPBV12@ABV12@@std@@QAE@XZ 0043baa0 f i authcommon:csvlib.obj
 0001:0003aac0       ?_Max@?$_Tree@V?$_Tmap_traits@V?$basic_string@DU?$char_traits@D@std@@V?$allocator@D@2@@std@@EU?$less@V?$basic_string@DU?$char_traits@D@std@@V?$allocator@D@2@@std@@@2@V?$allocator@U?$pair@$$CBV?$basic_string@DU?$char_traits@D@std@@V?$allocator@D@2@@std@@E@std@@@2@$0A@@std@@@std@@KAPAU_Node@?$_Tree_nod@V?$_Tmap_traits@V?$basic_string@DU?$char_traits@D@std@@V?$allocator@D@2@@std@@EU?$less@V?$basic_string@DU?$char_traits@D@std@@V?$allocator@D@2@@std@@@2@V?$allocator@U?$pair@$$CBV?$basic_string@DU?$char_traits@D@std@@V?$allocator@D@2@@std@@E@std@@@2@$0A@@std@@@2@PAU342@@Z 0043bac0 f i authcommon:csvlib.obj
 0001:0003ab00       ?_Min@?$_Tree@V?$_Tmap_traits@V?$basic_string@DU?$char_traits@D@std@@V?$allocator@D@2@@std@@EU?$less@V?$basic_string@DU?$char_traits@D@std@@V?$allocator@D@2@@std@@@2@V?$allocator@U?$pair@$$CBV?$basic_string@DU?$char_traits@D@std@@V?$allocator@D@2@@std@@E@std@@@2@$0A@@std@@@std@@KAPAU_Node@?$_Tree_nod@V?$_Tmap_traits@V?$basic_string@DU?$char_traits@D@std@@V?$allocator@D@2@@std@@EU?$less@V?$basic_string@DU?$char_traits@D@std@@V?$allocator@D@2@@std@@@2@V?$allocator@U?$pair@$$CBV?$basic_string@DU?$char_traits@D@std@@V?$allocator@D@2@@std@@E@std@@@2@$0A@@std@@@2@PAU342@@Z 0043bb00 f i authcommon:csvlib.obj
 0001:0003ab40       ??0?$_Tree_nod@V?$_Tmap_traits@V?$basic_string@DU?$char_traits@D@std@@V?$allocator@D@2@@std@@EU?$less@V?$basic_string@DU?$char_traits@D@std@@V?$allocator@D@2@@std@@@2@V?$allocator@U?$pair@$$CBV?$basic_string@DU?$char_traits@D@std@@V?$allocator@D@2@@std@@E@std@@@2@$0A@@std@@@std@@IAE@ABU?$less@V?$basic_string@DU?$char_traits@D@std@@V?$allocator@D@2@@std@@@1@V?$allocator@U?$pair@$$CBV?$basic_string@DU?$char_traits@D@std@@V?$allocator@D@2@@std@@E@std@@@1@@Z 0043bb40 f i authcommon:csvlib.obj
 0001:0003ab80       ??Econst_iterator@?$_Tree@V?$_Tmap_traits@V?$basic_string@DU?$char_traits@D@std@@V?$allocator@D@2@@std@@EU?$less@V?$basic_string@DU?$char_traits@D@std@@V?$allocator@D@2@@std@@@2@V?$allocator@U?$pair@$$CBV?$basic_string@DU?$char_traits@D@std@@V?$allocator@D@2@@std@@E@std@@@2@$0A@@std@@@std@@QAEAAV012@XZ 0043bb80 f i authcommon:csvlib.obj
 0001:0003aba0       ??Y?$_Vector_const_iterator@V?$basic_string@DU?$char_traits@D@std@@V?$allocator@D@2@@std@@V?$allocator@V?$basic_string@DU?$char_traits@D@std@@V?$allocator@D@2@@std@@@2@@std@@QAEAAV01@H@Z 0043bba0 f i authcommon:csvlib.obj
 0001:0003ac20       ??0?$_Tmap_traits@V?$basic_string@DU?$char_traits@D@std@@V?$allocator@D@2@@std@@EU?$less@V?$basic_string@DU?$char_traits@D@std@@V?$allocator@D@2@@std@@@2@V?$allocator@U?$pair@$$CBV?$basic_string@DU?$char_traits@D@std@@V?$allocator@D@2@@std@@E@std@@@2@$0A@@std@@QAE@U?$less@V?$basic_string@DU?$char_traits@D@std@@V?$allocator@D@2@@std@@@1@V?$allocator@U?$pair@$$CBV?$basic_string@DU?$char_traits@D@std@@V?$allocator@D@2@@std@@E@std@@@1@@Z 0043bc20 f i authcommon:csvlib.obj
 0001:0003ac50       ?_Inc@const_iterator@?$_Tree@V?$_Tmap_traits@V?$basic_string@DU?$char_traits@D@std@@V?$allocator@D@2@@std@@EU?$less@V?$basic_string@DU?$char_traits@D@std@@V?$allocator@D@2@@std@@@2@V?$allocator@U?$pair@$$CBV?$basic_string@DU?$char_traits@D@std@@V?$allocator@D@2@@std@@E@std@@@2@$0A@@std@@@std@@QAEXXZ 0043bc50 f i authcommon:csvlib.obj
 0001:0003ad30       ??$?0V?$basic_string@DU?$char_traits@D@std@@V?$allocator@D@2@@std@@E@?$pair@$$CBV?$basic_string@DU?$char_traits@D@std@@V?$allocator@D@2@@std@@E@std@@QAE@ABU?$pair@V?$basic_string@DU?$char_traits@D@std@@V?$allocator@D@2@@std@@E@1@@Z 0043bd30 f i authcommon:csvlib.obj
 0001:0003ad30       ??0?$pair@$$CBV?$basic_string@DU?$char_traits@D@std@@V?$allocator@D@2@@std@@E@std@@QAE@ABU01@@Z 0043bd30 f i authcommon:csvlib.obj
 0001:0003ad60       ??$use_facet@V?$codecvt@DDH@std@@@std@@YAABV?$codecvt@DDH@0@ABVlocale@0@@Z 0043bd60 f i authcommon:csvlib.obj
 0001:0003ae50       ??Bid@locale@std@@QAEIXZ   0043be50 f i authcommon:csvlib.obj
 0001:0003aea0       ?_Register@facet@locale@std@@QAEXXZ 0043bea0 f i authcommon:csvlib.obj
 0001:0003aec0       ?_Getfacet@locale@std@@QBEPBVfacet@12@I@Z 0043bec0 f i authcommon:csvlib.obj
 0001:0003af50       ??$?MDU?$char_traits@D@std@@V?$allocator@D@1@@std@@YA_NABV?$basic_string@DU?$char_traits@D@std@@V?$allocator@D@2@@0@0@Z 0043bf50 f i authcommon:csvlib.obj
 0001:0003af70       ??$unchecked_copy@PAV?$basic_string@DU?$char_traits@D@std@@V?$allocator@D@2@@std@@PAV12@@stdext@@YAPAV?$basic_string@DU?$char_traits@D@std@@V?$allocator@D@2@@std@@PAV12@00@Z 0043bf70 f i authcommon:csvlib.obj
 0001:0003afe0       ??$unchecked_uninitialized_fill_n@PAV?$basic_string@DU?$char_traits@D@std@@V?$allocator@D@2@@std@@IV12@V?$allocator@V?$basic_string@DU?$char_traits@D@std@@V?$allocator@D@2@@std@@@2@@stdext@@YAXPAV?$basic_string@DU?$char_traits@D@std@@V?$allocator@D@2@@std@@IABV12@AAV?$allocator@V?$basic_string@DU?$char_traits@D@std@@V?$allocator@D@2@@std@@@2@@Z 0043bfe0 f i authcommon:csvlib.obj
 0001:0003b030       ??$_Destroy@U_Node@?$_Tree_nod@V?$_Tmap_traits@V?$basic_string@DU?$char_traits@D@std@@V?$allocator@D@2@@std@@EU?$less@V?$basic_string@DU?$char_traits@D@std@@V?$allocator@D@2@@std@@@2@V?$allocator@U?$pair@$$CBV?$basic_string@DU?$char_traits@D@std@@V?$allocator@D@2@@std@@E@std@@@2@$0A@@std@@@std@@@std@@YAXPAU_Node@?$_Tree_nod@V?$_Tmap_traits@V?$basic_string@DU?$char_traits@D@std@@V?$allocator@D@2@@std@@EU?$less@V?$basic_string@DU?$char_traits@D@std@@V?$allocator@D@2@@std@@@2@V?$allocator@U?$pair@$$CBV?$basic_string@DU?$char_traits@D@std@@V?$allocator@D@2@@std@@E@std@@@2@$0A@@std@@@0@@Z 0043c030 f i authcommon:csvlib.obj
 0001:0003b040       ??$_Allocate@V?$basic_string@DU?$char_traits@D@std@@V?$allocator@D@2@@std@@@std@@YAPAV?$basic_string@DU?$char_traits@D@std@@V?$allocator@D@2@@0@IPAV10@@Z 0043c040 f i authcommon:csvlib.obj
 0001:0003b090       ??$_Destroy_range@V?$allocator@V?$basic_string@DU?$char_traits@D@std@@V?$allocator@D@2@@std@@@std@@@std@@YAXPAV?$basic_string@DU?$char_traits@D@std@@V?$allocator@D@2@@0@0AAV?$allocator@V?$basic_string@DU?$char_traits@D@std@@V?$allocator@D@2@@std@@@0@@Z 0043c090 f i authcommon:csvlib.obj
 0001:0003b0d0       ??$_Umove@PAV?$basic_string@DU?$char_traits@D@std@@V?$allocator@D@2@@std@@@?$vector@V?$basic_string@DU?$char_traits@D@std@@V?$allocator@D@2@@std@@V?$allocator@V?$basic_string@DU?$char_traits@D@std@@V?$allocator@D@2@@std@@@2@@std@@IAEPAV?$basic_string@DU?$char_traits@D@std@@V?$allocator@D@2@@1@PAV21@00@Z 0043c0d0 f i authcommon:csvlib.obj
 0001:0003b100       ??$fill@PAV?$basic_string@DU?$char_traits@D@std@@V?$allocator@D@2@@std@@V12@@std@@YAXPAV?$basic_string@DU?$char_traits@D@std@@V?$allocator@D@2@@0@0ABV10@@Z 0043c100 f i authcommon:csvlib.obj
 0001:0003b130       ??$_Unchecked_move_backward@PAV?$basic_string@DU?$char_traits@D@std@@V?$allocator@D@2@@std@@PAV12@@stdext@@YAPAV?$basic_string@DU?$char_traits@D@std@@V?$allocator@D@2@@std@@PAV12@00@Z 0043c130 f i authcommon:csvlib.obj
 0001:0003b1a0       ??$_Allocate@U_Node@?$_Tree_nod@V?$_Tmap_traits@V?$basic_string@DU?$char_traits@D@std@@V?$allocator@D@2@@std@@EU?$less@V?$basic_string@DU?$char_traits@D@std@@V?$allocator@D@2@@std@@@2@V?$allocator@U?$pair@$$CBV?$basic_string@DU?$char_traits@D@std@@V?$allocator@D@2@@std@@E@std@@@2@$0A@@std@@@std@@@std@@YAPAU_Node@?$_Tree_nod@V?$_Tmap_traits@V?$basic_string@DU?$char_traits@D@std@@V?$allocator@D@2@@std@@EU?$less@V?$basic_string@DU?$char_traits@D@std@@V?$allocator@D@2@@std@@@2@V?$allocator@U?$pair@$$CBV?$basic_string@DU?$char_traits@D@std@@V?$allocator@D@2@@std@@E@std@@@2@$0A@@std@@@0@IPAU120@@Z 0043c1a0 f i authcommon:csvlib.obj
 0001:0003b1f0       ??_G_Node@?$_Tree_nod@V?$_Tmap_traits@V?$basic_string@DU?$char_traits@D@std@@V?$allocator@D@2@@std@@EU?$less@V?$basic_string@DU?$char_traits@D@std@@V?$allocator@D@2@@std@@@2@V?$allocator@U?$pair@$$CBV?$basic_string@DU?$char_traits@D@std@@V?$allocator@D@2@@std@@E@std@@@2@$0A@@std@@@std@@QAEPAXI@Z 0043c1f0 f i authcommon:csvlib.obj
 0001:0003b220       ??1_Node@?$_Tree_nod@V?$_Tmap_traits@V?$basic_string@DU?$char_traits@D@std@@V?$allocator@D@2@@std@@EU?$less@V?$basic_string@DU?$char_traits@D@std@@V?$allocator@D@2@@std@@@2@V?$allocator@U?$pair@$$CBV?$basic_string@DU?$char_traits@D@std@@V?$allocator@D@2@@std@@E@std@@@2@$0A@@std@@@std@@QAE@XZ 0043c220 f i authcommon:csvlib.obj
 0001:0003b240       ?_Getcat@?$codecvt@DDH@std@@SAIPAPBVfacet@locale@2@PBV42@@Z 0043c240 f i authcommon:csvlib.obj
 0001:0003b3b0       ??0_Locinfo@std@@QAE@ABV?$basic_string@DU?$char_traits@D@std@@V?$allocator@D@2@@1@@Z 0043c3b0 f i authcommon:csvlib.obj
 0001:0003b450       ??1_Locinfo@std@@QAE@XZ    0043c450 f i authcommon:csvlib.obj
 0001:0003b4f0       ?name@locale@std@@QBE?AV?$basic_string@DU?$char_traits@D@std@@V?$allocator@D@2@@2@XZ 0043c4f0 f i authcommon:csvlib.obj
 0001:0003b530       ??0?$codecvt@DDH@std@@QAE@ABV_Locinfo@1@I@Z 0043c530 f i authcommon:csvlib.obj
 0001:0003b5a0       ?do_out@?$codecvt@DDH@std@@MBEHAAHPBD1AAPBDPAD3AAPAD@Z 0043c5a0 f i authcommon:csvlib.obj
 0001:0003b5a0       ?do_in@?$codecvt@DDH@std@@MBEHAAHPBD1AAPBDPAD3AAPAD@Z 0043c5a0 f i authcommon:csvlib.obj
 0001:0003b5d0       ?do_unshift@?$codecvt@DDH@std@@MBEHAAHPAD1AAPAD@Z 0043c5d0 f i authcommon:csvlib.obj
 0001:0003b5f0       ?do_length@?$codecvt@DDH@std@@MBEHABHPBD1I@Z 0043c5f0 f i authcommon:csvlib.obj
 0001:0003b620       ??0codecvt_base@std@@QAE@I@Z 0043c620 f i authcommon:csvlib.obj
 0001:0003b650       ??0facet@locale@std@@IAE@I@Z 0043c650 f i authcommon:csvlib.obj
 0001:0003b680       ??_Gfacet@locale@std@@UAEPAXI@Z 0043c680 f i authcommon:csvlib.obj
 0001:0003b680       ??_Efacet@locale@std@@UAEPAXI@Z 0043c680 f i authcommon:csvlib.obj
 0001:0003b6b0       ??1facet@locale@std@@UAE@XZ 0043c6b0 f i authcommon:csvlib.obj
 0001:0003b6d0       ??_G?$codecvt@DDH@std@@MAEPAXI@Z 0043c6d0 f i authcommon:csvlib.obj
 0001:0003b6d0       ??_E?$codecvt@DDH@std@@MAEPAXI@Z 0043c6d0 f i authcommon:csvlib.obj
 0001:0003b700       ??1?$codecvt@DDH@std@@MAE@XZ 0043c700 f i authcommon:csvlib.obj
 0001:0003b720       ??1codecvt_base@std@@UAE@XZ 0043c720 f i authcommon:csvlib.obj
 0001:0003b740       ?do_always_noconv@codecvt_base@std@@MBE_NXZ 0043c740 f i authcommon:csvlib.obj
 0001:0003b750       ?GetDBType@QueryAuthLogUpdate@@UAE?AW4DB_TYPE@@XZ 0043c750 f i QueryManager.obj
 0001:0003b750       ?do_encoding@codecvt_base@std@@MBEHXZ 0043c750 f i authcommon:csvlib.obj
 0001:0003b750       ?do_max_length@codecvt_base@std@@MBEHXZ 0043c750 f i authcommon:csvlib.obj
 0001:0003b750       ?GetDBType@QueryGspLoggingUserState@nsGSP@@UAE?AW4DB_TYPE@@XZ 0043c750 f i Query_GSP.obj
 0001:0003b750       ?GetDBType@QueryAuthLog@@UAE?AW4DB_TYPE@@XZ 0043c750 f i QueryManager.obj
 0001:0003b760       ??_Gcodecvt_base@std@@UAEPAXI@Z 0043c760 f i authcommon:csvlib.obj
 0001:0003b760       ??_Ecodecvt_base@std@@UAEPAXI@Z 0043c760 f i authcommon:csvlib.obj
 0001:0003b790       ??$_Copy_opt@PAV?$basic_string@DU?$char_traits@D@std@@V?$allocator@D@2@@std@@PAV12@@std@@YAPAV?$basic_string@DU?$char_traits@D@std@@V?$allocator@D@2@@0@PAV10@00Urandom_access_iterator_tag@0@U_Nonscalar_ptr_iterator_tag@0@U_Range_checked_iterator_tag@0@@Z 0043c790 f i authcommon:csvlib.obj
 0001:0003b7f0       ??$_Uninit_fill_n@PAV?$basic_string@DU?$char_traits@D@std@@V?$allocator@D@2@@std@@IV12@V?$allocator@V?$basic_string@DU?$char_traits@D@std@@V?$allocator@D@2@@std@@@2@@std@@YAXPAV?$basic_string@DU?$char_traits@D@std@@V?$allocator@D@2@@0@IABV10@AAV?$allocator@V?$basic_string@DU?$char_traits@D@std@@V?$allocator@D@2@@std@@@0@U_Nonscalar_ptr_iterator_tag@0@U_Range_checked_iterator_tag@0@@Z 0043c7f0 f i authcommon:csvlib.obj
 0001:0003b8b0       ??$_Destroy_range@V?$allocator@V?$basic_string@DU?$char_traits@D@std@@V?$allocator@D@2@@std@@@std@@@std@@YAXPAV?$basic_string@DU?$char_traits@D@std@@V?$allocator@D@2@@0@0AAV?$allocator@V?$basic_string@DU?$char_traits@D@std@@V?$allocator@D@2@@std@@@0@U_Nonscalar_ptr_iterator_tag@0@@Z 0043c8b0 f i authcommon:csvlib.obj
 0001:0003b8e0       ??$_Unchecked_uninitialized_move@PAV?$basic_string@DU?$char_traits@D@std@@V?$allocator@D@2@@std@@PAV12@V?$allocator@V?$basic_string@DU?$char_traits@D@std@@V?$allocator@D@2@@std@@@2@@stdext@@YAPAV?$basic_string@DU?$char_traits@D@std@@V?$allocator@D@2@@std@@PAV12@00AAV?$allocator@V?$basic_string@DU?$char_traits@D@std@@V?$allocator@D@2@@std@@@2@@Z 0043c8e0 f i authcommon:csvlib.obj
 0001:0003b930       ??$_Fill@PAV?$basic_string@DU?$char_traits@D@std@@V?$allocator@D@2@@std@@V12@@std@@YAXPAV?$basic_string@DU?$char_traits@D@std@@V?$allocator@D@2@@0@0ABV10@@Z 0043c930 f i authcommon:csvlib.obj
 0001:0003b960       ??$_Move_backward_opt@PAV?$basic_string@DU?$char_traits@D@std@@V?$allocator@D@2@@std@@PAV12@@std@@YAPAV?$basic_string@DU?$char_traits@D@std@@V?$allocator@D@2@@0@PAV10@00Urandom_access_iterator_tag@0@U_Swap_move_tag@0@U_Range_checked_iterator_tag@0@@Z 0043c960 f i authcommon:csvlib.obj
 0001:0003b9c0       ??4?$basic_string@DU?$char_traits@D@std@@V?$allocator@D@2@@std@@QAEAAV01@ABV01@@Z 0043c9c0 f i authcommon:csvlib.obj
 0001:0003b9e0       ?construct@?$allocator@V?$basic_string@DU?$char_traits@D@std@@V?$allocator@D@2@@std@@@std@@QAEXPAV?$basic_string@DU?$char_traits@D@std@@V?$allocator@D@2@@2@ABV32@@Z 0043c9e0 f i authcommon:csvlib.obj
 0001:0003ba00       ?destroy@?$allocator@V?$basic_string@DU?$char_traits@D@std@@V?$allocator@D@2@@std@@@std@@QAEXPAV?$basic_string@DU?$char_traits@D@std@@V?$allocator@D@2@@2@@Z 0043ca00 f i authcommon:csvlib.obj
 0001:0003ba20       ?assign@?$basic_string@DU?$char_traits@D@std@@V?$allocator@D@2@@std@@QAEAAV12@ABV12@@Z 0043ca20 f i authcommon:csvlib.obj
 0001:0003ba40       ??$_Copy_opt@PAV?$basic_string@DU?$char_traits@D@std@@V?$allocator@D@2@@std@@PAV12@Uforward_iterator_tag@2@@std@@YAPAV?$basic_string@DU?$char_traits@D@std@@V?$allocator@D@2@@0@PAV10@00Uforward_iterator_tag@0@U_Nonscalar_ptr_iterator_tag@0@U_Range_checked_iterator_tag@0@@Z 0043ca40 f i authcommon:csvlib.obj
 0001:0003ba80       ??$_Uninit_move@PAV?$basic_string@DU?$char_traits@D@std@@V?$allocator@D@2@@std@@PAV12@V?$allocator@V?$basic_string@DU?$char_traits@D@std@@V?$allocator@D@2@@std@@@2@@std@@YAPAV?$basic_string@DU?$char_traits@D@std@@V?$allocator@D@2@@0@PAV10@00AAV?$allocator@V?$basic_string@DU?$char_traits@D@std@@V?$allocator@D@2@@std@@@0@U_Swap_move_tag@0@U_Range_checked_iterator_tag@0@@Z 0043ca80 f i authcommon:csvlib.obj
 0001:0003bb80       ??$_Move_backward_opt@PAV?$basic_string@DU?$char_traits@D@std@@V?$allocator@D@2@@std@@PAV12@Uforward_iterator_tag@2@@std@@YAPAV?$basic_string@DU?$char_traits@D@std@@V?$allocator@D@2@@0@PAV10@00Uforward_iterator_tag@0@U_Swap_move_tag@0@U_Range_checked_iterator_tag@0@@Z 0043cb80 f i authcommon:csvlib.obj
 0001:0003bbc0       ??$_Construct@V?$basic_string@DU?$char_traits@D@std@@V?$allocator@D@2@@std@@V12@@std@@YAXPAV?$basic_string@DU?$char_traits@D@std@@V?$allocator@D@2@@0@ABV10@@Z 0043cbc0 f i authcommon:csvlib.obj
 0001:0003bc40       ??$_Destroy@V?$basic_string@DU?$char_traits@D@std@@V?$allocator@D@2@@std@@@std@@YAXPAV?$basic_string@DU?$char_traits@D@std@@V?$allocator@D@2@@0@@Z 0043cc40 f i authcommon:csvlib.obj
 0001:0003bc50       ??_G?$basic_string@DU?$char_traits@D@std@@V?$allocator@D@2@@std@@QAEPAXI@Z 0043cc50 f i authcommon:csvlib.obj
 0001:0003bc80       ?eof@ios_base@std@@QBE_NXZ 0043cc80 f i authcommon:csvlib.obj
 0001:0003bca0       ??$_Swap_adl@V?$basic_string@DU?$char_traits@D@std@@V?$allocator@D@2@@std@@@std@@YAXAAV?$basic_string@DU?$char_traits@D@std@@V?$allocator@D@2@@0@0@Z 0043cca0 f i authcommon:csvlib.obj
 0001:0003bcc0       ??$swap@DU?$char_traits@D@std@@V?$allocator@D@2@@std@@YAXAAV?$basic_string@DU?$char_traits@D@std@@V?$allocator@D@2@@0@0@Z 0043ccc0 f i authcommon:csvlib.obj
 0001:0003bce0       ?swap@?$basic_string@DU?$char_traits@D@std@@V?$allocator@D@2@@std@@QAEXAAV12@@Z 0043cce0 f i authcommon:csvlib.obj
 0001:0003be30       ??$?8DD@std@@YA_NABV?$allocator@D@0@0@Z 0043ce30 f i authcommon:csvlib.obj
 0001:0003be40       ?getloc@ios_base@std@@QBE?AVlocale@2@XZ 0043ce40 f i authcommon:csvlib.obj
 0001:0003be80       ??0ios_base@std@@IAE@XZ    0043ce80 f i authcommon:csvlib.obj
 0001:0003bea0       ?_Init@ios_base@std@@IAEXXZ 0043cea0 f i authcommon:csvlib.obj
 0001:0003bf40       ?clear@ios_base@std@@QAEXH@Z 0043cf40 f i authcommon:csvlib.obj
 0001:0003bf60       ?clear@ios_base@std@@QAEXH_N@Z 0043cf60 f i authcommon:csvlib.obj
 0001:0003c0f0       ??0runtime_error@std@@QAE@ABV01@@Z 0043d0f0 f i authcommon:csvlib.obj
 0001:0003c160       ??_Eruntime_error@std@@UAEPAXI@Z 0043d160 f i authcommon:csvlib.obj
 0001:0003c160       ??_Gruntime_error@std@@UAEPAXI@Z 0043d160 f i authcommon:csvlib.obj
 0001:0003c190       ??1runtime_error@std@@UAE@XZ 0043d190 f i authcommon:csvlib.obj
 0001:0003c1c0       ??0failure@ios_base@std@@QAE@ABV?$basic_string@DU?$char_traits@D@std@@V?$allocator@D@2@@2@@Z 0043d1c0 f i authcommon:csvlib.obj
 0001:0003c1f0       ??0runtime_error@std@@QAE@ABV?$basic_string@DU?$char_traits@D@std@@V?$allocator@D@2@@1@@Z 0043d1f0 f i authcommon:csvlib.obj
 0001:0003c260       ??1failure@ios_base@std@@UAE@XZ 0043d260 f i authcommon:csvlib.obj
 0001:0003c280       ??_Gfailure@ios_base@std@@UAEPAXI@Z 0043d280 f i authcommon:csvlib.obj
 0001:0003c280       ??_Efailure@ios_base@std@@UAEPAXI@Z 0043d280 f i authcommon:csvlib.obj
 0001:0003c2b0       ??0failure@ios_base@std@@QAE@ABV012@@Z 0043d2b0 f i authcommon:csvlib.obj
 0001:0003c2e0       ??_Gios_base@std@@UAEPAXI@Z 0043d2e0 f i authcommon:csvlib.obj
 0001:0003c2e0       ??_Eios_base@std@@UAEPAXI@Z 0043d2e0 f i authcommon:csvlib.obj
 0001:0003c310       ??1ios_base@std@@UAE@XZ    0043d310 f i authcommon:csvlib.obj
 0001:0003c330       ??1sentry@?$basic_istream@DU?$char_traits@D@std@@@std@@QAE@XZ 0043d330 f i authcommon:csvlib.obj
 0001:0003c350       ??0?$basic_string@DU?$char_traits@D@std@@V?$allocator@D@2@@std@@QAE@XZ 0043d350 f i authcommon:csvlib.obj
 0001:0003c380       ?compare@?$basic_string@DU?$char_traits@D@std@@V?$allocator@D@2@@std@@QBEHABV12@@Z 0043d380 f i authcommon:csvlib.obj
 0001:0003c3b0       ??1?$basic_ios@DU?$char_traits@D@std@@@std@@UAE@XZ 0043d3b0 f i authcommon:csvlib.obj
 0001:0003c3d0       ?setstate@?$basic_ios@DU?$char_traits@D@std@@@std@@QAEXH_N@Z 0043d3d0 f i authcommon:csvlib.obj
 0001:0003c400       ?rdbuf@?$basic_ios@DU?$char_traits@D@std@@@std@@QBEPAV?$basic_streambuf@DU?$char_traits@D@std@@@2@XZ 0043d400 f i authcommon:csvlib.obj
 0001:0003c420       ??1?$basic_istream@DU?$char_traits@D@std@@@std@@UAE@XZ 0043d420 f i authcommon:csvlib.obj
 0001:0003c440       ??0sentry@?$basic_istream@DU?$char_traits@D@std@@@std@@QAE@AAV12@_N@Z 0043d440 f i authcommon:csvlib.obj
 0001:0003c4b0       ??Bsentry@?$basic_istream@DU?$char_traits@D@std@@@std@@QBE_NXZ 0043d4b0 f i authcommon:csvlib.obj
 0001:0003c4d0       ??1_Sentry_base@?$basic_istream@DU?$char_traits@D@std@@@std@@QAE@XZ 0043d4d0 f i authcommon:csvlib.obj
 0001:0003c510       ??1?$basic_streambuf@DU?$char_traits@D@std@@@std@@UAE@XZ 0043d510 f i authcommon:csvlib.obj
 0001:0003c560       ?sgetc@?$basic_streambuf@DU?$char_traits@D@std@@@std@@QAEHXZ 0043d560 f i authcommon:csvlib.obj
 0001:0003c5b0       ?snextc@?$basic_streambuf@DU?$char_traits@D@std@@@std@@QAEHXZ 0043d5b0 f i authcommon:csvlib.obj
 0001:0003c630       ?overflow@?$basic_streambuf@DU?$char_traits@D@std@@@std@@MAEHH@Z 0043d630 f i authcommon:csvlib.obj
 0001:0003c630       ?pbackfail@?$basic_streambuf@DU?$char_traits@D@std@@@std@@MAEHH@Z 0043d630 f i authcommon:csvlib.obj
 0001:0003c650       ?underflow@?$basic_streambuf@DU?$char_traits@D@std@@@std@@MAEHXZ 0043d650 f i authcommon:csvlib.obj
 0001:0003c660       ?uflow@?$basic_streambuf@DU?$char_traits@D@std@@@std@@MAEHXZ 0043d660 f i authcommon:csvlib.obj
 0001:0003c6c0       ?xsgetn@?$basic_streambuf@DU?$char_traits@D@std@@@std@@MAEHPADH@Z 0043d6c0 f i authcommon:csvlib.obj
 0001:0003c6f0       ?_Xsgetn_s@?$basic_streambuf@DU?$char_traits@D@std@@@std@@MAEHPADIH@Z 0043d6f0 f i authcommon:csvlib.obj
 0001:0003c7f0       ?xsputn@?$basic_streambuf@DU?$char_traits@D@std@@@std@@MAEHPBDH@Z 0043d7f0 f i authcommon:csvlib.obj
 0001:0003c8e0       ?seekoff@?$basic_streambuf@DU?$char_traits@D@std@@@std@@MAE?AV?$fpos@H@2@JHH@Z 0043d8e0 f i authcommon:csvlib.obj
 0001:0003c900       ?seekpos@?$basic_streambuf@DU?$char_traits@D@std@@@std@@MAE?AV?$fpos@H@2@V32@H@Z 0043d900 f i authcommon:csvlib.obj
 0001:0003c920       ?setbuf@?$basic_streambuf@DU?$char_traits@D@std@@@std@@MAEPAV12@PADH@Z 0043d920 f i authcommon:csvlib.obj
 0001:0003c930       ??_G?$basic_ios@DU?$char_traits@D@std@@@std@@UAEPAXI@Z 0043d930 f i authcommon:csvlib.obj
 0001:0003c930       ??_E?$basic_ios@DU?$char_traits@D@std@@@std@@UAEPAXI@Z 0043d930 f i authcommon:csvlib.obj
 0001:0003c960       ??_E?$basic_istream@DU?$char_traits@D@std@@@std@@UAEPAXI@Z 0043d960 f i authcommon:csvlib.obj
 0001:0003c960       ??_G?$basic_istream@DU?$char_traits@D@std@@@std@@UAEPAXI@Z 0043d960 f i authcommon:csvlib.obj
 0001:0003c9a0       ??_E?$basic_streambuf@DU?$char_traits@D@std@@@std@@UAEPAXI@Z 0043d9a0 f i authcommon:csvlib.obj
 0001:0003c9a0       ??_G?$basic_streambuf@DU?$char_traits@D@std@@@std@@UAEPAXI@Z 0043d9a0 f i authcommon:csvlib.obj
 0001:0003c9d0       ??_Glocale@std@@QAEPAXI@Z  0043d9d0 f i authcommon:csvlib.obj
 0001:0003ca00       ??_D?$basic_istream@DU?$char_traits@D@std@@@std@@QAEXXZ 0043da00 f i authcommon:csvlib.obj
 0001:0003ca30       ?compare@?$basic_string@DU?$char_traits@D@std@@V?$allocator@D@2@@std@@QBEHIIPBDI@Z 0043da30 f i authcommon:csvlib.obj
 0001:0003cae0       ?compare@?$char_traits@D@std@@SAHPBD0I@Z 0043dae0 f i authcommon:csvlib.obj
 0001:0003cb20       ?clear@?$basic_ios@DU?$char_traits@D@std@@@std@@QAEXH_N@Z 0043db20 f i authcommon:csvlib.obj
 0001:0003cb60       ?_Ipfx@?$basic_istream@DU?$char_traits@D@std@@@std@@QAE_N_N@Z 0043db60 f i authcommon:csvlib.obj
 0001:0003cd80       ?is@?$ctype@D@std@@QBE_NFD@Z 0043dd80 f i authcommon:csvlib.obj
 0001:0003cdb0       ?good@ios_base@std@@QBE_NXZ 0043ddb0 f i authcommon:csvlib.obj
 0001:0003cdd0       ?flush@?$basic_ostream@DU?$char_traits@D@std@@@std@@QAEAAV12@XZ 0043ddd0 f i authcommon:csvlib.obj
 0001:0003ce40       ?fail@ios_base@std@@QBE_NXZ 0043de40 f i authcommon:csvlib.obj
 0001:0003ce60       ??0_Sentry_base@?$basic_istream@DU?$char_traits@D@std@@@std@@QAE@AAV12@@Z 0043de60 f i authcommon:csvlib.obj
 0001:0003ceb0       ?pubsync@?$basic_streambuf@DU?$char_traits@D@std@@@std@@QAEHXZ 0043deb0 f i authcommon:csvlib.obj
 0001:0003ced0       ?sbumpc@?$basic_streambuf@DU?$char_traits@D@std@@@std@@QAEHXZ 0043ded0 f i authcommon:csvlib.obj
 0001:0003cf20       ?_Unlock@?$basic_streambuf@DU?$char_traits@D@std@@@std@@QAEXXZ 0043df20 f i authcommon:csvlib.obj
 0001:0003cf40       ?gptr@?$basic_streambuf@DU?$char_traits@D@std@@@std@@IBEPADXZ 0043df40 f i authcommon:csvlib.obj
 0001:0003cf60       ?pptr@?$basic_streambuf@DU?$char_traits@D@std@@@std@@IBEPADXZ 0043df60 f i authcommon:csvlib.obj
 0001:0003cf80       ?gbump@?$basic_streambuf@DU?$char_traits@D@std@@@std@@IAEXH@Z 0043df80 f i authcommon:csvlib.obj
 0001:0003cfc0       ?_Gninc@?$basic_streambuf@DU?$char_traits@D@std@@@std@@IAEPADXZ 0043dfc0 f i authcommon:csvlib.obj
 0001:0003d010       ?_Gnpreinc@?$basic_streambuf@DU?$char_traits@D@std@@@std@@IAEPADXZ 0043e010 f i authcommon:csvlib.obj
 0001:0003d050       ?_Gnavail@?$basic_streambuf@DU?$char_traits@D@std@@@std@@IBEHXZ 0043e050 f i authcommon:csvlib.obj
 0001:0003d080       ?pbump@?$basic_streambuf@DU?$char_traits@D@std@@@std@@IAEXH@Z 0043e080 f i authcommon:csvlib.obj
 0001:0003d0c0       ?_Pnavail@?$basic_streambuf@DU?$char_traits@D@std@@@std@@IBEHXZ 0043e0c0 f i authcommon:csvlib.obj
 0001:0003d0f0       ??0?$fpos@H@std@@QAE@J@Z   0043e0f0 f i authcommon:csvlib.obj
 0001:0003d130       ?tie@?$basic_ios@DU?$char_traits@D@std@@@std@@QBEPAV?$basic_ostream@DU?$char_traits@D@std@@@2@XZ 0043e130 f i authcommon:csvlib.obj
 0001:0003d150       ?_Lock@?$basic_streambuf@DU?$char_traits@D@std@@@std@@QAEXXZ 0043e150 f i authcommon:csvlib.obj
 0001:0003d170       ?_Pninc@?$basic_streambuf@DU?$char_traits@D@std@@@std@@IAEPADXZ 0043e170 f i authcommon:csvlib.obj
 0001:0003d1c0       ??$use_facet@V?$ctype@D@std@@@std@@YAABV?$ctype@D@0@ABVlocale@0@@Z 0043e1c0 f i authcommon:csvlib.obj
 0001:0003d2b0       ?_Getcat@?$ctype@D@std@@SAIPAPBVfacet@locale@2@PBV42@@Z 0043e2b0 f i authcommon:csvlib.obj
 0001:0003d420       ??0?$ctype@D@std@@QAE@ABV_Locinfo@1@I@Z 0043e420 f i authcommon:csvlib.obj
 0001:0003d490       ??0ctype_base@std@@QAE@I@Z 0043e490 f i authcommon:csvlib.obj
 0001:0003d4c0       ??1ctype_base@std@@UAE@XZ  0043e4c0 f i authcommon:csvlib.obj
 0001:0003d4e0       ??_Gctype_base@std@@UAEPAXI@Z 0043e4e0 f i authcommon:csvlib.obj
 0001:0003d4e0       ??_Ectype_base@std@@UAEPAXI@Z 0043e4e0 f i authcommon:csvlib.obj
 0001:0003d510       ?_Init@?$ctype@D@std@@IAEXABV_Locinfo@2@@Z 0043e510 f i authcommon:csvlib.obj
 0001:0003d550       ?_Getctype@_Locinfo@std@@QBE?AU_Ctypevec@@XZ 0043e550 f i authcommon:csvlib.obj
 0001:0003d5a0       ?do_tolower@?$ctype@D@std@@MBEDD@Z 0043e5a0 f i authcommon:csvlib.obj
 0001:0003d5d0       ?do_tolower@?$ctype@D@std@@MBEPBDPADPBD@Z 0043e5d0 f i authcommon:csvlib.obj
 0001:0003d610       ?do_toupper@?$ctype@D@std@@MBEDD@Z 0043e610 f i authcommon:csvlib.obj
 0001:0003d640       ?do_toupper@?$ctype@D@std@@MBEPBDPADPBD@Z 0043e640 f i authcommon:csvlib.obj
 0001:0003d680       ?do_widen@?$ctype@D@std@@MBEDD@Z 0043e680 f i authcommon:csvlib.obj
 0001:0003d690       ?do_widen@?$ctype@D@std@@MBEPBDPBD0PAD@Z 0043e690 f i authcommon:csvlib.obj
 0001:0003d6c0       ?_Do_widen_s@?$ctype@D@std@@MBEPBDPBD0PADI@Z 0043e6c0 f i authcommon:csvlib.obj
 0001:0003d700       ?do_narrow@?$ctype@D@std@@MBEDDD@Z 0043e700 f i authcommon:csvlib.obj
 0001:0003d710       ?do_narrow@?$ctype@D@std@@MBEPBDPBD0DPAD@Z 0043e710 f i authcommon:csvlib.obj
 0001:0003d750       ?_Do_narrow_s@?$ctype@D@std@@MBEPBDPBD0DPADI@Z 0043e750 f i authcommon:csvlib.obj
 0001:0003d790       ??_G?$ctype@D@std@@MAEPAXI@Z 0043e790 f i authcommon:csvlib.obj
 0001:0003d790       ??_E?$ctype@D@std@@MAEPAXI@Z 0043e790 f i authcommon:csvlib.obj
 0001:0003d7c0       ??1?$ctype@D@std@@MAE@XZ   0043e7c0 f i authcommon:csvlib.obj
 0001:0003d820       ?_Tidy@?$ctype@D@std@@IAEXXZ 0043e820 f i authcommon:csvlib.obj
 0001:0003d870       ??0id@locale@std@@QAE@I@Z  0043e870 f i authcommon:csvlib.obj
 0001:0003d870       ??0_Aux_cont@std@@QAE@QBV_Container_base_aux@1@@Z 0043e870 f i ClientStub_VS2008:Connector.obj
 0001:0003d890       ?Finalize@@YAXXZ           0043e890 f   extreme:eXtreme.obj
 0001:0003d8b0       ?DefaultErrorHandler@@YAXKPAD@Z 0043e8b0 f   extreme:eXtreme.obj
 0001:0003d8b0       ??1SolarSimpleConsole@@QAE@XZ 0043e8b0 f   utility_s:SolarSimpleConsole.obj
 0001:0003d8c0       ?Initialize@eXtreme@@YA_NPADP6AXK0@Z@Z 0043e8c0 f   extreme:eXtreme.obj
 0001:0003d980       ?CallbackErrorHandler@eXtreme@@YAXKPAD@Z 0043e980 f   extreme:eXtreme.obj
 0001:0003d990       ??0Thread@eXtreme@@QAE@XZ  0043e990 f   extreme:Thread.obj
 0001:0003d9d0       ??1Thread@eXtreme@@UAE@XZ  0043e9d0 f   extreme:Thread.obj
 0001:0003da00       ?Terminate@Thread@eXtreme@@QAEHK@Z 0043ea00 f   extreme:Thread.obj
 0001:0003da50       ?Runner@Thread@eXtreme@@CGIPAX@Z 0043ea50 f   extreme:Thread.obj
 0001:0003da90       ??_GThread@eXtreme@@UAEPAXI@Z 0043ea90 f i extreme:Thread.obj
 0001:0003da90       ??_EThread@eXtreme@@UAEPAXI@Z 0043ea90 f i extreme:Thread.obj
 0001:0003dad0       ?Start@Thread@eXtreme@@QAE_NXZ 0043ead0 f   extreme:Thread.obj
 0001:0003db30       ??0Data_t@_bstr_t@@QAE@PA_W_N@Z 0043eb30 f i extreme:DBC.obj
 0001:0003db80       ??0_bstr_t@@QAE@PA_W_N@Z   0043eb80 f i extreme:DBC.obj
 0001:0003dc00       ?ErrorMessage@_com_error@@QBEPBDXZ 0043ec00 f i extreme:DBC.obj
 0001:0003dcd0       ?GetState@DBC@eXtreme@@QAEKXZ 0043ecd0 f   extreme:DBC.obj
 0001:0003dd70       ?Execute@Command15@ADODB@@QAE?AV?$_com_ptr_t@V?$_com_IIID@U_Recordset@ADODB@@$1?_GUID_00001556_0000_0010_8000_00aa006d2ea4@@3U__s_GUID@@B@@@@PAUtagVARIANT@@0J@Z 0043ed70 f i extreme:DBC.obj
 0001:0003ddd0       ?_Free@_bstr_t@@AAEXXZ     0043edd0 f i extreme:DBC.obj
 0001:0003de20       ?Description@_com_error@@QBE?AV_bstr_t@@XZ 0043ee20 f i extreme:DBC.obj
 0001:0003de60       ?Source@_com_error@@QBE?AV_bstr_t@@XZ 0043ee60 f i extreme:DBC.obj
 0001:0003dea0       ?PutConnectionString@Connection15@ADODB@@QAEXV_bstr_t@@@Z 0043eea0 f i extreme:DBC.obj
 0001:0003df50       ?Open@Connection15@ADODB@@QAEJV_bstr_t@@00J@Z 0043ef50 f i extreme:DBC.obj
 0001:0003e0b0       ??0DBC@eXtreme@@QAE@XZ     0043f0b0 f   extreme:DBC.obj
 0001:0003e100       ??1DBC@eXtreme@@UAE@XZ     0043f100 f   extreme:DBC.obj
 0001:0003e170       ?Open@DBC@eXtreme@@QAE_NV_bstr_t@@J@Z 0043f170 f   extreme:DBC.obj
 0001:0003e3a0       ?Close@DBC@eXtreme@@QAEXXZ 0043f3a0 f   extreme:DBC.obj
 0001:0003e4e0       ?CallStoredProcedure@DBC@eXtreme@@QAE_NPAVRecordSet@2@V_bstr_t@@1@Z 0043f4e0 f   extreme:DBC.obj
 0001:0003e6f0       ??_EDBC@eXtreme@@UAEPAXI@Z 0043f6f0 f i extreme:DBC.obj
 0001:0003e6f0       ??_GDBC@eXtreme@@UAEPAXI@Z 0043f6f0 f i extreme:DBC.obj
 0001:0003e710       ?Compare@Data_t@_bstr_t@@QBEHABV12@@Z 0043f710 f i extreme:RecordSet.obj
 0001:0003e790       ?GetValue@Field20@ADODB@@QAE?AV_variant_t@@XZ 0043f790 f i extreme:RecordSet.obj
 0001:0003e7f0       ?GetValue@_Parameter@ADODB@@QAE?AV_variant_t@@XZ 0043f7f0 f i extreme:RecordSet.obj
 0001:0003e850       ?AttachVariable@RecordSet@eXtreme@@AAEXAAV_variant_t@@PAX@Z 0043f850 f   extreme:RecordSet.obj
 0001:0003e990       ??0_variant_t@@QAE@ABV_bstr_t@@@Z 0043f990 f i extreme:RecordSet.obj
 0001:0003e9e0       ?Release@RecordSet@eXtreme@@QAEXXZ 0043f9e0 f   extreme:RecordSet.obj
 0001:0003ea10       ??1?$_com_ptr_t@V?$_com_IIID@U_Parameter@ADODB@@$1?_GUID_0000150c_0000_0010_8000_00aa006d2ea4@@3U__s_GUID@@B@@@@QAE@XZ 0043fa10 f i extreme:RecordSet.obj
 0001:0003ea10       ??1?$_com_ptr_t@V?$_com_IIID@UField@ADODB@@$1?_GUID_00001569_0000_0010_8000_00aa006d2ea4@@3U__s_GUID@@B@@@@QAE@XZ 0043fa10 f i extreme:RecordSet.obj
 0001:0003ea10       ??1?$_com_ptr_t@V?$_com_IIID@U_Command@ADODB@@$1?_GUID_986761e8_7269_4890_aa65_ad7c03697a6d@@3U__s_GUID@@B@@@@QAE@XZ 0043fa10 f i extreme:RecordSet.obj
 0001:0003ea10       ??1?$_com_ptr_t@V?$_com_IIID@U_Recordset@ADODB@@$1?_GUID_00001556_0000_0010_8000_00aa006d2ea4@@3U__s_GUID@@B@@@@QAE@XZ 0043fa10 f i extreme:DBC.obj
 0001:0003ea10       ??1?$_com_ptr_t@V?$_com_IIID@UFields@ADODB@@$1?_GUID_00001564_0000_0010_8000_00aa006d2ea4@@3U__s_GUID@@B@@@@QAE@XZ 0043fa10 f i extreme:RecordSet.obj
 0001:0003ea10       ??1?$_com_ptr_t@V?$_com_IIID@UParameters@ADODB@@$1?_GUID_0000150d_0000_0010_8000_00aa006d2ea4@@3U__s_GUID@@B@@@@QAE@XZ 0043fa10 f i extreme:RecordSet.obj
 0001:0003ea20       ?GetItem@Fields15@ADODB@@QAE?AV?$_com_ptr_t@V?$_com_IIID@UField@ADODB@@$1?_GUID_00001569_0000_0010_8000_00aa006d2ea4@@3U__s_GUID@@B@@@@ABV_variant_t@@@Z 0043fa20 f i extreme:RecordSet.obj
 0001:0003ea90       ?GetItem@Parameters@ADODB@@QAE?AV?$_com_ptr_t@V?$_com_IIID@U_Parameter@ADODB@@$1?_GUID_0000150c_0000_0010_8000_00aa006d2ea4@@3U__s_GUID@@B@@@@ABV_variant_t@@@Z 0043fa90 f i extreme:RecordSet.obj
 0001:0003eb00       ?GetParameters@Command15@ADODB@@QAE?AV?$_com_ptr_t@V?$_com_IIID@UParameters@ADODB@@$1?_GUID_0000150d_0000_0010_8000_00aa006d2ea4@@3U__s_GUID@@B@@@@XZ 0043fb00 f i extreme:RecordSet.obj
 0001:0003eb50       ?GetFields@Recordset15@ADODB@@QAE?AV?$_com_ptr_t@V?$_com_IIID@UFields@ADODB@@$1?_GUID_00001564_0000_0010_8000_00aa006d2ea4@@3U__s_GUID@@B@@@@XZ 0043fb50 f i extreme:RecordSet.obj
 0001:0003eba0       ?_Buynode@?$list@PAURecordInfo@eXtreme@@V?$allocator@PAURecordInfo@eXtreme@@@std@@@std@@IAEPAU_Node@?$_List_nod@PAURecordInfo@eXtreme@@V?$allocator@PAURecordInfo@eXtreme@@@std@@@2@XZ 0043fba0 f i extreme:RecordSet.obj
 0001:0003ebc0       ?_Buynode@?$list@PAURecordInfo@eXtreme@@V?$allocator@PAURecordInfo@eXtreme@@@std@@@std@@IAEPAU_Node@?$_List_nod@PAURecordInfo@eXtreme@@V?$allocator@PAURecordInfo@eXtreme@@@std@@@2@PAU342@0ABQAURecordInfo@eXtreme@@@Z 0043fbc0 f i extreme:RecordSet.obj
 0001:0003ec00       ?_Tidy@?$list@PAURecordInfo@eXtreme@@V?$allocator@PAURecordInfo@eXtreme@@@std@@@std@@IAEXXZ 0043fc00 f i extreme:RecordSet.obj
 0001:0003ec50       ?PutCommandText@Command15@ADODB@@QAEXV_bstr_t@@@Z 0043fc50 f i extreme:RecordSet.obj
 0001:0003ed00       ?CreateParameter@Command15@ADODB@@QAE?AV?$_com_ptr_t@V?$_com_IIID@U_Parameter@ADODB@@$1?_GUID_0000150c_0000_0010_8000_00aa006d2ea4@@3U__s_GUID@@B@@@@V_bstr_t@@W4DataTypeEnum@2@W4ParameterDirectionEnum@2@JABV_variant_t@@@Z 0043fd00 f i extreme:RecordSet.obj
 0001:0003ee00       ??1RecordInfo@eXtreme@@QAE@XZ 0043fe00 f i extreme:RecordSet.obj
 0001:0003eea0       ?PrepareSP@RecordSet@eXtreme@@AAEXAAV_bstr_t@@@Z 0043fea0 f   extreme:RecordSet.obj
 0001:0003efb0       ?EndFetch@RecordSet@eXtreme@@AAEXXZ 0043ffb0 f   extreme:RecordSet.obj
 0001:0003f100       ?IsEndRecord@RecordSet@eXtreme@@QAE_NXZ 00440100 f   extreme:RecordSet.obj
 0001:0003f240       ?GetRecordCount@RecordSet@eXtreme@@QAEJXZ 00440240 f   extreme:RecordSet.obj
 0001:0003f390       ??1?$_List_val@PAURecordInfo@eXtreme@@V?$allocator@PAURecordInfo@eXtreme@@@std@@@std@@QAE@XZ 00440390 f i extreme:RecordSet.obj
 0001:0003f3a0       ?erase@?$list@PAURecordInfo@eXtreme@@V?$allocator@PAURecordInfo@eXtreme@@@std@@@std@@QAE?AV?$_Iterator@$00@12@V?$_Const_iterator@$00@12@@Z 004403a0 f i extreme:RecordSet.obj
 0001:0003f420       ?FindRecordInfo@RecordSet@eXtreme@@AAEPAURecordInfo@2@AAV_bstr_t@@@Z 00440420 f   extreme:RecordSet.obj
 0001:0003f4f0       ?BindingVariable@RecordSet@eXtreme@@AAE_NXZ 004404f0 f   extreme:RecordSet.obj
 0001:0003f720       ?BindingParameter@RecordSet@eXtreme@@AAEXXZ 00440720 f   extreme:RecordSet.obj
 0001:0003f920       ?AppendParameter@RecordSet@eXtreme@@AAE_NXZ 00440920 f   extreme:RecordSet.obj
 0001:0003fc50       ?Next@RecordSet@eXtreme@@QAE_NXZ 00440c50 f   extreme:RecordSet.obj
 0001:0003fd50       ??1RecordSet@eXtreme@@UAE@XZ 00440d50 f   extreme:RecordSet.obj
 0001:0003fe40       ??0?$list@PAURecordInfo@eXtreme@@V?$allocator@PAURecordInfo@eXtreme@@@std@@@std@@QAE@XZ 00440e40 f i extreme:RecordSet.obj
 0001:0003feb0       ??0RecordSet@eXtreme@@QAE@XZ 00440eb0 f   extreme:RecordSet.obj
 0001:0003ff10       ??_GRecordSet@eXtreme@@UAEPAXI@Z 00440f10 f i extreme:RecordSet.obj
 0001:0003ff10       ??_ERecordSet@eXtreme@@UAEPAXI@Z 00440f10 f i extreme:RecordSet.obj
 0001:0003ff30       ?RegisterVariable@RecordSet@eXtreme@@QAEXPAXV_bstr_t@@@Z 00440f30 f   extreme:RecordSet.obj
 0001:00040050       ?RegisterParameter@RecordSet@eXtreme@@QAEXPAXV_bstr_t@@W4DataTypeEnum@ADODB@@W4ParameterDirectionEnum@5@J1@Z 00441050 f   extreme:RecordSet.obj
 0001:000401f0       ??0Mutex@eXtreme@@QAE@XZ   004411f0 f   extreme:Mutex.obj
 0001:00040200       ??1Mutex@eXtreme@@QAE@XZ   00441200 f   extreme:Mutex.obj
 0001:00040210       ?Lock@Mutex@eXtreme@@QAEXXZ 00441210 f   extreme:Mutex.obj
 0001:00040220       ?Unlock@Mutex@eXtreme@@QAEXXZ 00441220 f   extreme:Mutex.obj
 0001:00040230       ??0EventQueue@eXtreme@@QAE@XZ 00441230 f   extreme:EventQueue.obj
 0001:00040240       ?Create@EventQueue@eXtreme@@QAE_NH@Z 00441240 f   extreme:EventQueue.obj
 0001:00040290       ?GetCompletionEvent@EventQueue@eXtreme@@QAEPAVEventHandler@2@PAPAUtag_AsyncResult@2@H@Z 00441290 f   extreme:EventQueue.obj
 0001:00040350       ?PostCompletion@EventQueue@eXtreme@@QAEXPAVEventHandler@2@PAUtag_AsyncResult@2@@Z 00441350 f   extreme:EventQueue.obj
 0001:00040380       ??1EventQueue@eXtreme@@QAE@XZ 00441380 f   extreme:EventQueue.obj
 0001:000403a0       ??0MD5@@QAE@XZ             004413a0 f   wz_md5:WZ_MD5.obj
 0001:000403b0       ??1MD5@@QAE@XZ             004413b0 f   wz_md5:WZ_MD5.obj
 0001:000403c0       ?DigestToString@MD5@@CAPADQAE@Z 004413c0 f   wz_md5:WZ_MD5.obj
 0001:00040460       ?EncodeString@MD5@@SAXPAEHQAE0H@Z 00441460 f   wz_md5:WZ_MD5.obj
 0001:00040540       ?Compare@MD5@@SA_NPAEH00H@Z 00441540 f   wz_md5:WZ_MD5.obj
 0001:000405d0       ?Initialize@MD5@@QAEXH@Z   004415d0 f   wz_md5:WZ_MD5.obj
 0001:00040680       ?Update@MD5@@QAEXPAEI@Z    00441680 f   wz_md5:WZ_MD5.obj
 0001:00040780       ?Finalize@MD5@@QAEXQAE@Z   00441780 f   wz_md5:WZ_MD5.obj
 0001:00040880       ?Transform@MD5@@AAEXPAE@Z  00441880 f   wz_md5:WZ_MD5.obj
 0001:000411d0       ?Encode@MD5@@AAEXPAEPAII@Z 004421d0 f   wz_md5:WZ_MD5.obj
 0001:00041280       ?Decode@MD5@@AAEXPAIPAEI@Z 00442280 f   wz_md5:WZ_MD5.obj
 0001:00041300       ?FF@MD5@@AAEXAAIIIIIII@Z   00442300 f i wz_md5:WZ_MD5.obj
 0001:00041360       ?rotate_left@MD5@@AAEIII@Z 00442360 f i wz_md5:WZ_MD5.obj
 0001:00041390       ?F@MD5@@AAEIIII@Z          00442390 f i wz_md5:WZ_MD5.obj
 0001:000413b0       ?GG@MD5@@AAEXAAIIIIIII@Z   004423b0 f i wz_md5:WZ_MD5.obj
 0001:00041410       ?G@MD5@@AAEIIII@Z          00442410 f i wz_md5:WZ_MD5.obj
 0001:00041430       ?HH@MD5@@AAEXAAIIIIIII@Z   00442430 f i wz_md5:WZ_MD5.obj
 0001:00041490       ?H@MD5@@AAEIIII@Z          00442490 f i wz_md5:WZ_MD5.obj
 0001:000414b0       ?II@MD5@@AAEXAAIIIIIII@Z   004424b0 f i wz_md5:WZ_MD5.obj
 0001:00041510       ?I@MD5@@AAEIIII@Z          00442510 f i wz_md5:WZ_MD5.obj
 0001:00041530       ?Init@ServerTimeInfoPerFrame@util@@QAEXXZ 00442530 f   servercommon:ServerFrame.obj
 0001:00041570       ?Update@ServerTimeInfoPerFrame@util@@QAEXXZ 00442570 f   servercommon:ServerFrame.obj
 0001:00041660       ?IsListening@ServerFrame@@QAEHK@Z 00442660 f   servercommon:ServerFrame.obj
 0001:00041670       ?SuspendListenThread@ServerFrame@@QAEXK@Z 00442670 f   servercommon:ServerFrame.obj
 0001:00041680       ?ResumeListenThread@ServerFrame@@QAEXK@Z 00442680 f   servercommon:ServerFrame.obj
 0001:00041690       ?Listen@ServerFrame@@IAEXKPBDG@Z 00442690 f   servercommon:ServerFrame.obj
 0001:00041700       ?UpdateAppTitle@ServerFrame@@QAEXXZ 00442700 f   servercommon:ServerFrame.obj
 0001:00041750       ?FrameCheck@ServerFrame@@IAEXXZ 00442750 f   servercommon:ServerFrame.obj
 0001:000417e0       ?SendServerType@ServerFrame@@UAEXPAVServerSession@@@Z 004427e0 f   servercommon:ServerFrame.obj
 0001:00041810       ?RunUnitTest@ServerFrame@@IAEXXZ 00442810 f   servercommon:ServerFrame.obj
 0001:00041950       ?Listen@ServerFrame@@QAEXK@Z 00442950 f   servercommon:ServerFrame.obj
 0001:00041990       ?Connect@ServerFrame@@IAEXPAVServerSession@@@Z 00442990 f   servercommon:ServerFrame.obj
 0001:00041a50       ?MaintainConnection@ServerFrame@@IAEXXZ 00442a50 f   servercommon:ServerFrame.obj
 0001:00041b20       ?_Update@ServerFrame@@AAEHXZ 00442b20 f   servercommon:ServerFrame.obj
 0001:00041c40       ?DisplayAppInfo@ServerFrame@@IAEXH@Z 00442c40 f   servercommon:ServerFrame.obj
 0001:00041e10       ?DisplayServerList@ServerFrame@@IAEXXZ 00442e10 f   servercommon:ServerFrame.obj
 0001:00041fe0       ?SendToSessionType@ServerFrame@@QAEXW4eSERVER_TYPE@@PAUMSG_BASE@@GK@Z 00442fe0 f   servercommon:ServerFrame.obj
 0001:00042090       ?ProcessConsole@ServerFrame@@IAEHXZ 00443090 f   servercommon:ServerFrame.obj
 0001:00042120       ?SendToSessionType@ServerFrame@@QAEXW4eSERVER_TYPE@@PAUMSG_BASE_INTERNAL@@GK@Z 00443120 f   servercommon:ServerFrame.obj
 0001:00042130       ?SendToSession@ServerFrame@@QAEHKPAUMSG_BASE@@G@Z 00443130 f   servercommon:ServerFrame.obj
 0001:000421c0       ??1ServerFrame@@UAE@XZ     004431c0 f   servercommon:ServerFrame.obj
 0001:000422b0       ?DoProcess@ServerFrame@@QAEXXZ 004432b0 f   servercommon:ServerFrame.obj
 0001:000422f0       ?DoUpdate@ServerFrame@@QAEHXZ 004432f0 f   servercommon:ServerFrame.obj
 0001:00042320       ?SendToSession@ServerFrame@@QAEHKPAUMSG_BASE_INTERNAL@@G@Z 00443320 f   servercommon:ServerFrame.obj
 0001:00042330       ?DoRelease@ServerFrame@@QAEXXZ 00443330 f   servercommon:ServerFrame.obj
 0001:00042410       ?AddConnectionlessConnector@ServerFrame@@QAEXPAVServerSession@@@Z 00443410 f   servercommon:ServerFrame.obj
 0001:00042480       ??0ServerFrame@@QAE@XZ     00443480 f   servercommon:ServerFrame.obj
 0001:00042590       ?InitConnectSession@ServerFrame@@QAEPAVServerSession@@W4eSERVER_TYPE@@PADG@Z 00443590 f   servercommon:ServerFrame.obj
 0001:00042620       ?Connect@ServerFrame@@IAEXH@Z 00443620 f   servercommon:ServerFrame.obj
 0001:00042750       ?DoInit@ServerFrame@@QAEHPBDP6APAVNetworkObject@@XZP6AXPAV2@@Z3133@Z 00443750 f   servercommon:ServerFrame.obj
 0001:00042b50       ??$_Uninit_copy@PAU_List_position@?$_Hash@V?$_Hmap_traits@KPAVServerSession@@V?$hash_compare@KU?$less@K@std@@@stdext@@V?$CustomAllocator@PAVServerSession@@@util@@$0A@@stdext@@@stdext@@PAU123@V?$CustomAllocator@U_List_position@?$_Hash@V?$_Hmap_traits@KPAVServerSession@@V?$hash_compare@KU?$less@K@std@@@stdext@@V?$CustomAllocator@PAVServerSession@@@util@@$0A@@stdext@@@stdext@@@util@@@std@@YAPAU_List_position@?$_Hash@V?$_Hmap_traits@KPAVServerSession@@V?$hash_compare@KU?$less@K@std@@@stdext@@V?$CustomAllocator@PAVServerSession@@@util@@$0A@@stdext@@@stdext@@PAU123@00AAV?$CustomAllocator@U_List_position@?$_Hash@V?$_Hmap_traits@KPAVServerSession@@V?$hash_compare@KU?$less@K@std@@@stdext@@V?$CustomAllocator@PAVServerSession@@@util@@$0A@@stdext@@@stdext@@@util@@U_Nonscalar_ptr_iterator_tag@0@U_Range_checked_iterator_tag@0@@Z 00443b50 f i servercommon:ServerFrame.obj
 0001:00042b80       ?_Tidy@?$list@PAVSession@@V?$RedirectedAllocator@PAVSession@@@module@@@std@@IAEXXZ 00443b80 f i Network:SessionList.obj
 0001:00042b80       ?_Tidy@?$list@U?$pair@$$CBKPAVServerSession@@@std@@V?$CustomAllocator@U?$pair@$$CBKPAVServerSession@@@std@@@util@@@std@@IAEXXZ 00443b80 f i servercommon:ServerFrame.obj
 0001:00042bd0       ?_Buynode@?$list@U?$pair@$$CBKPAVServerSession@@@std@@V?$CustomAllocator@U?$pair@$$CBKPAVServerSession@@@std@@@util@@@std@@IAEPAU_Node@?$_List_nod@U?$pair@$$CBKPAVServerSession@@@std@@V?$CustomAllocator@U?$pair@$$CBKPAVServerSession@@@std@@@util@@@2@XZ 00443bd0 f i servercommon:ServerFrame.obj
 0001:00042bf0       ?_Buynode@?$list@U?$pair@$$CBKPAVServerSession@@@std@@V?$CustomAllocator@U?$pair@$$CBKPAVServerSession@@@std@@@util@@@std@@IAEPAU_Node@?$_List_nod@U?$pair@$$CBKPAVServerSession@@@std@@V?$CustomAllocator@U?$pair@$$CBKPAVServerSession@@@std@@@util@@@2@PAU342@0ABU?$pair@$$CBKPAVServerSession@@@2@@Z 00443bf0 f i servercommon:ServerFrame.obj
 0001:00042c30       ??$_Uninit_fill_n@PAU_List_position@?$_Hash@V?$_Hmap_traits@KPAVServerSession@@V?$hash_compare@KU?$less@K@std@@@stdext@@V?$CustomAllocator@PAVServerSession@@@util@@$0A@@stdext@@@stdext@@IU123@V?$CustomAllocator@U_List_position@?$_Hash@V?$_Hmap_traits@KPAVServerSession@@V?$hash_compare@KU?$less@K@std@@@stdext@@V?$CustomAllocator@PAVServerSession@@@util@@$0A@@stdext@@@stdext@@@util@@@std@@YAXPAU_List_position@?$_Hash@V?$_Hmap_traits@KPAVServerSession@@V?$hash_compare@KU?$less@K@std@@@stdext@@V?$CustomAllocator@PAVServerSession@@@util@@$0A@@stdext@@@stdext@@IABU123@AAV?$CustomAllocator@U_List_position@?$_Hash@V?$_Hmap_traits@KPAVServerSession@@V?$hash_compare@KU?$less@K@std@@@stdext@@V?$CustomAllocator@PAVServerSession@@@util@@$0A@@stdext@@@stdext@@@util@@U_Nonscalar_ptr_iterator_tag@0@U_Range_checked_iterator_tag@0@@Z 00443c30 f i servercommon:ServerFrame.obj
 0001:00042c60       ?_Hashval@?$_Hash@V?$_Hmap_traits@KPAVServerSession@@V?$hash_compare@KU?$less@K@std@@@stdext@@V?$CustomAllocator@PAVServerSession@@@util@@$0A@@stdext@@@stdext@@IBEIABK@Z 00443c60 f i servercommon:ServerFrame.obj
 0001:00042cc0       ??$fill@PAU_List_position@?$_Hash@V?$_Hmap_traits@KPAVServerSession@@V?$hash_compare@KU?$less@K@std@@@stdext@@V?$CustomAllocator@PAVServerSession@@@util@@$0A@@stdext@@@stdext@@U123@@std@@YAXPAU_List_position@?$_Hash@V?$_Hmap_traits@KPAVServerSession@@V?$hash_compare@KU?$less@K@std@@@stdext@@V?$CustomAllocator@PAVServerSession@@@util@@$0A@@stdext@@@stdext@@0ABU123@@Z 00443cc0 f i servercommon:ServerFrame.obj
 0001:00042cf0       ?_Ufill@?$vector@U_List_position@?$_Hash@V?$_Hmap_traits@KPAVServerSession@@V?$hash_compare@KU?$less@K@std@@@stdext@@V?$CustomAllocator@PAVServerSession@@@util@@$0A@@stdext@@@stdext@@V?$CustomAllocator@U_List_position@?$_Hash@V?$_Hmap_traits@KPAVServerSession@@V?$hash_compare@KU?$less@K@std@@@stdext@@V?$CustomAllocator@PAVServerSession@@@util@@$0A@@stdext@@@stdext@@@util@@@std@@IAEPAU_List_position@?$_Hash@V?$_Hmap_traits@KPAVServerSession@@V?$hash_compare@KU?$less@K@std@@@stdext@@V?$CustomAllocator@PAVServerSession@@@util@@$0A@@stdext@@@stdext@@PAU345@IABU345@@Z 00443cf0 f i servercommon:ServerFrame.obj
 0001:00042d30       ??$_Unchecked_move_backward@PAU_List_position@?$_Hash@V?$_Hmap_traits@KPAVServerSession@@V?$hash_compare@KU?$less@K@std@@@stdext@@V?$CustomAllocator@PAVServerSession@@@util@@$0A@@stdext@@@stdext@@PAU123@@stdext@@YAPAU_List_position@?$_Hash@V?$_Hmap_traits@KPAVServerSession@@V?$hash_compare@KU?$less@K@std@@@stdext@@V?$CustomAllocator@PAVServerSession@@@util@@$0A@@stdext@@@0@PAU120@00@Z 00443d30 f i servercommon:ServerFrame.obj
 0001:00042d70       ??$_Umove@PAU_List_position@?$_Hash@V?$_Hmap_traits@KPAVServerSession@@V?$hash_compare@KU?$less@K@std@@@stdext@@V?$CustomAllocator@PAVServerSession@@@util@@$0A@@stdext@@@stdext@@@?$vector@U_List_position@?$_Hash@V?$_Hmap_traits@KPAVServerSession@@V?$hash_compare@KU?$less@K@std@@@stdext@@V?$CustomAllocator@PAVServerSession@@@util@@$0A@@stdext@@@stdext@@V?$CustomAllocator@U_List_position@?$_Hash@V?$_Hmap_traits@KPAVServerSession@@V?$hash_compare@KU?$less@K@std@@@stdext@@V?$CustomAllocator@PAVServerSession@@@util@@$0A@@stdext@@@stdext@@@util@@@std@@IAEPAU_List_position@?$_Hash@V?$_Hmap_traits@KPAVServerSession@@V?$hash_compare@KU?$less@K@std@@@stdext@@V?$CustomAllocator@PAVServerSession@@@util@@$0A@@stdext@@@stdext@@PAU234@00@Z 00443d70 f i servercommon:ServerFrame.obj
 0001:00042da0       ??1?$list@PAVSession@@V?$RedirectedAllocator@PAVSession@@@module@@@std@@QAE@XZ 00443da0 f i Network:SessionList.obj
 0001:00042da0       ??1?$list@U?$pair@$$CBKPAVServerSession@@@std@@V?$CustomAllocator@U?$pair@$$CBKPAVServerSession@@@std@@@util@@@std@@QAE@XZ 00443da0 f i servercommon:ServerFrame.obj
 0001:00042dc0       ??1?$vector@U_List_position@?$_Hash@V?$_Hmap_traits@KPAVServerSession@@V?$hash_compare@KU?$less@K@std@@@stdext@@V?$CustomAllocator@PAVServerSession@@@util@@$0A@@stdext@@@stdext@@V?$CustomAllocator@U_List_position@?$_Hash@V?$_Hmap_traits@KPAVServerSession@@V?$hash_compare@KU?$less@K@std@@@stdext@@V?$CustomAllocator@PAVServerSession@@@util@@$0A@@stdext@@@stdext@@@util@@@std@@QAE@XZ 00443dc0 f i servercommon:ServerFrame.obj
 0001:00042e00       ??0?$list@U?$pair@$$CBKPAVServerSession@@@std@@V?$CustomAllocator@U?$pair@$$CBKPAVServerSession@@@std@@@util@@@std@@QAE@ABV?$CustomAllocator@U?$pair@$$CBKPAVServerSession@@@std@@@util@@@Z 00443e00 f i servercommon:ServerFrame.obj
 0001:00042e70       ?erase@?$vector@U_List_position@?$_Hash@V?$_Hmap_traits@KPAVServerSession@@V?$hash_compare@KU?$less@K@std@@@stdext@@V?$CustomAllocator@PAVServerSession@@@util@@$0A@@stdext@@@stdext@@V?$CustomAllocator@U_List_position@?$_Hash@V?$_Hmap_traits@KPAVServerSession@@V?$hash_compare@KU?$less@K@std@@@stdext@@V?$CustomAllocator@PAVServerSession@@@util@@$0A@@stdext@@@stdext@@@util@@@std@@QAE?AV?$_Vector_iterator@U_List_position@?$_Hash@V?$_Hmap_traits@KPAVServerSession@@V?$hash_compare@KU?$less@K@std@@@stdext@@V?$CustomAllocator@PAVServerSession@@@util@@$0A@@stdext@@@stdext@@V?$CustomAllocator@U_List_position@?$_Hash@V?$_Hmap_traits@KPAVServerSession@@V?$hash_compare@KU?$less@K@std@@@stdext@@V?$CustomAllocator@PAVServerSession@@@util@@$0A@@stdext@@@stdext@@@util@@@2@V?$_Vector_const_iterator@U_List_position@?$_Hash@V?$_Hmap_traits@KPAVServerSession@@V?$hash_compare@KU?$less@K@std@@@stdext@@V?$CustomAllocator@PAVServerSession@@@util@@$0A@@stdext@@@stdext@@V?$CustomAllocator@U_List_position@?$_Hash@V?$_Hmap_traits@KPAVServerSession@@V?$hash_compare@KU?$less@K@std@@@stdext@@V?$CustomAllocator@PAVServerSession@@@util@@$0A@@stdext@@@stdext@@@util@@@2@0@Z 00443e70 f i servercommon:ServerFrame.obj
 0001:00042f10       ?_Incsize@?$list@U?$pair@$$CBKPAVServerSession@@@std@@V?$CustomAllocator@U?$pair@$$CBKPAVServerSession@@@std@@@util@@@std@@IAEXI@Z 00443f10 f i servercommon:ServerFrame.obj
 0001:00042fb0       ?_Xlen@?$vector@U_List_position@?$_Hash@V?$_Hmap_traits@KPAVServerSession@@V?$hash_compare@KU?$less@K@std@@@stdext@@V?$CustomAllocator@PAVServerSession@@@util@@$0A@@stdext@@@stdext@@V?$CustomAllocator@U_List_position@?$_Hash@V?$_Hmap_traits@KPAVServerSession@@V?$hash_compare@KU?$less@K@std@@@stdext@@V?$CustomAllocator@PAVServerSession@@@util@@$0A@@stdext@@@stdext@@@util@@@std@@KAXXZ 00443fb0 f i servercommon:ServerFrame.obj
 0001:00043030       ??1?$chunk_hash_map@KPAVServerSession@@V?$hash_compare@KU?$less@K@std@@@stdext@@@util@@QAE@XZ 00444030 f i servercommon:ServerFrame.obj
 0001:00043080       ?KeyEvent@ServerFrame@@MAEHD@Z 00444080 f i servercommon:ServerFrame.obj
 0001:00043090       ?_Insert_n@?$vector@U_List_position@?$_Hash@V?$_Hmap_traits@KPAVServerSession@@V?$hash_compare@KU?$less@K@std@@@stdext@@V?$CustomAllocator@PAVServerSession@@@util@@$0A@@stdext@@@stdext@@V?$CustomAllocator@U_List_position@?$_Hash@V?$_Hmap_traits@KPAVServerSession@@V?$hash_compare@KU?$less@K@std@@@stdext@@V?$CustomAllocator@PAVServerSession@@@util@@$0A@@stdext@@@stdext@@@util@@@std@@IAEXV?$_Vector_const_iterator@U_List_position@?$_Hash@V?$_Hmap_traits@KPAVServerSession@@V?$hash_compare@KU?$less@K@std@@@stdext@@V?$CustomAllocator@PAVServerSession@@@util@@$0A@@stdext@@@stdext@@V?$CustomAllocator@U_List_position@?$_Hash@V?$_Hmap_traits@KPAVServerSession@@V?$hash_compare@KU?$less@K@std@@@stdext@@V?$CustomAllocator@PAVServerSession@@@util@@$0A@@stdext@@@stdext@@@util@@@2@IABU_List_position@?$_Hash@V?$_Hmap_traits@KPAVServerSession@@V?$hash_compare@KU?$less@K@std@@@stdext@@V?$CustomAllocator@PAVServerSession@@@util@@$0A@@stdext@@@stdext@@@Z 00444090 f i servercommon:ServerFrame.obj
 0001:000432e0       ??_EServerFrame@@UAEPAXI@Z 004442e0 f i servercommon:ServerFrame.obj
 0001:000432e0       ??_GServerFrame@@UAEPAXI@Z 004442e0 f i servercommon:ServerFrame.obj
 0001:00043300       ?insert@?$list@U?$pair@$$CBKPAVServerSession@@@std@@V?$CustomAllocator@U?$pair@$$CBKPAVServerSession@@@std@@@util@@@std@@QAE?AV?$_Iterator@$00@12@V?$_Const_iterator@$00@12@ABU?$pair@$$CBKPAVServerSession@@@2@@Z 00444300 f i servercommon:ServerFrame.obj
 0001:00043390       ??0?$vector@U_List_position@?$_Hash@V?$_Hmap_traits@KPAVServerSession@@V?$hash_compare@KU?$less@K@std@@@stdext@@V?$CustomAllocator@PAVServerSession@@@util@@$0A@@stdext@@@stdext@@V?$CustomAllocator@U_List_position@?$_Hash@V?$_Hmap_traits@KPAVServerSession@@V?$hash_compare@KU?$less@K@std@@@stdext@@V?$CustomAllocator@PAVServerSession@@@util@@$0A@@stdext@@@stdext@@@util@@@std@@QAE@ABV?$CustomAllocator@U_List_position@?$_Hash@V?$_Hmap_traits@KPAVServerSession@@V?$hash_compare@KU?$less@K@std@@@stdext@@V?$CustomAllocator@PAVServerSession@@@util@@$0A@@stdext@@@stdext@@@util@@@Z 00444390 f i servercommon:ServerFrame.obj
 0001:000433f0       ?_Splice@?$list@U?$pair@$$CBKPAVServerSession@@@std@@V?$CustomAllocator@U?$pair@$$CBKPAVServerSession@@@std@@@util@@@std@@QAEXV?$_Const_iterator@$00@12@AAV12@00I_N@Z 004443f0 f i servercommon:ServerFrame.obj
 0001:00043460       ?_Assign_n@?$vector@U_List_position@?$_Hash@V?$_Hmap_traits@KPAVServerSession@@V?$hash_compare@KU?$less@K@std@@@stdext@@V?$CustomAllocator@PAVServerSession@@@util@@$0A@@stdext@@@stdext@@V?$CustomAllocator@U_List_position@?$_Hash@V?$_Hmap_traits@KPAVServerSession@@V?$hash_compare@KU?$less@K@std@@@stdext@@V?$CustomAllocator@PAVServerSession@@@util@@$0A@@stdext@@@stdext@@@util@@@std@@IAEXIABU_List_position@?$_Hash@V?$_Hmap_traits@KPAVServerSession@@V?$hash_compare@KU?$less@K@std@@@stdext@@V?$CustomAllocator@PAVServerSession@@@util@@$0A@@stdext@@@stdext@@@Z 00444460 f i servercommon:ServerFrame.obj
 0001:000434e0       ?splice@?$list@U?$pair@$$CBKPAVServerSession@@@std@@V?$CustomAllocator@U?$pair@$$CBKPAVServerSession@@@std@@@util@@@std@@QAEXV?$_Const_iterator@$00@12@AAV12@0@Z 004444e0 f i servercommon:ServerFrame.obj
 0001:000435a0       ?_Insert@?$_Hash@V?$_Hmap_traits@KPAVServerSession@@V?$hash_compare@KU?$less@K@std@@@stdext@@V?$CustomAllocator@PAVServerSession@@@util@@$0A@@stdext@@@stdext@@IAE?AU?$pair@V?$_Iterator@$00@?$list@U?$pair@$$CBKPAVServerSession@@@std@@V?$CustomAllocator@U?$pair@$$CBKPAVServerSession@@@std@@@util@@@std@@_N@std@@ABU?$pair@$$CBKPAVServerSession@@@4@V?$_Iterator@$00@?$list@U?$pair@$$CBKPAVServerSession@@@std@@V?$CustomAllocator@U?$pair@$$CBKPAVServerSession@@@std@@@util@@@4@@Z 004445a0 f i servercommon:ServerFrame.obj
 0001:00043920       ??0?$_Hash@V?$_Hmap_traits@KPAVServerSession@@V?$hash_compare@KU?$less@K@std@@@stdext@@V?$CustomAllocator@PAVServerSession@@@util@@$0A@@stdext@@@stdext@@QAE@ABV?$hash_compare@KU?$less@K@std@@@1@ABV?$CustomAllocator@U?$pair@$$CBKPAVServerSession@@@std@@@util@@@Z 00444920 f i servercommon:ServerFrame.obj
 0001:000439e0       ?_Reinsert@?$_Hash@V?$_Hmap_traits@KPAVServerSession@@V?$hash_compare@KU?$less@K@std@@@stdext@@V?$CustomAllocator@PAVServerSession@@@util@@$0A@@stdext@@@stdext@@IAEXXZ 004449e0 f i servercommon:ServerFrame.obj
 0001:00043a70       ?clear@?$_Hash@V?$_Hmap_traits@KPAVServerSession@@V?$hash_compare@KU?$less@K@std@@@stdext@@V?$CustomAllocator@PAVServerSession@@@util@@$0A@@stdext@@@stdext@@QAEXXZ 00444a70 f i servercommon:ServerFrame.obj
 0001:00043ae0       ??0ReadyState@@QAE@XZ      00444ae0 f   servercommon:ReadyState.obj
 0001:00043af0       ??1ReadyState@@QAE@XZ      00444af0 f   servercommon:ReadyState.obj
 0001:00043b10       ?Init@ReadyState@@QAEXE@Z  00444b10 f   servercommon:ReadyState.obj
 0001:00043b50       ?SetReadyState@ReadyState@@QAEXEH@Z 00444b50 f   servercommon:ReadyState.obj
 0001:00043b70       ?IsReady@ReadyState@@AAEHE@Z 00444b70 f   servercommon:ReadyState.obj
 0001:00043b90       ?IsAllReady@ReadyState@@AAE?AW4READY_STATE@@XZ 00444b90 f   servercommon:ReadyState.obj
 0001:00043bc0       ?Update@ReadyState@@QAE?AW4READY_STATE@@XZ 00444bc0 f   servercommon:ReadyState.obj
 0001:00043c00       ?MessageOut@@YA_NW4eSUN_LOG_LEVEL@@PBDZZ 00444c00 f   servercommon:SunLog.Interfaces.obj
 0001:00043cc0       ?ConsoleOut@@YA_NW4eSUN_LOG_LEVEL@@PBDZZ 00444cc0 f   servercommon:SunLog.Interfaces.obj
 0001:00043d80       ?MessageOutEx@@YA_NPAVCSunLog@@W4eLOGLEVEL@1@W4eLOGOPTION@1@W4eLOGCATEGORY@1@PBDZZ 00444d80 f   servercommon:SunLog.Interfaces.obj
 0001:00043e40       ?MessageSecure@@YAHKKPBD00W4eABUSE_TYPE@@W4eABUSE_SUB_TYPE@@0ZZ 00444e40 f   servercommon:SunLog.Interfaces.obj
 0001:00043fe0       ?AssertionLogger4Pool_Server@@YAXXZ 00444fe0 f   servercommon:SunLog.Interfaces.obj
 0001:00043ff0       ??0CSunLog@@QAE@XZ         00444ff0 f   servercommon:SunLog.obj
 0001:00044010       ?SetLogLevel@CSunLog@@QAEXE@Z 00445010 f   servercommon:SunLog.obj
 0001:00044030       ?RegisterHandler@CSunLog@@QAEXP6AHPBV1@PBDPAD@Z@Z 00445030 f   servercommon:SunLog.obj
 0001:00044040       ?WriteMessage_IO@CSunLog@@SAHPAXPBEK@Z 00445040 f   servercommon:SunLog.obj
 0001:000440e0       ?WriteMessage_Console@CSunLog@@SAHPBV1@PBDPAD@Z 004450e0 f   servercommon:SunLog.obj
 0001:00044160       ?WriteMessage_File@CSunLog@@SAHPBV1@PBDPAD@Z 00445160 f   servercommon:SunLog.obj
 0001:00044200       ?WriteMessage_Console2@CSunLog@@SAHPBV1@PBDPAD@Z 00445200 f   servercommon:SunLog.obj
 0001:00044210       ?WriteMessage_Console3@CSunLog@@SAHPBV1@PBDPAD@Z 00445210 f   servercommon:SunLog.obj
 0001:00044270       ?GetCategoryNameByCode@@YA?AUCHAR_WRAPPER@@W4eLOGCATEGORY@CSunLog@@@Z 00445270 f   servercommon:SunLog.obj
 0001:000442a0       ?MakePrefixFormat@CSunLog@@CAHW4ePREFIX@1@PADKW4eLOGCATEGORY@1@@Z 004452a0 f   servercommon:SunLog.obj
 0001:00044370       ??0CSunLogInfo@CSunLog@@QAE@XZ 00445370 f   servercommon:SunLog.obj
 0001:000443e0       ??1CSunLogInfo@CSunLog@@QAE@XZ 004453e0 f   servercommon:SunLog.obj
 0001:00044430       ?CheckHandler@CSunLog@@AAEHAAP6AHPBV1@PBDPAD@Z3@Z 00445430 f   servercommon:SunLog.obj
 0001:000444a0       ?Flush@CSunLog@@QAEXW4eLOGOPTION@1@@Z 004454a0 f   servercommon:SunLog.obj
 0001:000444f0       ?LOGGINGwithARG@CSunLog@@SAHPAV1@W4eLOGOPTION@1@W4eLOGLEVEL@1@W4eLOGCATEGORY@1@PBDPAD@Z 004454f0 f   servercommon:SunLog.obj
 0001:000445a0       ??1CSunLog@@QAE@XZ         004455a0 f   servercommon:SunLog.obj
 0001:00044630       ?Init@CSunLog@@UAEHEEPBD0H@Z 00445630 f   servercommon:SunLog.obj
 0001:00044820       ?Update@CSunLog@@QAEXXZ    00445820 f   servercommon:SunLog.obj
 0001:00044880       ??0TempServerSession@@QAE@XZ 00445880 f   servercommon:TempServerSession.obj
 0001:000448a0       ??1TempServerSession@@UAE@XZ 004458a0 f   servercommon:TempServerSession.obj
 0001:000448b0       ?Init@TempServerSession@@MAEXXZ 004458b0 f   servercommon:TempServerSession.obj
 0001:000448d0       ?OnRecv@TempServerSession@@MAEXPAEG@Z 004458d0 f   servercommon:TempServerSession.obj
 0001:000449c0       ?GetServerType@TempServerSession@@UAE?AW4eSERVER_TYPE@@XZ 004459c0 f i servercommon:TempServerSession.obj
 0001:000449d0       ??_GTempServerSession@@UAEPAXI@Z 004459d0 f i servercommon:TempServerSession.obj
 0001:000449d0       ??_ETempServerSession@@UAEPAXI@Z 004459d0 f i servercommon:TempServerSession.obj
 0001:00044a00       ??$_Distance2@V?$_Iterator@$00@?$list@U?$pair@$$CBKPAVServerSession@@@std@@V?$CustomAllocator@U?$pair@$$CBKPAVServerSession@@@std@@@util@@@std@@I@std@@YAXV?$_Iterator@$00@?$list@U?$pair@$$CBKPAVServerSession@@@std@@V?$CustomAllocator@U?$pair@$$CBKPAVServerSession@@@std@@@util@@@0@0AAIUbidirectional_iterator_tag@0@@Z 00445a00 f i servercommon:TempServerSession.obj
 0001:00044a70       ?equal_range@?$_Hash@V?$_Hmap_traits@KPAVServerSession@@V?$hash_compare@KU?$less@K@std@@@stdext@@V?$CustomAllocator@PAVServerSession@@@util@@$0A@@stdext@@@stdext@@QAE?AU?$pair@V?$_Iterator@$00@?$list@U?$pair@$$CBKPAVServerSession@@@std@@V?$CustomAllocator@U?$pair@$$CBKPAVServerSession@@@std@@@util@@@std@@V123@@std@@ABK@Z 00445a70 f i servercommon:TempServerSession.obj
 0001:00044be0       ?erase@?$_Hash@V?$_Hmap_traits@KPAVServerSession@@V?$hash_compare@KU?$less@K@std@@@stdext@@V?$CustomAllocator@PAVServerSession@@@util@@$0A@@stdext@@@stdext@@QAE?AV?$_Iterator@$00@?$list@U?$pair@$$CBKPAVServerSession@@@std@@V?$CustomAllocator@U?$pair@$$CBKPAVServerSession@@@std@@@util@@@std@@V?$_Const_iterator@$00@45@@Z 00445be0 f i servercommon:TempServerSession.obj
 0001:00044ce0       ?erase@?$_Hash@V?$_Hmap_traits@KPAVServerSession@@V?$hash_compare@KU?$less@K@std@@@stdext@@V?$CustomAllocator@PAVServerSession@@@util@@$0A@@stdext@@@stdext@@QAE?AV?$_Iterator@$00@?$list@U?$pair@$$CBKPAVServerSession@@@std@@V?$CustomAllocator@U?$pair@$$CBKPAVServerSession@@@std@@@util@@@std@@V?$_Const_iterator@$00@45@0@Z 00445ce0 f i servercommon:TempServerSession.obj
 0001:00044de0       ?erase@?$_Hash@V?$_Hmap_traits@KPAVServerSession@@V?$hash_compare@KU?$less@K@std@@@stdext@@V?$CustomAllocator@PAVServerSession@@@util@@$0A@@stdext@@@stdext@@QAEIABK@Z 00445de0 f i servercommon:TempServerSession.obj
 0001:00044e50       ?OnConnect@NetworkObject@@MAEXHK@Z 00445e50 f i servercommon:ServerSession.obj
 0001:00044e50       ?OnRedirect@TempServerSession@@EAEXKQAUMSG_SERVER_TYPE@@@Z 00445e50 f i servercommon:TempServerSession.obj
 0001:00044e60       ?OnConnect@ServerSession@@MAEXHK@Z 00445e60 f   servercommon:ServerSession.obj
 0001:00044e90       ?SendHeartbeatPacket@ServerSession@@MAEXXZ 00445e90 f   servercommon:ServerSession.obj
 0001:00044ea0       ?OnLogString@ServerSession@@MAEXPAD@Z 00445ea0 f   servercommon:ServerSession.obj
 0001:00044ed0       ?Update@ServerSession@@UAEXXZ 00445ed0 f   servercommon:ServerSession.obj
 0001:00044f10       ?Clear@ServerSession@@QAEXXZ 00445f10 f   servercommon:ServerSession.obj
 0001:00044f50       ?Init@ServerSession@@MAEXXZ 00445f50 f   servercommon:ServerSession.obj
 0001:00044f90       ?Release@ServerSession@@UAEXXZ 00445f90 f   servercommon:ServerSession.obj
 0001:00044fd0       ??0ServerSession@@QAE@XZ   00445fd0 f   servercommon:ServerSession.obj
 0001:00045040       ??1ServerSession@@UAE@XZ   00446040 f   servercommon:ServerSession.obj
 0001:00045080       ?OnRedirect@ServerSession@@UAEXKQAUMSG_SERVER_TYPE@@@Z 00446080 f   servercommon:ServerSession.obj
 0001:000450d0       ?OnAccept@ServerSession@@MAEXK@Z 004460d0 f   servercommon:ServerSession.obj
 0001:00045130       ?OnConnectSuccess@ServerSession@@MAEXK@Z 00446130 f   servercommon:ServerSession.obj
 0001:000451c0       ?OnDisconnect@ServerSession@@MAEXXZ 004461c0 f   servercommon:ServerSession.obj
 0001:00045240       ?GetServerType@ServerSession@@UAE?AW4eSERVER_TYPE@@XZ 00446240 f i servercommon:ServerSession.obj
 0001:00045250       ??_EServerSession@@UAEPAXI@Z 00446250 f i servercommon:ServerSession.obj
 0001:00045250       ??_GServerSession@@UAEPAXI@Z 00446250 f i servercommon:ServerSession.obj
 0001:000452a0       ?AddSession@ServerFrame@@QAEXKPAVServerSession@@@Z 004462a0 f i servercommon:ServerSession.obj
 0001:00045300       ?GetServerType2String@@YAPADW4eSERVER_TYPE@@@Z 00446300 f   servercommon:ServerGlobal.obj
 0001:00045320       ?GetCommandLineArg@@YAHHPAD0H@Z 00446320 f   servercommon:ServerGlobal.obj
 0001:000453f0       ?DisplayDebugInfo@@YAXW4eSERVER_TYPE@@HHKKKKGGG@Z 004463f0 f   servercommon:ServerGlobal.obj
 0001:00045570       ?SetApplicationDirectory@@YAXXZ 00446570 f   servercommon:ServerGlobal.obj
 0001:00045610       ?ParseArguments@@YAHPAD@Z  00446610 f   servercommon:ServerGlobal.obj
 0001:00045680       ?BASE_NUMBER@SERVER_VERSION_INFO@@SAKXZ 00446680 f   servercommon:ServerBuildVersion.obj
 0001:00045690       ?RELEASE_BUILD_NUMBER@SERVER_VERSION_INFO@@SAKXZ 00446690 f   servercommon:ServerBuildVersion.obj
 0001:000456a0       ?IsCategoryPacked@CategoryConverter@nsPacket@@SAEE@Z 004466a0 f i servercommon:PacketControlS2S.obj
 0001:000457d0       ?Init@Environment@Server@nsPacket@@SAEXZ 004467d0 f   servercommon:PacketControlS2S.obj
 0001:000457f0       ?MakeStream@?$SubControl@$0BL@$00@PacketControl@Server@nsPacket@@SA?AUPacketInfo@4@QAUMSG_BASE@@G@Z 004467f0 f   servercommon:PacketControlS2S.obj
 0001:00045930       ?MakeStream@CSAuthFlow@nsPacket@@SAGABU_WLAUTH_INFO@@PAUStream@MSG_CF_AUTH_TOKEN_PASS_SYN@@@Z 00446930 f   programcommon_s:PacketControl_AuthFlow.obj
 0001:00045970       ?PreVerifier@CSAuthFlow@nsPacket@@SAEPBUMSG_CF_AUTH_TOKEN_PASS_SYN@@G@Z 00446970 f   programcommon_s:PacketControl_AuthFlow.obj
 0001:00045980       ?PostVerifier@CSAuthFlow@nsPacket@@UAEEPBUStream@MSG_CF_AUTH_TOKEN_PASS_SYN@@PAUToken@12@1@Z 00446980 f   programcommon_s:PacketControl_AuthFlow.obj
 0001:000459d0       ?MakeReAuthStream@CSAuthFlow@nsPacket@@SAGPBDABUReAuthTokenStream@2@PAU32@@Z 004469d0 f   programcommon_s:PacketControl_AuthFlow.obj
 0001:00045a40       ?MakeStream@CSAuthFlow@nsPacket@@SAGPBDABUReAuthTokenStream@2@PAUMSG_CG_CONNECTION_SERVER_SELECT_REQUEST_ACK@@@Z 00446a40 f   programcommon_s:PacketControl_AuthFlow.obj
 0001:00045a60       ?MakeStream@CSAuthFlow@nsPacket@@SAGPBDABUReAuthTokenStream@2@PAUMSG_AU_AUTH_SERVER_SELECT_ACK@@@Z 00446a60 f   programcommon_s:PacketControl_AuthFlow.obj
 0001:00045a80       ?PreVerifier@CSAuthFlow@nsPacket@@SAEPBUMSG_CF_AUTH_REAUTH_PASS_SYN@@G@Z 00446a80 f   programcommon_s:PacketControl_AuthFlow.obj
 0001:00045a90       ?PostVerifier@CSAuthFlow@nsPacket@@UAEEPBUMSG_CF_AUTH_REAUTH_PASS_SYN@@PAUToken@12@1@Z 00446a90 f   programcommon_s:PacketControl_AuthFlow.obj
 0001:00045ae0       ?MakeStream@CSAuthFlow@nsPacket@@SAGPBDABUReAuthTokenStream@2@PAUMSG_CF_AUTH_REAUTH_PASS_SYN@@@Z 00446ae0 f   programcommon_s:PacketControl_AuthFlow.obj
 0001:00045b00       ?AtlA2WHelper@@YGPA_WPA_WPBDHI@Z 00446b00 f i programcommon_s:SHA256.obj
 0001:00045b40       ??0COSVersion@Greenmaru@@QAE@XZ 00446b40 f i programcommon_s:SHA256.obj
 0001:00045ba0       ?ServicePack@COSVersion@Greenmaru@@QBEKXZ 00446ba0 f i programcommon_s:SHA256.obj
 0001:00045bf0       ?Load@SHA256_Module@Crypt@@QAE_NXZ 00446bf0 f i programcommon_s:SHA256.obj
 0001:00045d80       ??0SHA256@Crypt@@QAE@XZ    00446d80 f   programcommon_s:SHA256.obj
 0001:00045d90       ??1SHA256@Crypt@@QAE@XZ    00446d90 f   programcommon_s:SHA256.obj
 0001:00045da0       ?GetLastError@SHA256@Crypt@@QAEPBDXZ 00446da0 f   programcommon_s:SHA256.obj
 0001:00045db0       ?CreateKey@SHA256@Crypt@@QAEPBDPBD0@Z 00446db0 f   programcommon_s:SHA256.obj
 0001:00045f00       ?Compare@SHA256@Crypt@@QAE_NPBD00@Z 00446f00 f   programcommon_s:SHA256.obj
 0001:00046070       ?Init@Environment@nsPacket@@SAEXZ 00447070 f   programcommon_s:PacketControl.obj
 0001:000460a0       ?MakeStream@PacketControl@nsPacket@@CA?AUPacketInfo@2@EQAUMSG_BASE@@G@Z 004470a0 f   programcommon_s:PacketControl.obj
 0001:00046150       ?Pack@PacketControl@nsPacket@@SA?AUPacketInfo@2@QAUMSG_BASE@@G@Z 00447150 f   programcommon_s:PacketControl.obj
 0001:00046170       ?UnPack@PacketControl@nsPacket@@SA?AUPacketInfo@2@QAUMSG_BASE@@G@Z 00447170 f   programcommon_s:PacketControl.obj
 0001:00046190       ?SetPackInfo@CategoryConverter@nsPacket@@SAEQAUMSG_BASE@@@Z 00447190 f i programcommon_s:PacketControl_Compress.obj
 0001:00046430       ?MakeStream@CompressUtil@nsPacket@@SA?AUPacketInfo@2@EPAEQAUMSG_BASE@@G@Z 00447430 f   programcommon_s:PacketControl_Compress.obj
 0001:00046500       ?memfree_handler@CompressUtil@nsPacket@@CAXPAXH@Z 00447500 f   programcommon_s:PacketControl_Compress.obj
 0001:00046510       ?memalloc_handler@CompressUtil@nsPacket@@CAPAXIH@Z 00447510 f   programcommon_s:PacketControl_Compress.obj
 0001:00046660       ?StopWorking@WxMessageIpc@util@@QAEXXZ 00447660 f   utility_s:WxMessageIpc.obj
 0001:000466c0       ?SendMessageToMain@WorkerHandler@WxMessageIpc@util@@QBE_NPAUWX_INTER_MSG_HEADER@3@I@Z 004476c0 f   utility_s:WxMessageIpc.obj
 0001:000466f0       ??0WxMessageIpc@util@@QAE@III@Z 004476f0 f   utility_s:WxMessageIpc.obj
 0001:00046760       ?ParseMessagesFromMain@WxMessageIpc@util@@AAE_NQAUWorkerHandler@12@@Z 00447760 f   utility_s:WxMessageIpc.obj
 0001:000467e0       ?ParseMessagesFromWorkers@WxMessageIpc@util@@AAE_NQAUMainLogicHandler@12@QAUIWxMainMessageHandler@2@@Z 004477e0 f   utility_s:WxMessageIpc.obj
 0001:00046850       ?Update@MainLogicHandler@WxMessageIpc@util@@QBEXQAUIWxMainMessageHandler@3@@Z 00447850 f   utility_s:WxMessageIpc.obj
 0001:00046870       ??_EWxMessageIpc@util@@UAEPAXI@Z 00447870 f i utility_s:WxMessageIpc.obj
 0001:00046870       ??_GWxMessageIpc@util@@UAEPAXI@Z 00447870 f i utility_s:WxMessageIpc.obj
 0001:000468c0       ?message_io_thread@WxMessageIpc@util@@CGIPAX@Z 004478c0 f   utility_s:WxMessageIpc.obj
 0001:00046930       ?StartWorking@WxMessageIpc@util@@UAE_NW4eReactingLevel@12@PAUIWxWorkerMessageHandler@2@@Z 00447930 f   utility_s:WxMessageIpc.obj
 0001:00046ad0       ??1IVMemoryPool@util@@UAE@XZ 00447ad0 f   utility_s:MemoryPoolFactory.obj
 0001:00046ae0       ??0MemoryPoolSizeBased@internal@util@@QAE@IP6AXPAX@Z1@Z 00447ae0 f   utility_s:MemoryPoolFactory.obj
 0001:00046b30       ?AddBlock@MemoryPoolSizeBased@internal@util@@AAEXI@Z 00447b30 f   utility_s:MemoryPoolFactory.obj
 0001:00046bd0       ?Initialize@MemoryPoolSizeBased@internal@util@@QAEXIIPBD@Z 00447bd0 f   utility_s:MemoryPoolFactory.obj
 0001:00046c10       ?Allocate@MemoryPoolSizeBased@internal@util@@QAEPAXXZ 00447c10 f   utility_s:MemoryPoolFactory.obj
 0001:00046c60       ?Deallocate@MemoryPoolSizeBased@internal@util@@QAEXPAX@Z 00447c60 f   utility_s:MemoryPoolFactory.obj
 0001:00046d10       ?FreeAllElements@MemoryPoolSizeBased@internal@util@@QAEXXZ 00447d10 f   utility_s:MemoryPoolFactory.obj
 0001:00046e80       ??1MemoryPoolSizeBased@internal@util@@QAE@XZ 00447e80 f   utility_s:MemoryPoolFactory.obj
 0001:00046e90       ??0SolarSimpleConsole@@QAE@XZ 00447e90 f   utility_s:SolarSimpleConsole.obj
 0001:00046eb0       ?Print@SolarSimpleConsole@@QAAXPADZZ 00447eb0 f   utility_s:SolarSimpleConsole.obj
 0001:00046f30       ?Release@SolarSimpleConsole@@QAEHXZ 00447f30 f   utility_s:SolarSimpleConsole.obj
 0001:00046f60       ?_redirectToConsole@SolarSimpleConsole@@AAEXXZ 00447f60 f   utility_s:SolarSimpleConsole.obj
 0001:00047140       ?Init@SolarSimpleConsole@@QAEHPAUtagCONSOLE_DESC@@@Z 00448140 f   utility_s:SolarSimpleConsole.obj
 0001:00047280       ?CheckNodeHeader@SharedMemoryPoolSizeBased@memory@util@@SAPAUMemoryForUse@123@PAXQAW4eCheckMemoryNodeResult@23@@Z 00448280 f   utility_s:SharedMemoryPool.obj
 0001:00047360       ?AddBlock@SharedMemoryPoolSizeBased@memory@util@@AAEXQAUSharedMemoryTable@23@@Z 00448360 f   utility_s:SharedMemoryPool.obj
 0001:00047440       ??0SharedMemoryTable@memory@util@@QAE@XZ 00448440 f   utility_s:SharedMemoryPool.obj
 0001:00047c10       ?ReportRuntimeFailedObject@SharedMemoryTable@memory@util@@SAXW4eCheckMemoryNodeResult@23@PAXPAUMemoryForUse@SharedMemoryPoolSizeBased@23@@Z 00448c10 f   utility_s:SharedMemoryPool.obj
 0001:00047dc0       ??0SharedMemoryPool@@AAE@XZ 00448dc0 f   utility_s:SharedMemoryPool.obj
 0001:00047e00       ?Allocate@SharedMemoryPoolSizeBased@memory@util@@QAEPAXQAUSharedMemoryTable@23@IPBDH@Z 00448e00 f   utility_s:SharedMemoryPool.obj
 0001:00047eb0       ?Deallocate@SharedMemoryPoolSizeBased@memory@util@@QAEXQAUSharedMemoryTable@23@PAUMemoryForUse@123@@Z 00448eb0 f   utility_s:SharedMemoryPool.obj
 0001:00047fa0       ?FreeAllElements@SharedMemoryPoolSizeBased@memory@util@@QAEXQAUSharedMemoryTable@23@@Z 00448fa0 f   utility_s:SharedMemoryPool.obj
 0001:00048070       ?Allocate@SharedMemoryTable@memory@util@@QAEPAXIPBDH@Z 00449070 f   utility_s:SharedMemoryPool.obj
 0001:000481c0       ?Deallocate@SharedMemoryTable@memory@util@@QAEXPAX@Z 004491c0 f   utility_s:SharedMemoryPool.obj
 0001:00048290       ??1SharedMemoryTable@memory@util@@QAE@XZ 00449290 f   utility_s:SharedMemoryPool.obj
 0001:00048490       ?CreateInstance@SharedMemoryPool@@SA_NXZ 00449490 f   utility_s:SharedMemoryPool.obj
 0001:000484b0       ?MemoryAllocate@SharedMemoryPool@@SAPAXIPBDH@Z 004494b0 f   utility_s:SharedMemoryPool.obj
 0001:000484f0       ?CheckValidAllocatedMemory@SharedMemoryPool@@SA_NPAX@Z 004494f0 f   utility_s:SharedMemoryPool.obj
 0001:00048540       ?MemoryDeAllocate@SharedMemoryPool@@SAXPAX@Z 00449540 f   utility_s:SharedMemoryPool.obj
 0001:000485b0       ??D?$_Deque_const_iterator@PAUAlignNode@ObjectKeyGeneratorBase@internal@util@@V?$CustomAllocator@PAUAlignNode@ObjectKeyGeneratorBase@internal@util@@@4@$00@std@@QBEABQAUAlignNode@ObjectKeyGeneratorBase@internal@util@@XZ 004495b0 f i utility_s:ObjKeyGenerator.obj
 0001:00048640       ?_Tidy@?$deque@PAUAlignNode@ObjectKeyGeneratorBase@internal@util@@V?$CustomAllocator@PAUAlignNode@ObjectKeyGeneratorBase@internal@util@@@4@@std@@IAEXXZ 00449640 f i utility_s:ObjKeyGenerator.obj
 0001:000486b0       ??1ObjectKeyGeneratorBase@internal@util@@QAE@XZ 004496b0 f   utility_s:ObjKeyGenerator.obj
 0001:00048700       ?GetKey@ObjectKeyGeneratorBase@internal@util@@QAEKXZ 00449700 f   utility_s:ObjKeyGenerator.obj
 0001:000487e0       ?_Xlen@?$deque@PAUAlignNode@ObjectKeyGeneratorBase@internal@util@@V?$CustomAllocator@PAUAlignNode@ObjectKeyGeneratorBase@internal@util@@@4@@std@@KAXXZ 004497e0 f i utility_s:ObjKeyGenerator.obj
 0001:00048860       ?_Growmap@?$deque@PAUAlignNode@ObjectKeyGeneratorBase@internal@util@@V?$CustomAllocator@PAUAlignNode@ObjectKeyGeneratorBase@internal@util@@@4@@std@@IAEXI@Z 00449860 f i utility_s:ObjKeyGenerator.obj
 0001:000489d0       ?push_back@?$deque@PAUAlignNode@ObjectKeyGeneratorBase@internal@util@@V?$CustomAllocator@PAUAlignNode@ObjectKeyGeneratorBase@internal@util@@@4@@std@@QAEXABQAUAlignNode@ObjectKeyGeneratorBase@internal@util@@@Z 004499d0 f i utility_s:ObjKeyGenerator.obj
 0001:00048a50       ?Create@ObjectKeyGeneratorBase@internal@util@@QAE_NKK@Z 00449a50 f   utility_s:ObjKeyGenerator.obj
 0001:00048b10       ?RestoreKey@ObjectKeyGeneratorBase@internal@util@@QAE_NK@Z 00449b10 f   utility_s:ObjKeyGenerator.obj
 0001:00048b80       ?SetTimer@ITimerBase@util@@QAE_NK_N0@Z 00449b80 f   utility_s:ITimeout.obj
 0001:00048c10       ?IsExpired@ITimerBase@util@@QBE_NXZ 00449c10 f   utility_s:ITimeout.obj
 0001:00048c80       ??0CCriticalSection@util@@QAE@K@Z 00449c80 f   utility_s:CriticalSection.obj
 0001:00048cc0       ??1CCriticalSection@util@@UAE@XZ 00449cc0 f   utility_s:CriticalSection.obj
 0001:00048ce0       ??_ECCriticalSection@util@@UAEPAXI@Z 00449ce0 f i utility_s:CriticalSection.obj
 0001:00048ce0       ??_GCCriticalSection@util@@UAEPAXI@Z 00449ce0 f i utility_s:CriticalSection.obj
 0001:00048d10       ??0CSyncCriticalSection@util@@QAE@AAVCCriticalSection@1@@Z 00449d10 f   utility_s:CriticalSection.obj
 0001:00048d40       ??1CSyncCriticalSection@util@@UAE@XZ 00449d40 f   utility_s:CriticalSection.obj
 0001:00048d70       ??_ECSyncCriticalSection@util@@UAEPAXI@Z 00449d70 f i utility_s:CriticalSection.obj
 0001:00048d70       ??_GCSyncCriticalSection@util@@UAEPAXI@Z 00449d70 f i utility_s:CriticalSection.obj
 0001:00048db0       ??0RandomNumberGenerator@@QAE@XZ 00449db0 f   utility_s:RandomNumberGenerator.obj
 0001:00048e70       ?_Update@RandomNumberGenerator@@CAXXZ 00449e70 f   utility_s:RandomNumberGenerator.obj
 0001:00049050       ?GetRandomNumber@RandomNumberGenerator@@SAKXZ 0044a050 f   utility_s:RandomNumberGenerator.obj
 0001:00049080       ?CreateInstance@TimeSync@util@@CAPAV12@XZ 0044a080 f   utility_s:SolarDateTime.obj
 0001:00049100       ?Command_ClientRecv@TimeSync@util@@SA_NABUTimeSyncNode@2@@Z 0044a100 f   utility_s:SolarDateTime.obj
 0001:00049260       ?Command_Standalone@TimeSync@util@@SAXXZ 0044a260 f   utility_s:SolarDateTime.obj
 0001:000492f0       ?CalculateTime@TimeSync@util@@AAEXXZ 0044a2f0 f   utility_s:SolarDateTime.obj
 0001:00049390       ?GetLocalTime@TimeSync@util@@SAXPAU_SYSTEMTIME@@@Z 0044a390 f   utility_s:SolarDateTime.obj
 0001:00049430       ?UpdateTimeInfoPerFrame@TimeSync@util@@SAXPAUTimeInfoPerFrame@2@@Z 0044a430 f   utility_s:SolarDateTime.obj
 0001:00049510       ?RegisterLoggingHandler@SafeMemoryPoolFactoryShared@util@@SAXP6AXPBDPAXI@Z@Z 0044a510 f   utility_s:SafeMemoryPoolFactory.obj
 0001:00049520       ??0WxRingBuffer@util@@QAE@KK@Z 0044a520 f   utility_s:WxRingBuffer.obj
 0001:00049560       ?Reset@WxRingBuffer@util@@QAEXXZ 0044a560 f   utility_s:WxRingBuffer.obj
 0001:00049570       ?Enqueue@WxRingBuffer@util@@QAE_NPBEK@Z 0044a570 f   utility_s:WxRingBuffer.obj
 0001:000496a0       ?Dequeue@WxRingBuffer@util@@QAE_NPAEK@Z 0044a6a0 f   utility_s:WxRingBuffer.obj
 0001:000497d0       ?Peek@WxRingBuffer@util@@QAE_NPAEK@Z 0044a7d0 f   utility_s:WxRingBuffer.obj
 0001:00049880       ??0?$WxRingBufferEx@$0CD@@util@@QAE@KK@Z 0044a880 f   utility_s:WxRingBuffer.obj
 0001:000498d0       ?Reset@?$WxRingBufferEx@$0CD@@util@@QAEXXZ 0044a8d0 f   utility_s:WxRingBuffer.obj
 0001:000498f0       ?Enqueue@?$WxRingBufferEx@$0CD@@util@@QAE_NPBEK@Z 0044a8f0 f   utility_s:WxRingBuffer.obj
 0001:00049930       ?Dequeue@?$WxRingBufferEx@$0CD@@util@@QAE_NPAEK@Z 0044a930 f   utility_s:WxRingBuffer.obj
 0001:00049940       ?Peek@?$WxRingBufferEx@$0CD@@util@@QAE_NPAEK@Z 0044a940 f   utility_s:WxRingBuffer.obj
 0001:00049950       ??_EWxRingBuffer@util@@UAEPAXI@Z 0044a950 f i utility_s:WxRingBuffer.obj
 0001:00049950       ??_GWxRingBuffer@util@@UAEPAXI@Z 0044a950 f i utility_s:WxRingBuffer.obj
 0001:00049990       ??_G?$WxRingBufferEx@$0CD@@util@@UAEPAXI@Z 0044a990 f i utility_s:WxRingBuffer.obj
 0001:00049990       ??_E?$WxRingBufferEx@$0CD@@util@@UAEPAXI@Z 0044a990 f i utility_s:WxRingBuffer.obj
 0001:000499d6       ?_Xlen@_String_base@std@@SAXXZ 0044a9d6 f   libcpmt:string.obj
 0001:00049a0e       ?_Xran@_String_base@std@@SAXXZ 0044aa0e f   libcpmt:string.obj
 0001:00049a46       ??_U@YAPAXI@Z              0044aa46 f   libcpmt:newaop.obj
 0001:00049a51       ?_Callfns@ios_base@std@@AAEXW4event@12@@Z 0044aa51 f i libcpmt:ios.obj
 0001:00049a78       ?_Tidy@ios_base@std@@AAAXXZ 0044aa78 f i libcpmt:ios.obj
 0001:00049ac3       ?_Addstd@ios_base@std@@SAXPAV12@@Z 0044aac3 f   libcpmt:ios.obj
 0001:00049b15       ?_Ios_base_dtor@ios_base@std@@CAXPAV12@@Z 0044ab15 f   libcpmt:ios.obj
 0001:00049b51       ?_Fiopen@std@@YAPAU_iobuf@@PB_WHH@Z 0044ab51 f   libcpmt:fiopen.obj
 0001:00049c09       ?_Fiopen@std@@YAPAU_iobuf@@PBDHH@Z 0044ac09 f   libcpmt:fiopen.obj
 0001:00049c66       ??0_Init_locks@std@@QAE@XZ 0044ac66 f   libcpmt:xlock.obj
 0001:00049c97       ??1_Init_locks@std@@QAE@XZ 0044ac97 f   libcpmt:xlock.obj
 0001:00049cc0       ??0_Lockit@std@@QAE@H@Z    0044acc0 f   libcpmt:xlock.obj
 0001:00049ce8       ??1_Lockit@std@@QAE@XZ     0044ace8 f   libcpmt:xlock.obj
 0001:00049cff       ??0_Mutex@std@@QAE@XZ      0044acff f   libcpmt:xmutex.obj
 0001:00049d19       ??1_Mutex@std@@QAE@XZ      0044ad19 f   libcpmt:xmutex.obj
 0001:00049d30       ?_Lock@_Mutex@std@@QAEXXZ  0044ad30 f   libcpmt:xmutex.obj
 0001:00049d39       ?_Unlock@_Mutex@std@@QAEXXZ 0044ad39 f   libcpmt:xmutex.obj
 0001:00049d42       ?_AtModuleExit@@YAXP6AXXZ@Z 0044ad42 f   libcpmt:locale0.obj
 0001:00049d5c       ??1_Fac_node@std@@QAE@XZ   0044ad5c f i libcpmt:locale0.obj
 0001:00049d71       ??_G_Fac_node@std@@QAEPAXI@Z 0044ad71 f i libcpmt:locale0.obj
 0001:00049d92       __Deletegloballocale       0044ad92 f   libcpmt:locale0.obj
 0001:00049ddf       ?_Getgloballocale@locale@std@@CAPAV_Locimp@12@XZ 0044addf f   libcpmt:locale0.obj
 0001:00049de5       ?_Setgloballocale@locale@std@@CAXPAX@Z 0044ade5 f   libcpmt:locale0.obj
 0001:00049e0f       ?_Locimp_dtor@_Locimp@locale@std@@CAXPAV123@@Z 0044ae0f f   libcpmt:locale0.obj
 0001:00049e6f       __Fac_tidy                 0044ae6f f   libcpmt:locale0.obj
 0001:00049ea4       ?facet_Register@facet@locale@std@@CAXPAV123@@Z 0044aea4 f   libcpmt:locale0.obj
 0001:00049ee2       ?_Locinfo_dtor@_Locinfo@std@@SAXPAV12@@Z 0044aee2 f   libcpmt:locale0.obj
 0001:00049f0a       ??0_Locimp@locale@std@@AAE@_N@Z 0044af0a f i libcpmt:locale0.obj
 0001:00049f53       ??1_Locimp@locale@std@@MAE@XZ 0044af53 f i libcpmt:locale0.obj
 0001:00049f90       ??_E_Locimp@locale@std@@MAEPAXI@Z 0044af90 f i libcpmt:locale0.obj
 0001:00049f90       ??_G_Locimp@locale@std@@MAEPAXI@Z 0044af90 f i libcpmt:locale0.obj
 0001:00049fb1       ?_Init@locale@std@@CAPAV_Locimp@12@XZ 0044afb1 f   libcpmt:locale0.obj
 0001:0004a04b       ?_Locinfo_ctor@_Locinfo@std@@SAXPAV12@ABV?$basic_string@DU?$char_traits@D@std@@V?$allocator@D@2@@2@@Z 0044b04b f   libcpmt:locale0.obj
 0001:0004a0a7       __Tolower                  0044b0a7 f   libcpmt:_tolower.obj
 0001:0004a1b4       __Getctype                 0044b1b4 f   libcpmt:_tolower.obj
 0001:0004a214       __Toupper                  0044b214 f   libcpmt:_toupper.obj
 0001:0004a326       __Mtxinit                  0044b326 f   libcpmt:xmtx.obj
 0001:0004a336       __Mtxdst                   0044b336 f   libcpmt:xmtx.obj
 0001:0004a346       __Mtxlock                  0044b346 f   libcpmt:xmtx.obj
 0001:0004a356       __Mtxunlock                0044b356 f   libcpmt:xmtx.obj
 0001:0004a366       ?_Atexit@@YAXP6AXXZ@Z      0044b366 f   libcpmt:iosptrs.obj
 0001:0004a38c       ??1_Init_atexit@@QAE@XZ    0044b38c f i libcpmt:iosptrs.obj
 0001:0004a3b2       ___WSAFDIsSet@8            0044b3b2 f   ws2_32:WS2_32.dll
 0001:0004a3c0       ?default_error_condition@error_category@system@boost@@UBE?AVerror_condition@23@H@Z 0044b3c0 f i libboost_system-vc90-mt-s-1_60:error_code.obj
 0001:0004a3d0       ?equivalent@error_category@system@boost@@UBE_NHABVerror_condition@23@@Z 0044b3d0 f i libboost_system-vc90-mt-s-1_60:error_code.obj
 0001:0004a410       ?equivalent@error_category@system@boost@@UBE_NABVerror_code@23@H@Z 0044b410 f i libboost_system-vc90-mt-s-1_60:error_code.obj
 0001:0004a430       ??1local_free_on_destruction@detail@system@boost@@QAE@XZ 0044b430 f i libboost_system-vc90-mt-s-1_60:error_code.obj
 0001:0004a440       ?name@generic_error_category@?A0xa00a0bbd@system@boost@@UBEPBDXZ 0044b440 f   libboost_system-vc90-mt-s-1_60:error_code.obj
 0001:0004a450       ?name@system_error_category@?A0xa00a0bbd@system@boost@@UBEPBDXZ 0044b450 f   libboost_system-vc90-mt-s-1_60:error_code.obj
 0001:0004a460       ??_Gsystem_error_category@?A0xa00a0bbd@system@boost@@UAEPAXI@Z 0044b460 f i libboost_system-vc90-mt-s-1_60:error_code.obj
 0001:0004a460       ??_Eerror_category@system@boost@@UAEPAXI@Z 0044b460 f i libboost_system-vc90-mt-s-1_60:error_code.obj
 0001:0004a460       ??_Ggeneric_error_category@?A0xa00a0bbd@system@boost@@UAEPAXI@Z 0044b460 f i libboost_system-vc90-mt-s-1_60:error_code.obj
 0001:0004a460       ??_Esystem_error_category@?A0xa00a0bbd@system@boost@@UAEPAXI@Z 0044b460 f i libboost_system-vc90-mt-s-1_60:error_code.obj
 0001:0004a460       ??_Egeneric_error_category@?A0xa00a0bbd@system@boost@@UAEPAXI@Z 0044b460 f i libboost_system-vc90-mt-s-1_60:error_code.obj
 0001:0004a460       ??_Gerror_category@system@boost@@UAEPAXI@Z 0044b460 f i libboost_system-vc90-mt-s-1_60:error_code.obj
 0001:0004a480       ?system_category@system@boost@@YAABVerror_category@12@XZ 0044b480 f   libboost_system-vc90-mt-s-1_60:error_code.obj
 0001:0004a4f0       ?generic_category@system@boost@@YAABVerror_category@12@XZ 0044b4f0 f   libboost_system-vc90-mt-s-1_60:error_code.obj
 0001:0004a560       ?default_error_condition@system_error_category@?A0xa00a0bbd@system@boost@@UBE?AVerror_condition@34@H@Z 0044b560 f   libboost_system-vc90-mt-s-1_60:error_code.obj
 0001:0004ac50       ?message@generic_error_category@?A0xa00a0bbd@system@boost@@UBE?AV?$basic_string@DU?$char_traits@D@std@@V?$allocator@D@2@@std@@H@Z 0044bc50 f   libboost_system-vc90-mt-s-1_60:error_code.obj
 0001:0004ad80       ?message@system_error_category@?A0xa00a0bbd@system@boost@@UBE?AV?$basic_string@DU?$char_traits@D@std@@V?$allocator@D@2@@std@@H@Z 0044bd80 f   libboost_system-vc90-mt-s-1_60:error_code.obj
 0001:0004af60       _zcalloc                   0044bf60 f   zlib:zutil.obj
 0001:0004afa0       _zcfree                    0044bfa0 f   zlib:zutil.obj
 0001:0004afd0       ___zlib_register_malloc    0044bfd0 f   zlib:zutil.obj
 0001:0004afe0       ___zlib_register_free      0044bfe0 f   zlib:zutil.obj
 0001:0004aff0       _compress2                 0044bff0 f   zlib:compress.obj
 0001:0004b130       _deflate                   0044c130 f   zlib:deflate.obj
 0001:0004b3a0       _deflateEnd                0044c3a0 f   zlib:deflate.obj
 0001:0004c0e0       _deflateReset              0044d0e0 f   zlib:deflate.obj
 0001:0004c150       _deflateInit2_             0044d150 f   zlib:deflate.obj
 0001:0004c350       _deflateInit_              0044d350 f   zlib:deflate.obj
 0001:0004c380       _adler32                   0044d380 f   zlib:adler32.obj
 0001:0004d6b0       __tr_init                  0044e6b0 f   zlib:trees.obj
 0001:0004da80       __tr_stored_block          0044ea80 f   zlib:trees.obj
 0001:0004db30       __tr_align                 0044eb30 f   zlib:trees.obj
 0001:0004dd20       __tr_flush_block           0044ed20 f   zlib:trees.obj
 0001:0004df10       ??0SMTPClient@@QAE@XZ      0044ef10 f   CrashHandler:SMTPClient.obj
 0001:0004dfb0       ??1SMTPClient@@QAE@XZ      0044efb0 f   CrashHandler:SMTPClient.obj
 0001:0004dfd0       ?CheckResponse@SMTPClient@@AAEHE@Z 0044efd0 f   CrashHandler:SMTPClient.obj
 0001:0004e090       ?MailLogin@SMTPClient@@AAEHPBD0@Z 0044f090 f   CrashHandler:SMTPClient.obj
 0001:0004e200       ?MailFrom@SMTPClient@@QAEHPBD0@Z 0044f200 f   CrashHandler:SMTPClient.obj
 0001:0004e2b0       ?MailTo@SMTPClient@@QAEHPBD@Z 0044f2b0 f   CrashHandler:SMTPClient.obj
 0001:0004e380       ?MailContents@SMTPClient@@QAEHPBD0@Z 0044f380 f   CrashHandler:SMTPClient.obj
 0001:0004e6e0       ?MailAttachFile@SMTPClient@@QAEHPAD@Z 0044f6e0 f   CrashHandler:SMTPClient.obj
 0001:0004ea10       ?MailSubmit@SMTPClient@@QAEHXZ 0044fa10 f   CrashHandler:SMTPClient.obj
 0001:0004eb10       ?Connect@SMTPClient@@QAEHPBD00G@Z 0044fb10 f   CrashHandler:SMTPClient.obj
 0001:0004ec70       ?_exception_code@CrashHandler@@CAXPADK@Z 0044fc70 f   CrashHandler:CrashHandler.obj
 0001:0004ef10       ?HandleException@CrashHandler@@SGJPAU_EXCEPTION_POINTERS@@@Z 0044ff10 f   CrashHandler:CrashHandler.obj
 0001:0004f640       ?Install@CrashHandler@@SAX_NP6APBDXZP6AXPBD2@Z@Z 00450640 f   CrashHandler:CrashHandler.obj
 0001:0004f670       ?CreateMimeBoundary@Mime@@QAEPADXZ 00450670 f   CrashHandler:Mime.obj
 0001:0004f6a0       ?GetContentType@Mime@@QAEPADPBD@Z 004506a0 f   CrashHandler:Mime.obj
 0001:0004fbb0       ??0Mime@@QAE@XZ            00450bb0 f   CrashHandler:Mime.obj
 0001:0004fbd0       ??0ClientSocket@@QAE@XZ    00450bd0 f   CrashHandler:ClientSocket.obj
 0001:0004fc20       ?Connect@ClientSocket@@QAE_NPBDG@Z 00450c20 f   CrashHandler:ClientSocket.obj
 0001:0004fcf0       ?Close@ClientSocket@@QAEXXZ 00450cf0 f   CrashHandler:ClientSocket.obj
 0001:0004fd10       ?Send@ClientSocket@@QAEHPAXH@Z 00450d10 f   CrashHandler:ClientSocket.obj
 0001:0004fd30       ?Recv@ClientSocket@@QAEHPAXH@Z 00450d30 f   CrashHandler:ClientSocket.obj
 0001:0004fd50       ?Base64Encode@@YAXPBDHPADH@Z 00450d50 f   CrashHandler:Base64.obj
 0001:00050030       ?GenerateMiniDump@MiniDump@@SA_NPAU_EXCEPTION_POINTERS@@PBD@Z 00451030 f   CrashHandler:MiniDump.obj
 0001:00050160       ??0NetworkObject@@QAE@XZ   00451160 f   Network:NetworkObject.obj
 0001:00050180       ??1NetworkObject@@UAE@XZ   00451180 f   Network:NetworkObject.obj
 0001:00050190       ?Disconnect@NetworkObject@@QAEXH@Z 00451190 f   Network:NetworkObject.obj
 0001:000501b0       ?OnDisconnect@NetworkObject@@MAEXXZ 004511b0 f   Network:NetworkObject.obj
 0001:000501c0       ?Send@NetworkObject@@QAEHPAEG@Z 004511c0 f   Network:NetworkObject.obj
 0001:000501f0       ?SendEx@NetworkObject@@QAEHKPAPAEPAG@Z 004511f0 f   Network:NetworkObject.obj
 0001:00050230       ?Redirect@NetworkObject@@QAEXPAV1@@Z 00451230 f   Network:NetworkObject.obj
 0001:00050240       ?GetIP@NetworkObject@@QAEPADXZ 00451240 f   Network:NetworkObject.obj
 0001:00050260       ?GetIPAddress@NetworkObject@@QAEKXZ 00451260 f   Network:NetworkObject.obj
 0001:00050280       ?GetPort@NetworkObject@@QAEGXZ 00451280 f   Network:NetworkObject.obj
 0001:000502a0       ?GetSendBufferInfo@NetworkObject@@QAEXAAUBUFFER_INFO@1@@Z 004512a0 f   Network:NetworkObject.obj
 0001:000502d0       ?GetRecvBufferInfo@NetworkObject@@QAEXAAUBUFFER_INFO@1@@Z 004512d0 f   Network:NetworkObject.obj
 0001:00050300       ?SetSockOpt@NetworkObject@@QAEHHHPBDH@Z 00451300 f   Network:NetworkObject.obj
 0001:00050320       ?SetSession@NetworkObject@@AAEXPAVSession@@@Z 00451320 f   Network:NetworkObject.obj
 0001:00050340       ?UseSendPendingBuffer@NetworkObject@@QAE_NK@Z 00451340 f   Network:NetworkObject.obj
 0001:00050360       ?UseRecvDualBuffer@NetworkObject@@QAE_NK@Z 00451360 f   Network:NetworkObject.obj
 0001:00050380       ?OnLogString@NetworkObject@@EAEXPAD@Z 00451380 f i Network:NetworkObject.obj
 0001:00050380       ?OnAccept@NetworkObject@@MAEXK@Z 00451380 f i servercommon:ServerSession.obj
 0001:00050390       ??_GNetworkObject@@UAEPAXI@Z 00451390 f i Network:NetworkObject.obj
 0001:00050390       ??_ENetworkObject@@UAEPAXI@Z 00451390 f i Network:NetworkObject.obj
 0001:000503b0       ?InitWinsock@IOCPServer@@AAEHXZ 004513b0 f   Network:IOCPServer.obj
 0001:00050420       ?send_thread@@YGIPAX@Z     00451420 f   Network:IOCPServer.obj
 0001:000504c0       ?Shutdown@IOCPServer@@QAEXXZ 004514c0 f   Network:IOCPServer.obj
 0001:000505b0       ?Update@IOCPServer@@QAEXXZ 004515b0 f   Network:IOCPServer.obj
 0001:00050620       ?GetIoHandler@IOCPServer@@AAEPAVIoHandler@@K@Z 00451620 f   Network:IOCPServer.obj
 0001:00050690       ?StartListen@IOCPServer@@QAEHKPADG@Z 00451690 f   Network:IOCPServer.obj
 0001:00050710       ?Connect@IOCPServer@@QAEKKPAVNetworkObject@@PADG@Z 00451710 f   Network:IOCPServer.obj
 0001:000507b0       ?IsListening@IOCPServer@@QAEHK@Z 004517b0 f   Network:IOCPServer.obj
 0001:00050830       ?SuspendListenThread@IOCPServer@@QAEXK@Z 00451830 f   Network:IOCPServer.obj
 0001:000508a0       ?ResumeListenThread@IOCPServer@@QAEXK@Z 004518a0 f   Network:IOCPServer.obj
 0001:00050910       ?GetNumberOfConnections@IOCPServer@@QAEKK@Z 00451910 f   Network:IOCPServer.obj
 0001:00050990       ?GetMaxBuffer@IOCPServer@@AAEKKKHH@Z 00451990 f   Network:IOCPServer.obj
 0001:00050a00       ?Display@IOCPServer@@QAEXKK@Z 00451a00 f   Network:IOCPServer.obj
 0001:00050b10       ?CreateIoHandler@IOCPServer@@AAEXPAUtagIOHANDLER_DESC@@@Z 00451b10 f   Network:IOCPServer.obj
 0001:00050bb0       ?Init@IOCPServer@@QAEHPAUtagIOHANDLER_DESC@@K@Z 00451bb0 f   Network:IOCPServer.obj
 0001:00050c10       ??0IOCPServer@@QAE@XZ      00451c10 f   Network:IOCPServer.obj
 0001:00050ca0       ??1IOCPServer@@UAE@XZ      00451ca0 f   Network:IOCPServer.obj
 0001:00050cf0       ?_Min@?$_Tree@V?$_Tmap_traits@KPAVIoHandler@@U?$less@K@std@@V?$RedirectedAllocator@PAVIoHandler@@@module@@$0A@@std@@@std@@KAPAU_Node@?$_Tree_nod@V?$_Tmap_traits@KPAVIoHandler@@U?$less@K@std@@V?$RedirectedAllocator@PAVIoHandler@@@module@@$0A@@std@@@2@PAU342@@Z 00451cf0 f i Network:IOCPServer.obj
 0001:00050d10       ?_Max@?$_Tree@V?$_Tmap_traits@KPAVIoHandler@@U?$less@K@std@@V?$RedirectedAllocator@PAVIoHandler@@@module@@$0A@@std@@@std@@KAPAU_Node@?$_Tree_nod@V?$_Tmap_traits@KPAVIoHandler@@U?$less@K@std@@V?$RedirectedAllocator@PAVIoHandler@@@module@@$0A@@std@@@2@PAU342@@Z 00451d10 f i Network:IOCPServer.obj
 0001:00050d30       ??E?$_Const_iterator@$00@?$list@PAVSession@@V?$RedirectedAllocator@PAVSession@@@module@@@std@@QAEAAV012@XZ 00451d30 f i Network:IOCPServer.obj
 0001:00050d70       ??9?$_Const_iterator@$00@?$list@PAVSession@@V?$RedirectedAllocator@PAVSession@@@module@@@std@@QBE_NABV012@@Z 00451d70 f i Network:IOCPServer.obj
 0001:00050da0       ?_Erase@?$_Tree@V?$_Tmap_traits@KPAVIoHandler@@U?$less@K@std@@V?$RedirectedAllocator@PAVIoHandler@@@module@@$0A@@std@@@std@@IAEXPAU_Node@?$_Tree_nod@V?$_Tmap_traits@KPAVIoHandler@@U?$less@K@std@@V?$RedirectedAllocator@PAVIoHandler@@@module@@$0A@@std@@@2@@Z 00451da0 f i Network:IOCPServer.obj
 0001:00050de0       ?_Inc@const_iterator@?$_Tree@V?$_Tmap_traits@KPAVIoHandler@@U?$less@K@std@@V?$RedirectedAllocator@PAVIoHandler@@@module@@$0A@@std@@@std@@QAEXXZ 00451de0 f i Network:IOCPServer.obj
 0001:00050e50       ?_Lrotate@?$_Tree@V?$_Tmap_traits@KPAVIoHandler@@U?$less@K@std@@V?$RedirectedAllocator@PAVIoHandler@@@module@@$0A@@std@@@std@@IAEXPAU_Node@?$_Tree_nod@V?$_Tmap_traits@KPAVIoHandler@@U?$less@K@std@@V?$RedirectedAllocator@PAVIoHandler@@@module@@$0A@@std@@@2@@Z 00451e50 f i Network:IOCPServer.obj
 0001:00050ea0       ?_Rrotate@?$_Tree@V?$_Tmap_traits@KPAVIoHandler@@U?$less@K@std@@V?$RedirectedAllocator@PAVIoHandler@@@module@@$0A@@std@@@std@@IAEXPAU_Node@?$_Tree_nod@V?$_Tmap_traits@KPAVIoHandler@@U?$less@K@std@@V?$RedirectedAllocator@PAVIoHandler@@@module@@$0A@@std@@@2@@Z 00451ea0 f i Network:IOCPServer.obj
 0001:00050f00       ?_Buynode@?$_Tree@V?$_Tmap_traits@KPAVIoHandler@@U?$less@K@std@@V?$RedirectedAllocator@PAVIoHandler@@@module@@$0A@@std@@@std@@IAEPAU_Node@?$_Tree_nod@V?$_Tmap_traits@KPAVIoHandler@@U?$less@K@std@@V?$RedirectedAllocator@PAVIoHandler@@@module@@$0A@@std@@@2@PAU342@00ABU?$pair@$$CBKPAVIoHandler@@@2@D@Z 00451f00 f i Network:IOCPServer.obj
 0001:00050f40       ?_Buynode@?$_Tree@V?$_Tmap_traits@KPAVIoHandler@@U?$less@K@std@@V?$RedirectedAllocator@PAVIoHandler@@@module@@$0A@@std@@@std@@IAEPAU_Node@?$_Tree_nod@V?$_Tmap_traits@KPAVIoHandler@@U?$less@K@std@@V?$RedirectedAllocator@PAVIoHandler@@@module@@$0A@@std@@@2@XZ 00451f40 f i Network:IOCPServer.obj
 0001:00050f80       ?_Dec@const_iterator@?$_Tree@V?$_Tmap_traits@KPAVIoHandler@@U?$less@K@std@@V?$RedirectedAllocator@PAVIoHandler@@@module@@$0A@@std@@@std@@QAEXXZ 00451f80 f i Network:IOCPServer.obj
 0001:00051010       ?find@?$_Tree@V?$_Tmap_traits@KPAVIoHandler@@U?$less@K@std@@V?$RedirectedAllocator@PAVIoHandler@@@module@@$0A@@std@@@std@@QAE?AViterator@12@ABK@Z 00452010 f i Network:IOCPServer.obj
 0001:00051010       ?find@?$_Tree@V?$_Tmap_traits@KPAVIoHandler@@U?$less@K@std@@V?$RedirectedAllocator@PAVIoHandler@@@module@@$0A@@std@@@std@@QBE?AVconst_iterator@12@ABK@Z 00452010 f i Network:IOCPServer.obj
 0001:000510a0       ??0?$_Tree@V?$_Tmap_traits@KPAVIoHandler@@U?$less@K@std@@V?$RedirectedAllocator@PAVIoHandler@@@module@@$0A@@std@@@std@@QAE@ABU?$less@K@1@ABV?$RedirectedAllocator@U?$pair@$$CBKPAVIoHandler@@@std@@@module@@@Z 004520a0 f i Network:IOCPServer.obj
 0001:00051130       ?_Insert@?$_Tree@V?$_Tmap_traits@KPAVIoHandler@@U?$less@K@std@@V?$RedirectedAllocator@PAVIoHandler@@@module@@$0A@@std@@@std@@IAE?AViterator@12@_NPAU_Node@?$_Tree_nod@V?$_Tmap_traits@KPAVIoHandler@@U?$less@K@std@@V?$RedirectedAllocator@PAVIoHandler@@@module@@$0A@@std@@@2@ABU?$pair@$$CBKPAVIoHandler@@@2@@Z 00452130 f i Network:IOCPServer.obj
 0001:00051330       ?erase@?$_Tree@V?$_Tmap_traits@KPAVIoHandler@@U?$less@K@std@@V?$RedirectedAllocator@PAVIoHandler@@@module@@$0A@@std@@@std@@QAE?AViterator@12@Vconst_iterator@12@@Z 00452330 f i Network:IOCPServer.obj
 0001:00051600       ?insert@?$_Tree@V?$_Tmap_traits@KPAVIoHandler@@U?$less@K@std@@V?$RedirectedAllocator@PAVIoHandler@@@module@@$0A@@std@@@std@@QAE?AU?$pair@Viterator@?$_Tree@V?$_Tmap_traits@KPAVIoHandler@@U?$less@K@std@@V?$RedirectedAllocator@PAVIoHandler@@@module@@$0A@@std@@@std@@_N@2@ABU?$pair@$$CBKPAVIoHandler@@@2@@Z 00452600 f i Network:IOCPServer.obj
 0001:000516f0       ?erase@?$_Tree@V?$_Tmap_traits@KPAVIoHandler@@U?$less@K@std@@V?$RedirectedAllocator@PAVIoHandler@@@module@@$0A@@std@@@std@@QAE?AViterator@12@Vconst_iterator@12@0@Z 004526f0 f i Network:IOCPServer.obj
 0001:000517d0       ??1?$_Tree@V?$_Tmap_traits@KPAVIoHandler@@U?$less@K@std@@V?$RedirectedAllocator@PAVIoHandler@@@module@@$0A@@std@@@std@@QAE@XZ 004527d0 f i Network:IOCPServer.obj
 0001:00051850       ??_GIOCPServer@@UAEPAXI@Z  00452850 f i Network:IOCPServer.obj
 0001:00051850       ??_EIOCPServer@@UAEPAXI@Z  00452850 f i Network:IOCPServer.obj
 0001:00051870       ?Init@Session@@QAEXXZ      00452870 f   Network:Session.obj
 0001:000518b0       ?Reuse@Session@@QAEXPAX@Z  004528b0 f   Network:Session.obj
 0001:00051940       ?PreSend@Session@@QAE_NXZ  00452940 f   Network:Session.obj
 0001:000519c0       ?CreateSocket@Session@@QAEIXZ 004529c0 f   Network:Session.obj
 0001:000519e0       ?BindNetworkObject@Session@@QAEXPAVNetworkObject@@@Z 004529e0 f   Network:Session.obj
 0001:00051a00       ?UnbindNetworkObject@Session@@QAEXXZ 00452a00 f   Network:Session.obj
 0001:00051a20       ?OnAccept@Session@@QAEXXZ  00452a20 f   Network:Session.obj
 0001:00051a60       ?OnConnect@Session@@QAEX_N@Z 00452a60 f   Network:Session.obj
 0001:00051aa0       ?OnLogString@Session@@QAAXPBDZZ 00452aa0 f   Network:Session.obj
 0001:00051b10       ?Disconnect@Session@@QAEX_N@Z 00452b10 f   Network:Session.obj
 0001:00051b30       ?SetSockOpt@Session@@QAEHHHPBDH@Z 00452b30 f   Network:Session.obj
 0001:00051b60       ??0Session@@QAE@KKKK@Z     00452b60 f   Network:Session.obj
 0001:00051bd0       ??1Session@@UAE@XZ         00452bd0 f   Network:Session.obj
 0001:00051c30       ?Send@Session@@QAE_NPAEG@Z 00452c30 f   Network:Session.obj
 0001:00051ca0       ?SendEx@Session@@QAE_NKPAPAEPAG@Z 00452ca0 f   Network:Session.obj
 0001:00051d20       ?ProcessReceivedPacket@Session@@QAE_NH@Z 00452d20 f   Network:Session.obj
 0001:00051e20       ?PreRecv@Session@@QAE_NXZ  00452e20 f   Network:Session.obj
 0001:00051ec0       ?PreAccept@Session@@QAE_NI@Z 00452ec0 f   Network:Session.obj
 0001:00051fa0       ?Allocate@?$TAllocator@VSendBuffer@@@module@@SAPAVSendBuffer@@XZ 00452fa0 f i Network:Session.obj
 0001:00052010       ?Allocate@?$TAllocator@VRecvBuffer@@@module@@SAPAVRecvBuffer@@XZ 00453010 f i Network:Session.obj
 0001:00052080       ??_GSession@@UAEPAXI@Z     00453080 f i Network:Session.obj
 0001:00052080       ??_ESession@@UAEPAXI@Z     00453080 f i Network:Session.obj
 0001:000520a0       ??0SendBuffer@@QAE@XZ      004530a0 f   Network:SendBuffer.obj
 0001:00052130       ?PumpPendingBuffer@SendBuffer@@AAEXXZ 00453130 f   Network:SendBuffer.obj
 0001:000521d0       ?WriteMessages@SendBuffer@@QAE_NPAPBEPAGKW4HEADER_SIZE_TYPE@@@Z 004531d0 f   Network:SendBuffer.obj
 0001:000522b0       ??1SendBuffer@@QAE@XZ      004532b0 f   Network:SendBuffer.obj
 0001:00052300       ?Create@SendBuffer@@QAEXKK@Z 00453300 f   Network:SendBuffer.obj
 0001:00052390       ?UsePendingBuffer@SendBuffer@@QAE_NK@Z 00453390 f   Network:SendBuffer.obj
 0001:00052490       ?Clear@SendBuffer@@QAEXXZ  00453490 f   Network:SendBuffer.obj
 0001:000524d0       ?PrepareSend@SendBuffer@@QAE_NQAURingBufferInfo@module@@@Z 004534d0 f   Network:SendBuffer.obj
 0001:000525a0       ?IsEmpty@SendBuffer@@QBE_NXZ 004535a0 f   Network:SendBuffer.obj
 0001:000525c0       ?GetBufferSizeInfo@SendBuffer@@QBEXAAK0@Z 004535c0 f   Network:SendBuffer.obj
 0001:00052610       ??0RecvBuffer@@QAE@XZ      00453610 f   Network:RecvBuffer.obj
 0001:000526b0       ?PumpTo2ndBuffer@RecvBuffer@@AAEXXZ 004536b0 f   Network:RecvBuffer.obj
 0001:00052750       ?GetRecvParam@RecvBuffer@@QAEXPAPAEAAH@Z 00453750 f   Network:RecvBuffer.obj
 0001:00052780       ?PopHeadMessage@RecvBuffer@@QAE_NH@Z 00453780 f   Network:RecvBuffer.obj
 0001:000527b0       ?GetFirstPacketPtr@RecvBuffer@@QAEPAEW4HEADER_SIZE_TYPE@@PAK@Z 004537b0 f   Network:RecvBuffer.obj
 0001:00052860       ??1RecvBuffer@@QAE@XZ      00453860 f   Network:RecvBuffer.obj
 0001:000528d0       ?Create@RecvBuffer@@QAEXHK@Z 004538d0 f   Network:RecvBuffer.obj
 0001:00052960       ?Clear@RecvBuffer@@QAEXXZ  00453960 f   Network:RecvBuffer.obj
 0001:000529b0       ?UseDualBuffer@RecvBuffer@@QAE_NK@Z 004539b0 f   Network:RecvBuffer.obj
 0001:00052aa0       ?GetReceivableInfo@RecvBuffer@@AAE_NQAURingBufferInfo@module@@@Z 00453aa0 f   Network:RecvBuffer.obj
 0001:00052b10       ?PrepareRecv@RecvBuffer@@QAE_NQAURingBufferInfo@module@@@Z 00453b10 f   Network:RecvBuffer.obj
 0001:00052bd0       ?GetBufferSizeInfo@RecvBuffer@@QBEXAAK0@Z 00453bd0 f   Network:RecvBuffer.obj
 0001:00052c20       ??0IoHandler@@QAE@XZ       00453c20 f   Network:IoHandler.obj
 0001:00052c40       ?Init@IoHandler@@QAEXPAVIOCPServer@@PAUtagIOHANDLER_DESC@@@Z 00453c40 f   Network:IoHandler.obj
 0001:00052f80       ?IsListening@IoHandler@@QAEHXZ 00453f80 f   Network:IoHandler.obj
 0001:00052f90       ?SuspendListenThread@IoHandler@@QAEXXZ 00453f90 f   Network:IoHandler.obj
 0001:00052fa0       ?ResumeListenThread@IoHandler@@QAEXXZ 00453fa0 f   Network:IoHandler.obj
 0001:00052fb0       ?AllocAcceptSession@IoHandler@@AAEPAVSession@@XZ 00453fb0 f   Network:IoHandler.obj
 0001:00052fd0       ?AllocConnectSession@IoHandler@@AAEPAVSession@@XZ 00453fd0 f   Network:IoHandler.obj
 0001:00052ff0       ?FreeSession@IoHandler@@AAEXPAVSession@@@Z 00453ff0 f   Network:IoHandler.obj
 0001:00053030       ?ReuseSession@IoHandler@@AAEXPAVSession@@@Z 00454030 f   Network:IoHandler.obj
 0001:00053040       ?ProcessSend@IoHandler@@AAEXXZ 00454040 f   Network:IoHandler.obj
 0001:00053090       ?Connect@IoHandler@@QAEKPAVNetworkObject@@PADG@Z 00454090 f   Network:IoHandler.obj
 0001:00053170       ?StartListen@IoHandler@@QAEHPADG@Z 00454170 f   Network:IoHandler.obj
 0001:000531d0       ?GetSession@IoHandler@@QAEPAVSession@@K@Z 004541d0 f   Network:IoHandler.obj
 0001:00053240       ?ProcessConnectFailList@IoHandler@@AAEXXZ 00454240 f   Network:IoHandler.obj
 0001:00053330       ?ProcessActiveSessionList@IoHandler@@AAEXXZ 00454330 f   Network:IoHandler.obj
 0001:00053430       ?KickAllSessions@IoHandler@@AAEXXZ 00454430 f   Network:IoHandler.obj
 0001:000534b0       ?ProcessConnectSuccessList@IoHandler@@AAEXXZ 004544b0 f   Network:IoHandler.obj
 0001:00053660       ?ProcessAcceptedSessionList@IoHandler@@AAEXXZ 00454660 f   Network:IoHandler.obj
 0001:00053830       ?KickDeadSessions@IoHandler@@AAEXXZ 00454830 f   Network:IoHandler.obj
 0001:00053b00       ?Update@IoHandler@@QAEXXZ  00454b00 f   Network:IoHandler.obj
 0001:00053b40       ?Shutdown@IoHandler@@QAEXXZ 00454b40 f   Network:IoHandler.obj
 0001:00053ba0       ??1IoHandler@@QAE@XZ       00454ba0 f   Network:IoHandler.obj
 0001:00053d10       ??F?$_Const_iterator@$00@?$list@PAVSession@@V?$RedirectedAllocator@PAVSession@@@module@@@std@@QAEAAV012@XZ 00454d10 f i Network:IoHandler.obj
 0001:00053d40       ?clear@?$list@PAVSession@@V?$RedirectedAllocator@PAVSession@@@module@@@std@@QAEXXZ 00454d40 f i Network:IoHandler.obj
 0001:00053d80       ?_Buynode@?$list@PAVSession@@V?$RedirectedAllocator@PAVSession@@@module@@@std@@IAEPAU_Node@?$_List_nod@PAVSession@@V?$RedirectedAllocator@PAVSession@@@module@@@2@PAU342@0ABQAVSession@@@Z 00454d80 f i Network:IoHandler.obj
 0001:00053dc0       ?erase@?$list@U?$pair@$$CBKPAVServerSession@@@std@@V?$CustomAllocator@U?$pair@$$CBKPAVServerSession@@@std@@@util@@@std@@QAE?AV?$_Iterator@$00@12@V?$_Const_iterator@$00@12@@Z 00454dc0 f i servercommon:ServerFrame.obj
 0001:00053dc0       ?erase@?$list@PAVSession@@V?$RedirectedAllocator@PAVSession@@@module@@@std@@QAE?AV?$_Iterator@$00@12@V?$_Const_iterator@$00@12@@Z 00454dc0 f i Network:IoHandler.obj
 0001:00053e40       ?erase@?$list@PAVSession@@V?$RedirectedAllocator@PAVSession@@@module@@@std@@QAE?AV?$_Iterator@$00@12@V?$_Const_iterator@$00@12@0@Z 00454e40 f i Network:IoHandler.obj
 0001:00053f00       ?_Incsize@?$list@PAURecordInfo@eXtreme@@V?$allocator@PAURecordInfo@eXtreme@@@std@@@std@@IAEXI@Z 00454f00 f i extreme:RecordSet.obj
 0001:00053f00       ?_Incsize@?$list@PAVSession@@V?$RedirectedAllocator@PAVSession@@@module@@@std@@IAEXI@Z 00454f00 f i Network:IoHandler.obj
 0001:00053fa0       ??$_Insert@V?$_Const_iterator@$00@?$list@PAVSession@@V?$RedirectedAllocator@PAVSession@@@module@@@std@@@?$list@PAVSession@@V?$RedirectedAllocator@PAVSession@@@module@@@std@@QAEXV?$_Const_iterator@$00@01@00Uforward_iterator_tag@1@@Z 00454fa0 f i Network:IoHandler.obj
 0001:00054100       ?_Splice@?$list@PAVSession@@V?$RedirectedAllocator@PAVSession@@@module@@@std@@QAEXV?$_Const_iterator@$00@12@AAV12@00I_N@Z 00455100 f i Network:IoHandler.obj
 0001:000541d0       ?LoadExtensionFunction@MsWinsockUtil@@CA_NIU_GUID@@PAPAX@Z 004551d0 f   Network:MsWinsockUtil.obj
 0001:00054240       ?LoadExtensionFunction@MsWinsockUtil@@SAXI@Z 00455240 f   Network:MsWinsockUtil.obj
 0001:00054420       ??0WxRingBuffer@module@@QAE@K@Z 00455420 f   Network:WxRingBuffer.obj
 0001:00054440       ??0WxRingBuffer@module@@QAE@KK@Z 00455440 f   Network:WxRingBuffer.obj
 0001:00054480       ??0WxRingBuffer@module@@QAE@KPAEK@Z 00455480 f   Network:WxRingBuffer.obj
 0001:000544b0       ??1WxRingBuffer@module@@UAE@XZ 004554b0 f   Network:WxRingBuffer.obj
 0001:000544e0       ?Reset@WxRingBuffer@module@@QAEXXZ 004554e0 f   Network:WxRingBuffer.obj
 0001:000544f0       ?Enqueue@WxRingBuffer@module@@QAEEPBEK@Z 004554f0 f   Network:WxRingBuffer.obj
 0001:00054620       ?Dequeue@WxRingBuffer@module@@QAEEPAEK@Z 00455620 f   Network:WxRingBuffer.obj
 0001:00054750       ?Peek@WxRingBuffer@module@@QAEEPAEK@Z 00455750 f   Network:WxRingBuffer.obj
 0001:00054800       ?WritableInfo@WxRingBuffer@module@@QBEEPAURingBufferInfo@2@@Z 00455800 f   Network:WxRingBuffer.obj
 0001:000548b0       ?ReadableInfo@WxRingBuffer@module@@QBEEPAURingBufferInfo@2@@Z 004558b0 f   Network:WxRingBuffer.obj
 0001:00054950       ??_GWxRingBuffer@module@@UAEPAXI@Z 00455950 f i Network:WxRingBuffer.obj
 0001:00054950       ??_EWxRingBuffer@module@@UAEPAXI@Z 00455950 f i Network:WxRingBuffer.obj
 0001:00054990       ?Allocate@?$TAllocator@VSessionList@@@module@@SAPAVSessionList@@XZ 00455990 f i Network:SessionPool.obj
 0001:00054a00       ??1SessionPool@@QAE@XZ     00455a00 f   Network:SessionPool.obj
 0001:00054a30       ?GetLength@SessionPool@@QAEHXZ 00455a30 f   Network:SessionPool.obj
 0001:00054a60       ?Alloc@SessionPool@@QAEPAVSession@@XZ 00455a60 f   Network:SessionPool.obj
 0001:00054ae0       ?Create@SessionPool@@AAEXKKKKKKH@Z 00455ae0 f   Network:SessionPool.obj
 0001:00054be0       ?Free@SessionPool@@QAEXPAVSession@@@Z 00455be0 f   Network:SessionPool.obj
 0001:00054c40       ??0SessionPool@@QAE@KKKKKKH@Z 00455c40 f   Network:SessionPool.obj
 0001:00054c80       ??0Acceptor@@QAE@XZ        00455c80 f   Network:Acceptor.obj
 0001:00054cd0       ?Init@Acceptor@@QAEXPAVIoHandler@@K@Z 00455cd0 f   Network:Acceptor.obj
 0001:00054d30       ?CreateListenSocket@Acceptor@@AAEHPBDG@Z 00455d30 f   Network:Acceptor.obj
 0001:00054e00       ?SuspendListenThread@Acceptor@@QAEXXZ 00455e00 f   Network:Acceptor.obj
 0001:00054e30       ?ResumeListenThread@Acceptor@@QAEXXZ 00455e30 f   Network:Acceptor.obj
 0001:00054e60       ?Shutdown@Acceptor@@QAEXXZ 00455e60 f   Network:Acceptor.obj
 0001:00054ed0       ??1Acceptor@@QAE@XZ        00455ed0 f   Network:Acceptor.obj
 0001:00054f10       ?StartListen@Acceptor@@QAEHPBDG@Z 00455f10 f   Network:Acceptor.obj
 0001:00054f80       ??0Connector@@QAE@XZ       00455f80 f   Network:Connector.obj
 0001:00055000       ?Init@Connector@@QAEXPAVIoHandler@@K@Z 00456000 f   Network:Connector.obj
 0001:000550c0       ?Shutdown@Connector@@QAEXXZ 004560c0 f   Network:Connector.obj
 0001:00055100       ??1Connector@@QAE@XZ       00456100 f   Network:Connector.obj
 0001:00055170       ?Connect@Connector@@QAEXPAVSession@@@Z 00456170 f   Network:Connector.obj
 0001:000551d0       ?_Buynode@?$list@PAVSession@@V?$RedirectedAllocator@PAVSession@@@module@@@std@@IAEPAU_Node@?$_List_nod@PAVSession@@V?$RedirectedAllocator@PAVSession@@@module@@@2@XZ 004561d0 f i Network:SessionList.obj
 0001:000551f0       ??1?$_List_val@PAVSession@@V?$RedirectedAllocator@PAVSession@@@module@@@std@@QAE@XZ 004561f0 f i Network:SessionList.obj
 0001:000551f0       ??1?$_List_val@U?$pair@$$CBKPAVServerSession@@@std@@V?$CustomAllocator@U?$pair@$$CBKPAVServerSession@@@std@@@util@@@std@@QAE@XZ 004561f0 f i servercommon:ServerFrame.obj
 0001:000551f0       ??1?$_Tree_val@V?$_Tmap_traits@KPAVIoHandler@@U?$less@K@std@@V?$RedirectedAllocator@PAVIoHandler@@@module@@$0A@@std@@@std@@QAE@XZ 004561f0 f i Network:IOCPServer.obj
 0001:000551f0       ??1?$_Vector_val@U_List_position@?$_Hash@V?$_Hmap_traits@KPAVServerSession@@V?$hash_compare@KU?$less@K@std@@@stdext@@V?$CustomAllocator@PAVServerSession@@@util@@$0A@@stdext@@@stdext@@V?$CustomAllocator@U_List_position@?$_Hash@V?$_Hmap_traits@KPAVServerSession@@V?$hash_compare@KU?$less@K@std@@@stdext@@V?$CustomAllocator@PAVServerSession@@@util@@$0A@@stdext@@@stdext@@@util@@@std@@QAE@XZ 004561f0 f i servercommon:ServerFrame.obj
 0001:00055200       ?Clear@SessionList@@QAEXXZ 00456200 f   Network:SessionList.obj
 0001:000552c0       ??0SessionList@@QAE@XZ     004562c0 f   Network:SessionList.obj
 0001:000552e0       ??1SessionList@@QAE@XZ     004562e0 f   Network:SessionList.obj
 0001:00055350       ??0?$list@PAVSession@@V?$RedirectedAllocator@PAVSession@@@module@@@std@@QAE@XZ 00456350 f i Network:SessionList.obj
 0001:000553c0       ?io_thread@@YGIPAX@Z       004563c0 f   Network:IoHandler_Worker.obj
 0001:000554e0       ?accept_thread@@YGIPAX@Z   004564e0 f   Network:Acceptor_Worker.obj
 0001:00055650       ?connect_thread@@YGIPAX@Z  00456650 f   Network:Connector_Worker.obj
 0001:000557b0       ??1CryptFileReader@@QAE@XZ 004567b0 f   TheMOLA:CryptFileReader.obj
 0001:00055840       ?Read@CryptFileReader@@IAEHPAEK@Z 00456840 f   TheMOLA:CryptFileReader.obj
 0001:000558e0       ?GetCryptStream@CryptInfoStream@@SAPBEXZ 004568e0 f   TheMOLA:CryptFileReader.obj
 0001:000558f0       ?_InitInfo@CryptFileReader@@AAEHK@Z 004568f0 f   TheMOLA:CryptFileReader.obj
 0001:00055970       ?ReadEncryptedBuffer@CryptFileReader@@QAEHPBEKK@Z 00456970 f   TheMOLA:CryptFileReader.obj
 0001:000559e0       ?ReadEnd@DBDecryptFileReader@@QAEXXZ 004569e0 f   TheMOLA:DBDecryptFileReader.obj
 0001:000559f0       ?ReadStartFromBuffer@DBDecryptFileReader@@QAEHPBEPAD@Z 004569f0 f   TheMOLA:DBDecryptFileReader.obj
 0001:00055a60       ?Close@CryptFile@@QAEXXZ   00456a60 f   TheMOLA:CryptFile.obj
 0001:00055a60       ??1CryptFile@@QAE@XZ       00456a60 f   TheMOLA:CryptFile.obj
 0001:00055a90       ?CheckSkipType@ns_formula@@YA_NW4eATTR_TYPE@@_N@Z 00456a90 f   SolarSlot_s:ItemOptionHeader.obj
 0001:00055ac0       ?CheckAttrValidity@ns_formula@@YA_NW4eATTR_TYPE@@HH@Z 00456ac0 f   SolarSlot_s:ItemOptionHeader.obj
 0001:00055ae0       ?CheckStatsRelatedOption@ns_formula@@YA_NG@Z 00456ae0 f   SolarSlot_s:ItemOptionHeader.obj
 0001:00055b20       ?ConvertStringToBSTR@_com_util@@YGPA_WPBD@Z 00456b20 f   comsuppw:comutil.obj
 0001:00055ca0       ?ConvertBSTRToString@_com_util@@YGPADPA_W@Z 00456ca0 f   comsuppw:comutil.obj
 0001:00055dc0       ?_com_issue_error@@YGXJ@Z  00456dc0 f   comsuppw:comsupp.obj
 0001:00055de0       ?_com_issue_errorex@@YGXJPAUIUnknown@@ABU_GUID@@@Z 00456de0 f   comsuppw:comsupp.obj
 0001:00055e60       ??1_com_error@@UAE@XZ      00456e60 f i comsuppw:comraise.obj
 0001:00055ea0       ?_com_raise_error@@YGXJPAUIErrorInfo@@@Z 00456ea0 f   comsuppw:comraise.obj
 0001:00055ee0       ??0_com_error@@QAE@ABV0@@Z 00456ee0 f i comsuppw:comraise.obj
 0001:00055f20       ??_G_com_error@@UAEPAXI@Z  00456f20 f i comsuppw:comraise.obj
 0001:00055f20       ??_E_com_error@@UAEPAXI@Z  00456f20 f i comsuppw:comraise.obj
 0001:00055f70       ??3@YAXPAX@Z               00456f70 f   LIBCMT:delete.obj
 0001:00055f7b       ??0bad_alloc@std@@QAE@XZ   00456f7b f i LIBCMT:new.obj
 0001:00055f96       ??2@YAPAXI@Z               00456f96 f   LIBCMT:new.obj
 0001:00055ffb       ?_JumpToContinuation@@YGXPAXPAUEHRegistrationNode@@@Z 00456ffb f   LIBCMT:_trnsctrl_.obj
 0001:0005602d       ?_CallMemberFunction1@@YGXPAX00@Z 0045702d f   LIBCMT:_trnsctrl_.obj
 0001:0005602d       ?_CallMemberFunction2@@YGXPAX00H@Z 0045702d f   LIBCMT:_trnsctrl_.obj
 0001:0005602d       ?_CallMemberFunction0@@YGXPAX0@Z 0045702d f   LIBCMT:_trnsctrl_.obj
 0001:00056034       ?_UnwindNestedFrames@@YGXPAUEHRegistrationNode@@PAUEHExceptionRecord@@@Z 00457034 f   LIBCMT:_trnsctrl_.obj
 0001:00056088       ___CxxFrameHandler         00457088 f   LIBCMT:_trnsctrl_.obj
 0001:00056088       ___CxxFrameHandler3        00457088 f   LIBCMT:_trnsctrl_.obj
 0001:000560f1       ?_CallSETranslator@@YAHPAUEHExceptionRecord@@PAUEHRegistrationNode@@PAX2PBU_s_FuncInfo@@H1@Z 004570f1 f   LIBCMT:_trnsctrl_.obj
 0001:00056267       ?_GetRangeOfTrysToCheck@@YAPBU_s_TryBlockMapEntry@@PBU_s_FuncInfo@@HHPAI1@Z 00457267 f   LIBCMT:_trnsctrl_.obj
 0001:000562dc       __CreateFrameInfo          004572dc f   LIBCMT:_trnsctrl_.obj
 0001:00056308       __IsExceptionObjectToBeDestroyed 00457308 f   LIBCMT:_trnsctrl_.obj
 0001:0005632f       __FindAndUnlinkFrame       0045732f f   LIBCMT:_trnsctrl_.obj
 0001:00056381       ?_CallCatchBlock2@@YAPAXPAUEHRegistrationNode@@PBU_s_FuncInfo@@PAXHK@Z 00457381 f   LIBCMT:_trnsctrl_.obj
 0001:000563e1       @__security_check_cookie@4 004573e1 f   LIBCMT:secchk.obj
 0001:000563f0       _memset                    004573f0 f   LIBCMT:memset.obj
 0001:0005646a       ??1type_info@@UAE@XZ       0045746a f   LIBCMT:typinfo.obj
 0001:0005647a       ??_Etype_info@@UAEPAXI@Z   0045747a f i LIBCMT:typinfo.obj
 0001:0005647a       ??_Gtype_info@@UAEPAXI@Z   0045747a f i LIBCMT:typinfo.obj
 0001:0005649b       ??8type_info@@QBE_NABV0@@Z 0045749b f   LIBCMT:typinfo.obj
 0001:000564bb       _printf                    004574bb f   LIBCMT:printf.obj
 0001:0005656a       __get_printf_count_output  0045756a f   LIBCMT:printf.obj
 0001:00056580       _sprintf                   00457580 f   LIBCMT:sprintf.obj
 0001:000565fd       _sprintf_s                 004575fd f   LIBCMT:sprintf.obj
 0001:000566d5       ___onexitinit              004576d5 f   LIBCMT:onexit.obj
 0001:00056706       __onexit                   00457706 f   LIBCMT:onexit.obj
 0001:00056742       _atexit                    00457742 f   LIBCMT:onexit.obj
 0001:00056759       __initp_misc_invarg        00457759 f   LIBCMT:invarg.obj
 0001:00056768       __invoke_watson            00457768 f   LIBCMT:invarg.obj
 0001:00056890       __invalid_parameter        00457890 f   LIBCMT:invarg.obj
 0001:000568b6       __invalid_parameter_noinfo 004578b6 f   LIBCMT:invarg.obj
 0001:000568c6       __CxxThrowException@8      004578c6 f   LIBCMT:throw.obj
 0001:00056920       __alloca_probe             00457920     LIBCMT:chkstk.obj
 0001:00056920       __chkstk                   00457920 f   LIBCMT:chkstk.obj
 0001:0005694b       _atol                      0045794b f   LIBCMT:atox.obj
 0001:00056961       _atoi                      00457961 f   LIBCMT:atox.obj
 0001:0005696c       __mbstok_l                 0045796c f   LIBCMT:mbstok.obj
 0001:0005698d       __mbstok                   0045798d f   LIBCMT:mbstok.obj
 0001:000569a4       ??0exception@std@@QAE@XZ   004579a4 f   LIBCMT:stdexcpt.obj
 0001:000569b5       ??0exception@std@@QAE@ABQBD@Z 004579b5 f   LIBCMT:stdexcpt.obj
 0001:00056a08       ??0exception@std@@QAE@ABQBDH@Z 00457a08 f   LIBCMT:stdexcpt.obj
 0001:00056a25       ??0exception@std@@QAE@ABV01@@Z 00457a25 f   LIBCMT:stdexcpt.obj
 0001:00056a82       ??1exception@std@@UAE@XZ   00457a82 f   LIBCMT:stdexcpt.obj
 0001:00056a98       ?what@exception@std@@UBEPBDXZ 00457a98 f   LIBCMT:stdexcpt.obj
 0001:00056aa5       ??0bad_cast@std@@QAE@PBD@Z 00457aa5 f   LIBCMT:stdexcpt.obj
 0001:00056ac3       ??0bad_cast@std@@QAE@ABV01@@Z 00457ac3 f   LIBCMT:stdexcpt.obj
 0001:00056ae0       ??1bad_cast@std@@UAE@XZ    00457ae0 f   LIBCMT:stdexcpt.obj
 0001:00056aeb       ??0bad_typeid@std@@QAE@PBD@Z 00457aeb f   LIBCMT:stdexcpt.obj
 0001:00056b09       ??0bad_typeid@std@@QAE@ABV01@@Z 00457b09 f   LIBCMT:stdexcpt.obj
 0001:00056b26       ??0__non_rtti_object@std@@QAE@PBD@Z 00457b26 f   LIBCMT:stdexcpt.obj
 0001:00056b43       ??0__non_rtti_object@std@@QAE@ABV01@@Z 00457b43 f   LIBCMT:stdexcpt.obj
 0001:00056b60       ??1__non_rtti_object@std@@UAE@XZ 00457b60 f   LIBCMT:stdexcpt.obj
 0001:00056b6b       ??_Gexception@std@@UAEPAXI@Z 00457b6b f i LIBCMT:stdexcpt.obj
 0001:00056b6b       ??_Eexception@std@@UAEPAXI@Z 00457b6b f i LIBCMT:stdexcpt.obj
 0001:00056b8c       ??_Ebad_cast@std@@UAEPAXI@Z 00457b8c f i LIBCMT:stdexcpt.obj
 0001:00056b8c       ??_Gbad_cast@std@@UAEPAXI@Z 00457b8c f i LIBCMT:stdexcpt.obj
 0001:00056bb3       ??_G__non_rtti_object@std@@UAEPAXI@Z 00457bb3 f i LIBCMT:stdexcpt.obj
 0001:00056bb3       ??_Gbad_typeid@std@@UAEPAXI@Z 00457bb3 f i LIBCMT:stdexcpt.obj
 0001:00056bb3       ??_Ebad_typeid@std@@UAEPAXI@Z 00457bb3 f i LIBCMT:stdexcpt.obj
 0001:00056bb3       ??_E__non_rtti_object@std@@UAEPAXI@Z 00457bb3 f i LIBCMT:stdexcpt.obj
 0001:00056bda       __purecall                 00457bda f   LIBCMT:purevirt.obj
 0001:00056c04       _V6_HeapAlloc              00457c04 f   LIBCMT:malloc.obj
 0001:00056c53       _malloc                    00457c53 f   LIBCMT:malloc.obj
 0001:00056d1d       _free                      00457d1d f   LIBCMT:free.obj
 0001:00056dab       ??_U@YAPAXIABUnothrow_t@std@@@Z 00457dab f   LIBCMT:newaopnt.obj
 0001:00056db6       ??_V@YAXPAX@Z              00457db6 f   LIBCMT:delete2.obj
 0001:00056dc1       _memcpy_s                  00457dc1 f   LIBCMT:memcpy_s.obj
 0001:00056e3e       _memmove_s                 00457e3e f   LIBCMT:memmove_s.obj
 0001:00056e9b       __fclose_nolock            00457e9b f   LIBCMT:fclose.obj
 0001:00056f12       _fclose                    00457f12 f   LIBCMT:fclose.obj
 0001:00056f8e       _fprintf                   00457f8e f   LIBCMT:fprintf.obj
 0001:000570aa       __fsopen                   004580aa f   LIBCMT:fopen.obj
 0001:0005716e       _fopen                     0045816e f   LIBCMT:fopen.obj
 0001:00057185       ??0_LocaleUpdate@@QAE@PAUlocaleinfo_struct@@@Z 00458185 f i LIBCMT:mbsnbcpy.obj
 0001:0005720c       __mbsnbcpy_l               0045820c f   LIBCMT:mbsnbcpy.obj
 0001:000572ef       __mbsnbcpy                 004582ef f   LIBCMT:mbsnbcpy.obj
 0001:00057310       _strncpy                   00458310 f   LIBCMT:strncpy.obj
 0001:00057434       _ldiv                      00458434 f   LIBCMT:ldiv.obj
 0001:00057442       __freea                    00458442 f i LIBCMT:strupr.obj
 0001:000575e0       __strupr_s_l               004585e0 f   LIBCMT:strupr.obj
 0001:00057615       __strupr                   00458615 f   LIBCMT:strupr.obj
 0001:00057680       _memcpy                    00458680 f   LIBCMT:memcpy.obj
 0001:000579e5       _strncmp                   004589e5 f   LIBCMT:strncmp.obj
 0001:00057aa5       __mbsupr_s_l               00458aa5 f   LIBCMT:mbsupr.obj
 0001:00057baa       __mbsupr                   00458baa f   LIBCMT:mbsupr.obj
 0001:00057bcf       __fpclear                  00458bcf f   LIBCMT:_fpinit_.obj
 0001:00057bcf       __initp_misc_winxfltr      00458bcf f   LIBCMT:winxfltr.obj
 0001:00057bd0       __cfltcvt_init             00458bd0 f   LIBCMT:_fpinit_.obj
 0001:00057c30       __fpmath                   00458c30 f   LIBCMT:_fpinit_.obj
 0001:00057c53       _srand                     00458c53 f   LIBCMT:rand.obj
 0001:00057c65       _rand                      00458c65 f   LIBCMT:rand.obj
 0001:00057c87       ??_L@YGXPAXIHP6EX0@Z1@Z    00458c87 f   LIBCMT:ehvecctr.obj
 0001:00057cec       ?__ArrayUnwind@@YGXPAXIHP6EX0@Z@Z 00458cec f   LIBCMT:ehvecdtr.obj
 0001:00057d4a       ??_M@YGXPAXIHP6EX0@Z@Z     00458d4a f   LIBCMT:ehvecdtr.obj
 0001:00057dad       _strtok                    00458dad f   LIBCMT:strtok.obj
 0001:0005817d       ___RTDynamicCast           0045917d f   LIBCMT:rtti.obj
 0001:00058252       __snprintf                 00459252 f   LIBCMT:snprintf.obj
 0001:0005847c       _mainCRTStartup            0045947c f   LIBCMT:crt0.obj
 0001:000584f0       _sscanf                    004594f0 f   LIBCMT:sscanf.obj
 0001:00058512       __fwrite_nolock            00459512 f   LIBCMT:fwrite.obj
 0001:00058674       _fwrite                    00459674 f   LIBCMT:fwrite.obj
 0001:000586f6       _fputc                     004596f6 f   LIBCMT:fputc.obj
 0001:00058802       __ungetc_nolock            00459802 f   LIBCMT:ungetc.obj
 0001:000588f3       _ungetc                    004598f3 f   LIBCMT:ungetc.obj
 0001:00058965       _fgetc                     00459965 f   LIBCMT:fgetc.obj
 0001:00058a69       _fgetpos                   00459a69 f   LIBCMT:fgetpos.obj
 0001:00058ad7       __fseek_nolock             00459ad7 f   LIBCMT:fseek.obj
 0001:00058b61       _fseek                     00459b61 f   LIBCMT:fseek.obj
 0001:00058be6       _fsetpos                   00459be6 f   LIBCMT:fsetpos.obj
 0001:00058c2b       _setvbuf                   00459c2b f   LIBCMT:setvbuf.obj
 0001:00058d29       __flush                    00459d29 f   LIBCMT:fflush.obj
 0001:00058d91       __fflush_nolock            00459d91 f   LIBCMT:fflush.obj
 0001:00058eb3       _fflush                    00459eb3 f   LIBCMT:fflush.obj
 0001:00058f06       __flushall                 00459f06 f   LIBCMT:fflush.obj
 0001:00058f0f       __endthreadex              00459f0f f   LIBCMT:threadex.obj
 0001:00059010       __beginthreadex            0045a010 f   LIBCMT:threadex.obj
 0001:000590c0       _strncat                   0045a0c0 f   LIBCMT:strncat.obj
 0001:00059200       __aulldiv                  0045a200 f   LIBCMT:ulldiv.obj
 0001:00059270       __aulldvrm                 0045a270 f   LIBCMT:ulldvrm.obj
 0001:00059310       __allmul                   0045a310 f   LIBCMT:llmul.obj
 0001:00059344       __time32                   0045a344 f   LIBCMT:time.obj
 0001:00059392       _puts                      0045a392 f   LIBCMT:puts.obj
 0001:000594f1       __toupper_l                0045a4f1 f   LIBCMT:toupper.obj
 0001:00059607       _toupper                   0045a607 f   LIBCMT:toupper.obj
 0001:00059633       __getextendedkeycode       0045a633 f   LIBCMT:getch.obj
 0001:000596e6       __getch_nolock             0045a6e6 f   LIBCMT:getch.obj
 0001:000597ab       __kbhit_nolock             0045a7ab f   LIBCMT:getch.obj
 0001:000598d5       _getch                     0045a8d5 f   LIBCMT:getch.obj
 0001:000598d5       __getch                    0045a8d5 f   LIBCMT:getch.obj
 0001:00059913       __kbhit                    0045a913 f   LIBCMT:getch.obj
 0001:00059951       _system                    0045a951 f   LIBCMT:system.obj
 0001:00059a31       __vsnprintf_l              0045aa31 f   LIBCMT:vsnprint.obj
 0001:00059ae4       __vsnprintf                0045aae4 f   LIBCMT:vsnprint.obj
 0001:00059b01       __get_sys_err_msg          0045ab01 f i LIBCMT:perror.obj
 0001:00059b29       _perror                    0045ab29 f   LIBCMT:perror.obj
 0001:00059bb7       __access_s                 0045abb7 f   LIBCMT:access.obj
 0001:00059c40       __access                   0045ac40 f   LIBCMT:access.obj
 0001:00059c60       _strrchr                   0045ac60 f   LIBCMT:strrchr.obj
 0001:00059c8d       __ismbcdigit_l             0045ac8d f   LIBCMT:ismbdgt.obj
 0001:00059d54       __ismbcdigit               0045ad54 f   LIBCMT:ismbdgt.obj
 0001:00059d70       __alloca_probe_16          0045ad70 f   LIBCMT:alloca16.obj
 0001:00059d86       __alloca_probe_8           0045ad86     LIBCMT:alloca16.obj
 0001:00059d9c       ___iob_func                0045ad9c f   LIBCMT:_file.obj
 0001:00059da2       ___initstdio               0045ada2 f   LIBCMT:_file.obj
 0001:00059e53       ___endstdio                0045ae53 f   LIBCMT:_file.obj
 0001:00059e73       __lock_file                0045ae73 f   LIBCMT:_file.obj
 0001:00059eb4       __lock_file2               0045aeb4 f   LIBCMT:_file.obj
 0001:00059ee6       __unlock_file              0045aee6 f   LIBCMT:_file.obj
 0001:00059f22       __unlock_file2             0045af22 f   LIBCMT:_file.obj
 0001:00059f51       __fdopen                   0045af51 f   LIBCMT:fdopen.obj
 0001:0005a0d7       __set_osfhnd               0045b0d7 f   LIBCMT:osfinfo.obj
 0001:0005a158       __free_osfhnd              0045b158 f   LIBCMT:osfinfo.obj
 0001:0005a1de       __get_osfhandle            0045b1de f   LIBCMT:osfinfo.obj
 0001:0005a255       ___lock_fhandle            0045b255 f   LIBCMT:osfinfo.obj
 0001:0005a2f5       __unlock_fhandle           0045b2f5 f   LIBCMT:osfinfo.obj
 0001:0005a31c       __alloc_osfhnd             0045b31c f   LIBCMT:osfinfo.obj
 0001:0005a4b6       __open_osfhandle           0045b4b6 f   LIBCMT:osfinfo.obj
 0001:0005a5cc       __localtime64_s            0045b5cc f   LIBCMT:loctim64.obj
 0001:0005a884       __localtime64              0045b884 f   LIBCMT:loctim64.obj
 0001:0005ab60       __mktime64                 0045bb60 f   LIBCMT:mktime64.obj
 0001:0005ab72       __gmtime64_s               0045bb72 f   LIBCMT:gmtime64.obj
 0001:0005adc0       _strlen                    0045bdc0 f   LIBCMT:strlen.obj
 0001:0005ae4b       __EH_prolog3               0045be4b f   LIBCMT:ehprolg3.obj
 0001:0005ae7e       __EH_prolog3_catch         0045be7e f   LIBCMT:ehprolg3.obj
 0001:0005aeb4       __EH_epilog3               0045beb4 f   LIBCMT:ehprolg3.obj
 0001:0005aec8       __wfsopen                  0045bec8 f   LIBCMT:wfopen.obj
 0001:0005af8e       __mbstowcs_l_helper        0045bf8e f   LIBCMT:mbstowcs.obj
 0001:0005b12f       __mbstowcs_s_l             0045c12f f   LIBCMT:mbstowcs.obj
 0001:0005b23f       _mbstowcs_s                0045c23f f   LIBCMT:mbstowcs.obj
 0001:0005b25f       _abort                     0045c25f f   LIBCMT:abort.obj
 0001:0005b376       __set_abort_behavior       0045c376 f   LIBCMT:abort.obj
 0001:0005b397       ___freetlocinfo            0045c397 f   LIBCMT:setlocal.obj
 0001:0005b4e0       ___addlocaleref            0045c4e0 f   LIBCMT:setlocal.obj
 0001:0005b56f       ___removelocaleref         0045c56f f   LIBCMT:setlocal.obj
 0001:0005b66c       ___updatetlocinfo          0045c66c f   LIBCMT:setlocal.obj
 0001:0005b735       __strcats                  0045c735 f   LIBCMT:setlocal.obj
 0001:0005b775       ___lc_strtolc              0045c775 f   LIBCMT:setlocal.obj
 0001:0005b89e       ___lc_lctostr              0045c89e f   LIBCMT:setlocal.obj
 0001:0005ba88       __expandlocale             0045ca88 f   LIBCMT:setlocal.obj
 0001:0005c1d6       _setlocale                 0045d1d6 f   LIBCMT:setlocal.obj
 0001:0005c6eb       ___crtLCMapStringA         0045d6eb f   LIBCMT:a_map.obj
 0001:0005c730       ___pctype_func             0045d730 f   LIBCMT:ctype.obj
 0001:0005c759       __isupper_l                0045d759 f i LIBCMT:_ctype.obj
 0001:0005c7aa       _isupper                   0045d7aa f i LIBCMT:_ctype.obj
 0001:0005c7d8       __islower_l                0045d7d8 f i LIBCMT:_ctype.obj
 0001:0005c829       _islower                   0045d829 f i LIBCMT:_ctype.obj
 0001:0005c857       __isdigit_l                0045d857 f i LIBCMT:_ctype.obj
 0001:0005c8a8       _isdigit                   0045d8a8 f i LIBCMT:_ctype.obj
 0001:0005c8d6       __isxdigit_l               0045d8d6 f i LIBCMT:_ctype.obj
 0001:0005c92c       _isxdigit                  0045d92c f i LIBCMT:_ctype.obj
 0001:0005c95c       __isspace_l                0045d95c f i LIBCMT:_ctype.obj
 0001:0005c9ad       _isspace                   0045d9ad f i LIBCMT:_ctype.obj
 0001:0005c9db       ___init_ctype              0045d9db f   LIBCMT:initctyp.obj
 0001:0005cd7d       ____lc_codepage_func       0045dd7d f   LIBCMT:initctyp.obj
 0001:0005cda3       ____lc_handle_func         0045dda3 f   LIBCMT:initctyp.obj
 0001:0005cdc9       __malloc_crt               0045ddc9 f   LIBCMT:crtheap.obj
 0001:0005ce0e       __calloc_crt               0045de0e f   LIBCMT:crtheap.obj
 0001:0005ce5a       __realloc_crt              0045de5a f   LIBCMT:crtheap.obj
 0001:0005cea8       __recalloc_crt             0045dea8 f   LIBCMT:crtheap.obj
 0001:0005cefa       _strerror                  0045defa f   LIBCMT:strerror.obj
 0001:0005cf66       _calloc                    0045df66 f   LIBCMT:calloc.obj
 0001:0005cfa8       __global_unwind2           0045dfa8 f   LIBCMT:exsup.obj
 0001:0005d00d       __local_unwind2            0045e00d f   LIBCMT:exsup.obj
 0001:0005d091       __abnormal_termination     0045e091 f   LIBCMT:exsup.obj
 0001:0005d0b4       __NLG_Notify1              0045e0b4 f   LIBCMT:exsup.obj
 0001:0005d0bd       __NLG_Notify               0045e0bd f   LIBCMT:exsup.obj
 0001:0005d0d4       __NLG_Dispatch2            0045e0d4     LIBCMT:exsup.obj
 0001:0005d0d4       __NLG_Dispatch             0045e0d4     LIBCMT:exsup.obj
 0001:0005d0dc       __NLG_Call                 0045e0dc f   LIBCMT:exsup.obj
 0001:0005d0de       __NLG_Return2              0045e0de     LIBCMT:exsup.obj
 0001:0005d0e0       __ftol2_sse                0045e0e0 f   LIBCMT:ftol2.obj
 0001:0005d0e9       __ftol2_pentium4           0045e0e9 f   LIBCMT:ftol2.obj
 0001:0005d0fc       __ftol2_sse_excpt          0045e0fc f   LIBCMT:ftol2.obj
 0001:0005d116       __ftol2                    0045e116 f   LIBCMT:ftol2.obj
 0001:0005d37d       __splitpath                0045e37d f   LIBCMT:splitpat.obj
 0001:0005d3d0       __except_handler4          0045e3d0 f   LIBCMT:chandler4.obj
 0001:0005d55c       __initp_heap_handler       0045e55c f   LIBCMT:handler.obj
 0001:0005d56b       __callnewh                 0045e56b f   LIBCMT:handler.obj
 0001:0005d593       ??0bad_exception@std@@QAE@PBD@Z 0045e593 f i LIBCMT:frame.obj
 0001:0005d5b1       ??1bad_exception@std@@UAE@XZ 0045e5b1 f i LIBCMT:frame.obj
 0001:0005d5bc       ??_Ebad_exception@std@@UAEPAXI@Z 0045e5bc f i LIBCMT:frame.obj
 0001:0005d5bc       ??_Gbad_exception@std@@UAEPAXI@Z 0045e5bc f i LIBCMT:frame.obj
 0001:0005d5e3       ___TypeMatch               0045e5e3 f   LIBCMT:frame.obj
 0001:0005d642       ___FrameUnwindFilter       0045e642 f   LIBCMT:frame.obj
 0001:0005d68b       ___FrameUnwindToState      0045e68b f   LIBCMT:frame.obj
 0001:0005d7b1       ___DestructExceptionObject 0045e7b1 f   LIBCMT:frame.obj
 0001:0005d806       ___AdjustPointer           0045e806 f   LIBCMT:frame.obj
 0001:0005da8f       ___BuildCatchObjectHelper  0045ea8f f   LIBCMT:frame.obj
 0001:0005dc0e       ___BuildCatchObject        0045ec0e f   LIBCMT:frame.obj
 0001:0005e149       ??0bad_exception@std@@QAE@ABV01@@Z 0045f149 f i LIBCMT:frame.obj
