 LoginFront

 Timestamp is 6160c97f (Sat Oct 09 07:43:11 2021)

 Preferred load address is 00400000

 Start         Length     Name                   Class
 0001:00000000 00044914H .text                   CODE
 0001:00044920 00001829H .text$x                 CODE
 0001:00046150 0000066bH .text$yc                CODE
 0001:000467c0 00000132H .text$yd                CODE
 0002:00000000 00000284H .idata$5                DATA
 0002:00000284 00000004H .CRT$XCA                DATA
 0002:00000288 0000000cH .CRT$XCC                DATA
 0002:00000294 00000178H .CRT$XCU                DATA
 0002:0000040c 00000004H .CRT$XCZ                DATA
 0002:00000410 00000004H .CRT$XIA                DATA
 0002:00000414 00000010H .CRT$XIC                DATA
 0002:00000424 00000004H .CRT$XIY                DATA
 0002:00000428 00000004H .CRT$XIZ                DATA
 0002:0000042c 00000004H .CRT$XPA                DATA
 0002:00000430 00000004H .CRT$XPX                DATA
 0002:00000434 00000004H .CRT$XPXA               DATA
 0002:00000438 00000004H .CRT$XPZ                DATA
 0002:0000043c 00000004H .CRT$XTA                DATA
 0002:00000440 00000004H .CRT$XTZ                DATA
 0002:00000450 00007df0H .rdata                  DATA
 0002:00008240 00000051H .rdata$debug            DATA
 0002:00008294 00000fdcH .rdata$r                DATA
 0002:00009270 000001f4H .rdata$sxdata           DATA
 0002:00009464 00000004H .rtc$IAA                DATA
 0002:00009468 00000004H .rtc$IZZ                DATA
 0002:0000946c 00000004H .rtc$TAA                DATA
 0002:00009470 00000004H .rtc$TZZ                DATA
 0002:00009478 000025a4H .xdata$x                DATA
 0002:0000ba1c 00000064H .idata$2                DATA
 0002:0000ba80 00000014H .idata$3                DATA
 0002:0000ba94 00000284H .idata$4                DATA
 0002:0000bd18 00000a90H .idata$6                DATA
 0002:0000c7a8 00000000H .edata                  DATA
 0003:00000000 00001f78H .data                   DATA
 0003:00001f80 0007a4e8H .bss                    DATA

  Address         Publics by Value              Rva+Base       Lib:Object

 0000:00000000       __except_list              00000000     <absolute>
 0000:0000007d       ___safe_se_handler_count   0000007d     <absolute>
 0000:00000000       ___ImageBase               00400000     <linker-defined>
 0001:00000000       ?DoAllocServerSession@LoginFrontFrame@@SAPAVNetworkObject@@XZ 00401000 f   LoginFrontFrame.obj
 0001:00000020       ?DoFreeServerSession@LoginFrontFrame@@SAXPAVNetworkObject@@@Z 00401020 f   LoginFrontFrame.obj
 0001:00000050       ?DoFreeConnectSession@LoginFrontFrame@@SAXPAVNetworkObject@@@Z 00401050 f   LoginFrontFrame.obj
 0001:00000060       ?DoAllocClient@LoginFrontFrame@@SAPAVNetworkObject@@XZ 00401060 f   LoginFrontFrame.obj
 0001:00000080       ?DoFreeClient@LoginFrontFrame@@SAXPAVNetworkObject@@@Z 00401080 f   LoginFrontFrame.obj
 0001:000000b0       ?DoFreeConnect_NotUsed@LoginFrontFrame@@SAXPAVNetworkObject@@@Z 004010b0 f   LoginFrontFrame.obj
 0001:000000c0       ??0LoginFrontFrame@@QAE@XZ 004010c0 f   LoginFrontFrame.obj
 0001:00000170       ??1LoginFrontFrame@@UAE@XZ 00401170 f   LoginFrontFrame.obj
 0001:00000200       ?Init@LoginFrontFrame@@MAEHXZ 00401200 f   LoginFrontFrame.obj
 0001:00000300       ?InitServerData@LoginFrontFrame@@AAEXE@Z 00401300 f   LoginFrontFrame.obj
 0001:00000330       ?SetServiceControl@LoginFrontFrame@@QAEXW4eService@1@@Z 00401330 f   LoginFrontFrame.obj
 0001:00000350       ?Update@LoginFrontFrame@@MAEHK@Z 00401350 f   LoginFrontFrame.obj
 0001:00000390       ?Release@LoginFrontFrame@@MAEXXZ 00401390 f   LoginFrontFrame.obj
 0001:000003f0       ?SendAuthServer@LoginFrontFrame@@QAEHPAUMSG_BASE_INTERNAL@@G@Z 004013f0 f   LoginFrontFrame.obj
 0001:00000430       ?IsAuthServerConnected@LoginFrontFrame@@QAEHXZ 00401430 f   LoginFrontFrame.obj
 0001:00000470       ?AllocServerSession@LoginFrontFrame@@MAEPAVServerSession@@W4eSERVER_TYPE@@@Z 00401470 f   LoginFrontFrame.obj
 0001:00000510       ?FreeServerSession@LoginFrontFrame@@MAEXPAVServerSession@@@Z 00401510 f   LoginFrontFrame.obj
 0001:000005c0       ?KeyEvent@LoginFrontFrame@@MAEHD@Z 004015c0 f   LoginFrontFrame.obj
 0001:00000620       ?DisplayServerInfo@LoginFrontFrame@@IAEXXZ 00401620 f   LoginFrontFrame.obj
 0001:00000640       ?DisplayVersionInfo@LoginFrontFrame@@QAEXXZ 00401640 f   LoginFrontFrame.obj
 0001:00000840       ?GetSession@LoginFrontFrame@@QAEPAVServerSession@@W4eSERVER_TYPE@@@Z 00401840 f   LoginFrontFrame.obj
 0001:00000870       ?ConnectTo@LoginFrontFrame@@QAEHW4eSERVER_TYPE@@@Z 00401870 f   LoginFrontFrame.obj
 0001:00000920       ?CreateSunLog@LoginFrontFrame@@IAEHXZ 00401920 f   LoginFrontFrame.obj
 0001:00000a80       ?GetServerType@LoginFrontFrame@@UAE?AW4eSERVER_TYPE@@XZ 00401a80 f i LoginFrontFrame.obj
 0001:00000a90       ??_GLoginFrontFrame@@UAEPAXI@Z 00401a90 f i LoginFrontFrame.obj
 0001:00000a90       ??_ELoginFrontFrame@@UAEPAXI@Z 00401a90 f i LoginFrontFrame.obj
 0001:00000ac0       ?GetReadyState@ServerFrame@@QAEAAVReadyState@@XZ 00401ac0 f i LoginFrontFrame.obj
 0001:00000ae0       ?GetDescFileName@ServerFrame@@IAEPBDXZ 00401ae0 f i LoginFrontFrame.obj
 0001:00000b00       ?SetPool@ClientSession@@SAXPAV?$CMemoryPoolFactory@VClientSession@@@util@@@Z 00401b00 f i LoginFrontFrame.obj
 0001:00000b20       ?SetPool@AuthServerSession@@SAXPAV?$CMemoryPoolFactory@VAuthServerSession@@@util@@@Z 00401b20 f i LoginFrontFrame.obj
 0001:00000b40       ??_GCSunLog@@QAEPAXI@Z     00401b40 f i LoginFrontFrame.obj
 0001:00000b70       ?IsConnected@ServerSession@@QBE_NXZ 00401b70 f i LoginFrontFrame.obj
 0001:00000b90       ?Init@ServerSession@@QAEXPAVServerFrame@@@Z 00401b90 f i LoginFrontFrame.obj
 0001:00000bc0       ?ALLOC@ClientSession@@SAPAV1@XZ 00401bc0 f i LoginFrontFrame.obj
 0001:00000be0       ?ALLOC@AuthServerSession@@SAPAV1@XZ 00401be0 f i LoginFrontFrame.obj
 0001:00000c00       ?FREE@ClientSession@@SAXPAV1@@Z 00401c00 f i LoginFrontFrame.obj
 0001:00000c20       ?FREE@AuthServerSession@@SAXPAV1@@Z 00401c20 f i LoginFrontFrame.obj
 0001:00000c40       ?GetVerProtocol@LoginFrontFrame@@QBE?AUGAME_VERSION@@XZ 00401c40 f i LoginFrontFrame.obj
 0001:00000c60       ?GetVerLauncher@LoginFrontFrame@@QBE?AUGAME_VERSION@@XZ 00401c60 f i LoginFrontFrame.obj
 0001:00000c80       ?GetVerMajor@LoginFrontFrame@@QBE?AUGAME_VERSION@@XZ 00401c80 f i LoginFrontFrame.obj
 0001:00000ca0       ?GetVerMinor@LoginFrontFrame@@QBE?AUGAME_VERSION@@XZ 00401ca0 f i LoginFrontFrame.obj
 0001:00000cc0       ?IsConnecting@ServerSession@@QBE_NXZ 00401cc0 f i LoginFrontFrame.obj
 0001:00000ce0       ?clear@?$basic_string@DU?$char_traits@D@std@@V?$allocator@D@2@@std@@QAEXXZ 00401ce0 f i LoginFrontFrame.obj
 0001:00000d40       ??0?$CMemoryPoolFactory@VClientSession@@@util@@QAE@XZ 00401d40 f i LoginFrontFrame.obj
 0001:00000db0       ??1?$CMemoryPoolFactory@VClientSession@@@util@@UAE@XZ 00401db0 f i LoginFrontFrame.obj
 0001:00000e10       ?Initialize@?$CMemoryPoolFactory@VClientSession@@@util@@UAE_NIIPBDPAX@Z 00401e10 f i LoginFrontFrame.obj
 0001:00000e60       ?SetTypeName@?$CMemoryPoolFactory@VAuthServerSession@@@util@@QAEXPBD@Z 00401e60 f i LoginFrontFrame.obj
 0001:00000e60       ?SetTypeName@?$CMemoryPoolFactory@VClientSession@@@util@@QAEXPBD@Z 00401e60 f i LoginFrontFrame.obj
 0001:00000e90       ??0?$CMemoryPoolFactory@VAuthServerSession@@@util@@QAE@XZ 00401e90 f i LoginFrontFrame.obj
 0001:00000f00       ??1?$CMemoryPoolFactory@VAuthServerSession@@@util@@UAE@XZ 00401f00 f i LoginFrontFrame.obj
 0001:00000f60       ?Initialize@?$CMemoryPoolFactory@VAuthServerSession@@@util@@UAE_NIIPBDPAX@Z 00401f60 f i LoginFrontFrame.obj
 0001:00000fb0       ?Alloc@?$CMemoryPoolFactory@VAuthServerSession@@@util@@UAEPAXXZ 00401fb0 f i LoginFrontFrame.obj
 0001:00000fb0       ?Alloc@?$CMemoryPoolFactory@VClientSession@@@util@@UAEPAXXZ 00401fb0 f i LoginFrontFrame.obj
 0001:00000fe0       ?Free@?$CMemoryPoolFactory@VAuthServerSession@@@util@@UAEHPAX@Z 00401fe0 f i LoginFrontFrame.obj
 0001:00000fe0       ?Free@?$CMemoryPoolFactory@VClientSession@@@util@@UAEHPAX@Z 00401fe0 f i LoginFrontFrame.obj
 0001:00001020       ?Release@?$CMemoryPoolFactory@VClientSession@@@util@@UAEXXZ 00402020 f i LoginFrontFrame.obj
 0001:00001020       ?Release@?$CMemoryPoolFactory@VAuthServerSession@@@util@@UAEXXZ 00402020 f i LoginFrontFrame.obj
 0001:00001050       ?Instance@?$Singleton@VLoginFrontFrame@@$00@util@@SAPAVLoginFrontFrame@@XZ 00402050 f i LoginFrontFrame.obj
 0001:000010e0       ?Instance@?$Singleton@VClientManager@@$00@util@@SAPAVClientManager@@XZ 004020e0 f i LoginFrontFrame.obj
 0001:00001170       ?DestroyInstance@?$Singleton@VClientManager@@$00@util@@SAXXZ 00402170 f i LoginFrontFrame.obj
 0001:000011c0       ?Instance@?$Singleton@VServerDataManager@@$00@util@@SAPAVServerDataManager@@XZ 004021c0 f i LoginFrontFrame.obj
 0001:00001250       ?DestroyInstance@?$Singleton@VServerDataManager@@$00@util@@SAXXZ 00402250 f i LoginFrontFrame.obj
 0001:000012a0       ??_G?$CMemoryPoolFactory@VClientSession@@@util@@UAEPAXI@Z 004022a0 f i LoginFrontFrame.obj
 0001:000012a0       ??_E?$CMemoryPoolFactory@VClientSession@@@util@@UAEPAXI@Z 004022a0 f i LoginFrontFrame.obj
 0001:000012d0       ??0IVMemoryPool@util@@QAE@XZ 004022d0 f i LoginFrontFrame.obj
 0001:000012f0       ??_E?$CMemoryPoolFactory@VAuthServerSession@@@util@@UAEPAXI@Z 004022f0 f i LoginFrontFrame.obj
 0001:000012f0       ??_G?$CMemoryPoolFactory@VAuthServerSession@@@util@@UAEPAXI@Z 004022f0 f i LoginFrontFrame.obj
 0001:00001320       ??_GClientManager@@QAEPAXI@Z 00402320 f i LoginFrontFrame.obj
 0001:00001350       ??_GServerDataManager@@QAEPAXI@Z 00402350 f i LoginFrontFrame.obj
 0001:00001380       ?erase@?$basic_string@DU?$char_traits@D@std@@V?$allocator@D@2@@std@@QAE?AV?$_String_iterator@DU?$char_traits@D@std@@V?$allocator@D@2@@2@V?$_String_const_iterator@DU?$char_traits@D@std@@V?$allocator@D@2@@2@0@Z 00402380 f i LoginFrontFrame.obj
 0001:00001410       ?begin@?$basic_string@DU?$char_traits@D@std@@V?$allocator@D@2@@std@@QAE?AV?$_String_iterator@DU?$char_traits@D@std@@V?$allocator@D@2@@2@XZ 00402410 f i LoginFrontFrame.obj
 0001:00001440       ?end@?$basic_string@DU?$char_traits@D@std@@V?$allocator@D@2@@std@@QAE?AV?$_String_iterator@DU?$char_traits@D@std@@V?$allocator@D@2@@2@XZ 00402440 f i LoginFrontFrame.obj
 0001:00001470       ??0?$scoped_ptr@VIMemoryPoolFactoryImpl@internal@util@@@boost@@QAE@PAVIMemoryPoolFactoryImpl@internal@util@@@Z 00402470 f i LoginFrontFrame.obj
 0001:00001470       ??0_Aux_cont@std@@QAE@QBV_Container_base_aux@1@@Z 00402470 f i ClientManager.obj
 0001:00001470       ??0id@locale@std@@QAE@I@Z  00402470 f i authcommon:csvlib.obj
 0001:00001490       ??1?$scoped_ptr@VIMemoryPoolFactoryImpl@internal@util@@@boost@@QAE@XZ 00402490 f i LoginFrontFrame.obj
 0001:000014b0       ?begin@?$PODptr@I@details@boost@@QBEPADXZ 004024b0 f i LoginFrontFrame.obj
 0001:000014b0       ?_Getcont@_Aux_cont@std@@QBEPBV_Container_base_aux@2@XZ 004024b0 f i ClientManager.obj
 0001:000014b0       ??C?$scoped_ptr@VIMemoryPoolFactoryImpl@internal@util@@@boost@@QBEPAVIMemoryPoolFactoryImpl@internal@util@@XZ 004024b0 f i LoginFrontFrame.obj
 0001:000014c0       ?CreateImpl@?$CMemoryPoolFactory@VClientSession@@@util@@QAEXH@Z 004024c0 f i LoginFrontFrame.obj
 0001:00001650       ?CreateImpl@?$CMemoryPoolFactory@VAuthServerSession@@@util@@QAEXH@Z 00402650 f i LoginFrontFrame.obj
 0001:000017e0       ?_Pdif@?$basic_string@DU?$char_traits@D@std@@V?$allocator@D@2@@std@@KAIV?$_String_const_iterator@DU?$char_traits@D@std@@V?$allocator@D@2@@2@0@Z 004027e0 f i LoginFrontFrame.obj
 0001:00001810       ?reset@?$scoped_ptr@VIMemoryPoolFactoryImpl@internal@util@@@boost@@QAEXPAVIMemoryPoolFactoryImpl@internal@util@@@Z 00402810 f i LoginFrontFrame.obj
 0001:00001880       ??0?$_String_iterator@DU?$char_traits@D@std@@V?$allocator@D@2@@std@@QAE@PADPBV_Container_base_secure@1@@Z 00402880 f i LoginFrontFrame.obj
 0001:000018a0       ??0?$NotUseChunkImpl@VClientSession@@@internal@util@@QAE@XZ 004028a0 f i LoginFrontFrame.obj
 0001:000018c0       ?Alloc@?$NotUseChunkImpl@VClientSession@@@internal@util@@UAEPAXXZ 004028c0 f i LoginFrontFrame.obj
 0001:00001960       ??2@YAPAXIPAX@Z            00402960 f i LoginFrontFrame.obj
 0001:00001970       ??0?$VariableSizeChunkImpl@VClientSession@@@internal@util@@QAE@XZ 00402970 f i LoginFrontFrame.obj
 0001:000019f0       ?Initialize@?$VariableSizeChunkImpl@VAuthServerSession@@@internal@util@@UAE_NIIPBD@Z 004029f0 f i LoginFrontFrame.obj
 0001:000019f0       ?Initialize@?$VariableSizeChunkImpl@VClientSession@@@internal@util@@UAE_NIIPBD@Z 004029f0 f i LoginFrontFrame.obj
 0001:00001a20       ?Release@?$VariableSizeChunkImpl@VAuthServerSession@@@internal@util@@UAEXXZ 00402a20 f i LoginFrontFrame.obj
 0001:00001a20       ?Release@?$VariableSizeChunkImpl@VClientSession@@@internal@util@@UAEXXZ 00402a20 f i LoginFrontFrame.obj
 0001:00001a40       ?Free@?$VariableSizeChunkImpl@VAuthServerSession@@@internal@util@@UAEXQAX@Z 00402a40 f i LoginFrontFrame.obj
 0001:00001a40       ?Free@?$VariableSizeChunkImpl@VClientSession@@@internal@util@@UAEXQAX@Z 00402a40 f i LoginFrontFrame.obj
 0001:00001a60       ?GetNumberOfBands@?$VariableSizeChunkImpl@VAuthServerSession@@@internal@util@@UBEHXZ 00402a60 f i LoginFrontFrame.obj
 0001:00001a60       ?GetNumberOfBands@?$VariableSizeChunkImpl@VClientSession@@@internal@util@@UBEHXZ 00402a60 f i LoginFrontFrame.obj
 0001:00001a80       ??0?$FixedSizeChunkImpl@VClientSession@@@internal@util@@QAE@XZ 00402a80 f i LoginFrontFrame.obj
 0001:00001af0       ?Release@?$FixedSizeChunkImpl@VClientSession@@@internal@util@@UAEXXZ 00402af0 f i LoginFrontFrame.obj
 0001:00001af0       ?Release@?$FixedSizeChunkImpl@VAuthServerSession@@@internal@util@@UAEXXZ 00402af0 f i LoginFrontFrame.obj
 0001:00001b10       ?Alloc@?$FixedSizeChunkImpl@VClientSession@@@internal@util@@UAEPAXXZ 00402b10 f i LoginFrontFrame.obj
 0001:00001ba0       ?Free@?$FixedSizeChunkImpl@VAuthServerSession@@@internal@util@@UAEXQAX@Z 00402ba0 f i LoginFrontFrame.obj
 0001:00001ba0       ?Free@?$FixedSizeChunkImpl@VClientSession@@@internal@util@@UAEXQAX@Z 00402ba0 f i LoginFrontFrame.obj
 0001:00001bd0       ??0?$NotUseChunkImpl@VAuthServerSession@@@internal@util@@QAE@XZ 00402bd0 f i LoginFrontFrame.obj
 0001:00001bf0       ?Alloc@?$NotUseChunkImpl@VAuthServerSession@@@internal@util@@UAEPAXXZ 00402bf0 f i LoginFrontFrame.obj
 0001:00001c80       ?Free@?$NotUseChunkImpl@VClientSession@@@internal@util@@UAEXQAX@Z 00402c80 f i LoginFrontFrame.obj
 0001:00001c80       ?Free@?$NotUseChunkImpl@VAuthServerSession@@@internal@util@@UAEXQAX@Z 00402c80 f i LoginFrontFrame.obj
 0001:00001cb0       ??0?$VariableSizeChunkImpl@VAuthServerSession@@@internal@util@@QAE@XZ 00402cb0 f i LoginFrontFrame.obj
 0001:00001d20       ?Alloc@?$VariableSizeChunkImpl@VAuthServerSession@@@internal@util@@UAEPAXXZ 00402d20 f i LoginFrontFrame.obj
 0001:00001d20       ?Alloc@?$VariableSizeChunkImpl@VClientSession@@@internal@util@@UAEPAXXZ 00402d20 f i LoginFrontFrame.obj
 0001:00001d40       ?SetTypeName@?$VariableSizeChunkImpl@VClientSession@@@internal@util@@UAEXPBD@Z 00402d40 f i LoginFrontFrame.obj
 0001:00001d40       ?SetTypeName@?$VariableSizeChunkImpl@VAuthServerSession@@@internal@util@@UAEXPBD@Z 00402d40 f i LoginFrontFrame.obj
 0001:00001d60       ?GetAvailableNumberOfTypes@?$VariableSizeChunkImpl@VAuthServerSession@@@internal@util@@UBEHXZ 00402d60 f i LoginFrontFrame.obj
 0001:00001d60       ?GetAvailableNumberOfTypes@?$VariableSizeChunkImpl@VClientSession@@@internal@util@@UBEHXZ 00402d60 f i LoginFrontFrame.obj
 0001:00001d80       ??0?$FixedSizeChunkImpl@VAuthServerSession@@@internal@util@@QAE@XZ 00402d80 f i LoginFrontFrame.obj
 0001:00001df0       ?Alloc@?$FixedSizeChunkImpl@VAuthServerSession@@@internal@util@@UAEPAXXZ 00402df0 f i LoginFrontFrame.obj
 0001:00001e80       ??_E?$NotUseChunkImpl@VClientSession@@@internal@util@@UAEPAXI@Z 00402e80 f i LoginFrontFrame.obj
 0001:00001e80       ??_G?$NotUseChunkImpl@VClientSession@@@internal@util@@UAEPAXI@Z 00402e80 f i LoginFrontFrame.obj
 0001:00001eb0       ??1?$NotUseChunkImpl@VClientSession@@@internal@util@@UAE@XZ 00402eb0 f i LoginFrontFrame.obj
 0001:00001ed0       ??_E?$VariableSizeChunkImpl@VClientSession@@@internal@util@@UAEPAXI@Z 00402ed0 f i LoginFrontFrame.obj
 0001:00001ed0       ??_G?$VariableSizeChunkImpl@VClientSession@@@internal@util@@UAEPAXI@Z 00402ed0 f i LoginFrontFrame.obj
 0001:00001f00       ??1?$VariableSizeChunkImpl@VClientSession@@@internal@util@@UAE@XZ 00402f00 f i LoginFrontFrame.obj
 0001:00001f70       ??_G?$FixedSizeChunkImpl@VClientSession@@@internal@util@@UAEPAXI@Z 00402f70 f i LoginFrontFrame.obj
 0001:00001f70       ??_E?$FixedSizeChunkImpl@VClientSession@@@internal@util@@UAEPAXI@Z 00402f70 f i LoginFrontFrame.obj
 0001:00001fa0       ??1?$FixedSizeChunkImpl@VClientSession@@@internal@util@@UAE@XZ 00402fa0 f i LoginFrontFrame.obj
 0001:00002000       ??_G?$NotUseChunkImpl@VAuthServerSession@@@internal@util@@UAEPAXI@Z 00403000 f i LoginFrontFrame.obj
 0001:00002000       ??_E?$NotUseChunkImpl@VAuthServerSession@@@internal@util@@UAEPAXI@Z 00403000 f i LoginFrontFrame.obj
 0001:00002030       ??1?$NotUseChunkImpl@VAuthServerSession@@@internal@util@@UAE@XZ 00403030 f i LoginFrontFrame.obj
 0001:00002050       ??_G?$VariableSizeChunkImpl@VAuthServerSession@@@internal@util@@UAEPAXI@Z 00403050 f i LoginFrontFrame.obj
 0001:00002050       ??_E?$VariableSizeChunkImpl@VAuthServerSession@@@internal@util@@UAEPAXI@Z 00403050 f i LoginFrontFrame.obj
 0001:00002080       ??1?$VariableSizeChunkImpl@VAuthServerSession@@@internal@util@@UAE@XZ 00403080 f i LoginFrontFrame.obj
 0001:000020f0       ??_E?$FixedSizeChunkImpl@VAuthServerSession@@@internal@util@@UAEPAXI@Z 004030f0 f i LoginFrontFrame.obj
 0001:000020f0       ??_G?$FixedSizeChunkImpl@VAuthServerSession@@@internal@util@@UAEPAXI@Z 004030f0 f i LoginFrontFrame.obj
 0001:00002120       ??1?$FixedSizeChunkImpl@VAuthServerSession@@@internal@util@@UAE@XZ 00403120 f i LoginFrontFrame.obj
 0001:00002180       ??0?$pool@Udefault_user_allocator_new_delete@boost@@@boost@@QAE@III@Z 00403180 f i LoginFrontFrame.obj
 0001:000021d0       ??1?$pool@Udefault_user_allocator_new_delete@boost@@@boost@@QAE@XZ 004031d0 f i LoginFrontFrame.obj
 0001:000021f0       ?malloc@?$pool@Udefault_user_allocator_new_delete@boost@@@boost@@QAEPAXXZ 004031f0 f i LoginFrontFrame.obj
 0001:00002230       ?free@?$pool@Udefault_user_allocator_new_delete@boost@@@boost@@QAEXQAX@Z 00403230 f i LoginFrontFrame.obj
 0001:00002250       ?swap@?$scoped_ptr@VIMemoryPoolFactoryImpl@internal@util@@@boost@@QAEXAAV12@@Z 00403250 f i LoginFrontFrame.obj
 0001:00002280       ??0?$_String_const_iterator@DU?$char_traits@D@std@@V?$allocator@D@2@@std@@QAE@PBDPBV_Container_base_secure@1@@Z 00403280 f i LoginFrontFrame.obj
 0001:000022e0       ??G?$_String_const_iterator@DU?$char_traits@D@std@@V?$allocator@D@2@@std@@QBEHABV01@@Z 004032e0 f i LoginFrontFrame.obj
 0001:00002330       ?Create@?$VariableSizeChunkImpl@VClientSession@@@internal@util@@CAXPAX@Z 00403330 f i LoginFrontFrame.obj
 0001:000023b0       ?Destroy@?$VariableSizeChunkImpl@VClientSession@@@internal@util@@CAXPAX@Z 004033b0 f i LoginFrontFrame.obj
 0001:000023b0       ?Destroy@?$VariableSizeChunkImpl@VAuthServerSession@@@internal@util@@CAXPAX@Z 004033b0 f i LoginFrontFrame.obj
 0001:000023d0       ?Create@?$VariableSizeChunkImpl@VAuthServerSession@@@internal@util@@CAXPAX@Z 004033d0 f i LoginFrontFrame.obj
 0001:00002450       ?empty@?$simple_segregated_storage@I@boost@@QBE_NXZ 00403450 f i LoginFrontFrame.obj
 0001:00002470       ?malloc@?$simple_segregated_storage@I@boost@@QAEPAXXZ 00403470 f i LoginFrontFrame.obj
 0001:000024a0       ?free@?$simple_segregated_storage@I@boost@@QAEXQAX@Z 004034a0 f i LoginFrontFrame.obj
 0001:000024d0       ??0?$PODptr@I@details@boost@@QAE@QADI@Z 004034d0 f i LoginFrontFrame.obj
 0001:00002500       ??$checked_delete@VIMemoryPoolFactoryImpl@internal@util@@@boost@@YAXPAVIMemoryPoolFactoryImpl@internal@util@@@Z 00403500 f i LoginFrontFrame.obj
 0001:00002540       ?malloc_need_resize@?$pool@Udefault_user_allocator_new_delete@boost@@@boost@@AAEPAXXZ 00403540 f i LoginFrontFrame.obj
 0001:000026b0       ?release_memory@?$pool@Udefault_user_allocator_new_delete@boost@@@boost@@QAE_NXZ 004036b0 f i LoginFrontFrame.obj
 0001:00002880       ?purge_memory@?$pool@Udefault_user_allocator_new_delete@boost@@@boost@@QAE_NXZ 00403880 f i LoginFrontFrame.obj
 0001:00002910       ?is_from@?$pool@Udefault_user_allocator_new_delete@boost@@@boost@@KA_NQAXQADI@Z 00403910 f i LoginFrontFrame.obj
 0001:00002970       ?alloc_size@?$pool@Udefault_user_allocator_new_delete@boost@@@boost@@IBEIXZ 00403970 f i LoginFrontFrame.obj
 0001:000029c0       ?add_block@?$simple_segregated_storage@I@boost@@QAEXQAXII@Z 004039c0 f i LoginFrontFrame.obj
 0001:000029f0       ??0?$PODptr@I@details@boost@@QAE@XZ 004039f0 f i LoginFrontFrame.obj
 0001:00002a20       ?valid@?$PODptr@I@details@boost@@QBE_NXZ 00403a20 f i LoginFrontFrame.obj
 0001:00002a40       ?invalidate@?$PODptr@I@details@boost@@QAEXXZ 00403a40 f i LoginFrontFrame.obj
 0001:00002a60       ?element_size@?$PODptr@I@details@boost@@QBEIXZ 00403a60 f i LoginFrontFrame.obj
 0001:00002a80       ?next@?$PODptr@I@details@boost@@QBE?AV123@XZ 00403a80 f i LoginFrontFrame.obj
 0001:00002ab0       ?next@?$PODptr@I@details@boost@@QBEXABV123@@Z 00403ab0 f i LoginFrontFrame.obj
 0001:00002af0       ?ptr_next_ptr@?$PODptr@I@details@boost@@ABEPADXZ 00403af0 f i LoginFrontFrame.obj
 0001:00002b10       ?next_size@?$PODptr@I@details@boost@@QBEAAIXZ 00403b10 f i LoginFrontFrame.obj
 0001:00002b30       ?end@?$PODptr@I@details@boost@@QBEPADXZ 00403b30 f i LoginFrontFrame.obj
 0001:00002b30       ?next_ptr@?$PODptr@I@details@boost@@QBEAAPADXZ 00403b30 f i LoginFrontFrame.obj
 0001:00002b50       ??R?$less_equal@PAX@std@@QBE_NABQAX0@Z 00403b50 f i LoginFrontFrame.obj
 0001:00002b70       ?ptr_next_size@?$PODptr@I@details@boost@@ABEPADXZ 00403b70 f i LoginFrontFrame.obj
 0001:00002b90       ??$min@I@std@@YAABIABI0@Z  00403b90 f i LoginFrontFrame.obj
 0001:00002bc0       ?segregate@?$simple_segregated_storage@I@boost@@SAPAXPAXII0@Z 00403bc0 f i LoginFrontFrame.obj
 0001:00002c50       ??$max@I@std@@YAABIABI0@Z  00403c50 f i LoginFrontFrame.obj
 0001:00002c80       ?malloc@default_user_allocator_new_delete@boost@@SAPADI@Z 00403c80 f i LoginFrontFrame.obj
 0001:00002ca0       ?free@default_user_allocator_new_delete@boost@@SAXQAD@Z 00403ca0 f i LoginFrontFrame.obj
 0001:00002cc0       ?FCAssert@FlowControl@@SAEPAD0K@Z 00403cc0 f i LoginFrontFrame.obj
 0001:00002ce0       ?_Interceptor@FlowControl@@SAEE@Z 00403ce0 f i LoginFrontFrame.obj
 0001:00002cf0       ?SetTypeName@MemoryPoolSizeBased@internal@util@@QAEXPBD@Z 00403cf0 f i LoginFrontFrame.obj
 0001:00002d10       ?GetStatistics@MemoryPoolSizeBased@internal@util@@QBEABUStatistics@123@XZ 00403d10 f i LoginFrontFrame.obj
 0001:00002d30       ??0IMemoryPoolFactoryImpl@internal@util@@QAE@XZ 00403d30 f i LoginFrontFrame.obj
 0001:00002d50       ??1IMemoryPoolFactoryImpl@internal@util@@UAE@XZ 00403d50 f i LoginFrontFrame.obj
 0001:00002d70       ?Initialize@IMemoryPoolFactoryImpl@internal@util@@UAE_NIIPBD@Z 00403d70 f i LoginFrontFrame.obj
 0001:00002d80       ??_GIMemoryPoolFactoryImpl@internal@util@@UAEPAXI@Z 00403d80 f i LoginFrontFrame.obj
 0001:00002d80       ??_EIMemoryPoolFactoryImpl@internal@util@@UAEPAXI@Z 00403d80 f i LoginFrontFrame.obj
 0001:00002db0       ?SetFileOutDelayOption@CSunLog@@QAEXH@Z 00403db0 f i LoginFrontFrame.obj
 0001:00002dd0       ??0?$basic_string@DU?$char_traits@D@std@@V?$allocator@D@2@@std@@QAE@XZ 00403dd0 f i LoginFrontFrame.obj
 0001:00002e00       ??4?$basic_string@DU?$char_traits@D@std@@V?$allocator@D@2@@std@@QAEAAV01@PBD@Z 00403e00 f i LoginFrontFrame.obj
 0001:00002e20       ??Y?$basic_string@DU?$char_traits@D@std@@V?$allocator@D@2@@std@@QAEAAV01@PBD@Z 00403e20 f i LoginFrontFrame.obj
 0001:00002e40       ?c_str@?$basic_string@DU?$char_traits@D@std@@V?$allocator@D@2@@std@@QBEPBDXZ 00403e40 f i LoginFrontFrame.obj
 0001:00002e60       ?append@?$basic_string@DU?$char_traits@D@std@@V?$allocator@D@2@@std@@QAEAAV12@PBD@Z 00403e60 f i LoginFrontFrame.obj
 0001:00002e90       ?length@?$char_traits@D@std@@SAIPBD@Z 00403e90 f i LoginFrontFrame.obj
 0001:00002ed0       ?assign@?$basic_string@DU?$char_traits@D@std@@V?$allocator@D@2@@std@@QAEAAV12@PBD@Z 00403ed0 f i LoginFrontFrame.obj
 0001:00002f00       ?_Tidy@?$basic_string@DU?$char_traits@D@std@@V?$allocator@D@2@@std@@IAEX_NI@Z 00403f00 f i LoginFrontFrame.obj
 0001:00002f80       ?_Myptr@?$basic_string@DU?$char_traits@D@std@@V?$allocator@D@2@@std@@IBEPBDXZ 00403f80 f i LoginFrontFrame.obj
 0001:00002f80       ?_Myptr@?$basic_string@DU?$char_traits@D@std@@V?$allocator@D@2@@std@@IAEPADXZ 00403f80 f i LoginFrontFrame.obj
 0001:00002fb0       ??0?$_String_val@DV?$allocator@D@std@@@std@@IAE@V?$allocator@D@1@@Z 00403fb0 f i LoginFrontFrame.obj
 0001:00002fd0       ?append@?$basic_string@DU?$char_traits@D@std@@V?$allocator@D@2@@std@@QAEAAV12@PBDI@Z 00403fd0 f i LoginFrontFrame.obj
 0001:000030a0       ?append@?$basic_string@DU?$char_traits@D@std@@V?$allocator@D@2@@std@@QAEAAV12@ABV12@II@Z 004040a0 f i LoginFrontFrame.obj
 0001:00003170       ?size@?$basic_string@DU?$char_traits@D@std@@V?$allocator@D@2@@std@@QBEIXZ 00404170 f i LoginFrontFrame.obj
 0001:00003190       ?assign@?$basic_string@DU?$char_traits@D@std@@V?$allocator@D@2@@std@@QAEAAV12@PBDI@Z 00404190 f i LoginFrontFrame.obj
 0001:00003220       ?assign@?$basic_string@DU?$char_traits@D@std@@V?$allocator@D@2@@std@@QAEAAV12@ABV12@II@Z 00404220 f i LoginFrontFrame.obj
 0001:000032e0       ?erase@?$basic_string@DU?$char_traits@D@std@@V?$allocator@D@2@@std@@QAEAAV12@II@Z 004042e0 f i LoginFrontFrame.obj
 0001:00003380       ?_Eos@?$basic_string@DU?$char_traits@D@std@@V?$allocator@D@2@@std@@IAEXI@Z 00404380 f i LoginFrontFrame.obj
 0001:000033c0       ?assign@?$char_traits@D@std@@SAXAADABD@Z 004043c0 f i LoginFrontFrame.obj
 0001:000033d0       ?_Grow@?$basic_string@DU?$char_traits@D@std@@V?$allocator@D@2@@std@@IAE_NI_N@Z 004043d0 f i LoginFrontFrame.obj
 0001:00003470       ?max_size@?$basic_string@DU?$char_traits@D@std@@V?$allocator@D@2@@std@@QBEIXZ 00404470 f i LoginFrontFrame.obj
 0001:000034b0       ?_Copy@?$basic_string@DU?$char_traits@D@std@@V?$allocator@D@2@@std@@IAEXII@Z 004044b0 f i LoginFrontFrame.obj
 0001:00003630       ?_Inside@?$basic_string@DU?$char_traits@D@std@@V?$allocator@D@2@@std@@IAE_NPBD@Z 00404630 f i LoginFrontFrame.obj
 0001:00003670       ?allocate@?$allocator@D@std@@QAEPADI@Z 00404670 f i LoginFrontFrame.obj
 0001:00003690       ?max_size@?$allocator@D@std@@QBEIXZ 00404690 f i LoginFrontFrame.obj
 0001:000036c0       ??$copy_s@U?$char_traits@D@std@@@_Traits_helper@std@@YAPADPADIPBDI@Z 004046c0 f i LoginFrontFrame.obj
 0001:000036f0       ??$move_s@U?$char_traits@D@std@@@_Traits_helper@std@@YAPADPADIPBDI@Z 004046f0 f i LoginFrontFrame.obj
 0001:00003720       ??$_Allocate@D@std@@YAPADIPAD@Z 00404720 f i LoginFrontFrame.obj
 0001:00003770       ??0bad_alloc@std@@QAE@PBD@Z 00404770 f i LoginFrontFrame.obj
 0001:000037a0       ??1bad_alloc@std@@UAE@XZ   004047a0 f i LoginFrontFrame.obj
 0001:000037c0       ??_Ebad_alloc@std@@UAEPAXI@Z 004047c0 f i LoginFrontFrame.obj
 0001:000037c0       ??_Gbad_alloc@std@@UAEPAXI@Z 004047c0 f i LoginFrontFrame.obj
 0001:000037f0       ??0bad_alloc@std@@QAE@ABV01@@Z 004047f0 f i LoginFrontFrame.obj
 0001:00003820       ??$_Ptr_cat@PAV?$basic_string@DU?$char_traits@D@std@@V?$allocator@D@2@@std@@PAV12@@std@@YA?AU_Nonscalar_ptr_iterator_tag@0@AAPAV?$basic_string@DU?$char_traits@D@std@@V?$allocator@D@2@@0@0@Z 00404820 f i authcommon:csvlib.obj
 0001:00003820       ??$_Move_cat@PAU_List_position@?$_Hash@V?$_Hmap_traits@KPAVClientSession@@V?$hash_compare@KU?$less@K@std@@@stdext@@V?$CustomAllocator@PAVClientSession@@@util@@$0A@@stdext@@@stdext@@@std@@YA?AU_Undefined_move_tag@0@ABQAU_List_position@?$_Hash@V?$_Hmap_traits@KPAVClientSession@@V?$hash_compare@KU?$less@K@std@@@stdext@@V?$CustomAllocator@PAVClientSession@@@util@@$0A@@stdext@@@stdext@@@Z 00404820 f i ClientManager.obj
 0001:00003820       ??$_Ptr_cat@PAU_List_position@?$_Hash@V?$_Hmap_traits@KPAVClientSession@@V?$hash_compare@KU?$less@K@std@@@stdext@@V?$CustomAllocator@PAVClientSession@@@util@@$0A@@stdext@@@stdext@@PAU123@@std@@YA?AU_Nonscalar_ptr_iterator_tag@0@AAPAU_List_position@?$_Hash@V?$_Hmap_traits@KPAVClientSession@@V?$hash_compare@KU?$less@K@std@@@stdext@@V?$CustomAllocator@PAVClientSession@@@util@@$0A@@stdext@@@stdext@@0@Z 00404820 f i ClientManager.obj
 0001:00003820       ??$_Move_cat@PAV?$basic_string@DU?$char_traits@D@std@@V?$allocator@D@2@@std@@@std@@YA?AU_Swap_move_tag@0@ABQAV?$basic_string@DU?$char_traits@D@std@@V?$allocator@D@2@@0@@Z 00404820 f i authcommon:csvlib.obj
 0001:00003820       ??$_Char_traits_cat@U?$char_traits@D@std@@@std@@YA?AU_Secure_char_traits_tag@0@XZ 00404820 f i LoginFrontFrame.obj
 0001:00003830       ??$copy_s@U?$char_traits@D@std@@@_Traits_helper@std@@YAPADPADIPBDIU_Secure_char_traits_tag@1@@Z 00404830 f i LoginFrontFrame.obj
 0001:00003850       ?_Copy_s@?$char_traits@D@std@@SAPADPADIPBDI@Z 00404850 f i LoginFrontFrame.obj
 0001:00003870       ??$move_s@U?$char_traits@D@std@@@_Traits_helper@std@@YAPADPADIPBDIU_Secure_char_traits_tag@1@@Z 00404870 f i LoginFrontFrame.obj
 0001:00003890       ?_Move_s@?$char_traits@D@std@@SAPADPADIPBDI@Z 00404890 f i LoginFrontFrame.obj
 0001:000038b0       ??0_Container_base_aux@std@@QAE@XZ 004048b0 f i ClientManager.obj
 0001:000038b0       ?store@?$pool@Udefault_user_allocator_new_delete@boost@@@boost@@IAEAAV?$simple_segregated_storage@I@2@XZ 004048b0 f i LoginFrontFrame.obj
 0001:000038b0       ??0?$CustomAllocator@U?$pair@$$CBKK@std@@@util@@QAE@XZ 004048b0 f i ClientManager.obj
 0001:000038b0       ??0?$Singleton@VLoginFrontFrame@@$00@util@@IAE@XZ 004048b0 f i LoginFrontFrame.obj
 0001:000038b0       ??0?$arg@$05@boost@@QAE@XZ 004048b0 f i LoginFrontFrame.obj
 0001:000038b0       ??0?$CustomAllocator@U?$pair@$$CBKPAVClientSession@@@std@@@util@@QAE@XZ 004048b0 f i ClientManager.obj
 0001:000038b0       ??0?$hash_compare@KU?$less@K@std@@@stdext@@QAE@XZ 004048b0 f i ClientManager.obj
 0001:000038b0       ??0?$Singleton@VServerDataManager@@$00@util@@IAE@XZ 004048b0 f i authcommon:ServerDataManager.obj
 0001:000038b0       ??0?$arg@$01@boost@@QAE@XZ 004048b0 f i LoginFrontFrame.obj
 0001:000038b0       ??0?$arg@$08@boost@@QAE@XZ 004048b0 f i LoginFrontFrame.obj
 0001:000038b0       ??0?$allocator@U?$pair@$$CBV?$basic_string@DU?$char_traits@D@std@@V?$allocator@D@2@@std@@E@std@@@std@@QAE@XZ 004048b0 f i authcommon:csvlib.obj
 0001:000038b0       ??0?$allocator@V?$basic_string@DU?$char_traits@D@std@@V?$allocator@D@2@@std@@@std@@QAE@XZ 004048b0 f i authcommon:csvlib.obj
 0001:000038b0       ??0?$allocator@D@std@@QAE@XZ 004048b0 f i LoginFrontFrame.obj
 0001:000038b0       ??0?$arg@$06@boost@@QAE@XZ 004048b0 f i LoginFrontFrame.obj
 0001:000038b0       ??0?$arg@$03@boost@@QAE@XZ 004048b0 f i LoginFrontFrame.obj
 0001:000038b0       ?GetBaseServerData@ServerData@@QBEABUSERVER_DATA@@XZ 004048b0 f i authcommon:ServerDataManager.obj
 0001:000038b0       ??0?$arg@$07@boost@@QAE@XZ 004048b0 f i LoginFrontFrame.obj
 0001:000038b0       ??0?$Singleton@VClientManager@@$00@util@@IAE@XZ 004048b0 f i ClientManager.obj
 0001:000038b0       ??0?$CustomAllocator@U?$pair@$$CBKPAUGROUP_DATA@@@std@@@util@@QAE@XZ 004048b0 f i authcommon:ServerDataManager.obj
 0001:000038b0       ??0?$arg@$04@boost@@QAE@XZ 004048b0 f i LoginFrontFrame.obj
 0001:000038b0       ??0?$arg@$00@boost@@QAE@XZ 004048b0 f i LoginFrontFrame.obj
 0001:000038b0       ??0?$arg@$02@boost@@QAE@XZ 004048b0 f i LoginFrontFrame.obj
 0001:000038b0       ??0?$CustomAllocator@U?$pair@$$CBKPAVServerData@@@std@@@util@@QAE@XZ 004048b0 f i authcommon:ServerDataManager.obj
 0001:000038b0       ?begin@?$PODptr@I@details@boost@@QAEAAPADXZ 004048b0 f i LoginFrontFrame.obj
 0001:000038c0       ??1?$basic_string@DU?$char_traits@D@std@@V?$allocator@D@2@@std@@QAE@XZ 004048c0 f i LoginFrontFrame.obj
 0001:000038e0       ?ProcCrashHandling@@YAXPBD0@Z 004048e0 f   main.obj
 0001:00003a70       ?GenerateDmpName@@YAPBDXZ  00404a70 f   main.obj
 0001:00003ac0       ?ErrorHandler@@YAXKPAD@Z   00404ac0 f   main.obj
 0001:00003ae0       ?OnServiceStart@@YA_NXZ    00404ae0 f   main.obj
 0001:00003b60       ?OnServiceProcess@@YAXXZ   00404b60 f   main.obj
 0001:00003b80       ?OnServiceUpdate@@YA_NXZ   00404b80 f   main.obj
 0001:00003ba0       ?OnServiceStop@@YAXXZ      00404ba0 f   main.obj
 0001:00003bc0       _main                      00404bc0 f   main.obj
 0001:00003cf0       ?DestroyInstance@?$Singleton@VLoginFrontFrame@@$00@util@@SAXXZ 00404cf0 f i main.obj
 0001:00003d40       ??0ClientManager@@QAE@XZ   00404d40 f   ClientManager.obj
 0001:00003e20       ??1ClientManager@@QAE@XZ   00404e20 f   ClientManager.obj
 0001:00003ec0       ?AddSession@ClientManager@@QAEHKPAVClientSession@@@Z 00404ec0 f   ClientManager.obj
 0001:00003f10       ?RemoveSession@ClientManager@@QAEXK@Z 00404f10 f   ClientManager.obj
 0001:00003f90       ?FindSession@ClientManager@@QAEPAVClientSession@@K@Z 00404f90 f   ClientManager.obj
 0001:00003fe0       ?UpdateSession@ClientManager@@QAEXXZ 00404fe0 f   ClientManager.obj
 0001:00004040       ?IsAllowIp@ClientManager@@QAE_NK@Z 00405040 f   ClientManager.obj
 0001:000041c0       ?IsOfficeIp@ClientManager@@QAE_NK@Z 004051c0 f   ClientManager.obj
 0001:00004270       ?GetControlIpSize@ClientManager@@QAEKXZ 00405270 f   ClientManager.obj
 0001:000042c0       ?ClearControlIp@ClientManager@@QAEXXZ 004052c0 f   ClientManager.obj
 0001:00004380       ?AddControlIp@ClientManager@@QAEXW4eIPTYPE@@KK@Z 00405380 f   ClientManager.obj
 0001:00004450       ?DisplayControlIPInfo@ClientManager@@QAEXXZ 00405450 f   ClientManager.obj
 0001:00004710       ??1?$chunk_hash_map@KPAVClientSession@@V?$hash_compare@KU?$less@K@std@@@stdext@@@util@@QAE@XZ 00405710 f i ClientManager.obj
 0001:00004730       ??1?$chunk_map@KKU?$less@K@std@@@util@@QAE@XZ 00405730 f i ClientManager.obj
 0001:00004750       ??1?$hash_map@KPAVClientSession@@V?$hash_compare@KU?$less@K@std@@@stdext@@V?$CustomAllocator@PAVClientSession@@@util@@@stdext@@QAE@XZ 00405750 f i ClientManager.obj
 0001:00004770       ??1?$map@KKU?$less@K@std@@V?$CustomAllocator@K@util@@@std@@QAE@XZ 00405770 f i ClientManager.obj
 0001:00004790       ?ConvertDWORD2StrIP@IPOperation@@SAPADK@Z 00405790 f i ClientManager.obj
 0001:000047b0       ??0?$chunk_hash_map@KPAVClientSession@@V?$hash_compare@KU?$less@K@std@@@stdext@@@util@@QAE@ABV?$hash_compare@KU?$less@K@std@@@stdext@@ABV?$CustomAllocator@U?$pair@$$CBKPAVClientSession@@@std@@@1@@Z 004057b0 f i ClientManager.obj
 0001:000047d0       ??1?$_Hash@V?$_Hmap_traits@KPAVClientSession@@V?$hash_compare@KU?$less@K@std@@@stdext@@V?$CustomAllocator@PAVClientSession@@@util@@$0A@@stdext@@@stdext@@QAE@XZ 004057d0 f i ClientManager.obj
 0001:00004840       ?begin@?$_Hash@V?$_Hmap_traits@KPAVClientSession@@V?$hash_compare@KU?$less@K@std@@@stdext@@V?$CustomAllocator@PAVClientSession@@@util@@$0A@@stdext@@@stdext@@QAE?AV?$_Iterator@$00@?$list@U?$pair@$$CBKPAVClientSession@@@std@@V?$CustomAllocator@U?$pair@$$CBKPAVClientSession@@@std@@@util@@@std@@XZ 00405840 f i ClientManager.obj
 0001:00004860       ?end@?$_Hash@V?$_Hmap_traits@KPAVClientSession@@V?$hash_compare@KU?$less@K@std@@@stdext@@V?$CustomAllocator@PAVClientSession@@@util@@$0A@@stdext@@@stdext@@QAE?AV?$_Iterator@$00@?$list@U?$pair@$$CBKPAVClientSession@@@std@@V?$CustomAllocator@U?$pair@$$CBKPAVClientSession@@@std@@@util@@@std@@XZ 00405860 f i ClientManager.obj
 0001:00004880       ?insert@?$_Hash@V?$_Hmap_traits@KPAVClientSession@@V?$hash_compare@KU?$less@K@std@@@stdext@@V?$CustomAllocator@PAVClientSession@@@util@@$0A@@stdext@@@stdext@@QAE?AU?$pair@V?$_Iterator@$00@?$list@U?$pair@$$CBKPAVClientSession@@@std@@V?$CustomAllocator@U?$pair@$$CBKPAVClientSession@@@std@@@util@@@std@@_N@std@@ABU?$pair@$$CBKPAVClientSession@@@4@@Z 00405880 f i ClientManager.obj
 0001:000048c0       ?erase@?$_Hash@V?$_Hmap_traits@KPAVClientSession@@V?$hash_compare@KU?$less@K@std@@@stdext@@V?$CustomAllocator@PAVClientSession@@@util@@$0A@@stdext@@@stdext@@QAE?AV?$_Iterator@$00@?$list@U?$pair@$$CBKPAVClientSession@@@std@@V?$CustomAllocator@U?$pair@$$CBKPAVClientSession@@@std@@@util@@@std@@V?$_Const_iterator@$00@45@@Z 004058c0 f i ClientManager.obj
 0001:00004990       ?find@?$_Hash@V?$_Hmap_traits@KPAVClientSession@@V?$hash_compare@KU?$less@K@std@@@stdext@@V?$CustomAllocator@PAVClientSession@@@util@@$0A@@stdext@@@stdext@@QAE?AV?$_Iterator@$00@?$list@U?$pair@$$CBKPAVClientSession@@@std@@V?$CustomAllocator@U?$pair@$$CBKPAVClientSession@@@std@@@util@@@std@@ABK@Z 00405990 f i ClientManager.obj
 0001:000049b0       ??A?$map@KKU?$less@K@std@@V?$CustomAllocator@K@util@@@std@@QAEAAKABK@Z 004059b0 f i ClientManager.obj
 0001:00004a70       ??1?$_Tree@V?$_Tmap_traits@KKU?$less@K@std@@V?$CustomAllocator@K@util@@$0A@@std@@@std@@QAE@XZ 00405a70 f i ClientManager.obj
 0001:00004ad0       ?begin@?$_Tree@V?$_Tmap_traits@KKU?$less@K@std@@V?$CustomAllocator@K@util@@$0A@@std@@@std@@QAE?AViterator@12@XZ 00405ad0 f i ClientManager.obj
 0001:00004b00       ?end@?$_Tree@V?$_Tmap_traits@KKU?$less@K@std@@V?$CustomAllocator@K@util@@$0A@@std@@@std@@QAE?AViterator@12@XZ 00405b00 f i ClientManager.obj
 0001:00004b30       ?size@?$_Tree@V?$_Tmap_traits@V?$basic_string@DU?$char_traits@D@std@@V?$allocator@D@2@@std@@EU?$less@V?$basic_string@DU?$char_traits@D@std@@V?$allocator@D@2@@std@@@2@V?$allocator@U?$pair@$$CBV?$basic_string@DU?$char_traits@D@std@@V?$allocator@D@2@@std@@E@std@@@2@$0A@@std@@@std@@QBEIXZ 00405b30 f i authcommon:csvlib.obj
 0001:00004b30       ?size@?$_Tree@V?$_Tmap_traits@KKU?$less@K@std@@V?$CustomAllocator@K@util@@$0A@@std@@@std@@QBEIXZ 00405b30 f i ClientManager.obj
 0001:00004b30       ?size@?$_Tree@V?$_Tmap_traits@KPAVServerData@@U?$less@K@std@@V?$CustomAllocator@PAVServerData@@@util@@$0A@@std@@@std@@QBEIXZ 00405b30 f i authcommon:ServerDataManager.obj
 0001:00004b50       ?clear@?$_Tree@V?$_Tmap_traits@KPAUGROUP_DATA@@U?$less@K@std@@V?$CustomAllocator@PAUGROUP_DATA@@@util@@$0A@@std@@@std@@QAEXXZ 00405b50 f i authcommon:ServerDataManager.obj
 0001:00004b50       ?clear@?$_Tree@V?$_Tmap_traits@KKU?$less@K@std@@V?$CustomAllocator@K@util@@$0A@@std@@@std@@QAEXXZ 00405b50 f i ClientManager.obj
 0001:00004b50       ?clear@?$_Tree@V?$_Tmap_traits@KPAVServerData@@U?$less@K@std@@V?$CustomAllocator@PAVServerData@@@util@@$0A@@std@@@std@@QAEXXZ 00405b50 f i authcommon:ServerDataManager.obj
 0001:00004bb0       ?upper_bound@?$_Tree@V?$_Tmap_traits@KKU?$less@K@std@@V?$CustomAllocator@K@util@@$0A@@std@@@std@@QAE?AViterator@12@ABK@Z 00405bb0 f i ClientManager.obj
 0001:00004be0       ??C?$_Iterator@$00@?$list@U?$pair@$$CBKPAVClientSession@@@std@@V?$CustomAllocator@U?$pair@$$CBKPAVClientSession@@@std@@@util@@@std@@QBEPAU?$pair@$$CBKPAVClientSession@@@2@XZ 00405be0 f i ClientManager.obj
 0001:00004c00       ??E?$_Iterator@$00@?$list@U?$pair@$$CBKPAVClientSession@@@std@@V?$CustomAllocator@U?$pair@$$CBKPAVClientSession@@@std@@@util@@@std@@QAEAAV012@XZ 00405c00 f i ClientManager.obj
 0001:00004c20       ??8?$_Const_iterator@$00@?$list@U?$pair@$$CBKPAVClientSession@@@std@@V?$CustomAllocator@U?$pair@$$CBKPAVClientSession@@@std@@@util@@@std@@QBE_NABV012@@Z 00405c20 f i ClientManager.obj
 0001:00004c70       ?_Same_container@_Iterator_base_secure@std@@QBE_NABV12@@Z 00405c70 f i LoginFrontFrame.obj
 0001:00004c70       ?_Same_container@_Iterator_base_aux@std@@QBE_NABV12@@Z 00405c70 f i ClientManager.obj
 0001:00004c90       ?_Has_container@_Iterator_base_secure@std@@QBE_NXZ 00405c90 f i LoginFrontFrame.obj
 0001:00004c90       ?_Has_container@_Iterator_base_aux@std@@QBE_NXZ 00405c90 f i ClientManager.obj
 0001:00004cb0       ??9?$_Const_iterator@$00@?$list@U?$pair@$$CBKPAVClientSession@@@std@@V?$CustomAllocator@U?$pair@$$CBKPAVClientSession@@@std@@@util@@@std@@QBE_NABV012@@Z 00405cb0 f i ClientManager.obj
 0001:00004ce0       ??0?$_Iterator@$00@?$list@U?$pair@$$CBKPAVClientSession@@@std@@V?$CustomAllocator@U?$pair@$$CBKPAVClientSession@@@std@@@util@@@std@@QAE@XZ 00405ce0 f i ClientManager.obj
 0001:00004ce0       ??0iterator@?$_Tree@V?$_Tmap_traits@KKU?$less@K@std@@V?$CustomAllocator@K@util@@$0A@@std@@@std@@QAE@XZ 00405ce0 f i ClientManager.obj
 0001:00004ce0       ??0iterator@?$_Tree@V?$_Tmap_traits@V?$basic_string@DU?$char_traits@D@std@@V?$allocator@D@2@@std@@EU?$less@V?$basic_string@DU?$char_traits@D@std@@V?$allocator@D@2@@std@@@2@V?$allocator@U?$pair@$$CBV?$basic_string@DU?$char_traits@D@std@@V?$allocator@D@2@@std@@E@std@@@2@$0A@@std@@@std@@QAE@XZ 00405ce0 f i authcommon:csvlib.obj
 0001:00004d00       ??Citerator@?$_Tree@V?$_Tmap_traits@KKU?$less@K@std@@V?$CustomAllocator@K@util@@$0A@@std@@@std@@QBEPAU?$pair@$$CBKK@2@XZ 00405d00 f i ClientManager.obj
 0001:00004d20       ??Eiterator@?$_Tree@V?$_Tmap_traits@KKU?$less@K@std@@V?$CustomAllocator@K@util@@$0A@@std@@@std@@QAE?AV012@H@Z 00405d20 f i ClientManager.obj
 0001:00004d60       ??Fiterator@?$_Tree@V?$_Tmap_traits@KKU?$less@K@std@@V?$CustomAllocator@K@util@@$0A@@std@@@std@@QAE?AV012@H@Z 00405d60 f i ClientManager.obj
 0001:00004da0       ??1?$_Hmap_traits@KPAVClientSession@@V?$hash_compare@KU?$less@K@std@@@stdext@@V?$CustomAllocator@PAVClientSession@@@util@@$0A@@stdext@@QAE@XZ 00405da0 f i ClientManager.obj
 0001:00004dc0       ??0?$hash_map@KPAVClientSession@@V?$hash_compare@KU?$less@K@std@@@stdext@@V?$CustomAllocator@PAVClientSession@@@util@@@stdext@@QAE@ABV?$hash_compare@KU?$less@K@std@@@1@ABV?$CustomAllocator@U?$pair@$$CBKPAVClientSession@@@std@@@util@@@Z 00405dc0 f i ClientManager.obj
 0001:00004de0       ?_Get_iter_from_vec@?$_Hash@V?$_Hmap_traits@KPAVClientSession@@V?$hash_compare@KU?$less@K@std@@@stdext@@V?$CustomAllocator@PAVClientSession@@@util@@$0A@@stdext@@@stdext@@QBE?AV?$_Iterator@$00@?$list@U?$pair@$$CBKPAVClientSession@@@std@@V?$CustomAllocator@U?$pair@$$CBKPAVClientSession@@@std@@@util@@@std@@ABU_List_position@12@@Z 00405de0 f i ClientManager.obj
 0001:00004e10       ?lower_bound@?$_Hash@V?$_Hmap_traits@KPAVClientSession@@V?$hash_compare@KU?$less@K@std@@@stdext@@V?$CustomAllocator@PAVClientSession@@@util@@$0A@@stdext@@@stdext@@QAE?AV?$_Iterator@$00@?$list@U?$pair@$$CBKPAVClientSession@@@std@@V?$CustomAllocator@U?$pair@$$CBKPAVClientSession@@@std@@@util@@@std@@ABK@Z 00405e10 f i ClientManager.obj
 0001:00004f30       ?_Hashval@?$_Hash@V?$_Hmap_traits@KPAVClientSession@@V?$hash_compare@KU?$less@K@std@@@stdext@@V?$CustomAllocator@PAVClientSession@@@util@@$0A@@stdext@@@stdext@@IBEIABK@Z 00405f30 f i ClientManager.obj
 0001:00004f80       ?_Insert@?$_Hash@V?$_Hmap_traits@KPAVClientSession@@V?$hash_compare@KU?$less@K@std@@@stdext@@V?$CustomAllocator@PAVClientSession@@@util@@$0A@@stdext@@@stdext@@IAE?AU?$pair@V?$_Iterator@$00@?$list@U?$pair@$$CBKPAVClientSession@@@std@@V?$CustomAllocator@U?$pair@$$CBKPAVClientSession@@@std@@@util@@@std@@_N@std@@ABU?$pair@$$CBKPAVClientSession@@@4@V?$_Iterator@$00@?$list@U?$pair@$$CBKPAVClientSession@@@std@@V?$CustomAllocator@U?$pair@$$CBKPAVClientSession@@@std@@@util@@@4@@Z 00405f80 f i ClientManager.obj
 0001:00005260       ??R?$less@PAX@std@@QBE_NABQAX0@Z 00406260 f i LoginFrontFrame.obj
 0001:00005260       ??R?$less@K@std@@QBE_NABK0@Z 00406260 f i ClientManager.obj
 0001:00005280       ??1?$list@U?$pair@$$CBKPAVClientSession@@@std@@V?$CustomAllocator@U?$pair@$$CBKPAVClientSession@@@std@@@util@@@std@@QAE@XZ 00406280 f i ClientManager.obj
 0001:000052e0       ?begin@?$list@U?$pair@$$CBKPAVClientSession@@@std@@V?$CustomAllocator@U?$pair@$$CBKPAVClientSession@@@std@@@util@@@std@@QAE?AV?$_Iterator@$00@12@XZ 004062e0 f i ClientManager.obj
 0001:00005310       ?end@?$list@U?$pair@$$CBKPAVClientSession@@@std@@V?$CustomAllocator@U?$pair@$$CBKPAVClientSession@@@std@@@util@@@std@@QAE?AV?$_Iterator@$00@12@XZ 00406310 f i ClientManager.obj
 0001:00005340       ?erase@?$list@U?$pair@$$CBKPAVClientSession@@@std@@V?$CustomAllocator@U?$pair@$$CBKPAVClientSession@@@std@@@util@@@std@@QAE?AV?$_Iterator@$00@12@V?$_Const_iterator@$00@12@@Z 00406340 f i ClientManager.obj
 0001:00005410       ??1?$vector@U_List_position@?$_Hash@V?$_Hmap_traits@KPAVClientSession@@V?$hash_compare@KU?$less@K@std@@@stdext@@V?$CustomAllocator@PAVClientSession@@@util@@$0A@@stdext@@@stdext@@V?$CustomAllocator@U_List_position@?$_Hash@V?$_Hmap_traits@KPAVClientSession@@V?$hash_compare@KU?$less@K@std@@@stdext@@V?$CustomAllocator@PAVClientSession@@@util@@$0A@@stdext@@@stdext@@@util@@@std@@QAE@XZ 00406410 f i ClientManager.obj
 0001:00005470       ??A?$vector@U_List_position@?$_Hash@V?$_Hmap_traits@KPAVClientSession@@V?$hash_compare@KU?$less@K@std@@@stdext@@V?$CustomAllocator@PAVClientSession@@@util@@$0A@@stdext@@@stdext@@V?$CustomAllocator@U_List_position@?$_Hash@V?$_Hmap_traits@KPAVClientSession@@V?$hash_compare@KU?$less@K@std@@@stdext@@V?$CustomAllocator@PAVClientSession@@@util@@$0A@@stdext@@@stdext@@@util@@@std@@QAEAAU_List_position@?$_Hash@V?$_Hmap_traits@KPAVClientSession@@V?$hash_compare@KU?$less@K@std@@@stdext@@V?$CustomAllocator@PAVClientSession@@@util@@$0A@@stdext@@@stdext@@I@Z 00406470 f i ClientManager.obj
 0001:000054a0       ?_Key@?$_Tree@V?$_Tmap_traits@KPAUGROUP_DATA@@U?$less@K@std@@V?$CustomAllocator@PAUGROUP_DATA@@@util@@$0A@@std@@@std@@KAABKPAU_Node@?$_Tree_nod@V?$_Tmap_traits@KPAUGROUP_DATA@@U?$less@K@std@@V?$CustomAllocator@PAUGROUP_DATA@@@util@@$0A@@std@@@2@@Z 004064a0 f i authcommon:ServerDataManager.obj
 0001:000054a0       ?_Key@?$_Tree@V?$_Tmap_traits@V?$basic_string@DU?$char_traits@D@std@@V?$allocator@D@2@@std@@EU?$less@V?$basic_string@DU?$char_traits@D@std@@V?$allocator@D@2@@std@@@2@V?$allocator@U?$pair@$$CBV?$basic_string@DU?$char_traits@D@std@@V?$allocator@D@2@@std@@E@std@@@2@$0A@@std@@@std@@KAABV?$basic_string@DU?$char_traits@D@std@@V?$allocator@D@2@@2@PAU_Node@?$_Tree_nod@V?$_Tmap_traits@V?$basic_string@DU?$char_traits@D@std@@V?$allocator@D@2@@std@@EU?$less@V?$basic_string@DU?$char_traits@D@std@@V?$allocator@D@2@@std@@@2@V?$allocator@U?$pair@$$CBV?$basic_string@DU?$char_traits@D@std@@V?$allocator@D@2@@std@@E@std@@@2@$0A@@std@@@2@@Z 004064a0 f i authcommon:csvlib.obj
 0001:000054a0       ?_Key@?$_Tree@V?$_Tmap_traits@KKU?$less@K@std@@V?$CustomAllocator@K@util@@$0A@@std@@@std@@KAABKPAU_Node@?$_Tree_nod@V?$_Tmap_traits@KKU?$less@K@std@@V?$CustomAllocator@K@util@@$0A@@std@@@2@@Z 004064a0 f i ClientManager.obj
 0001:000054a0       ?_Key@?$_Tree@V?$_Tmap_traits@KPAVServerData@@U?$less@K@std@@V?$CustomAllocator@PAVServerData@@@util@@$0A@@std@@@std@@KAABKPAU_Node@?$_Tree_nod@V?$_Tmap_traits@KPAVServerData@@U?$less@K@std@@V?$CustomAllocator@PAVServerData@@@util@@$0A@@std@@@2@@Z 004064a0 f i authcommon:ServerDataManager.obj
 0001:000054c0       ?insert@?$_Tree@V?$_Tmap_traits@KKU?$less@K@std@@V?$CustomAllocator@K@util@@$0A@@std@@@std@@QAE?AViterator@12@Vconst_iterator@12@ABU?$pair@$$CBKK@2@@Z 004064c0 f i ClientManager.obj
 0001:00005ae0       ?lower_bound@?$_Tree@V?$_Tmap_traits@KKU?$less@K@std@@V?$CustomAllocator@K@util@@$0A@@std@@@std@@QAE?AViterator@12@ABK@Z 00406ae0 f i ClientManager.obj
 0001:00005b10       ?_Erase@?$_Tree@V?$_Tmap_traits@KPAUGROUP_DATA@@U?$less@K@std@@V?$CustomAllocator@PAUGROUP_DATA@@@util@@$0A@@std@@@std@@IAEXPAU_Node@?$_Tree_nod@V?$_Tmap_traits@KPAUGROUP_DATA@@U?$less@K@std@@V?$CustomAllocator@PAUGROUP_DATA@@@util@@$0A@@std@@@2@@Z 00406b10 f i authcommon:ServerDataManager.obj
 0001:00005b10       ?_Erase@?$_Tree@V?$_Tmap_traits@KPAVServerData@@U?$less@K@std@@V?$CustomAllocator@PAVServerData@@@util@@$0A@@std@@@std@@IAEXPAU_Node@?$_Tree_nod@V?$_Tmap_traits@KPAVServerData@@U?$less@K@std@@V?$CustomAllocator@PAVServerData@@@util@@$0A@@std@@@2@@Z 00406b10 f i authcommon:ServerDataManager.obj
 0001:00005b10       ?_Erase@?$_Tree@V?$_Tmap_traits@KKU?$less@K@std@@V?$CustomAllocator@K@util@@$0A@@std@@@std@@IAEXPAU_Node@?$_Tree_nod@V?$_Tmap_traits@KKU?$less@K@std@@V?$CustomAllocator@K@util@@$0A@@std@@@2@@Z 00406b10 f i ClientManager.obj
 0001:00005b90       ?_Ubound@?$_Tree@V?$_Tmap_traits@KKU?$less@K@std@@V?$CustomAllocator@K@util@@$0A@@std@@@std@@IBEPAU_Node@?$_Tree_nod@V?$_Tmap_traits@KKU?$less@K@std@@V?$CustomAllocator@K@util@@$0A@@std@@@2@ABK@Z 00406b90 f i ClientManager.obj
 0001:00005c20       ?_Tidy@?$_Tree@V?$_Tmap_traits@KKU?$less@K@std@@V?$CustomAllocator@K@util@@$0A@@std@@@std@@IAEXXZ 00406c20 f i ClientManager.obj
 0001:00005cf0       ??D?$_Iterator@$00@?$list@U?$pair@$$CBKPAVClientSession@@@std@@V?$CustomAllocator@U?$pair@$$CBKPAVClientSession@@@std@@@util@@@std@@QBEAAU?$pair@$$CBKPAVClientSession@@@2@XZ 00406cf0 f i ClientManager.obj
 0001:00005d10       ??D?$_Const_iterator@$00@?$list@U?$pair@$$CBKPAVClientSession@@@std@@V?$CustomAllocator@U?$pair@$$CBKPAVClientSession@@@std@@@util@@@std@@QBEABU?$pair@$$CBKPAVClientSession@@@2@XZ 00406d10 f i ClientManager.obj
 0001:00005d70       ?_Getmycont@_Iterator_base_aux@std@@QBEPBV_Container_base_aux@2@XZ 00406d70 f i ClientManager.obj
 0001:00005da0       ??E?$_Const_iterator@$00@?$list@U?$pair@$$CBKPAVClientSession@@@std@@V?$CustomAllocator@U?$pair@$$CBKPAVClientSession@@@std@@@util@@@std@@QAEAAV012@XZ 00406da0 f i ClientManager.obj
 0001:00005e10       ??0iterator@?$_Tree@V?$_Tmap_traits@KKU?$less@K@std@@V?$CustomAllocator@K@util@@$0A@@std@@@std@@QAE@PAU_Node@?$_Tree_nod@V?$_Tmap_traits@KKU?$less@K@std@@V?$CustomAllocator@K@util@@$0A@@std@@@2@PBV12@@Z 00406e10 f i ClientManager.obj
 0001:00005e30       ??Diterator@?$_Tree@V?$_Tmap_traits@KKU?$less@K@std@@V?$CustomAllocator@K@util@@$0A@@std@@@std@@QBEAAU?$pair@$$CBKK@2@XZ 00406e30 f i ClientManager.obj
 0001:00005e50       ??Eiterator@?$_Tree@V?$_Tmap_traits@KKU?$less@K@std@@V?$CustomAllocator@K@util@@$0A@@std@@@std@@QAEAAV012@XZ 00406e50 f i ClientManager.obj
 0001:00005e70       ??Fiterator@?$_Tree@V?$_Tmap_traits@KKU?$less@K@std@@V?$CustomAllocator@K@util@@$0A@@std@@@std@@QAEAAV012@XZ 00406e70 f i ClientManager.obj
 0001:00005e90       ??0const_iterator@?$_Tree@V?$_Tmap_traits@V?$basic_string@DU?$char_traits@D@std@@V?$allocator@D@2@@std@@EU?$less@V?$basic_string@DU?$char_traits@D@std@@V?$allocator@D@2@@std@@@2@V?$allocator@U?$pair@$$CBV?$basic_string@DU?$char_traits@D@std@@V?$allocator@D@2@@std@@E@std@@@2@$0A@@std@@@std@@QAE@XZ 00406e90 f i authcommon:csvlib.obj
 0001:00005e90       ??0const_iterator@?$_Tree@V?$_Tmap_traits@KKU?$less@K@std@@V?$CustomAllocator@K@util@@$0A@@std@@@std@@QAE@XZ 00406e90 f i ClientManager.obj
 0001:00005e90       ??0?$_Const_iterator@$00@?$list@U?$pair@$$CBKPAVClientSession@@@std@@V?$CustomAllocator@U?$pair@$$CBKPAVClientSession@@@std@@@util@@@std@@QAE@XZ 00406e90 f i ClientManager.obj
 0001:00005eb0       ??0?$pair@$$CBKPAVServerData@@@std@@QAE@ABKABQAVServerData@@@Z 00406eb0 f i authcommon:ServerDataManager.obj
 0001:00005eb0       ??0?$pair@$$CBKPAUGROUP_DATA@@@std@@QAE@ABKABQAUGROUP_DATA@@@Z 00406eb0 f i authcommon:ServerDataManager.obj
 0001:00005eb0       ??0?$pair@$$CBKK@std@@QAE@ABK0@Z 00406eb0 f i ClientManager.obj
 0001:00005eb0       ??0?$pair@$$CBKPAVClientSession@@@std@@QAE@ABKABQAVClientSession@@@Z 00406eb0 f i ClientManager.obj
 0001:00005ee0       ??0_List_position@?$_Hash@V?$_Hmap_traits@KPAVClientSession@@V?$hash_compare@KU?$less@K@std@@@stdext@@V?$CustomAllocator@PAVClientSession@@@util@@$0A@@stdext@@@stdext@@QAE@V?$_Iterator@$00@?$list@U?$pair@$$CBKPAVClientSession@@@std@@V?$CustomAllocator@U?$pair@$$CBKPAVClientSession@@@std@@@util@@@std@@@Z 00406ee0 f i ClientManager.obj
 0001:00005f10       ??8_List_position@?$_Hash@V?$_Hmap_traits@KPAVClientSession@@V?$hash_compare@KU?$less@K@std@@@stdext@@V?$CustomAllocator@PAVClientSession@@@util@@$0A@@stdext@@@stdext@@QBE_NABV?$_Const_iterator@$00@?$list@U?$pair@$$CBKPAVClientSession@@@std@@V?$CustomAllocator@U?$pair@$$CBKPAVClientSession@@@std@@@util@@@std@@@Z 00406f10 f i ClientManager.obj
 0001:00005f40       ??1?$_List_nod@U?$pair@$$CBKPAVClientSession@@@std@@V?$CustomAllocator@U?$pair@$$CBKPAVClientSession@@@std@@@util@@@std@@QAE@XZ 00406f40 f i ClientManager.obj
 0001:00005f40       ??1?$_Vector_val@U_List_position@?$_Hash@V?$_Hmap_traits@KPAVClientSession@@V?$hash_compare@KU?$less@K@std@@@stdext@@V?$CustomAllocator@PAVClientSession@@@util@@$0A@@stdext@@@stdext@@V?$CustomAllocator@U_List_position@?$_Hash@V?$_Hmap_traits@KPAVClientSession@@V?$hash_compare@KU?$less@K@std@@@stdext@@V?$CustomAllocator@PAVClientSession@@@util@@$0A@@stdext@@@stdext@@@util@@@std@@QAE@XZ 00406f40 f i ClientManager.obj
 0001:00005f40       ??1?$_Tmap_traits@KPAVServerData@@U?$less@K@std@@V?$CustomAllocator@PAVServerData@@@util@@$0A@@std@@QAE@XZ 00406f40 f i authcommon:ServerDataManager.obj
 0001:00005f40       ??1?$_Tmap_traits@KPAUGROUP_DATA@@U?$less@K@std@@V?$CustomAllocator@PAUGROUP_DATA@@@util@@$0A@@std@@QAE@XZ 00406f40 f i authcommon:ServerDataManager.obj
 0001:00005f40       ??1?$_Tmap_traits@KKU?$less@K@std@@V?$CustomAllocator@K@util@@$0A@@std@@QAE@XZ 00406f40 f i ClientManager.obj
 0001:00005f60       ??0?$_Bidit@U?$pair@$$CBKPAVServerData@@@std@@HPBU12@ABU12@@std@@QAE@XZ 00406f60 f i authcommon:ServerDataManager.obj
 0001:00005f60       ??0?$_Bidit@U?$pair@$$CBKK@std@@HPBU12@ABU12@@std@@QAE@XZ 00406f60 f i ClientManager.obj
 0001:00005f60       ??0?$_Ranit@V?$basic_string@DU?$char_traits@D@std@@V?$allocator@D@2@@std@@HPBV12@ABV12@@std@@QAE@XZ 00406f60 f i authcommon:csvlib.obj
 0001:00005f60       ??0?$_Ranit@U_List_position@?$_Hash@V?$_Hmap_traits@KPAVClientSession@@V?$hash_compare@KU?$less@K@std@@@stdext@@V?$CustomAllocator@PAVClientSession@@@util@@$0A@@stdext@@@stdext@@HPBU123@ABU123@@std@@QAE@XZ 00406f60 f i ClientManager.obj
 0001:00005f60       ??0?$_Bidit@U?$pair@$$CBKPAVClientSession@@@std@@HPBU12@ABU12@@std@@QAE@XZ 00406f60 f i ClientManager.obj
 0001:00005f60       ??0?$_Bidit@U?$pair@$$CBV?$basic_string@DU?$char_traits@D@std@@V?$allocator@D@2@@std@@E@std@@HPBU12@ABU12@@std@@QAE@XZ 00406f60 f i authcommon:csvlib.obj
 0001:00005f60       ??0?$_Bidit@U?$pair@$$CBKPAUGROUP_DATA@@@std@@HPBU12@ABU12@@std@@QAE@XZ 00406f60 f i authcommon:ServerDataManager.obj
 0001:00005f80       ??0?$simple_segregated_storage@I@boost@@QAE@XZ 00406f80 f i LoginFrontFrame.obj
 0001:00005f80       ??0_Iterator_base_aux@std@@QAE@XZ 00406f80 f i ClientManager.obj
 0001:00005f80       ??0_Iterator_base_secure@std@@QAE@XZ 00406f80 f i LoginFrontFrame.obj
 0001:00005fa0       ??0?$_Hash@V?$_Hmap_traits@KPAVClientSession@@V?$hash_compare@KU?$less@K@std@@@stdext@@V?$CustomAllocator@PAVClientSession@@@util@@$0A@@stdext@@@stdext@@QAE@ABV?$hash_compare@KU?$less@K@std@@@1@ABV?$CustomAllocator@U?$pair@$$CBKPAVClientSession@@@std@@@util@@@Z 00406fa0 f i ClientManager.obj
 0001:00006050       ?bucket_count@?$_Hash@V?$_Hmap_traits@KPAVClientSession@@V?$hash_compare@KU?$less@K@std@@@stdext@@V?$CustomAllocator@PAVClientSession@@@util@@$0A@@stdext@@@stdext@@QBEIXZ 00407050 f i ClientManager.obj
 0001:00006070       ?load_factor@?$_Hash@V?$_Hmap_traits@KPAVClientSession@@V?$hash_compare@KU?$less@K@std@@@stdext@@V?$CustomAllocator@PAVClientSession@@@util@@$0A@@stdext@@@stdext@@QBEMXZ 00407070 f i ClientManager.obj
 0001:000060c0       ?max_load_factor@?$_Hash@V?$_Hmap_traits@KPAVClientSession@@V?$hash_compare@KU?$less@K@std@@@stdext@@V?$CustomAllocator@PAVClientSession@@@util@@$0A@@stdext@@@stdext@@QBEMXZ 004070c0 f i ClientManager.obj
 0001:000060e0       ?_Init@?$_Hash@V?$_Hmap_traits@KPAVClientSession@@V?$hash_compare@KU?$less@K@std@@@stdext@@V?$CustomAllocator@PAVClientSession@@@util@@$0A@@stdext@@@stdext@@IAEXI@Z 004070e0 f i ClientManager.obj
 0001:00006140       ?_Reinsert@?$_Hash@V?$_Hmap_traits@KPAVClientSession@@V?$hash_compare@KU?$less@K@std@@@stdext@@V?$CustomAllocator@PAVClientSession@@@util@@$0A@@stdext@@@stdext@@IAEXXZ 00407140 f i ClientManager.obj
 0001:000061c0       ??R?$hash_compare@KU?$less@K@std@@@stdext@@QBEIABK@Z 004071c0 f i ClientManager.obj
 0001:00006230       ??R?$hash_compare@KU?$less@K@std@@@stdext@@QBE_NABK0@Z 00407230 f i ClientManager.obj
 0001:00006250       ?_Make_iter@?$list@U?$pair@$$CBKPAVClientSession@@@std@@V?$CustomAllocator@U?$pair@$$CBKPAVClientSession@@@std@@@util@@@std@@QBE?AV?$_Iterator@$00@12@V?$_Const_iterator@$00@12@@Z 00407250 f i ClientManager.obj
 0001:00006270       ?insert@?$list@U?$pair@$$CBKPAVClientSession@@@std@@V?$CustomAllocator@U?$pair@$$CBKPAVClientSession@@@std@@@util@@@std@@QAE?AV?$_Iterator@$00@12@V?$_Const_iterator@$00@12@ABU?$pair@$$CBKPAVClientSession@@@2@@Z 00407270 f i ClientManager.obj
 0001:000062b0       ?splice@?$list@U?$pair@$$CBKPAVClientSession@@@std@@V?$CustomAllocator@U?$pair@$$CBKPAVClientSession@@@std@@@util@@@std@@QAEXV?$_Const_iterator@$00@12@AAV12@0@Z 004072b0 f i ClientManager.obj
 0001:00006350       ?_Tidy@?$list@U?$pair@$$CBKPAVClientSession@@@std@@V?$CustomAllocator@U?$pair@$$CBKPAVClientSession@@@std@@@util@@@std@@IAEXXZ 00407350 f i ClientManager.obj
 0001:000063c0       ?size@?$vector@U_List_position@?$_Hash@V?$_Hmap_traits@KPAVClientSession@@V?$hash_compare@KU?$less@K@std@@@stdext@@V?$CustomAllocator@PAVClientSession@@@util@@$0A@@stdext@@@stdext@@V?$CustomAllocator@U_List_position@?$_Hash@V?$_Hmap_traits@KPAVClientSession@@V?$hash_compare@KU?$less@K@std@@@stdext@@V?$CustomAllocator@PAVClientSession@@@util@@$0A@@stdext@@@stdext@@@util@@@std@@QBEIXZ 004073c0 f i ClientManager.obj
 0001:000063e0       ?max_size@?$vector@U_List_position@?$_Hash@V?$_Hmap_traits@KPAVClientSession@@V?$hash_compare@KU?$less@K@std@@@stdext@@V?$CustomAllocator@PAVClientSession@@@util@@$0A@@stdext@@@stdext@@V?$CustomAllocator@U_List_position@?$_Hash@V?$_Hmap_traits@KPAVClientSession@@V?$hash_compare@KU?$less@K@std@@@stdext@@V?$CustomAllocator@PAVClientSession@@@util@@$0A@@stdext@@@stdext@@@util@@@std@@QBEIXZ 004073e0 f i ClientManager.obj
 0001:00006400       ?_Tidy@?$vector@U_List_position@?$_Hash@V?$_Hmap_traits@KPAVClientSession@@V?$hash_compare@KU?$less@K@std@@@stdext@@V?$CustomAllocator@PAVClientSession@@@util@@$0A@@stdext@@@stdext@@V?$CustomAllocator@U_List_position@?$_Hash@V?$_Hmap_traits@KPAVClientSession@@V?$hash_compare@KU?$less@K@std@@@stdext@@V?$CustomAllocator@PAVClientSession@@@util@@$0A@@stdext@@@stdext@@@util@@@std@@IAEXXZ 00407400 f i ClientManager.obj
 0001:00006470       ??1?$_Container_base_aux_alloc_real@V?$CustomAllocator@K@util@@@std@@IAE@XZ 00407470 f i ClientManager.obj
 0001:00006470       ??1?$_Container_base_aux_alloc_real@V?$CustomAllocator@PAVServerData@@@util@@@std@@IAE@XZ 00407470 f i authcommon:ServerDataManager.obj
 0001:00006470       ??1?$_Container_base_aux_alloc_real@V?$CustomAllocator@U_List_position@?$_Hash@V?$_Hmap_traits@KPAVClientSession@@V?$hash_compare@KU?$less@K@std@@@stdext@@V?$CustomAllocator@PAVClientSession@@@util@@$0A@@stdext@@@stdext@@@util@@@std@@IAE@XZ 00407470 f i ClientManager.obj
 0001:00006470       ??1?$_Container_base_aux_alloc_real@V?$CustomAllocator@PAUGROUP_DATA@@@util@@@std@@IAE@XZ 00407470 f i authcommon:ServerDataManager.obj
 0001:00006470       ??1?$_Container_base_aux_alloc_real@V?$CustomAllocator@U?$pair@$$CBKPAVClientSession@@@std@@@util@@@std@@IAE@XZ 00407470 f i ClientManager.obj
 0001:000064d0       ?insert@?$_Tree@V?$_Tmap_traits@KKU?$less@K@std@@V?$CustomAllocator@K@util@@$0A@@std@@@std@@QAE?AU?$pair@Viterator@?$_Tree@V?$_Tmap_traits@KKU?$less@K@std@@V?$CustomAllocator@K@util@@$0A@@std@@@std@@_N@2@ABU?$pair@$$CBKK@2@@Z 004074d0 f i ClientManager.obj
 0001:000066a0       ?erase@?$_Tree@V?$_Tmap_traits@KKU?$less@K@std@@V?$CustomAllocator@K@util@@$0A@@std@@@std@@QAE?AViterator@12@Vconst_iterator@12@0@Z 004076a0 f i ClientManager.obj
 0001:00006750       ?_Insert@?$_Tree@V?$_Tmap_traits@KKU?$less@K@std@@V?$CustomAllocator@K@util@@$0A@@std@@@std@@IAE?AViterator@12@_NPAU_Node@?$_Tree_nod@V?$_Tmap_traits@KKU?$less@K@std@@V?$CustomAllocator@K@util@@$0A@@std@@@2@ABU?$pair@$$CBKK@2@@Z 00407750 f i ClientManager.obj
 0001:00006bd0       ??0length_error@std@@QAE@ABV?$basic_string@DU?$char_traits@D@std@@V?$allocator@D@2@@1@@Z 00407bd0 f i ClientManager.obj
 0001:00006c00       ??0logic_error@std@@QAE@ABV?$basic_string@DU?$char_traits@D@std@@V?$allocator@D@2@@1@@Z 00407c00 f i ClientManager.obj
 0001:00006c70       ?what@runtime_error@std@@UBEPBDXZ 00407c70 f i authcommon:csvlib.obj
 0001:00006c70       ?what@logic_error@std@@UBEPBDXZ 00407c70 f i ClientManager.obj
 0001:00006c90       ??_Glogic_error@std@@UAEPAXI@Z 00407c90 f i ClientManager.obj
 0001:00006c90       ??_Elogic_error@std@@UAEPAXI@Z 00407c90 f i ClientManager.obj
 0001:00006cc0       ??1logic_error@std@@UAE@XZ 00407cc0 f i ClientManager.obj
 0001:00006cf0       ??1length_error@std@@UAE@XZ 00407cf0 f i ClientManager.obj
 0001:00006d10       ??_Elength_error@std@@UAEPAXI@Z 00407d10 f i ClientManager.obj
 0001:00006d10       ??_Glength_error@std@@UAEPAXI@Z 00407d10 f i ClientManager.obj
 0001:00006d40       ??0logic_error@std@@QAE@ABV01@@Z 00407d40 f i ClientManager.obj
 0001:00006db0       ?_Lbound@?$_Tree@V?$_Tmap_traits@KPAVServerData@@U?$less@K@std@@V?$CustomAllocator@PAVServerData@@@util@@$0A@@std@@@std@@IBEPAU_Node@?$_Tree_nod@V?$_Tmap_traits@KPAVServerData@@U?$less@K@std@@V?$CustomAllocator@PAVServerData@@@util@@$0A@@std@@@2@ABK@Z 00407db0 f i authcommon:ServerDataManager.obj
 0001:00006db0       ?_Lbound@?$_Tree@V?$_Tmap_traits@KPAUGROUP_DATA@@U?$less@K@std@@V?$CustomAllocator@PAUGROUP_DATA@@@util@@$0A@@std@@@std@@IBEPAU_Node@?$_Tree_nod@V?$_Tmap_traits@KPAUGROUP_DATA@@U?$less@K@std@@V?$CustomAllocator@PAUGROUP_DATA@@@util@@$0A@@std@@@2@ABK@Z 00407db0 f i authcommon:ServerDataManager.obj
 0001:00006db0       ?_Lbound@?$_Tree@V?$_Tmap_traits@KKU?$less@K@std@@V?$CustomAllocator@K@util@@$0A@@std@@@std@@IBEPAU_Node@?$_Tree_nod@V?$_Tmap_traits@KKU?$less@K@std@@V?$CustomAllocator@K@util@@$0A@@std@@@2@ABK@Z 00407db0 f i ClientManager.obj
 0001:00006e40       ??0?$_Iterator@$00@?$list@U?$pair@$$CBKPAVClientSession@@@std@@V?$CustomAllocator@U?$pair@$$CBKPAVClientSession@@@std@@@util@@@std@@QAE@PAU_Node@?$_List_nod@U?$pair@$$CBKPAVClientSession@@@std@@V?$CustomAllocator@U?$pair@$$CBKPAVClientSession@@@std@@@util@@@2@PBV12@@Z 00407e40 f i ClientManager.obj
 0001:00006e60       ??F?$_Iterator@$00@?$list@U?$pair@$$CBKPAVClientSession@@@std@@V?$CustomAllocator@U?$pair@$$CBKPAVClientSession@@@std@@@util@@@std@@QAEAAV012@XZ 00407e60 f i ClientManager.obj
 0001:00006e80       ??E?$_Const_iterator@$00@?$list@U?$pair@$$CBKPAVClientSession@@@std@@V?$CustomAllocator@U?$pair@$$CBKPAVClientSession@@@std@@@util@@@std@@QAE?AV012@H@Z 00407e80 f i ClientManager.obj
 0001:00006ec0       ?_Mynode@?$_Const_iterator@$0A@@?$list@U?$pair@$$CBKPAVClientSession@@@std@@V?$CustomAllocator@U?$pair@$$CBKPAVClientSession@@@std@@@util@@@std@@QBEPAU_Node@?$_List_nod@U?$pair@$$CBKPAVClientSession@@@std@@V?$CustomAllocator@U?$pair@$$CBKPAVClientSession@@@std@@@util@@@3@XZ 00407ec0 f i ClientManager.obj
 0001:00006ec0       ?total_size@?$PODptr@I@details@boost@@QBEIXZ 00407ec0 f i LoginFrontFrame.obj
 0001:00006ec0       ?_Mynode@const_iterator@?$_Tree@V?$_Tmap_traits@V?$basic_string@DU?$char_traits@D@std@@V?$allocator@D@2@@std@@EU?$less@V?$basic_string@DU?$char_traits@D@std@@V?$allocator@D@2@@std@@@2@V?$allocator@U?$pair@$$CBV?$basic_string@DU?$char_traits@D@std@@V?$allocator@D@2@@std@@E@std@@@2@$0A@@std@@@std@@QBEPAU_Node@?$_Tree_nod@V?$_Tmap_traits@V?$basic_string@DU?$char_traits@D@std@@V?$allocator@D@2@@std@@EU?$less@V?$basic_string@DU?$char_traits@D@std@@V?$allocator@D@2@@std@@@2@V?$allocator@U?$pair@$$CBV?$basic_string@DU?$char_traits@D@std@@V?$allocator@D@2@@std@@E@std@@@2@$0A@@std@@@3@XZ 00407ec0 f i authcommon:csvlib.obj
 0001:00006ec0       ?_Mynode@const_iterator@?$_Tree@V?$_Tmap_traits@KPAUGROUP_DATA@@U?$less@K@std@@V?$CustomAllocator@PAUGROUP_DATA@@@util@@$0A@@std@@@std@@QBEPAU_Node@?$_Tree_nod@V?$_Tmap_traits@KPAUGROUP_DATA@@U?$less@K@std@@V?$CustomAllocator@PAUGROUP_DATA@@@util@@$0A@@std@@@3@XZ 00407ec0 f i authcommon:ServerDataManager.obj
 0001:00006ec0       ?_Mynode@?$_Const_iterator@$00@?$list@U?$pair@$$CBKPAVClientSession@@@std@@V?$CustomAllocator@U?$pair@$$CBKPAVClientSession@@@std@@@util@@@std@@QBEPAU_Node@?$_List_nod@U?$pair@$$CBKPAVClientSession@@@std@@V?$CustomAllocator@U?$pair@$$CBKPAVClientSession@@@std@@@util@@@3@XZ 00407ec0 f i ClientManager.obj
 0001:00006ec0       ?_Mynode@const_iterator@?$_Tree@V?$_Tmap_traits@KKU?$less@K@std@@V?$CustomAllocator@K@util@@$0A@@std@@@std@@QBEPAU_Node@?$_Tree_nod@V?$_Tmap_traits@KKU?$less@K@std@@V?$CustomAllocator@K@util@@$0A@@std@@@3@XZ 00407ec0 f i ClientManager.obj
 0001:00006ec0       ?_Mynode@const_iterator@?$_Tree@V?$_Tmap_traits@KPAVServerData@@U?$less@K@std@@V?$CustomAllocator@PAVServerData@@@util@@$0A@@std@@@std@@QBEPAU_Node@?$_Tree_nod@V?$_Tmap_traits@KPAVServerData@@U?$less@K@std@@V?$CustomAllocator@PAVServerData@@@util@@$0A@@std@@@3@XZ 00407ec0 f i authcommon:ServerDataManager.obj
 0001:00006ee0       ??0const_iterator@?$_Tree@V?$_Tmap_traits@KKU?$less@K@std@@V?$CustomAllocator@K@util@@$0A@@std@@@std@@QAE@PAU_Node@?$_Tree_nod@V?$_Tmap_traits@KKU?$less@K@std@@V?$CustomAllocator@K@util@@$0A@@std@@@2@PBV12@@Z 00407ee0 f i ClientManager.obj
 0001:00006f20       ?_Set_container@_Iterator_base_aux@std@@QAEXQBV_Container_base_aux@2@@Z 00407f20 f i ClientManager.obj
 0001:00006f40       ??Dconst_iterator@?$_Tree@V?$_Tmap_traits@KKU?$less@K@std@@V?$CustomAllocator@K@util@@$0A@@std@@@std@@QBEABU?$pair@$$CBKK@2@XZ 00407f40 f i ClientManager.obj
 0001:00006f90       ??Econst_iterator@?$_Tree@V?$_Tmap_traits@KKU?$less@K@std@@V?$CustomAllocator@K@util@@$0A@@std@@@std@@QAEAAV012@XZ 00407f90 f i ClientManager.obj
 0001:00006fb0       ??Fconst_iterator@?$_Tree@V?$_Tmap_traits@KKU?$less@K@std@@V?$CustomAllocator@K@util@@$0A@@std@@@std@@QAEAAV012@XZ 00407fb0 f i ClientManager.obj
 0001:00006fd0       ?_Get_iter@_List_position@?$_Hash@V?$_Hmap_traits@KPAVClientSession@@V?$hash_compare@KU?$less@K@std@@@stdext@@V?$CustomAllocator@PAVClientSession@@@util@@$0A@@stdext@@@stdext@@QBE?AV?$_Iterator@$00@?$list@U?$pair@$$CBKPAVClientSession@@@std@@V?$CustomAllocator@U?$pair@$$CBKPAVClientSession@@@std@@@util@@@std@@ABV56@@Z 00407fd0 f i ClientManager.obj
 0001:00007000       ??9_List_position@?$_Hash@V?$_Hmap_traits@KPAVClientSession@@V?$hash_compare@KU?$less@K@std@@@stdext@@V?$CustomAllocator@PAVClientSession@@@util@@$0A@@stdext@@@stdext@@QBE_NABV?$_Const_iterator@$00@?$list@U?$pair@$$CBKPAVClientSession@@@std@@V?$CustomAllocator@U?$pair@$$CBKPAVClientSession@@@std@@@util@@@std@@@Z 00408000 f i ClientManager.obj
 0001:00007030       ??0?$_Iterator@$0A@@?$list@U?$pair@$$CBKPAVClientSession@@@std@@V?$CustomAllocator@U?$pair@$$CBKPAVClientSession@@@std@@@util@@@std@@QAE@PAU_Node@?$_List_nod@U?$pair@$$CBKPAVClientSession@@@std@@V?$CustomAllocator@U?$pair@$$CBKPAVClientSession@@@std@@@util@@@2@PBV12@@Z 00408030 f i ClientManager.obj
 0001:00007050       ??0length_error@std@@QAE@ABV01@@Z 00408050 f i ClientManager.obj
 0001:00007080       ?size@?$_Hash@V?$_Hmap_traits@KPAVClientSession@@V?$hash_compare@KU?$less@K@std@@@stdext@@V?$CustomAllocator@PAVClientSession@@@util@@$0A@@stdext@@@stdext@@QBEIXZ 00408080 f i ClientManager.obj
 0001:000070a0       ??0?$_Hmap_traits@KPAVClientSession@@V?$hash_compare@KU?$less@K@std@@@stdext@@V?$CustomAllocator@PAVClientSession@@@util@@$0A@@stdext@@QAE@ABV?$hash_compare@KU?$less@K@std@@@1@@Z 004080a0 f i ClientManager.obj
 0001:000070d0       ??0?$list@U?$pair@$$CBKPAVClientSession@@@std@@V?$CustomAllocator@U?$pair@$$CBKPAVClientSession@@@std@@@util@@@std@@QAE@ABV?$CustomAllocator@U?$pair@$$CBKPAVClientSession@@@std@@@util@@@Z 004080d0 f i ClientManager.obj
 0001:00007140       ?_Insert@?$list@U?$pair@$$CBKPAVClientSession@@@std@@V?$CustomAllocator@U?$pair@$$CBKPAVClientSession@@@std@@@util@@@std@@QAEXV?$_Const_iterator@$00@12@ABU?$pair@$$CBKPAVClientSession@@@2@@Z 00408140 f i ClientManager.obj
 0001:000071c0       ?clear@?$list@U?$pair@$$CBKPAVClientSession@@@std@@V?$CustomAllocator@U?$pair@$$CBKPAVClientSession@@@std@@@util@@@std@@QAEXXZ 004081c0 f i ClientManager.obj
 0001:00007260       ?_Splice@?$list@U?$pair@$$CBKPAVClientSession@@@std@@V?$CustomAllocator@U?$pair@$$CBKPAVClientSession@@@std@@@util@@@std@@QAEXV?$_Const_iterator@$00@12@AAV12@00I_N@Z 00408260 f i ClientManager.obj
 0001:000073f0       ??0?$vector@U_List_position@?$_Hash@V?$_Hmap_traits@KPAVClientSession@@V?$hash_compare@KU?$less@K@std@@@stdext@@V?$CustomAllocator@PAVClientSession@@@util@@$0A@@stdext@@@stdext@@V?$CustomAllocator@U_List_position@?$_Hash@V?$_Hmap_traits@KPAVClientSession@@V?$hash_compare@KU?$less@K@std@@@stdext@@V?$CustomAllocator@PAVClientSession@@@util@@$0A@@stdext@@@stdext@@@util@@@std@@QAE@ABV?$CustomAllocator@U_List_position@?$_Hash@V?$_Hmap_traits@KPAVClientSession@@V?$hash_compare@KU?$less@K@std@@@stdext@@V?$CustomAllocator@PAVClientSession@@@util@@$0A@@stdext@@@stdext@@@util@@@Z 004083f0 f i ClientManager.obj
 0001:00007460       ?assign@?$vector@U_List_position@?$_Hash@V?$_Hmap_traits@KPAVClientSession@@V?$hash_compare@KU?$less@K@std@@@stdext@@V?$CustomAllocator@PAVClientSession@@@util@@$0A@@stdext@@@stdext@@V?$CustomAllocator@U_List_position@?$_Hash@V?$_Hmap_traits@KPAVClientSession@@V?$hash_compare@KU?$less@K@std@@@stdext@@V?$CustomAllocator@PAVClientSession@@@util@@$0A@@stdext@@@stdext@@@util@@@std@@QAEXIABU_List_position@?$_Hash@V?$_Hmap_traits@KPAVClientSession@@V?$hash_compare@KU?$less@K@std@@@stdext@@V?$CustomAllocator@PAVClientSession@@@util@@$0A@@stdext@@@stdext@@@Z 00408460 f i ClientManager.obj
 0001:00007480       ?_Destroy@?$vector@U_List_position@?$_Hash@V?$_Hmap_traits@KPAVClientSession@@V?$hash_compare@KU?$less@K@std@@@stdext@@V?$CustomAllocator@PAVClientSession@@@util@@$0A@@stdext@@@stdext@@V?$CustomAllocator@U_List_position@?$_Hash@V?$_Hmap_traits@KPAVClientSession@@V?$hash_compare@KU?$less@K@std@@@stdext@@V?$CustomAllocator@PAVClientSession@@@util@@$0A@@stdext@@@stdext@@@util@@@std@@IAEXPAU_List_position@?$_Hash@V?$_Hmap_traits@KPAVClientSession@@V?$hash_compare@KU?$less@K@std@@@stdext@@V?$CustomAllocator@PAVClientSession@@@util@@$0A@@stdext@@@stdext@@0@Z 00408480 f i ClientManager.obj
 0001:000074b0       ?_Make_iter@?$_Tree@V?$_Tmap_traits@KKU?$less@K@std@@V?$CustomAllocator@K@util@@$0A@@std@@@std@@QBE?AViterator@12@Vconst_iterator@12@@Z 004084b0 f i ClientManager.obj
 0001:000074e0       ?erase@?$_Tree@V?$_Tmap_traits@KKU?$less@K@std@@V?$CustomAllocator@K@util@@$0A@@std@@@std@@QAE?AViterator@12@Vconst_iterator@12@@Z 004084e0 f i ClientManager.obj
 0001:00007cc0       ??0out_of_range@std@@QAE@ABV?$basic_string@DU?$char_traits@D@std@@V?$allocator@D@2@@1@@Z 00408cc0 f i ClientManager.obj
 0001:00007cf0       ??1out_of_range@std@@UAE@XZ 00408cf0 f i ClientManager.obj
 0001:00007d10       ??_Gout_of_range@std@@UAEPAXI@Z 00408d10 f i ClientManager.obj
 0001:00007d10       ??_Eout_of_range@std@@UAEPAXI@Z 00408d10 f i ClientManager.obj
 0001:00007d40       ??0out_of_range@std@@QAE@ABV01@@Z 00408d40 f i ClientManager.obj
 0001:00007d70       ?_Lrotate@?$_Tree@V?$_Tmap_traits@KPAVServerData@@U?$less@K@std@@V?$CustomAllocator@PAVServerData@@@util@@$0A@@std@@@std@@IAEXPAU_Node@?$_Tree_nod@V?$_Tmap_traits@KPAVServerData@@U?$less@K@std@@V?$CustomAllocator@PAVServerData@@@util@@$0A@@std@@@2@@Z 00408d70 f i authcommon:ServerDataManager.obj
 0001:00007d70       ?_Lrotate@?$_Tree@V?$_Tmap_traits@KPAUGROUP_DATA@@U?$less@K@std@@V?$CustomAllocator@PAUGROUP_DATA@@@util@@$0A@@std@@@std@@IAEXPAU_Node@?$_Tree_nod@V?$_Tmap_traits@KPAUGROUP_DATA@@U?$less@K@std@@V?$CustomAllocator@PAUGROUP_DATA@@@util@@$0A@@std@@@2@@Z 00408d70 f i authcommon:ServerDataManager.obj
 0001:00007d70       ?_Lrotate@?$_Tree@V?$_Tmap_traits@KKU?$less@K@std@@V?$CustomAllocator@K@util@@$0A@@std@@@std@@IAEXPAU_Node@?$_Tree_nod@V?$_Tmap_traits@KKU?$less@K@std@@V?$CustomAllocator@K@util@@$0A@@std@@@2@@Z 00408d70 f i ClientManager.obj
 0001:00007ea0       ?_Rrotate@?$_Tree@V?$_Tmap_traits@KPAVServerData@@U?$less@K@std@@V?$CustomAllocator@PAVServerData@@@util@@$0A@@std@@@std@@IAEXPAU_Node@?$_Tree_nod@V?$_Tmap_traits@KPAVServerData@@U?$less@K@std@@V?$CustomAllocator@PAVServerData@@@util@@$0A@@std@@@2@@Z 00408ea0 f i authcommon:ServerDataManager.obj
 0001:00007ea0       ?_Rrotate@?$_Tree@V?$_Tmap_traits@KPAUGROUP_DATA@@U?$less@K@std@@V?$CustomAllocator@PAUGROUP_DATA@@@util@@$0A@@std@@@std@@IAEXPAU_Node@?$_Tree_nod@V?$_Tmap_traits@KPAUGROUP_DATA@@U?$less@K@std@@V?$CustomAllocator@PAUGROUP_DATA@@@util@@$0A@@std@@@2@@Z 00408ea0 f i authcommon:ServerDataManager.obj
 0001:00007ea0       ?_Rrotate@?$_Tree@V?$_Tmap_traits@KKU?$less@K@std@@V?$CustomAllocator@K@util@@$0A@@std@@@std@@IAEXPAU_Node@?$_Tree_nod@V?$_Tmap_traits@KKU?$less@K@std@@V?$CustomAllocator@K@util@@$0A@@std@@@2@@Z 00408ea0 f i ClientManager.obj
 0001:00007fd0       ?_Buynode@?$_Tree@V?$_Tmap_traits@KKU?$less@K@std@@V?$CustomAllocator@K@util@@$0A@@std@@@std@@IAEPAU_Node@?$_Tree_nod@V?$_Tmap_traits@KKU?$less@K@std@@V?$CustomAllocator@K@util@@$0A@@std@@@2@PAU342@00ABU?$pair@$$CBKK@2@D@Z 00408fd0 f i ClientManager.obj
 0001:00007fd0       ?_Buynode@?$_Tree@V?$_Tmap_traits@KPAUGROUP_DATA@@U?$less@K@std@@V?$CustomAllocator@PAUGROUP_DATA@@@util@@$0A@@std@@@std@@IAEPAU_Node@?$_Tree_nod@V?$_Tmap_traits@KPAUGROUP_DATA@@U?$less@K@std@@V?$CustomAllocator@PAUGROUP_DATA@@@util@@$0A@@std@@@2@PAU342@00ABU?$pair@$$CBKPAUGROUP_DATA@@@2@D@Z 00408fd0 f i authcommon:ServerDataManager.obj
 0001:00007fd0       ?_Buynode@?$_Tree@V?$_Tmap_traits@KPAVServerData@@U?$less@K@std@@V?$CustomAllocator@PAVServerData@@@util@@$0A@@std@@@std@@IAEPAU_Node@?$_Tree_nod@V?$_Tmap_traits@KPAVServerData@@U?$less@K@std@@V?$CustomAllocator@PAVServerData@@@util@@$0A@@std@@@2@PAU342@00ABU?$pair@$$CBKPAVServerData@@@2@D@Z 00408fd0 f i authcommon:ServerDataManager.obj
 0001:000080c0       ??0?$_Const_iterator@$00@?$list@U?$pair@$$CBKPAVClientSession@@@std@@V?$CustomAllocator@U?$pair@$$CBKPAVClientSession@@@std@@@util@@@std@@QAE@PAU_Node@?$_List_nod@U?$pair@$$CBKPAVClientSession@@@std@@V?$CustomAllocator@U?$pair@$$CBKPAVClientSession@@@std@@@util@@@2@PBV12@@Z 004090c0 f i ClientManager.obj
 0001:00008110       ??F?$_Const_iterator@$00@?$list@U?$pair@$$CBKPAVClientSession@@@std@@V?$CustomAllocator@U?$pair@$$CBKPAVClientSession@@@std@@@util@@@std@@QAEAAV012@XZ 00409110 f i ClientManager.obj
 0001:00008180       ??Econst_iterator@?$_Tree@V?$_Tmap_traits@KKU?$less@K@std@@V?$CustomAllocator@K@util@@$0A@@std@@@std@@QAE?AV012@H@Z 00409180 f i ClientManager.obj
 0001:000081c0       ?_Dec@const_iterator@?$_Tree@V?$_Tmap_traits@KKU?$less@K@std@@V?$CustomAllocator@K@util@@$0A@@std@@@std@@QAEXXZ 004091c0 f i ClientManager.obj
 0001:000082e0       ?_Inc@const_iterator@?$_Tree@V?$_Tmap_traits@KKU?$less@K@std@@V?$CustomAllocator@K@util@@$0A@@std@@@std@@QAEXXZ 004092e0 f i ClientManager.obj
 0001:000083c0       ??0?$_Const_iterator@$0A@@?$list@U?$pair@$$CBKPAVClientSession@@@std@@V?$CustomAllocator@U?$pair@$$CBKPAVClientSession@@@std@@@util@@@std@@QAE@PAU_Node@?$_List_nod@U?$pair@$$CBKPAVClientSession@@@std@@V?$CustomAllocator@U?$pair@$$CBKPAVClientSession@@@std@@@util@@@2@PBV12@@Z 004093c0 f i ClientManager.obj
 0001:00008400       ?size@?$list@U?$pair@$$CBKPAVClientSession@@@std@@V?$CustomAllocator@U?$pair@$$CBKPAVClientSession@@@std@@@util@@@std@@QBEIXZ 00409400 f i ClientManager.obj
 0001:00008420       ?erase@?$list@U?$pair@$$CBKPAVClientSession@@@std@@V?$CustomAllocator@U?$pair@$$CBKPAVClientSession@@@std@@@util@@@std@@QAE?AV?$_Iterator@$00@12@V?$_Const_iterator@$00@12@0@Z 00409420 f i ClientManager.obj
 0001:000084d0       ?_Buynode@?$list@U?$pair@$$CBKPAVClientSession@@@std@@V?$CustomAllocator@U?$pair@$$CBKPAVClientSession@@@std@@@util@@@std@@IAEPAU_Node@?$_List_nod@U?$pair@$$CBKPAVClientSession@@@std@@V?$CustomAllocator@U?$pair@$$CBKPAVClientSession@@@std@@@util@@@2@XZ 004094d0 f i ClientManager.obj
 0001:000085d0       ?_Buynode@?$list@U?$pair@$$CBKPAVClientSession@@@std@@V?$CustomAllocator@U?$pair@$$CBKPAVClientSession@@@std@@@util@@@std@@IAEPAU_Node@?$_List_nod@U?$pair@$$CBKPAVClientSession@@@std@@V?$CustomAllocator@U?$pair@$$CBKPAVClientSession@@@std@@@util@@@2@PAU342@0ABU?$pair@$$CBKPAVClientSession@@@2@@Z 004095d0 f i ClientManager.obj
 0001:00008720       ?_Incsize@?$list@U?$pair@$$CBKPAVClientSession@@@std@@V?$CustomAllocator@U?$pair@$$CBKPAVClientSession@@@std@@@util@@@std@@IAEXI@Z 00409720 f i ClientManager.obj
 0001:000087c0       ??0?$_List_val@U?$pair@$$CBKPAVClientSession@@@std@@V?$CustomAllocator@U?$pair@$$CBKPAVClientSession@@@std@@@util@@@std@@QAE@V?$CustomAllocator@U?$pair@$$CBKPAVClientSession@@@std@@@util@@@Z 004097c0 f i ClientManager.obj
 0001:000087e0       ?_Assign_n@?$vector@U_List_position@?$_Hash@V?$_Hmap_traits@KPAVClientSession@@V?$hash_compare@KU?$less@K@std@@@stdext@@V?$CustomAllocator@PAVClientSession@@@util@@$0A@@stdext@@@stdext@@V?$CustomAllocator@U_List_position@?$_Hash@V?$_Hmap_traits@KPAVClientSession@@V?$hash_compare@KU?$less@K@std@@@stdext@@V?$CustomAllocator@PAVClientSession@@@util@@$0A@@stdext@@@stdext@@@util@@@std@@IAEXIABU_List_position@?$_Hash@V?$_Hmap_traits@KPAVClientSession@@V?$hash_compare@KU?$less@K@std@@@stdext@@V?$CustomAllocator@PAVClientSession@@@util@@$0A@@stdext@@@stdext@@@Z 004097e0 f i ClientManager.obj
 0001:00008880       ?_Buy@?$vector@U_List_position@?$_Hash@V?$_Hmap_traits@KPAVClientSession@@V?$hash_compare@KU?$less@K@std@@@stdext@@V?$CustomAllocator@PAVClientSession@@@util@@$0A@@stdext@@@stdext@@V?$CustomAllocator@U_List_position@?$_Hash@V?$_Hmap_traits@KPAVClientSession@@V?$hash_compare@KU?$less@K@std@@@stdext@@V?$CustomAllocator@PAVClientSession@@@util@@$0A@@stdext@@@stdext@@@util@@@std@@IAE_NI@Z 00409880 f i ClientManager.obj
 0001:00008910       ??0?$_Vector_val@U_List_position@?$_Hash@V?$_Hmap_traits@KPAVClientSession@@V?$hash_compare@KU?$less@K@std@@@stdext@@V?$CustomAllocator@PAVClientSession@@@util@@$0A@@stdext@@@stdext@@V?$CustomAllocator@U_List_position@?$_Hash@V?$_Hmap_traits@KPAVClientSession@@V?$hash_compare@KU?$less@K@std@@@stdext@@V?$CustomAllocator@PAVClientSession@@@util@@$0A@@stdext@@@stdext@@@util@@@std@@IAE@V?$CustomAllocator@U_List_position@?$_Hash@V?$_Hmap_traits@KPAVClientSession@@V?$hash_compare@KU?$less@K@std@@@stdext@@V?$CustomAllocator@PAVClientSession@@@util@@$0A@@stdext@@@stdext@@@util@@@Z 00409910 f i ClientManager.obj
 0001:00008930       ?_Max@?$_Tree@V?$_Tmap_traits@KKU?$less@K@std@@V?$CustomAllocator@K@util@@$0A@@std@@@std@@KAPAU_Node@?$_Tree_nod@V?$_Tmap_traits@KKU?$less@K@std@@V?$CustomAllocator@K@util@@$0A@@std@@@2@PAU342@@Z 00409930 f i ClientManager.obj
 0001:00008930       ?_Max@?$_Tree@V?$_Tmap_traits@KPAUGROUP_DATA@@U?$less@K@std@@V?$CustomAllocator@PAUGROUP_DATA@@@util@@$0A@@std@@@std@@KAPAU_Node@?$_Tree_nod@V?$_Tmap_traits@KPAUGROUP_DATA@@U?$less@K@std@@V?$CustomAllocator@PAUGROUP_DATA@@@util@@$0A@@std@@@2@PAU342@@Z 00409930 f i authcommon:ServerDataManager.obj
 0001:00008930       ?_Max@?$_Tree@V?$_Tmap_traits@KPAVServerData@@U?$less@K@std@@V?$CustomAllocator@PAVServerData@@@util@@$0A@@std@@@std@@KAPAU_Node@?$_Tree_nod@V?$_Tmap_traits@KPAVServerData@@U?$less@K@std@@V?$CustomAllocator@PAVServerData@@@util@@$0A@@std@@@2@PAU342@@Z 00409930 f i authcommon:ServerDataManager.obj
 0001:00008970       ??0_Node@?$_Tree_nod@V?$_Tmap_traits@KKU?$less@K@std@@V?$CustomAllocator@K@util@@$0A@@std@@@std@@QAE@PAU012@00ABU?$pair@$$CBKK@2@D@Z 00409970 f i ClientManager.obj
 0001:00008970       ??0_Node@?$_Tree_nod@V?$_Tmap_traits@KPAUGROUP_DATA@@U?$less@K@std@@V?$CustomAllocator@PAUGROUP_DATA@@@util@@$0A@@std@@@std@@QAE@PAU012@00ABU?$pair@$$CBKPAUGROUP_DATA@@@2@D@Z 00409970 f i authcommon:ServerDataManager.obj
 0001:00008970       ??0_Node@?$_Tree_nod@V?$_Tmap_traits@KPAVServerData@@U?$less@K@std@@V?$CustomAllocator@PAVServerData@@@util@@$0A@@std@@@std@@QAE@PAU012@00ABU?$pair@$$CBKPAVServerData@@@2@D@Z 00409970 f i authcommon:ServerDataManager.obj
 0001:000089c0       ?max_size@?$list@U?$pair@$$CBKPAVClientSession@@@std@@V?$CustomAllocator@U?$pair@$$CBKPAVClientSession@@@std@@@util@@@std@@QBEIXZ 004099c0 f i ClientManager.obj
 0001:000089e0       ??0?$_List_ptr@U?$pair@$$CBKPAVClientSession@@@std@@V?$CustomAllocator@U?$pair@$$CBKPAVClientSession@@@std@@@util@@@std@@IAE@V?$CustomAllocator@U?$pair@$$CBKPAVClientSession@@@std@@@util@@@Z 004099e0 f i ClientManager.obj
 0001:00008a50       ?begin@?$vector@U_List_position@?$_Hash@V?$_Hmap_traits@KPAVClientSession@@V?$hash_compare@KU?$less@K@std@@@stdext@@V?$CustomAllocator@PAVClientSession@@@util@@$0A@@stdext@@@stdext@@V?$CustomAllocator@U_List_position@?$_Hash@V?$_Hmap_traits@KPAVClientSession@@V?$hash_compare@KU?$less@K@std@@@stdext@@V?$CustomAllocator@PAVClientSession@@@util@@$0A@@stdext@@@stdext@@@util@@@std@@QAE?AV?$_Vector_iterator@U_List_position@?$_Hash@V?$_Hmap_traits@KPAVClientSession@@V?$hash_compare@KU?$less@K@std@@@stdext@@V?$CustomAllocator@PAVClientSession@@@util@@$0A@@stdext@@@stdext@@V?$CustomAllocator@U_List_position@?$_Hash@V?$_Hmap_traits@KPAVClientSession@@V?$hash_compare@KU?$less@K@std@@@stdext@@V?$CustomAllocator@PAVClientSession@@@util@@$0A@@stdext@@@stdext@@@util@@@2@XZ 00409a50 f i ClientManager.obj
 0001:00008a80       ?end@?$vector@U_List_position@?$_Hash@V?$_Hmap_traits@KPAVClientSession@@V?$hash_compare@KU?$less@K@std@@@stdext@@V?$CustomAllocator@PAVClientSession@@@util@@$0A@@stdext@@@stdext@@V?$CustomAllocator@U_List_position@?$_Hash@V?$_Hmap_traits@KPAVClientSession@@V?$hash_compare@KU?$less@K@std@@@stdext@@V?$CustomAllocator@PAVClientSession@@@util@@$0A@@stdext@@@stdext@@@util@@@std@@QAE?AV?$_Vector_iterator@U_List_position@?$_Hash@V?$_Hmap_traits@KPAVClientSession@@V?$hash_compare@KU?$less@K@std@@@stdext@@V?$CustomAllocator@PAVClientSession@@@util@@$0A@@stdext@@@stdext@@V?$CustomAllocator@U_List_position@?$_Hash@V?$_Hmap_traits@KPAVClientSession@@V?$hash_compare@KU?$less@K@std@@@stdext@@V?$CustomAllocator@PAVClientSession@@@util@@$0A@@stdext@@@stdext@@@util@@@2@XZ 00409a80 f i ClientManager.obj
 0001:00008ab0       ?insert@?$vector@U_List_position@?$_Hash@V?$_Hmap_traits@KPAVClientSession@@V?$hash_compare@KU?$less@K@std@@@stdext@@V?$CustomAllocator@PAVClientSession@@@util@@$0A@@stdext@@@stdext@@V?$CustomAllocator@U_List_position@?$_Hash@V?$_Hmap_traits@KPAVClientSession@@V?$hash_compare@KU?$less@K@std@@@stdext@@V?$CustomAllocator@PAVClientSession@@@util@@$0A@@stdext@@@stdext@@@util@@@std@@QAEXV?$_Vector_const_iterator@U_List_position@?$_Hash@V?$_Hmap_traits@KPAVClientSession@@V?$hash_compare@KU?$less@K@std@@@stdext@@V?$CustomAllocator@PAVClientSession@@@util@@$0A@@stdext@@@stdext@@V?$CustomAllocator@U_List_position@?$_Hash@V?$_Hmap_traits@KPAVClientSession@@V?$hash_compare@KU?$less@K@std@@@stdext@@V?$CustomAllocator@PAVClientSession@@@util@@$0A@@stdext@@@stdext@@@util@@@2@IABU_List_position@?$_Hash@V?$_Hmap_traits@KPAVClientSession@@V?$hash_compare@KU?$less@K@std@@@stdext@@V?$CustomAllocator@PAVClientSession@@@util@@$0A@@stdext@@@stdext@@@Z 00409ab0 f i ClientManager.obj
 0001:00008ae0       ?erase@?$vector@U_List_position@?$_Hash@V?$_Hmap_traits@KPAVClientSession@@V?$hash_compare@KU?$less@K@std@@@stdext@@V?$CustomAllocator@PAVClientSession@@@util@@$0A@@stdext@@@stdext@@V?$CustomAllocator@U_List_position@?$_Hash@V?$_Hmap_traits@KPAVClientSession@@V?$hash_compare@KU?$less@K@std@@@stdext@@V?$CustomAllocator@PAVClientSession@@@util@@$0A@@stdext@@@stdext@@@util@@@std@@QAE?AV?$_Vector_iterator@U_List_position@?$_Hash@V?$_Hmap_traits@KPAVClientSession@@V?$hash_compare@KU?$less@K@std@@@stdext@@V?$CustomAllocator@PAVClientSession@@@util@@$0A@@stdext@@@stdext@@V?$CustomAllocator@U_List_position@?$_Hash@V?$_Hmap_traits@KPAVClientSession@@V?$hash_compare@KU?$less@K@std@@@stdext@@V?$CustomAllocator@PAVClientSession@@@util@@$0A@@stdext@@@stdext@@@util@@@2@V?$_Vector_const_iterator@U_List_position@?$_Hash@V?$_Hmap_traits@KPAVClientSession@@V?$hash_compare@KU?$less@K@std@@@stdext@@V?$CustomAllocator@PAVClientSession@@@util@@$0A@@stdext@@@stdext@@V?$CustomAllocator@U_List_position@?$_Hash@V?$_Hmap_traits@KPAVClientSession@@V?$hash_compare@KU?$less@K@std@@@stdext@@V?$CustomAllocator@PAVClientSession@@@util@@$0A@@stdext@@@stdext@@@util@@@2@0@Z 00409ae0 f i ClientManager.obj
 0001:00008b80       ?_Xlen@?$vector@V?$basic_string@DU?$char_traits@D@std@@V?$allocator@D@2@@std@@V?$allocator@V?$basic_string@DU?$char_traits@D@std@@V?$allocator@D@2@@std@@@2@@std@@KAXXZ 00409b80 f i authcommon:csvlib.obj
 0001:00008b80       ?_Xlen@?$vector@U_List_position@?$_Hash@V?$_Hmap_traits@KPAVClientSession@@V?$hash_compare@KU?$less@K@std@@@stdext@@V?$CustomAllocator@PAVClientSession@@@util@@$0A@@stdext@@@stdext@@V?$CustomAllocator@U_List_position@?$_Hash@V?$_Hmap_traits@KPAVClientSession@@V?$hash_compare@KU?$less@K@std@@@stdext@@V?$CustomAllocator@PAVClientSession@@@util@@$0A@@stdext@@@stdext@@@util@@@std@@KAXXZ 00409b80 f i ClientManager.obj
 0001:00008c00       ??0?$_List_nod@U?$pair@$$CBKPAVClientSession@@@std@@V?$CustomAllocator@U?$pair@$$CBKPAVClientSession@@@std@@@util@@@std@@IAE@V?$CustomAllocator@U?$pair@$$CBKPAVClientSession@@@std@@@util@@@Z 00409c00 f i ClientManager.obj
 0001:00008c70       ?_Make_iter@?$vector@U_List_position@?$_Hash@V?$_Hmap_traits@KPAVClientSession@@V?$hash_compare@KU?$less@K@std@@@stdext@@V?$CustomAllocator@PAVClientSession@@@util@@$0A@@stdext@@@stdext@@V?$CustomAllocator@U_List_position@?$_Hash@V?$_Hmap_traits@KPAVClientSession@@V?$hash_compare@KU?$less@K@std@@@stdext@@V?$CustomAllocator@PAVClientSession@@@util@@$0A@@stdext@@@stdext@@@util@@@std@@QBE?AV?$_Vector_iterator@U_List_position@?$_Hash@V?$_Hmap_traits@KPAVClientSession@@V?$hash_compare@KU?$less@K@std@@@stdext@@V?$CustomAllocator@PAVClientSession@@@util@@$0A@@stdext@@@stdext@@V?$CustomAllocator@U_List_position@?$_Hash@V?$_Hmap_traits@KPAVClientSession@@V?$hash_compare@KU?$less@K@std@@@stdext@@V?$CustomAllocator@PAVClientSession@@@util@@$0A@@stdext@@@stdext@@@util@@@2@V?$_Vector_const_iterator@U_List_position@?$_Hash@V?$_Hmap_traits@KPAVClientSession@@V?$hash_compare@KU?$less@K@std@@@stdext@@V?$CustomAllocator@PAVClientSession@@@util@@$0A@@stdext@@@stdext@@V?$CustomAllocator@U_List_position@?$_Hash@V?$_Hmap_traits@KPAVClientSession@@V?$hash_compare@KU?$less@K@std@@@stdext@@V?$CustomAllocator@PAVClientSession@@@util@@$0A@@stdext@@@stdext@@@util@@@2@@Z 00409c70 f i ClientManager.obj
 0001:00008c90       ?_Insert_n@?$vector@U_List_position@?$_Hash@V?$_Hmap_traits@KPAVClientSession@@V?$hash_compare@KU?$less@K@std@@@stdext@@V?$CustomAllocator@PAVClientSession@@@util@@$0A@@stdext@@@stdext@@V?$CustomAllocator@U_List_position@?$_Hash@V?$_Hmap_traits@KPAVClientSession@@V?$hash_compare@KU?$less@K@std@@@stdext@@V?$CustomAllocator@PAVClientSession@@@util@@$0A@@stdext@@@stdext@@@util@@@std@@IAEXV?$_Vector_const_iterator@U_List_position@?$_Hash@V?$_Hmap_traits@KPAVClientSession@@V?$hash_compare@KU?$less@K@std@@@stdext@@V?$CustomAllocator@PAVClientSession@@@util@@$0A@@stdext@@@stdext@@V?$CustomAllocator@U_List_position@?$_Hash@V?$_Hmap_traits@KPAVClientSession@@V?$hash_compare@KU?$less@K@std@@@stdext@@V?$CustomAllocator@PAVClientSession@@@util@@$0A@@stdext@@@stdext@@@util@@@2@IABU_List_position@?$_Hash@V?$_Hmap_traits@KPAVClientSession@@V?$hash_compare@KU?$less@K@std@@@stdext@@V?$CustomAllocator@PAVClientSession@@@util@@$0A@@stdext@@@stdext@@@Z 00409c90 f i ClientManager.obj
 0001:00009040       ??0?$_Vector_iterator@U_List_position@?$_Hash@V?$_Hmap_traits@KPAVClientSession@@V?$hash_compare@KU?$less@K@std@@@stdext@@V?$CustomAllocator@PAVClientSession@@@util@@$0A@@stdext@@@stdext@@V?$CustomAllocator@U_List_position@?$_Hash@V?$_Hmap_traits@KPAVClientSession@@V?$hash_compare@KU?$less@K@std@@@stdext@@V?$CustomAllocator@PAVClientSession@@@util@@$0A@@stdext@@@stdext@@@util@@@std@@QAE@PAU_List_position@?$_Hash@V?$_Hmap_traits@KPAVClientSession@@V?$hash_compare@KU?$less@K@std@@@stdext@@V?$CustomAllocator@PAVClientSession@@@util@@$0A@@stdext@@@stdext@@PBV_Container_base_aux@1@@Z 0040a040 f i ClientManager.obj
 0001:00009060       ??9?$_Vector_const_iterator@U_List_position@?$_Hash@V?$_Hmap_traits@KPAVClientSession@@V?$hash_compare@KU?$less@K@std@@@stdext@@V?$CustomAllocator@PAVClientSession@@@util@@$0A@@stdext@@@stdext@@V?$CustomAllocator@U_List_position@?$_Hash@V?$_Hmap_traits@KPAVClientSession@@V?$hash_compare@KU?$less@K@std@@@stdext@@V?$CustomAllocator@PAVClientSession@@@util@@$0A@@stdext@@@stdext@@@util@@@std@@QBE_NABV01@@Z 0040a060 f i ClientManager.obj
 0001:00009060       ??9const_iterator@?$_Tree@V?$_Tmap_traits@KKU?$less@K@std@@V?$CustomAllocator@K@util@@$0A@@std@@@std@@QBE_NABV012@@Z 0040a060 f i ClientManager.obj
 0001:00009090       ??0?$_Container_base_aux_alloc_real@V?$CustomAllocator@PAUGROUP_DATA@@@util@@@std@@IAE@V?$CustomAllocator@PAUGROUP_DATA@@@util@@@Z 0040a090 f i authcommon:ServerDataManager.obj
 0001:00009090       ??0?$_Container_base_aux_alloc_real@V?$CustomAllocator@U?$pair@$$CBKPAVClientSession@@@std@@@util@@@std@@IAE@V?$CustomAllocator@U?$pair@$$CBKPAVClientSession@@@std@@@util@@@Z 0040a090 f i ClientManager.obj
 0001:00009090       ??0?$_Container_base_aux_alloc_real@V?$CustomAllocator@U_List_position@?$_Hash@V?$_Hmap_traits@KPAVClientSession@@V?$hash_compare@KU?$less@K@std@@@stdext@@V?$CustomAllocator@PAVClientSession@@@util@@$0A@@stdext@@@stdext@@@util@@@std@@IAE@V?$CustomAllocator@U_List_position@?$_Hash@V?$_Hmap_traits@KPAVClientSession@@V?$hash_compare@KU?$less@K@std@@@stdext@@V?$CustomAllocator@PAVClientSession@@@util@@$0A@@stdext@@@stdext@@@util@@@Z 0040a090 f i ClientManager.obj
 0001:00009090       ??0?$_Container_base_aux_alloc_real@V?$CustomAllocator@K@util@@@std@@IAE@V?$CustomAllocator@K@util@@@Z 0040a090 f i ClientManager.obj
 0001:00009090       ??0?$_Container_base_aux_alloc_real@V?$CustomAllocator@PAVServerData@@@util@@@std@@IAE@V?$CustomAllocator@PAVServerData@@@util@@@Z 0040a090 f i authcommon:ServerDataManager.obj
 0001:00009150       ?capacity@?$vector@U_List_position@?$_Hash@V?$_Hmap_traits@KPAVClientSession@@V?$hash_compare@KU?$less@K@std@@@stdext@@V?$CustomAllocator@PAVClientSession@@@util@@$0A@@stdext@@@stdext@@V?$CustomAllocator@U_List_position@?$_Hash@V?$_Hmap_traits@KPAVClientSession@@V?$hash_compare@KU?$less@K@std@@@stdext@@V?$CustomAllocator@PAVClientSession@@@util@@$0A@@stdext@@@stdext@@@util@@@std@@QBEIXZ 0040a150 f i ClientManager.obj
 0001:00009190       ?_Ufill@?$vector@U_List_position@?$_Hash@V?$_Hmap_traits@KPAVClientSession@@V?$hash_compare@KU?$less@K@std@@@stdext@@V?$CustomAllocator@PAVClientSession@@@util@@$0A@@stdext@@@stdext@@V?$CustomAllocator@U_List_position@?$_Hash@V?$_Hmap_traits@KPAVClientSession@@V?$hash_compare@KU?$less@K@std@@@stdext@@V?$CustomAllocator@PAVClientSession@@@util@@$0A@@stdext@@@stdext@@@util@@@std@@IAEPAU_List_position@?$_Hash@V?$_Hmap_traits@KPAVClientSession@@V?$hash_compare@KU?$less@K@std@@@stdext@@V?$CustomAllocator@PAVClientSession@@@util@@$0A@@stdext@@@stdext@@PAU345@IABU345@@Z 0040a190 f i ClientManager.obj
 0001:000091d0       ??0?$_Vector_const_iterator@U_List_position@?$_Hash@V?$_Hmap_traits@KPAVClientSession@@V?$hash_compare@KU?$less@K@std@@@stdext@@V?$CustomAllocator@PAVClientSession@@@util@@$0A@@stdext@@@stdext@@V?$CustomAllocator@U_List_position@?$_Hash@V?$_Hmap_traits@KPAVClientSession@@V?$hash_compare@KU?$less@K@std@@@stdext@@V?$CustomAllocator@PAVClientSession@@@util@@$0A@@stdext@@@stdext@@@util@@@std@@QAE@PAU_List_position@?$_Hash@V?$_Hmap_traits@KPAVClientSession@@V?$hash_compare@KU?$less@K@std@@@stdext@@V?$CustomAllocator@PAVClientSession@@@util@@$0A@@stdext@@@stdext@@PBV_Container_base_aux@1@@Z 0040a1d0 f i ClientManager.obj
 0001:00009220       ??8const_iterator@?$_Tree@V?$_Tmap_traits@KKU?$less@K@std@@V?$CustomAllocator@K@util@@$0A@@std@@@std@@QBE_NABV012@@Z 0040a220 f i ClientManager.obj
 0001:00009220       ??8?$_Vector_const_iterator@U_List_position@?$_Hash@V?$_Hmap_traits@KPAVClientSession@@V?$hash_compare@KU?$less@K@std@@@stdext@@V?$CustomAllocator@PAVClientSession@@@util@@$0A@@stdext@@@stdext@@V?$CustomAllocator@U_List_position@?$_Hash@V?$_Hmap_traits@KPAVClientSession@@V?$hash_compare@KU?$less@K@std@@@stdext@@V?$CustomAllocator@PAVClientSession@@@util@@$0A@@stdext@@@stdext@@@util@@@std@@QBE_NABV01@@Z 0040a220 f i ClientManager.obj
 0001:00009270       ?allocate@?$CustomAllocator@U_Node@?$_List_nod@U?$pair@$$CBKPAVClientSession@@@std@@V?$CustomAllocator@U?$pair@$$CBKPAVClientSession@@@std@@@util@@@std@@@util@@QAEPAU_Node@?$_List_nod@U?$pair@$$CBKPAVClientSession@@@std@@V?$CustomAllocator@U?$pair@$$CBKPAVClientSession@@@std@@@util@@@std@@IPBX@Z 0040a270 f i ClientManager.obj
 0001:00009290       ?construct@?$CustomAllocator@PAU_Node@?$_List_nod@U?$pair@$$CBKPAVClientSession@@@std@@V?$CustomAllocator@U?$pair@$$CBKPAVClientSession@@@std@@@util@@@std@@@util@@QAEXPAPAU_Node@?$_List_nod@U?$pair@$$CBKPAVClientSession@@@std@@V?$CustomAllocator@U?$pair@$$CBKPAVClientSession@@@std@@@util@@@std@@ABQAU345@@Z 0040a290 f i ClientManager.obj
 0001:00009290       ?construct@?$CustomAllocator@PAU_Node@?$_Tree_nod@V?$_Tmap_traits@KKU?$less@K@std@@V?$CustomAllocator@K@util@@$0A@@std@@@std@@@util@@QAEXPAPAU_Node@?$_Tree_nod@V?$_Tmap_traits@KKU?$less@K@std@@V?$CustomAllocator@K@util@@$0A@@std@@@std@@ABQAU345@@Z 0040a290 f i ClientManager.obj
 0001:00009290       ?construct@?$CustomAllocator@PAU_Node@?$_Tree_nod@V?$_Tmap_traits@KPAUGROUP_DATA@@U?$less@K@std@@V?$CustomAllocator@PAUGROUP_DATA@@@util@@$0A@@std@@@std@@@util@@QAEXPAPAU_Node@?$_Tree_nod@V?$_Tmap_traits@KPAUGROUP_DATA@@U?$less@K@std@@V?$CustomAllocator@PAUGROUP_DATA@@@util@@$0A@@std@@@std@@ABQAU345@@Z 0040a290 f i authcommon:ServerDataManager.obj
 0001:00009290       ?construct@?$CustomAllocator@PAU_Node@?$_Tree_nod@V?$_Tmap_traits@KPAVServerData@@U?$less@K@std@@V?$CustomAllocator@PAVServerData@@@util@@$0A@@std@@@std@@@util@@QAEXPAPAU_Node@?$_Tree_nod@V?$_Tmap_traits@KPAVServerData@@U?$less@K@std@@V?$CustomAllocator@PAVServerData@@@util@@$0A@@std@@@std@@ABQAU345@@Z 0040a290 f i authcommon:ServerDataManager.obj
 0001:000092d0       ?destroy@?$CustomAllocator@PAU_Node@?$_Tree_nod@V?$_Tmap_traits@KPAVServerData@@U?$less@K@std@@V?$CustomAllocator@PAVServerData@@@util@@$0A@@std@@@std@@@util@@QAEXPAPAU_Node@?$_Tree_nod@V?$_Tmap_traits@KPAVServerData@@U?$less@K@std@@V?$CustomAllocator@PAVServerData@@@util@@$0A@@std@@@std@@@Z 0040a2d0 f i authcommon:ServerDataManager.obj
 0001:000092d0       ?destroy@?$CustomAllocator@U_Node@?$_Tree_nod@V?$_Tmap_traits@KPAUGROUP_DATA@@U?$less@K@std@@V?$CustomAllocator@PAUGROUP_DATA@@@util@@$0A@@std@@@std@@@util@@QAEXPAU_Node@?$_Tree_nod@V?$_Tmap_traits@KPAUGROUP_DATA@@U?$less@K@std@@V?$CustomAllocator@PAUGROUP_DATA@@@util@@$0A@@std@@@std@@@Z 0040a2d0 f i authcommon:ServerDataManager.obj
 0001:000092d0       ?destroy@?$CustomAllocator@U_Node@?$_List_nod@U?$pair@$$CBKPAVClientSession@@@std@@V?$CustomAllocator@U?$pair@$$CBKPAVClientSession@@@std@@@util@@@std@@@util@@QAEXPAU_Node@?$_List_nod@U?$pair@$$CBKPAVClientSession@@@std@@V?$CustomAllocator@U?$pair@$$CBKPAVClientSession@@@std@@@util@@@std@@@Z 0040a2d0 f i ClientManager.obj
 0001:000092d0       ?destroy@?$CustomAllocator@U_Node@?$_Tree_nod@V?$_Tmap_traits@KKU?$less@K@std@@V?$CustomAllocator@K@util@@$0A@@std@@@std@@@util@@QAEXPAU_Node@?$_Tree_nod@V?$_Tmap_traits@KKU?$less@K@std@@V?$CustomAllocator@K@util@@$0A@@std@@@std@@@Z 0040a2d0 f i ClientManager.obj
 0001:000092d0       ?destroy@?$CustomAllocator@U_Node@?$_Tree_nod@V?$_Tmap_traits@KPAVServerData@@U?$less@K@std@@V?$CustomAllocator@PAVServerData@@@util@@$0A@@std@@@std@@@util@@QAEXPAU_Node@?$_Tree_nod@V?$_Tmap_traits@KPAVServerData@@U?$less@K@std@@V?$CustomAllocator@PAVServerData@@@util@@$0A@@std@@@std@@@Z 0040a2d0 f i authcommon:ServerDataManager.obj
 0001:000092d0       ?destroy@?$CustomAllocator@PAU_Node@?$_Tree_nod@V?$_Tmap_traits@KKU?$less@K@std@@V?$CustomAllocator@K@util@@$0A@@std@@@std@@@util@@QAEXPAPAU_Node@?$_Tree_nod@V?$_Tmap_traits@KKU?$less@K@std@@V?$CustomAllocator@K@util@@$0A@@std@@@std@@@Z 0040a2d0 f i ClientManager.obj
 0001:000092d0       ?imbue@?$basic_streambuf@DU?$char_traits@D@std@@@std@@MAEXABVlocale@2@@Z 0040a2d0 f i authcommon:csvlib.obj
 0001:000092d0       ?destroy@?$CustomAllocator@PAU_Node@?$_List_nod@U?$pair@$$CBKPAVClientSession@@@std@@V?$CustomAllocator@U?$pair@$$CBKPAVClientSession@@@std@@@util@@@std@@@util@@QAEXPAPAU_Node@?$_List_nod@U?$pair@$$CBKPAVClientSession@@@std@@V?$CustomAllocator@U?$pair@$$CBKPAVClientSession@@@std@@@util@@@std@@@Z 0040a2d0 f i ClientManager.obj
 0001:000092d0       ?SetTypeName@IMemoryPoolFactoryImpl@internal@util@@UAEXPBD@Z 0040a2d0 f i LoginFrontFrame.obj
 0001:000092d0       ?_Init@?$codecvt@DDH@std@@IAEXABV_Locinfo@2@@Z 0040a2d0 f i authcommon:csvlib.obj
 0001:000092d0       ?destroy@?$CustomAllocator@PAU_Node@?$_Tree_nod@V?$_Tmap_traits@KPAUGROUP_DATA@@U?$less@K@std@@V?$CustomAllocator@PAUGROUP_DATA@@@util@@$0A@@std@@@std@@@util@@QAEXPAPAU_Node@?$_Tree_nod@V?$_Tmap_traits@KPAUGROUP_DATA@@U?$less@K@std@@V?$CustomAllocator@PAUGROUP_DATA@@@util@@$0A@@std@@@std@@@Z 0040a2d0 f i authcommon:ServerDataManager.obj
 0001:000092d0       ?destroy@?$CustomAllocator@U_List_position@?$_Hash@V?$_Hmap_traits@KPAVClientSession@@V?$hash_compare@KU?$less@K@std@@@stdext@@V?$CustomAllocator@PAVClientSession@@@util@@$0A@@stdext@@@stdext@@@util@@QAEXPAU_List_position@?$_Hash@V?$_Hmap_traits@KPAVClientSession@@V?$hash_compare@KU?$less@K@std@@@stdext@@V?$CustomAllocator@PAVClientSession@@@util@@$0A@@stdext@@@stdext@@@Z 0040a2d0 f i ClientManager.obj
 0001:000092e0       ?allocate@?$CustomAllocator@U_List_position@?$_Hash@V?$_Hmap_traits@KPAVClientSession@@V?$hash_compare@KU?$less@K@std@@@stdext@@V?$CustomAllocator@PAVClientSession@@@util@@$0A@@stdext@@@stdext@@@util@@QAEPAU_List_position@?$_Hash@V?$_Hmap_traits@KPAVClientSession@@V?$hash_compare@KU?$less@K@std@@@stdext@@V?$CustomAllocator@PAVClientSession@@@util@@$0A@@stdext@@@stdext@@IPBX@Z 0040a2e0 f i ClientManager.obj
 0001:00009300       ?max_size@?$CustomAllocator@U?$pair@$$CBKPAVClientSession@@@std@@@util@@QBEIXZ 0040a300 f i ClientManager.obj
 0001:00009300       ?max_size@?$CustomAllocator@U?$pair@$$CBKPAUGROUP_DATA@@@std@@@util@@QBEIXZ 0040a300 f i authcommon:ServerDataManager.obj
 0001:00009300       ?max_size@?$CustomAllocator@U?$pair@$$CBKK@std@@@util@@QBEIXZ 0040a300 f i ClientManager.obj
 0001:00009300       ?max_size@?$CustomAllocator@U?$pair@$$CBKPAVServerData@@@std@@@util@@QBEIXZ 0040a300 f i authcommon:ServerDataManager.obj
 0001:00009300       ?max_size@?$CustomAllocator@U_List_position@?$_Hash@V?$_Hmap_traits@KPAVClientSession@@V?$hash_compare@KU?$less@K@std@@@stdext@@V?$CustomAllocator@PAVClientSession@@@util@@$0A@@stdext@@@stdext@@@util@@QBEIXZ 0040a300 f i ClientManager.obj
 0001:00009330       ?allocate@?$CustomAllocator@U_Node@?$_Tree_nod@V?$_Tmap_traits@KPAVServerData@@U?$less@K@std@@V?$CustomAllocator@PAVServerData@@@util@@$0A@@std@@@std@@@util@@QAEPAU_Node@?$_Tree_nod@V?$_Tmap_traits@KPAVServerData@@U?$less@K@std@@V?$CustomAllocator@PAVServerData@@@util@@$0A@@std@@@std@@IPBX@Z 0040a330 f i authcommon:ServerDataManager.obj
 0001:00009330       ?allocate@?$CustomAllocator@U_Node@?$_Tree_nod@V?$_Tmap_traits@KPAUGROUP_DATA@@U?$less@K@std@@V?$CustomAllocator@PAUGROUP_DATA@@@util@@$0A@@std@@@std@@@util@@QAEPAU_Node@?$_Tree_nod@V?$_Tmap_traits@KPAUGROUP_DATA@@U?$less@K@std@@V?$CustomAllocator@PAUGROUP_DATA@@@util@@$0A@@std@@@std@@IPBX@Z 0040a330 f i authcommon:ServerDataManager.obj
 0001:00009330       ?allocate@?$CustomAllocator@U_Node@?$_Tree_nod@V?$_Tmap_traits@KKU?$less@K@std@@V?$CustomAllocator@K@util@@$0A@@std@@@std@@@util@@QAEPAU_Node@?$_Tree_nod@V?$_Tmap_traits@KKU?$less@K@std@@V?$CustomAllocator@K@util@@$0A@@std@@@std@@IPBX@Z 0040a330 f i ClientManager.obj
 0001:00009350       ?allocate@?$CustomAllocator@V_Aux_cont@std@@@util@@QAEPAV_Aux_cont@std@@IPBX@Z 0040a350 f i ClientManager.obj
 0001:00009370       ?deallocate@?$CustomAllocator@U_Node@?$_Tree_nod@V?$_Tmap_traits@KKU?$less@K@std@@V?$CustomAllocator@K@util@@$0A@@std@@@std@@@util@@QAEXPAXI@Z 0040a370 f i ClientManager.obj
 0001:00009370       ?deallocate@?$CustomAllocator@U_Node@?$_Tree_nod@V?$_Tmap_traits@KPAVServerData@@U?$less@K@std@@V?$CustomAllocator@PAVServerData@@@util@@$0A@@std@@@std@@@util@@QAEXPAXI@Z 0040a370 f i authcommon:ServerDataManager.obj
 0001:00009370       ?deallocate@?$CustomAllocator@U_Node@?$_Tree_nod@V?$_Tmap_traits@KPAUGROUP_DATA@@U?$less@K@std@@V?$CustomAllocator@PAUGROUP_DATA@@@util@@$0A@@std@@@std@@@util@@QAEXPAXI@Z 0040a370 f i authcommon:ServerDataManager.obj
 0001:00009370       ?deallocate@?$CustomAllocator@V_Aux_cont@std@@@util@@QAEXPAXI@Z 0040a370 f i ClientManager.obj
 0001:00009370       ?deallocate@?$CustomAllocator@U_Node@?$_List_nod@U?$pair@$$CBKPAVClientSession@@@std@@V?$CustomAllocator@U?$pair@$$CBKPAVClientSession@@@std@@@util@@@std@@@util@@QAEXPAXI@Z 0040a370 f i ClientManager.obj
 0001:00009370       ?deallocate@?$CustomAllocator@U_List_position@?$_Hash@V?$_Hmap_traits@KPAVClientSession@@V?$hash_compare@KU?$less@K@std@@@stdext@@V?$CustomAllocator@PAVClientSession@@@util@@$0A@@stdext@@@stdext@@@util@@QAEXPAXI@Z 0040a370 f i ClientManager.obj
 0001:00009390       ??$hash_value@K@stdext@@YAIABK@Z 0040a390 f i ClientManager.obj
 0001:000093a0       ??$insert@V?$_Const_iterator@$00@?$list@U?$pair@$$CBKPAVClientSession@@@std@@V?$CustomAllocator@U?$pair@$$CBKPAVClientSession@@@std@@@util@@@std@@@?$list@U?$pair@$$CBKPAVClientSession@@@std@@V?$CustomAllocator@U?$pair@$$CBKPAVClientSession@@@std@@@util@@@std@@QAEXV?$_Const_iterator@$00@01@00@Z 0040a3a0 f i ClientManager.obj
 0001:000093f0       ??$_Destroy_range@V?$CustomAllocator@U_List_position@?$_Hash@V?$_Hmap_traits@KPAVClientSession@@V?$hash_compare@KU?$less@K@std@@@stdext@@V?$CustomAllocator@PAVClientSession@@@util@@$0A@@stdext@@@stdext@@@util@@@std@@YAXPAU_List_position@?$_Hash@V?$_Hmap_traits@KPAVClientSession@@V?$hash_compare@KU?$less@K@std@@@stdext@@V?$CustomAllocator@PAVClientSession@@@util@@$0A@@stdext@@@stdext@@0AAV?$CustomAllocator@U_List_position@?$_Hash@V?$_Hmap_traits@KPAVClientSession@@V?$hash_compare@KU?$less@K@std@@@stdext@@V?$CustomAllocator@PAVClientSession@@@util@@$0A@@stdext@@@stdext@@@util@@@Z 0040a3f0 f i ClientManager.obj
 0001:00009430       ??$swap@D@std@@YAXAAD0@Z   0040a430 f i ClientManager.obj
 0001:00009460       ??$unchecked_copy@PAU_List_position@?$_Hash@V?$_Hmap_traits@KPAVClientSession@@V?$hash_compare@KU?$less@K@std@@@stdext@@V?$CustomAllocator@PAVClientSession@@@util@@$0A@@stdext@@@stdext@@PAU123@@stdext@@YAPAU_List_position@?$_Hash@V?$_Hmap_traits@KPAVClientSession@@V?$hash_compare@KU?$less@K@std@@@stdext@@V?$CustomAllocator@PAVClientSession@@@util@@$0A@@stdext@@@0@PAU120@00@Z 0040a460 f i ClientManager.obj
 0001:000094d0       ??$_Umove@PAU_List_position@?$_Hash@V?$_Hmap_traits@KPAVClientSession@@V?$hash_compare@KU?$less@K@std@@@stdext@@V?$CustomAllocator@PAVClientSession@@@util@@$0A@@stdext@@@stdext@@@?$vector@U_List_position@?$_Hash@V?$_Hmap_traits@KPAVClientSession@@V?$hash_compare@KU?$less@K@std@@@stdext@@V?$CustomAllocator@PAVClientSession@@@util@@$0A@@stdext@@@stdext@@V?$CustomAllocator@U_List_position@?$_Hash@V?$_Hmap_traits@KPAVClientSession@@V?$hash_compare@KU?$less@K@std@@@stdext@@V?$CustomAllocator@PAVClientSession@@@util@@$0A@@stdext@@@stdext@@@util@@@std@@IAEPAU_List_position@?$_Hash@V?$_Hmap_traits@KPAVClientSession@@V?$hash_compare@KU?$less@K@std@@@stdext@@V?$CustomAllocator@PAVClientSession@@@util@@$0A@@stdext@@@stdext@@PAU234@00@Z 0040a4d0 f i ClientManager.obj
 0001:00009500       ??$fill@PAU_List_position@?$_Hash@V?$_Hmap_traits@KPAVClientSession@@V?$hash_compare@KU?$less@K@std@@@stdext@@V?$CustomAllocator@PAVClientSession@@@util@@$0A@@stdext@@@stdext@@U123@@std@@YAXPAU_List_position@?$_Hash@V?$_Hmap_traits@KPAVClientSession@@V?$hash_compare@KU?$less@K@std@@@stdext@@V?$CustomAllocator@PAVClientSession@@@util@@$0A@@stdext@@@stdext@@0ABU123@@Z 0040a500 f i ClientManager.obj
 0001:00009530       ??$_Unchecked_move_backward@PAU_List_position@?$_Hash@V?$_Hmap_traits@KPAVClientSession@@V?$hash_compare@KU?$less@K@std@@@stdext@@V?$CustomAllocator@PAVClientSession@@@util@@$0A@@stdext@@@stdext@@PAU123@@stdext@@YAPAU_List_position@?$_Hash@V?$_Hmap_traits@KPAVClientSession@@V?$hash_compare@KU?$less@K@std@@@stdext@@V?$CustomAllocator@PAVClientSession@@@util@@$0A@@stdext@@@0@PAU120@00@Z 0040a530 f i ClientManager.obj
 0001:000095a0       ??$unchecked_uninitialized_fill_n@PAU_List_position@?$_Hash@V?$_Hmap_traits@KPAVClientSession@@V?$hash_compare@KU?$less@K@std@@@stdext@@V?$CustomAllocator@PAVClientSession@@@util@@$0A@@stdext@@@stdext@@IU123@V?$CustomAllocator@U_List_position@?$_Hash@V?$_Hmap_traits@KPAVClientSession@@V?$hash_compare@KU?$less@K@std@@@stdext@@V?$CustomAllocator@PAVClientSession@@@util@@$0A@@stdext@@@stdext@@@util@@@stdext@@YAXPAU_List_position@?$_Hash@V?$_Hmap_traits@KPAVClientSession@@V?$hash_compare@KU?$less@K@std@@@stdext@@V?$CustomAllocator@PAVClientSession@@@util@@$0A@@stdext@@@0@IABU120@AAV?$CustomAllocator@U_List_position@?$_Hash@V?$_Hmap_traits@KPAVClientSession@@V?$hash_compare@KU?$less@K@std@@@stdext@@V?$CustomAllocator@PAVClientSession@@@util@@$0A@@stdext@@@stdext@@@util@@@Z 0040a5a0 f i ClientManager.obj
 0001:000095f0       ??$_Insert@V?$_Const_iterator@$00@?$list@U?$pair@$$CBKPAVClientSession@@@std@@V?$CustomAllocator@U?$pair@$$CBKPAVClientSession@@@std@@@util@@@std@@@?$list@U?$pair@$$CBKPAVClientSession@@@std@@V?$CustomAllocator@U?$pair@$$CBKPAVClientSession@@@std@@@util@@@std@@QAEXV?$_Const_iterator@$00@01@00Uforward_iterator_tag@1@@Z 0040a5f0 f i ClientManager.obj
 0001:000096f0       ??$_Destroy_range@V?$CustomAllocator@U_List_position@?$_Hash@V?$_Hmap_traits@KPAVClientSession@@V?$hash_compare@KU?$less@K@std@@@stdext@@V?$CustomAllocator@PAVClientSession@@@util@@$0A@@stdext@@@stdext@@@util@@@std@@YAXPAU_List_position@?$_Hash@V?$_Hmap_traits@KPAVClientSession@@V?$hash_compare@KU?$less@K@std@@@stdext@@V?$CustomAllocator@PAVClientSession@@@util@@$0A@@stdext@@@stdext@@0AAV?$CustomAllocator@U_List_position@?$_Hash@V?$_Hmap_traits@KPAVClientSession@@V?$hash_compare@KU?$less@K@std@@@stdext@@V?$CustomAllocator@PAVClientSession@@@util@@$0A@@stdext@@@stdext@@@util@@U_Nonscalar_ptr_iterator_tag@0@@Z 0040a6f0 f i ClientManager.obj
 0001:00009720       ??$_Checked_base@PAU_List_position@?$_Hash@V?$_Hmap_traits@KPAVClientSession@@V?$hash_compare@KU?$less@K@std@@@stdext@@V?$CustomAllocator@PAVClientSession@@@util@@$0A@@stdext@@@stdext@@@std@@YAPAU_List_position@?$_Hash@V?$_Hmap_traits@KPAVClientSession@@V?$hash_compare@KU?$less@K@std@@@stdext@@V?$CustomAllocator@PAVClientSession@@@util@@$0A@@stdext@@@stdext@@AAPAU123@@Z 0040a720 f i ClientManager.obj
 0001:00009720       ??$_Checked_base@PAV?$basic_string@DU?$char_traits@D@std@@V?$allocator@D@2@@std@@@std@@YAPAV?$basic_string@DU?$char_traits@D@std@@V?$allocator@D@2@@0@AAPAV10@@Z 0040a720 f i authcommon:csvlib.obj
 0001:00009740       ??$_Copy_opt@PAU_List_position@?$_Hash@V?$_Hmap_traits@KPAVClientSession@@V?$hash_compare@KU?$less@K@std@@@stdext@@V?$CustomAllocator@PAVClientSession@@@util@@$0A@@stdext@@@stdext@@PAU123@@std@@YAPAU_List_position@?$_Hash@V?$_Hmap_traits@KPAVClientSession@@V?$hash_compare@KU?$less@K@std@@@stdext@@V?$CustomAllocator@PAVClientSession@@@util@@$0A@@stdext@@@stdext@@PAU123@00Urandom_access_iterator_tag@0@U_Nonscalar_ptr_iterator_tag@0@U_Range_checked_iterator_tag@0@@Z 0040a740 f i ClientManager.obj
 0001:000097a0       ??$_Unchecked_uninitialized_move@PAU_List_position@?$_Hash@V?$_Hmap_traits@KPAVClientSession@@V?$hash_compare@KU?$less@K@std@@@stdext@@V?$CustomAllocator@PAVClientSession@@@util@@$0A@@stdext@@@stdext@@PAU123@V?$CustomAllocator@U_List_position@?$_Hash@V?$_Hmap_traits@KPAVClientSession@@V?$hash_compare@KU?$less@K@std@@@stdext@@V?$CustomAllocator@PAVClientSession@@@util@@$0A@@stdext@@@stdext@@@util@@@stdext@@YAPAU_List_position@?$_Hash@V?$_Hmap_traits@KPAVClientSession@@V?$hash_compare@KU?$less@K@std@@@stdext@@V?$CustomAllocator@PAVClientSession@@@util@@$0A@@stdext@@@0@PAU120@00AAV?$CustomAllocator@U_List_position@?$_Hash@V?$_Hmap_traits@KPAVClientSession@@V?$hash_compare@KU?$less@K@std@@@stdext@@V?$CustomAllocator@PAVClientSession@@@util@@$0A@@stdext@@@stdext@@@util@@@Z 0040a7a0 f i ClientManager.obj
 0001:000097f0       ??$_Fill@PAU_List_position@?$_Hash@V?$_Hmap_traits@KPAVClientSession@@V?$hash_compare@KU?$less@K@std@@@stdext@@V?$CustomAllocator@PAVClientSession@@@util@@$0A@@stdext@@@stdext@@U123@@std@@YAXPAU_List_position@?$_Hash@V?$_Hmap_traits@KPAVClientSession@@V?$hash_compare@KU?$less@K@std@@@stdext@@V?$CustomAllocator@PAVClientSession@@@util@@$0A@@stdext@@@stdext@@0ABU123@@Z 0040a7f0 f i ClientManager.obj
 0001:00009820       ??$_Move_backward_opt@PAU_List_position@?$_Hash@V?$_Hmap_traits@KPAVClientSession@@V?$hash_compare@KU?$less@K@std@@@stdext@@V?$CustomAllocator@PAVClientSession@@@util@@$0A@@stdext@@@stdext@@PAU123@Urandom_access_iterator_tag@std@@U_Undefined_move_tag@5@@std@@YAPAU_List_position@?$_Hash@V?$_Hmap_traits@KPAVClientSession@@V?$hash_compare@KU?$less@K@std@@@stdext@@V?$CustomAllocator@PAVClientSession@@@util@@$0A@@stdext@@@stdext@@PAU123@00Urandom_access_iterator_tag@0@U_Undefined_move_tag@0@U_Range_checked_iterator_tag@0@@Z 0040a820 f i ClientManager.obj
 0001:00009870       ??$_Uninit_fill_n@PAU_List_position@?$_Hash@V?$_Hmap_traits@KPAVClientSession@@V?$hash_compare@KU?$less@K@std@@@stdext@@V?$CustomAllocator@PAVClientSession@@@util@@$0A@@stdext@@@stdext@@IU123@V?$CustomAllocator@U_List_position@?$_Hash@V?$_Hmap_traits@KPAVClientSession@@V?$hash_compare@KU?$less@K@std@@@stdext@@V?$CustomAllocator@PAVClientSession@@@util@@$0A@@stdext@@@stdext@@@util@@@std@@YAXPAU_List_position@?$_Hash@V?$_Hmap_traits@KPAVClientSession@@V?$hash_compare@KU?$less@K@std@@@stdext@@V?$CustomAllocator@PAVClientSession@@@util@@$0A@@stdext@@@stdext@@IABU123@AAV?$CustomAllocator@U_List_position@?$_Hash@V?$_Hmap_traits@KPAVClientSession@@V?$hash_compare@KU?$less@K@std@@@stdext@@V?$CustomAllocator@PAVClientSession@@@util@@$0A@@stdext@@@stdext@@@util@@U_Nonscalar_ptr_iterator_tag@0@U_Range_checked_iterator_tag@0@@Z 0040a870 f i ClientManager.obj
 0001:00009930       ?construct@?$CustomAllocator@U?$pair@$$CBKPAVClientSession@@@std@@@util@@QAEXPAU?$pair@$$CBKPAVClientSession@@@std@@ABU34@@Z 0040a930 f i ClientManager.obj
 0001:00009930       ?construct@?$CustomAllocator@U_List_position@?$_Hash@V?$_Hmap_traits@KPAVClientSession@@V?$hash_compare@KU?$less@K@std@@@stdext@@V?$CustomAllocator@PAVClientSession@@@util@@$0A@@stdext@@@stdext@@@util@@QAEXPAU_List_position@?$_Hash@V?$_Hmap_traits@KPAVClientSession@@V?$hash_compare@KU?$less@K@std@@@stdext@@V?$CustomAllocator@PAVClientSession@@@util@@$0A@@stdext@@@stdext@@ABU345@@Z 0040a930 f i ClientManager.obj
 0001:00009980       ??$_Checked_base@PAU_List_position@?$_Hash@V?$_Hmap_traits@KPAVClientSession@@V?$hash_compare@KU?$less@K@std@@@stdext@@V?$CustomAllocator@PAVClientSession@@@util@@$0A@@stdext@@@stdext@@@std@@YAPAU_List_position@?$_Hash@V?$_Hmap_traits@KPAVClientSession@@V?$hash_compare@KU?$less@K@std@@@stdext@@V?$CustomAllocator@PAVClientSession@@@util@@$0A@@stdext@@@stdext@@AAPAU123@U_Unchanged_checked_iterator_base_type_tag@0@@Z 0040a980 f i ClientManager.obj
 0001:00009980       ??$_Checked_base@PAV?$basic_string@DU?$char_traits@D@std@@V?$allocator@D@2@@std@@@std@@YAPAV?$basic_string@DU?$char_traits@D@std@@V?$allocator@D@2@@0@AAPAV10@U_Unchanged_checked_iterator_base_type_tag@0@@Z 0040a980 f i authcommon:csvlib.obj
 0001:00009990       ??$_Copy_opt@PAU_List_position@?$_Hash@V?$_Hmap_traits@KPAVClientSession@@V?$hash_compare@KU?$less@K@std@@@stdext@@V?$CustomAllocator@PAVClientSession@@@util@@$0A@@stdext@@@stdext@@PAU123@Uforward_iterator_tag@std@@@std@@YAPAU_List_position@?$_Hash@V?$_Hmap_traits@KPAVClientSession@@V?$hash_compare@KU?$less@K@std@@@stdext@@V?$CustomAllocator@PAVClientSession@@@util@@$0A@@stdext@@@stdext@@PAU123@00Uforward_iterator_tag@0@U_Nonscalar_ptr_iterator_tag@0@U_Range_checked_iterator_tag@0@@Z 0040a990 f i ClientManager.obj
 0001:000099d0       ??$_Uninit_move@PAU_List_position@?$_Hash@V?$_Hmap_traits@KPAVClientSession@@V?$hash_compare@KU?$less@K@std@@@stdext@@V?$CustomAllocator@PAVClientSession@@@util@@$0A@@stdext@@@stdext@@PAU123@V?$CustomAllocator@U_List_position@?$_Hash@V?$_Hmap_traits@KPAVClientSession@@V?$hash_compare@KU?$less@K@std@@@stdext@@V?$CustomAllocator@PAVClientSession@@@util@@$0A@@stdext@@@stdext@@@util@@U_Undefined_move_tag@std@@@std@@YAPAU_List_position@?$_Hash@V?$_Hmap_traits@KPAVClientSession@@V?$hash_compare@KU?$less@K@std@@@stdext@@V?$CustomAllocator@PAVClientSession@@@util@@$0A@@stdext@@@stdext@@PAU123@00AAV?$CustomAllocator@U_List_position@?$_Hash@V?$_Hmap_traits@KPAVClientSession@@V?$hash_compare@KU?$less@K@std@@@stdext@@V?$CustomAllocator@PAVClientSession@@@util@@$0A@@stdext@@@stdext@@@util@@U_Undefined_move_tag@0@U_Range_checked_iterator_tag@0@@Z 0040a9d0 f i ClientManager.obj
 0001:000099f0       ??$_Copy_backward_opt@PAU_List_position@?$_Hash@V?$_Hmap_traits@KPAVClientSession@@V?$hash_compare@KU?$less@K@std@@@stdext@@V?$CustomAllocator@PAVClientSession@@@util@@$0A@@stdext@@@stdext@@PAU123@@std@@YAPAU_List_position@?$_Hash@V?$_Hmap_traits@KPAVClientSession@@V?$hash_compare@KU?$less@K@std@@@stdext@@V?$CustomAllocator@PAVClientSession@@@util@@$0A@@stdext@@@stdext@@PAU123@00Urandom_access_iterator_tag@0@U_Nonscalar_ptr_iterator_tag@0@U_Range_checked_iterator_tag@0@@Z 0040a9f0 f i ClientManager.obj
 0001:00009a50       ??$unchecked_uninitialized_copy@PAU_List_position@?$_Hash@V?$_Hmap_traits@KPAVClientSession@@V?$hash_compare@KU?$less@K@std@@@stdext@@V?$CustomAllocator@PAVClientSession@@@util@@$0A@@stdext@@@stdext@@PAU123@V?$CustomAllocator@U_List_position@?$_Hash@V?$_Hmap_traits@KPAVClientSession@@V?$hash_compare@KU?$less@K@std@@@stdext@@V?$CustomAllocator@PAVClientSession@@@util@@$0A@@stdext@@@stdext@@@util@@@stdext@@YAPAU_List_position@?$_Hash@V?$_Hmap_traits@KPAVClientSession@@V?$hash_compare@KU?$less@K@std@@@stdext@@V?$CustomAllocator@PAVClientSession@@@util@@$0A@@stdext@@@0@PAU120@00AAV?$CustomAllocator@U_List_position@?$_Hash@V?$_Hmap_traits@KPAVClientSession@@V?$hash_compare@KU?$less@K@std@@@stdext@@V?$CustomAllocator@PAVClientSession@@@util@@$0A@@stdext@@@stdext@@@util@@@Z 0040aa50 f i ClientManager.obj
 0001:00009ab0       ??$_Copy_backward_opt@PAU_List_position@?$_Hash@V?$_Hmap_traits@KPAVClientSession@@V?$hash_compare@KU?$less@K@std@@@stdext@@V?$CustomAllocator@PAVClientSession@@@util@@$0A@@stdext@@@stdext@@PAU123@Uforward_iterator_tag@std@@@std@@YAPAU_List_position@?$_Hash@V?$_Hmap_traits@KPAVClientSession@@V?$hash_compare@KU?$less@K@std@@@stdext@@V?$CustomAllocator@PAVClientSession@@@util@@$0A@@stdext@@@stdext@@PAU123@00Uforward_iterator_tag@0@U_Nonscalar_ptr_iterator_tag@0@U_Range_checked_iterator_tag@0@@Z 0040aab0 f i ClientManager.obj
 0001:00009af0       ??$_Uninit_copy@PAU_List_position@?$_Hash@V?$_Hmap_traits@KPAVClientSession@@V?$hash_compare@KU?$less@K@std@@@stdext@@V?$CustomAllocator@PAVClientSession@@@util@@$0A@@stdext@@@stdext@@PAU123@V?$CustomAllocator@U_List_position@?$_Hash@V?$_Hmap_traits@KPAVClientSession@@V?$hash_compare@KU?$less@K@std@@@stdext@@V?$CustomAllocator@PAVClientSession@@@util@@$0A@@stdext@@@stdext@@@util@@@std@@YAPAU_List_position@?$_Hash@V?$_Hmap_traits@KPAVClientSession@@V?$hash_compare@KU?$less@K@std@@@stdext@@V?$CustomAllocator@PAVClientSession@@@util@@$0A@@stdext@@@stdext@@PAU123@00AAV?$CustomAllocator@U_List_position@?$_Hash@V?$_Hmap_traits@KPAVClientSession@@V?$hash_compare@KU?$less@K@std@@@stdext@@V?$CustomAllocator@PAVClientSession@@@util@@$0A@@stdext@@@stdext@@@util@@U_Nonscalar_ptr_iterator_tag@0@U_Range_checked_iterator_tag@0@@Z 0040aaf0 f i ClientManager.obj
 0001:00009bb0       ??0?$basic_string@DU?$char_traits@D@std@@V?$allocator@D@2@@std@@QAE@PBD@Z 0040abb0 f i ClientManager.obj
 0001:00009bf0       ??0?$basic_string@DU?$char_traits@D@std@@V?$allocator@D@2@@std@@QAE@ABV01@@Z 0040abf0 f i ClientManager.obj
 0001:00009c30       ??0?$_String_val@DV?$allocator@D@std@@@std@@QAE@ABV01@@Z 0040ac30 f i ClientManager.obj
 0001:00009c50       ??0AuthServerSession@@QAE@XZ 0040ac50 f   AuthServerSession.obj
 0001:00009c70       ??1AuthServerSession@@UAE@XZ 0040ac70 f   AuthServerSession.obj
 0001:00009c90       ?OnConnect@AuthServerSession@@MAEXHK@Z 0040ac90 f   AuthServerSession.obj
 0001:00009cd0       ?OnDisconnect@AuthServerSession@@MAEXXZ 0040acd0 f   AuthServerSession.obj
 0001:00009d20       ?OnRecv@AuthServerSession@@MAEXPAEG@Z 0040ad20 f   AuthServerSession.obj
 0001:00009e40       ?OnSF_AUTH_GAME_VERSION_NTF@AuthServerSession@@AAEXPAUMSG_BASE_INTERNAL@@G@Z 0040ae40 f   AuthServerSession.obj
 0001:00009ec0       ?OnSF_AUTH_CONTROL_IPLIST_NTF@AuthServerSession@@AAEXPAUMSG_BASE_INTERNAL@@G@Z 0040aec0 f   AuthServerSession.obj
 0001:00009fc0       ?OnSF_AUTH_ID_PASSWORD_CHECK_ACK@AuthServerSession@@AAEXPAUMSG_BASE_INTERNAL@@G@Z 0040afc0 f   AuthServerSession.obj
 0001:0000a060       ?OnSF_AUTH_CLIENT_DISCONNECT_CMD@AuthServerSession@@AAEXPAUMSG_BASE_INTERNAL@@G@Z 0040b060 f   AuthServerSession.obj
 0001:0000a0c0       ?OnSF_AUTH_SERVER_LIST_NTF@AuthServerSession@@AAEXPAUMSG_BASE_INTERNAL@@G@Z 0040b0c0 f   AuthServerSession.obj
 0001:0000a0f0       ?OnSF_AUTH_SERVER_SELECT_ACK@AuthServerSession@@AAEXPAUMSG_BASE_INTERNAL@@G@Z 0040b0f0 f   AuthServerSession.obj
 0001:0000a1e0       ?GetServerType@AuthServerSession@@UAE?AW4eSERVER_TYPE@@XZ 0040b1e0 f i AuthServerSession.obj
 0001:0000a1f0       ?SendPacket@AuthServerSession@@UAEHPAUMSG_BASE_INTERNAL@@G@Z 0040b1f0 f i AuthServerSession.obj
 0001:0000a1f0       ?SendPacket@AuthServerSession@@UAEHPAUMSG_BASE@@G@Z 0040b1f0 f i AuthServerSession.obj
 0001:0000a210       ?SendPacket@ServerSession@@UAEHPAUMSG_BASE_INTERNAL@@G@Z 0040b210 f i AuthServerSession.obj
 0001:0000a210       ?SendPacket@ServerSession@@UAEHPAUMSG_BASE@@G@Z 0040b210 f i AuthServerSession.obj
 0001:0000a230       ??_GAuthServerSession@@UAEPAXI@Z 0040b230 f i AuthServerSession.obj
 0001:0000a230       ??_EAuthServerSession@@UAEPAXI@Z 0040b230 f i AuthServerSession.obj
 0001:0000a260       ?SetVerProtocol@LoginFrontFrame@@QAEXUGAME_VERSION@@@Z 0040b260 f i AuthServerSession.obj
 0001:0000a280       ?SetVerLauncher@LoginFrontFrame@@QAEXUGAME_VERSION@@@Z 0040b280 f i AuthServerSession.obj
 0001:0000a2a0       ?SetVerMajor@LoginFrontFrame@@QAEXUGAME_VERSION@@@Z 0040b2a0 f i AuthServerSession.obj
 0001:0000a2c0       ?SetVerMinor@LoginFrontFrame@@QAEXUGAME_VERSION@@@Z 0040b2c0 f i AuthServerSession.obj
 0001:0000a2e0       ?UnlockAuthQueryTransaction@ClientSession@@QAEXXZ 0040b2e0 f i AuthServerSession.obj
 0001:0000a300       ??0MSG_FC_AUTH_ID_PASSWORD_CHECK_ACK@@QAE@XZ 0040b300 f i AuthServerSession.obj
 0001:0000a320       ?GetAccountID@ClientSession@@QAEPADXZ 0040b320 f i AuthServerSession.obj
 0001:0000a340       ??0MSG_FC_AUTH_SERVER_SELECT_ACK@@QAE@XZ 0040b340 f i AuthServerSession.obj
 0001:0000a360       __tcsncpy                  0040b360 f i AuthServerSession.obj
 0001:0000a380       ??0ClientSession@@QAE@XZ   0040b380 f   ClientSession.obj
 0001:0000a420       ??1ClientSession@@UAE@XZ   0040b420 f   ClientSession.obj
 0001:0000a480       ?Init@ClientSession@@UAEXXZ 0040b480 f   ClientSession.obj
 0001:0000a4e0       ?Release@ClientSession@@UAEXXZ 0040b4e0 f   ClientSession.obj
 0001:0000a500       ?Update@ClientSession@@UAEXXZ 0040b500 f   ClientSession.obj
 0001:0000a550       ?OnDisconnect@ClientSession@@MAEXXZ 0040b550 f   ClientSession.obj
 0001:0000a5b0       ?MakeFrontId@ClientSession@@CAKK@Z 0040b5b0 f   ClientSession.obj
 0001:0000a5f0       ?OnAccept@ClientSession@@MAEXK@Z 0040b5f0 f   ClientSession.obj
 0001:0000a740       ?OnRecv@ClientSession@@MAEXPAEG@Z 0040b740 f   ClientSession.obj
 0001:0000a940       ?OnCF_AUTH_REQ_PATCH_VER_SYN@ClientSession@@AAEXPAUMSG_BASE_INTERNAL@@G@Z 0040b940 f   ClientSession.obj
 0001:0000a9b0       ?OnCF_AUTH_VERIFY_SYN@ClientSession@@AAEXPAUMSG_BASE_INTERNAL@@G@Z 0040b9b0 f   ClientSession.obj
 0001:0000aad0       ?OnCF_AUTH_AUTHENTICATION_SYN@ClientSession@@AAEXPAUMSG_BASE_INTERNAL@@G@Z 0040bad0 f   ClientSession.obj
 0001:0000ab70       ?Handling@ClientSession@@AAEEPBUMSG_CF_AUTH_TOKEN_PASS_SYN@@G@Z 0040bb70 f   ClientSession.obj
 0001:0000ace0       ?Handling@ClientSession@@AAEEPBUMSG_CF_AUTH_REAUTH_PASS_SYN@@G@Z 0040bce0 f   ClientSession.obj
 0001:0000ae20       ?Handling@ClientSession@@AAEEPBUMSG_CF_AUTH_ID_PASSWORD_CHECK_SYN@@G@Z 0040be20 f   ClientSession.obj
 0001:0000af60       ?OnCF_AUTH_SERVER_LIST_SYN@ClientSession@@AAEXPAUMSG_BASE_INTERNAL@@G@Z 0040bf60 f   ClientSession.obj
 0001:0000b070       ?OnCF_AUTH_SERVER_SELECT_SYN@ClientSession@@AAEXPAUMSG_BASE_INTERNAL@@G@Z 0040c070 f   ClientSession.obj
 0001:0000b100       ?GetServerType@ClientSession@@MAE?AW4eSERVER_TYPE@@XZ 0040c100 f i ClientSession.obj
 0001:0000b110       ?OnRedirect@ClientSession@@MAEXKQAUMSG_SERVER_TYPE@@@Z 0040c110 f i ClientSession.obj
 0001:0000b110       ?OnRedirect@AuthServerSession@@MAEXKQAUMSG_SERVER_TYPE@@@Z 0040c110 f i AuthServerSession.obj
 0001:0000b120       ??_EClientSession@@UAEPAXI@Z 0040c120 f i ClientSession.obj
 0001:0000b120       ??_GClientSession@@UAEPAXI@Z 0040c120 f i ClientSession.obj
 0001:0000b150       ?GetLoginTick@LoginFrontFrame@@QBEKXZ 0040c150 f i ClientSession.obj
 0001:0000b170       ??0MSG_FS_AUTH_CLIENT_DISCONNECT_CMD@@QAE@XZ 0040c170 f i ClientSession.obj
 0001:0000b190       ?GetLoginFrontID@LoginFrontFrame@@QBEEXZ 0040c190 f i ClientSession.obj
 0001:0000b1b0       ??0MSG_FC_AUTH_READY_CMD@@QAE@XZ 0040c1b0 f i ClientSession.obj
 0001:0000b1d0       ??0MSG_FC_AUTH_REQ_PATCH_VER_ACK@@QAE@XZ 0040c1d0 f i ClientSession.obj
 0001:0000b1f0       ??0MSG_FC_AUTH_VERIFY_ACK@@QAE@XZ 0040c1f0 f i ClientSession.obj
 0001:0000b210       ??0MSG_FS_AUTH_TOKEN_PASS_SYN@@QAE@XZ 0040c210 f i ClientSession.obj
 0001:0000b230       ?GetTokenStream@AuthStepAuthToken@@QBEPBUStream@MSG_CF_AUTH_TOKEN_PASS_SYN@@XZ 0040c230 f i ClientSession.obj
 0001:0000b250       ??0AuthStepAuthTokenInLoginFront@@QAE@K@Z 0040c250 f i ClientSession.obj
 0001:0000b280       ??0AuthStepAuthToken@@QAE@K@Z 0040c280 f i ClientSession.obj
 0001:0000b2b0       ??_GAuthStepAuthToken@@UAEPAXI@Z 0040c2b0 f i ClientSession.obj
 0001:0000b2b0       ??_EAuthStepAuthToken@@UAEPAXI@Z 0040c2b0 f i ClientSession.obj
 0001:0000b2e0       ??1AuthStepAuthToken@@UAE@XZ 0040c2e0 f i ClientSession.obj
 0001:0000b300       ??0CSAuthFlow@nsPacket@@QAE@XZ 0040c300 f i ClientSession.obj
 0001:0000b320       ?PostVerifier@AuthStepAuthTokenInLoginFront@@UAEEPBUStream@MSG_CF_AUTH_TOKEN_PASS_SYN@@PAUToken@CSAuthFlow@nsPacket@@1@Z 0040c320 f i ClientSession.obj
 0001:0000b390       ?PostVerifier@AuthStepAuthTokenInLoginFront@@UAEEPBUMSG_CF_AUTH_REAUTH_PASS_SYN@@PAUToken@CSAuthFlow@nsPacket@@1@Z 0040c390 f i ClientSession.obj
 0001:0000b3e0       ??_EAuthStepAuthTokenInLoginFront@@UAEPAXI@Z 0040c3e0 f i ClientSession.obj
 0001:0000b3e0       ??_GAuthStepAuthTokenInLoginFront@@UAEPAXI@Z 0040c3e0 f i ClientSession.obj
 0001:0000b410       ??1AuthStepAuthTokenInLoginFront@@UAE@XZ 0040c410 f i ClientSession.obj
 0001:0000b430       ??0MSG_FS_AUTH_REAUTH_PASS_SYN@@QAE@XZ 0040c430 f i ClientSession.obj
 0001:0000b460       ??0MSG_CF_AUTH_REAUTH_PASS_SYN@@QAE@XZ 0040c460 f i ClientSession.obj
 0001:0000b480       ??0MSG_FS_AUTH_ID_PASSWORD_CHECK_SYN@@QAE@XZ 0040c480 f i ClientSession.obj
 0001:0000b4b0       ??0MSG_CF_AUTH_ID_PASSWORD_CHECK_SYN@@QAE@XZ 0040c4b0 f i ClientSession.obj
 0001:0000b4d0       ??0MSG_FC_AUTH_SERVER_LIST_WORLD_ACK@@QAE@XZ 0040c4d0 f i ClientSession.obj
 0001:0000b4f0       ?GetSize@MSG_FC_AUTH_SERVER_LIST_WORLD_ACK@@QAEHXZ 0040c4f0 f i ClientSession.obj
 0001:0000b520       ??0MSG_FC_AUTH_SERVER_LIST_CHANNEL_ACK@@QAE@XZ 0040c520 f i ClientSession.obj
 0001:0000b540       ?GetSize@MSG_FC_AUTH_SERVER_LIST_CHANNEL_ACK@@QAEHXZ 0040c540 f i ClientSession.obj
 0001:0000b570       ??0MSG_FS_AUTH_SERVER_SELECT_SYN@@QAE@XZ 0040c570 f i ClientSession.obj
 0001:0000b590       ??0Timer@util@@QAE@XZ      0040c590 f i ClientSession.obj
 0001:0000b5b0       ?SetTimer@Timer@util@@QAEXK@Z 0040c5b0 f i ClientSession.obj
 0001:0000b5e0       ?Reset@Timer@util@@QAEXXZ  0040c5e0 f i ClientSession.obj
 0001:0000b610       ?GetIntervalTime@Timer@util@@QBEKXZ 0040c610 f i ClientSession.obj
 0001:0000b650       ?EnableCheckTime@Timer@util@@QAEXXZ 0040c650 f i ClientSession.obj
 0001:0000b670       ?DisableCheckTime@Timer@util@@QAEXXZ 0040c670 f i ClientSession.obj
 0001:0000b690       ?IsExpiredManual@Timer@util@@QAE_NH@Z 0040c690 f i ClientSession.obj
 0001:0000b6f0       ??0ServerDataManager@@QAE@XZ 0040c6f0 f   authcommon:ServerDataManager.obj
 0001:0000b780       ??1ServerDataManager@@QAE@XZ 0040c780 f   authcommon:ServerDataManager.obj
 0001:0000b7f0       ?Destroy@ServerDataManager@@QAEXXZ 0040c7f0 f   authcommon:ServerDataManager.obj
 0001:0000b900       ?Init@ServerDataManager@@QAEXXZ 0040c900 f   authcommon:ServerDataManager.obj
 0001:0000b930       ?LoadGroupData@ServerDataManager@@AAEXXZ 0040c930 f   authcommon:ServerDataManager.obj
 0001:0000bbb0       ?LoadServerData@ServerDataManager@@AAEXXZ 0040cbb0 f   authcommon:ServerDataManager.obj
 0001:0000c190       ?MakeGameAgentID@ServerDataManager@@AAEGEE@Z 0040d190 f   authcommon:ServerDataManager.obj
 0001:0000c1c0       ?FindGroupData@ServerDataManager@@QAEPAUGROUP_DATA@@E@Z 0040d1c0 f   authcommon:ServerDataManager.obj
 0001:0000c220       ?FindServerData@ServerDataManager@@QAEPAVServerData@@G@Z 0040d220 f   authcommon:ServerDataManager.obj
 0001:0000c280       ?FindServerData@ServerDataManager@@QAEPAVServerData@@EE@Z 0040d280 f   authcommon:ServerDataManager.obj
 0001:0000c2c0       ?FindAuthAgentServerSession@ServerDataManager@@QAEPAVAuthAgentServerSession@@G@Z 0040d2c0 f   authcommon:ServerDataManager.obj
 0001:0000c300       ?Display@ServerDataManager@@QAEXXZ 0040d300 f   authcommon:ServerDataManager.obj
 0001:0000c3e0       ?GetLiveGroupListInfo@ServerDataManager@@QAEEPAUGROUP_DATA@@QBD@Z 0040d3e0 f   authcommon:ServerDataManager.obj
 0001:0000c470       ?GetLiveServerListInfo@ServerDataManager@@QAEEPAUSERVER_DATA@@QBD@Z 0040d470 f   authcommon:ServerDataManager.obj
 0001:0000c510       ?GetServerIPListInfo@ServerDataManager@@QAEEPAUsGAME_AGENT_INFO@@@Z 0040d510 f   authcommon:ServerDataManager.obj
 0001:0000c5f0       ?GetDynamicServerListInfo@ServerDataManager@@QAEEPAUDYNAMIC_SERVER_DATA@@@Z 0040d5f0 f   authcommon:ServerDataManager.obj
 0001:0000c6b0       ?SetDynamicServerListInfo@ServerDataManager@@QAEXPAUDYNAMIC_SERVER_DATA@@E@Z 0040d6b0 f   authcommon:ServerDataManager.obj
 0001:0000c7f0       ??1?$chunk_map@KPAVServerData@@U?$less@K@std@@@util@@QAE@XZ 0040d7f0 f i authcommon:ServerDataManager.obj
 0001:0000c7f0       ??1?$chunk_map@KPAUGROUP_DATA@@U?$less@K@std@@@util@@QAE@XZ 0040d7f0 f i authcommon:ServerDataManager.obj
 0001:0000c810       ??1?$map@KPAUGROUP_DATA@@U?$less@K@std@@V?$CustomAllocator@PAUGROUP_DATA@@@util@@@std@@QAE@XZ 0040d810 f i authcommon:ServerDataManager.obj
 0001:0000c810       ??1?$map@KPAVServerData@@U?$less@K@std@@V?$CustomAllocator@PAVServerData@@@util@@@std@@QAE@XZ 0040d810 f i authcommon:ServerDataManager.obj
 0001:0000c830       ??_GServerData@@QAEPAXI@Z  0040d830 f i authcommon:ServerDataManager.obj
 0001:0000c860       ?GetCount@Csvlib@@QAEHXZ   0040d860 f i authcommon:ServerDataManager.obj
 0001:0000c880       ?SetBaseServerData@ServerData@@QAEXAAUSERVER_DATA@@@Z 0040d880 f i authcommon:ServerDataManager.obj
 0001:0000c8a0       ?SetGameAgentID@ServerData@@QAEXG@Z 0040d8a0 f i authcommon:ServerDataManager.obj
 0001:0000c8c0       ?GetGameAgentID@ServerData@@QBEGXZ 0040d8c0 f i authcommon:ServerDataManager.obj
 0001:0000c8e0       ?SetCrowdBase@ServerData@@QAEXG@Z 0040d8e0 f i authcommon:ServerDataManager.obj
 0001:0000c900       ?SetGameAgentPort@ServerData@@QAEXG@Z 0040d900 f i authcommon:ServerDataManager.obj
 0001:0000c920       ?SetAuthAgentSession@ServerData@@QAEXPAVAuthAgentServerSession@@@Z 0040d920 f i authcommon:ServerDataManager.obj
 0001:0000c940       ?SetGameAgentPublicIP@ServerData@@QAEXPBD@Z 0040d940 f i authcommon:ServerDataManager.obj
 0001:0000c970       ?SetGameAgentPrivateIP@ServerData@@QAEXPBD@Z 0040d970 f i authcommon:ServerDataManager.obj
 0001:0000c9a0       ?GetAuthAgentSession@ServerData@@QAEPAVAuthAgentServerSession@@XZ 0040d9a0 f i authcommon:ServerDataManager.obj
 0001:0000c9c0       ?GetConnectStatus@ServerData@@QBEEXZ 0040d9c0 f i authcommon:ServerDataManager.obj
 0001:0000c9e0       ?GetGameAgentPublicIP@ServerData@@QBEPBDXZ 0040d9e0 f i authcommon:ServerDataManager.obj
 0001:0000ca00       ?GetGameAgentPrivateIP@ServerData@@QBEPBDXZ 0040da00 f i authcommon:ServerDataManager.obj
 0001:0000ca20       ?GetGameAgentPort@ServerData@@QBEGXZ 0040da20 f i authcommon:ServerDataManager.obj
 0001:0000ca40       ?GetLoginUserCnt@ServerData@@QBEFXZ 0040da40 f i authcommon:ServerDataManager.obj
 0001:0000ca60       ?SetConnectStatus@ServerData@@QAEXE@Z 0040da60 f i authcommon:ServerDataManager.obj
 0001:0000ca80       ?SetCrowdGrade@ServerData@@QAEXE@Z 0040da80 f i authcommon:ServerDataManager.obj
 0001:0000caa0       ?SetLoginUserCnt@ServerData@@QAEXF@Z 0040daa0 f i authcommon:ServerDataManager.obj
 0001:0000cac0       ??1?$Singleton@VLoginFrontFrame@@$00@util@@IAE@XZ 0040dac0 f i LoginFrontFrame.obj
 0001:0000cac0       ?Connect@ServerSession@@UAEXXZ 0040dac0 f i AuthServerSession.obj
 0001:0000cac0       ??1ServerData@@QAE@XZ      0040dac0 f i authcommon:ServerDataManager.obj
 0001:0000cac0       ?Release@IMemoryPoolFactoryImpl@internal@util@@UAEXXZ 0040dac0 f i LoginFrontFrame.obj
 0001:0000cac0       ??1_Container_base_aux@std@@QAE@XZ 0040dac0 f i ClientManager.obj
 0001:0000cac0       ??1?$Singleton@VServerDataManager@@$00@util@@IAE@XZ 0040dac0 f i authcommon:ServerDataManager.obj
 0001:0000cac0       ??1?$Singleton@VClientManager@@$00@util@@IAE@XZ 0040dac0 f i ClientManager.obj
 0001:0000cac0       ??1Timer@util@@QAE@XZ      0040dac0 f i ClientSession.obj
 0001:0000cad0       ??1?$_Tree@V?$_Tmap_traits@KPAVServerData@@U?$less@K@std@@V?$CustomAllocator@PAVServerData@@@util@@$0A@@std@@@std@@QAE@XZ 0040dad0 f i authcommon:ServerDataManager.obj
 0001:0000cad0       ??1?$_Tree@V?$_Tmap_traits@KPAUGROUP_DATA@@U?$less@K@std@@V?$CustomAllocator@PAUGROUP_DATA@@@util@@$0A@@std@@@std@@QAE@XZ 0040dad0 f i authcommon:ServerDataManager.obj
 0001:0000cb30       ?begin@?$_Tree@V?$_Tmap_traits@V?$basic_string@DU?$char_traits@D@std@@V?$allocator@D@2@@std@@EU?$less@V?$basic_string@DU?$char_traits@D@std@@V?$allocator@D@2@@std@@@2@V?$allocator@U?$pair@$$CBV?$basic_string@DU?$char_traits@D@std@@V?$allocator@D@2@@std@@E@std@@@2@$0A@@std@@@std@@QAE?AViterator@12@XZ 0040db30 f i authcommon:csvlib.obj
 0001:0000cb30       ?begin@?$_Tree@V?$_Tmap_traits@KPAUGROUP_DATA@@U?$less@K@std@@V?$CustomAllocator@PAUGROUP_DATA@@@util@@$0A@@std@@@std@@QAE?AViterator@12@XZ 0040db30 f i authcommon:ServerDataManager.obj
 0001:0000cb30       ?begin@?$_Tree@V?$_Tmap_traits@KPAVServerData@@U?$less@K@std@@V?$CustomAllocator@PAVServerData@@@util@@$0A@@std@@@std@@QAE?AViterator@12@XZ 0040db30 f i authcommon:ServerDataManager.obj
 0001:0000cb60       ?insert@?$_Tree@V?$_Tmap_traits@KPAVServerData@@U?$less@K@std@@V?$CustomAllocator@PAVServerData@@@util@@$0A@@std@@@std@@QAE?AU?$pair@Viterator@?$_Tree@V?$_Tmap_traits@KPAVServerData@@U?$less@K@std@@V?$CustomAllocator@PAVServerData@@@util@@$0A@@std@@@std@@_N@2@ABU?$pair@$$CBKPAVServerData@@@2@@Z 0040db60 f i authcommon:ServerDataManager.obj
 0001:0000cb60       ?insert@?$_Tree@V?$_Tmap_traits@KPAUGROUP_DATA@@U?$less@K@std@@V?$CustomAllocator@PAUGROUP_DATA@@@util@@$0A@@std@@@std@@QAE?AU?$pair@Viterator@?$_Tree@V?$_Tmap_traits@KPAUGROUP_DATA@@U?$less@K@std@@V?$CustomAllocator@PAUGROUP_DATA@@@util@@$0A@@std@@@std@@_N@2@ABU?$pair@$$CBKPAUGROUP_DATA@@@2@@Z 0040db60 f i authcommon:ServerDataManager.obj
 0001:0000cd30       ??0?$chunk_map@KKU?$less@K@std@@@util@@QAE@ABU?$less@K@std@@ABV?$CustomAllocator@U?$pair@$$CBKK@std@@@1@@Z 0040dd30 f i ClientManager.obj
 0001:0000cd30       ??0?$chunk_map@KPAUGROUP_DATA@@U?$less@K@std@@@util@@QAE@ABU?$less@K@std@@ABV?$CustomAllocator@U?$pair@$$CBKPAUGROUP_DATA@@@std@@@1@@Z 0040dd30 f i authcommon:ServerDataManager.obj
 0001:0000cd30       ??0?$chunk_map@KPAVServerData@@U?$less@K@std@@@util@@QAE@ABU?$less@K@std@@ABV?$CustomAllocator@U?$pair@$$CBKPAVServerData@@@std@@@1@@Z 0040dd30 f i authcommon:ServerDataManager.obj
 0001:0000cd50       ?find@?$_Tree@V?$_Tmap_traits@KPAUGROUP_DATA@@U?$less@K@std@@V?$CustomAllocator@PAUGROUP_DATA@@@util@@$0A@@std@@@std@@QAE?AViterator@12@ABK@Z 0040dd50 f i authcommon:ServerDataManager.obj
 0001:0000cd50       ?find@?$_Tree@V?$_Tmap_traits@KPAVServerData@@U?$less@K@std@@V?$CustomAllocator@PAVServerData@@@util@@$0A@@std@@@std@@QAE?AViterator@12@ABK@Z 0040dd50 f i authcommon:ServerDataManager.obj
 0001:0000cdf0       ??Citerator@?$_Tree@V?$_Tmap_traits@KPAVServerData@@U?$less@K@std@@V?$CustomAllocator@PAVServerData@@@util@@$0A@@std@@@std@@QBEPAU?$pair@$$CBKPAVServerData@@@2@XZ 0040ddf0 f i authcommon:ServerDataManager.obj
 0001:0000cdf0       ??Citerator@?$_Tree@V?$_Tmap_traits@KPAUGROUP_DATA@@U?$less@K@std@@V?$CustomAllocator@PAUGROUP_DATA@@@util@@$0A@@std@@@std@@QBEPAU?$pair@$$CBKPAUGROUP_DATA@@@2@XZ 0040ddf0 f i authcommon:ServerDataManager.obj
 0001:0000cdf0       ??Citerator@?$_Tree@V?$_Tmap_traits@V?$basic_string@DU?$char_traits@D@std@@V?$allocator@D@2@@std@@EU?$less@V?$basic_string@DU?$char_traits@D@std@@V?$allocator@D@2@@std@@@2@V?$allocator@U?$pair@$$CBV?$basic_string@DU?$char_traits@D@std@@V?$allocator@D@2@@std@@E@std@@@2@$0A@@std@@@std@@QBEPAU?$pair@$$CBV?$basic_string@DU?$char_traits@D@std@@V?$allocator@D@2@@std@@E@2@XZ 0040ddf0 f i authcommon:csvlib.obj
 0001:0000ce10       ??Eiterator@?$_Tree@V?$_Tmap_traits@KPAUGROUP_DATA@@U?$less@K@std@@V?$CustomAllocator@PAUGROUP_DATA@@@util@@$0A@@std@@@std@@QAEAAV012@XZ 0040de10 f i authcommon:ServerDataManager.obj
 0001:0000ce10       ??Eiterator@?$_Tree@V?$_Tmap_traits@KPAVServerData@@U?$less@K@std@@V?$CustomAllocator@PAVServerData@@@util@@$0A@@std@@@std@@QAEAAV012@XZ 0040de10 f i authcommon:ServerDataManager.obj
 0001:0000ce30       ??9const_iterator@?$_Tree@V?$_Tmap_traits@KPAVServerData@@U?$less@K@std@@V?$CustomAllocator@PAVServerData@@@util@@$0A@@std@@@std@@QBE_NABV012@@Z 0040de30 f i authcommon:ServerDataManager.obj
 0001:0000ce30       ??9?$_Vector_const_iterator@V?$basic_string@DU?$char_traits@D@std@@V?$allocator@D@2@@std@@V?$allocator@V?$basic_string@DU?$char_traits@D@std@@V?$allocator@D@2@@std@@@2@@std@@QBE_NABV01@@Z 0040de30 f i authcommon:csvlib.obj
 0001:0000ce30       ??9const_iterator@?$_Tree@V?$_Tmap_traits@V?$basic_string@DU?$char_traits@D@std@@V?$allocator@D@2@@std@@EU?$less@V?$basic_string@DU?$char_traits@D@std@@V?$allocator@D@2@@std@@@2@V?$allocator@U?$pair@$$CBV?$basic_string@DU?$char_traits@D@std@@V?$allocator@D@2@@std@@E@std@@@2@$0A@@std@@@std@@QBE_NABV012@@Z 0040de30 f i authcommon:csvlib.obj
 0001:0000ce30       ??9const_iterator@?$_Tree@V?$_Tmap_traits@KPAUGROUP_DATA@@U?$less@K@std@@V?$CustomAllocator@PAUGROUP_DATA@@@util@@$0A@@std@@@std@@QBE_NABV012@@Z 0040de30 f i authcommon:ServerDataManager.obj
 0001:0000ce60       ??1?$_Tree_val@V?$_Tmap_traits@KPAVServerData@@U?$less@K@std@@V?$CustomAllocator@PAVServerData@@@util@@$0A@@std@@@std@@QAE@XZ 0040de60 f i authcommon:ServerDataManager.obj
 0001:0000ce60       ??1?$_Tree_val@V?$_Tmap_traits@KKU?$less@K@std@@V?$CustomAllocator@K@util@@$0A@@std@@@std@@QAE@XZ 0040de60 f i ClientManager.obj
 0001:0000ce60       ??1?$_Tree_val@V?$_Tmap_traits@KPAUGROUP_DATA@@U?$less@K@std@@V?$CustomAllocator@PAUGROUP_DATA@@@util@@$0A@@std@@@std@@QAE@XZ 0040de60 f i authcommon:ServerDataManager.obj
 0001:0000ce80       ??1?$_List_val@U?$pair@$$CBKPAVClientSession@@@std@@V?$CustomAllocator@U?$pair@$$CBKPAVClientSession@@@std@@@util@@@std@@QAE@XZ 0040de80 f i ClientManager.obj
 0001:0000ce80       ??1?$_Tree_ptr@V?$_Tmap_traits@KPAVServerData@@U?$less@K@std@@V?$CustomAllocator@PAVServerData@@@util@@$0A@@std@@@std@@QAE@XZ 0040de80 f i authcommon:ServerDataManager.obj
 0001:0000ce80       ??1?$_Tree_ptr@V?$_Tmap_traits@KPAUGROUP_DATA@@U?$less@K@std@@V?$CustomAllocator@PAUGROUP_DATA@@@util@@$0A@@std@@@std@@QAE@XZ 0040de80 f i authcommon:ServerDataManager.obj
 0001:0000ce80       ??1?$_Tree_ptr@V?$_Tmap_traits@KKU?$less@K@std@@V?$CustomAllocator@K@util@@$0A@@std@@@std@@QAE@XZ 0040de80 f i ClientManager.obj
 0001:0000cea0       ??1?$_Tree_nod@V?$_Tmap_traits@KPAUGROUP_DATA@@U?$less@K@std@@V?$CustomAllocator@PAUGROUP_DATA@@@util@@$0A@@std@@@std@@QAE@XZ 0040dea0 f i authcommon:ServerDataManager.obj
 0001:0000cea0       ??1?$_Tree_nod@V?$_Tmap_traits@KKU?$less@K@std@@V?$CustomAllocator@K@util@@$0A@@std@@@std@@QAE@XZ 0040dea0 f i ClientManager.obj
 0001:0000cea0       ??1?$_Tree_nod@V?$_Tmap_traits@KPAVServerData@@U?$less@K@std@@V?$CustomAllocator@PAVServerData@@@util@@$0A@@std@@@std@@QAE@XZ 0040dea0 f i authcommon:ServerDataManager.obj
 0001:0000cea0       ??1?$_List_ptr@U?$pair@$$CBKPAVClientSession@@@std@@V?$CustomAllocator@U?$pair@$$CBKPAVClientSession@@@std@@@util@@@std@@QAE@XZ 0040dea0 f i ClientManager.obj
 0001:0000cec0       ?_Isnil@?$_Tree@V?$_Tmap_traits@KPAUGROUP_DATA@@U?$less@K@std@@V?$CustomAllocator@PAUGROUP_DATA@@@util@@$0A@@std@@@std@@KAAADPAU_Node@?$_Tree_nod@V?$_Tmap_traits@KPAUGROUP_DATA@@U?$less@K@std@@V?$CustomAllocator@PAUGROUP_DATA@@@util@@$0A@@std@@@2@@Z 0040dec0 f i authcommon:ServerDataManager.obj
 0001:0000cec0       ?_Isnil@?$_Tree@V?$_Tmap_traits@KPAVServerData@@U?$less@K@std@@V?$CustomAllocator@PAVServerData@@@util@@$0A@@std@@@std@@KAAADPAU_Node@?$_Tree_nod@V?$_Tmap_traits@KPAVServerData@@U?$less@K@std@@V?$CustomAllocator@PAVServerData@@@util@@$0A@@std@@@2@@Z 0040dec0 f i authcommon:ServerDataManager.obj
 0001:0000cec0       ?_Isnil@?$_Tree@V?$_Tmap_traits@KKU?$less@K@std@@V?$CustomAllocator@K@util@@$0A@@std@@@std@@KAAADPAU_Node@?$_Tree_nod@V?$_Tmap_traits@KKU?$less@K@std@@V?$CustomAllocator@K@util@@$0A@@std@@@2@@Z 0040dec0 f i ClientManager.obj
 0001:0000ced0       ?lower_bound@?$_Tree@V?$_Tmap_traits@KPAUGROUP_DATA@@U?$less@K@std@@V?$CustomAllocator@PAUGROUP_DATA@@@util@@$0A@@std@@@std@@QAE?AViterator@12@ABK@Z 0040ded0 f i authcommon:ServerDataManager.obj
 0001:0000ced0       ?lower_bound@?$_Tree@V?$_Tmap_traits@KPAVServerData@@U?$less@K@std@@V?$CustomAllocator@PAVServerData@@@util@@$0A@@std@@@std@@QAE?AViterator@12@ABK@Z 0040ded0 f i authcommon:ServerDataManager.obj
 0001:0000cf00       ?_Insert@?$_Tree@V?$_Tmap_traits@KPAUGROUP_DATA@@U?$less@K@std@@V?$CustomAllocator@PAUGROUP_DATA@@@util@@$0A@@std@@@std@@IAE?AViterator@12@_NPAU_Node@?$_Tree_nod@V?$_Tmap_traits@KPAUGROUP_DATA@@U?$less@K@std@@V?$CustomAllocator@PAUGROUP_DATA@@@util@@$0A@@std@@@2@ABU?$pair@$$CBKPAUGROUP_DATA@@@2@@Z 0040df00 f i authcommon:ServerDataManager.obj
 0001:0000cf00       ?_Insert@?$_Tree@V?$_Tmap_traits@KPAVServerData@@U?$less@K@std@@V?$CustomAllocator@PAVServerData@@@util@@$0A@@std@@@std@@IAE?AViterator@12@_NPAU_Node@?$_Tree_nod@V?$_Tmap_traits@KPAVServerData@@U?$less@K@std@@V?$CustomAllocator@PAVServerData@@@util@@$0A@@std@@@2@ABU?$pair@$$CBKPAVServerData@@@2@@Z 0040df00 f i authcommon:ServerDataManager.obj
 0001:0000d380       ?_Rmost@?$_Tree@V?$_Tmap_traits@KKU?$less@K@std@@V?$CustomAllocator@K@util@@$0A@@std@@@std@@IBEAAPAU_Node@?$_Tree_nod@V?$_Tmap_traits@KKU?$less@K@std@@V?$CustomAllocator@K@util@@$0A@@std@@@2@XZ 0040e380 f i ClientManager.obj
 0001:0000d380       ?_Rmost@?$_Tree@V?$_Tmap_traits@KPAVServerData@@U?$less@K@std@@V?$CustomAllocator@PAVServerData@@@util@@$0A@@std@@@std@@IBEAAPAU_Node@?$_Tree_nod@V?$_Tmap_traits@KPAVServerData@@U?$less@K@std@@V?$CustomAllocator@PAVServerData@@@util@@$0A@@std@@@2@XZ 0040e380 f i authcommon:ServerDataManager.obj
 0001:0000d380       ?_Rmost@?$_Tree@V?$_Tmap_traits@KPAUGROUP_DATA@@U?$less@K@std@@V?$CustomAllocator@PAUGROUP_DATA@@@util@@$0A@@std@@@std@@IBEAAPAU_Node@?$_Tree_nod@V?$_Tmap_traits@KPAUGROUP_DATA@@U?$less@K@std@@V?$CustomAllocator@PAUGROUP_DATA@@@util@@$0A@@std@@@2@XZ 0040e380 f i authcommon:ServerDataManager.obj
 0001:0000d380       ?_Rmost@?$_Tree@V?$_Tmap_traits@V?$basic_string@DU?$char_traits@D@std@@V?$allocator@D@2@@std@@EU?$less@V?$basic_string@DU?$char_traits@D@std@@V?$allocator@D@2@@std@@@2@V?$allocator@U?$pair@$$CBV?$basic_string@DU?$char_traits@D@std@@V?$allocator@D@2@@std@@E@std@@@2@$0A@@std@@@std@@IBEAAPAU_Node@?$_Tree_nod@V?$_Tmap_traits@V?$basic_string@DU?$char_traits@D@std@@V?$allocator@D@2@@std@@EU?$less@V?$basic_string@DU?$char_traits@D@std@@V?$allocator@D@2@@std@@@2@V?$allocator@U?$pair@$$CBV?$basic_string@DU?$char_traits@D@std@@V?$allocator@D@2@@std@@E@std@@@2@$0A@@std@@@2@XZ 0040e380 f i authcommon:csvlib.obj
 0001:0000d3a0       ?_Tidy@?$_Tree@V?$_Tmap_traits@KPAUGROUP_DATA@@U?$less@K@std@@V?$CustomAllocator@PAUGROUP_DATA@@@util@@$0A@@std@@@std@@IAEXXZ 0040e3a0 f i authcommon:ServerDataManager.obj
 0001:0000d3a0       ?_Tidy@?$_Tree@V?$_Tmap_traits@KPAVServerData@@U?$less@K@std@@V?$CustomAllocator@PAVServerData@@@util@@$0A@@std@@@std@@IAEXXZ 0040e3a0 f i authcommon:ServerDataManager.obj
 0001:0000d470       ??0?$map@KPAVServerData@@U?$less@K@std@@V?$CustomAllocator@PAVServerData@@@util@@@std@@QAE@ABU?$less@K@1@ABV?$CustomAllocator@U?$pair@$$CBKPAVServerData@@@std@@@util@@@Z 0040e470 f i authcommon:ServerDataManager.obj
 0001:0000d470       ??0?$map@KPAUGROUP_DATA@@U?$less@K@std@@V?$CustomAllocator@PAUGROUP_DATA@@@util@@@std@@QAE@ABU?$less@K@1@ABV?$CustomAllocator@U?$pair@$$CBKPAUGROUP_DATA@@@std@@@util@@@Z 0040e470 f i authcommon:ServerDataManager.obj
 0001:0000d470       ??0?$map@KKU?$less@K@std@@V?$CustomAllocator@K@util@@@std@@QAE@ABU?$less@K@1@ABV?$CustomAllocator@U?$pair@$$CBKK@std@@@util@@@Z 0040e470 f i ClientManager.obj
 0001:0000d490       ?_Right@?$_Tree@V?$_Tmap_traits@V?$basic_string@DU?$char_traits@D@std@@V?$allocator@D@2@@std@@EU?$less@V?$basic_string@DU?$char_traits@D@std@@V?$allocator@D@2@@std@@@2@V?$allocator@U?$pair@$$CBV?$basic_string@DU?$char_traits@D@std@@V?$allocator@D@2@@std@@E@std@@@2@$0A@@std@@@std@@KAAAPAU_Node@?$_Tree_nod@V?$_Tmap_traits@V?$basic_string@DU?$char_traits@D@std@@V?$allocator@D@2@@std@@EU?$less@V?$basic_string@DU?$char_traits@D@std@@V?$allocator@D@2@@std@@@2@V?$allocator@U?$pair@$$CBV?$basic_string@DU?$char_traits@D@std@@V?$allocator@D@2@@std@@E@std@@@2@$0A@@std@@@2@PAU342@@Z 0040e490 f i authcommon:csvlib.obj
 0001:0000d490       ?_Right@?$_Tree@V?$_Tmap_traits@KKU?$less@K@std@@V?$CustomAllocator@K@util@@$0A@@std@@@std@@KAAAPAU_Node@?$_Tree_nod@V?$_Tmap_traits@KKU?$less@K@std@@V?$CustomAllocator@K@util@@$0A@@std@@@2@PAU342@@Z 0040e490 f i ClientManager.obj
 0001:0000d490       ?_Myval@?$list@U?$pair@$$CBKPAVClientSession@@@std@@V?$CustomAllocator@U?$pair@$$CBKPAVClientSession@@@std@@@util@@@std@@KAAAU?$pair@$$CBKPAVClientSession@@@2@PAU_Node@?$_List_nod@U?$pair@$$CBKPAVClientSession@@@std@@V?$CustomAllocator@U?$pair@$$CBKPAVClientSession@@@std@@@util@@@2@@Z 0040e490 f i ClientManager.obj
 0001:0000d490       ?_Right@?$_Tree@V?$_Tmap_traits@KPAVServerData@@U?$less@K@std@@V?$CustomAllocator@PAVServerData@@@util@@$0A@@std@@@std@@KAAAPAU_Node@?$_Tree_nod@V?$_Tmap_traits@KPAVServerData@@U?$less@K@std@@V?$CustomAllocator@PAVServerData@@@util@@$0A@@std@@@2@PAU342@@Z 0040e490 f i authcommon:ServerDataManager.obj
 0001:0000d490       ?_Right@?$_Tree@V?$_Tmap_traits@KPAUGROUP_DATA@@U?$less@K@std@@V?$CustomAllocator@PAUGROUP_DATA@@@util@@$0A@@std@@@std@@KAAAPAU_Node@?$_Tree_nod@V?$_Tmap_traits@KPAUGROUP_DATA@@U?$less@K@std@@V?$CustomAllocator@PAUGROUP_DATA@@@util@@$0A@@std@@@2@PAU342@@Z 0040e490 f i authcommon:ServerDataManager.obj
 0001:0000d4a0       ?_Lmost@?$_Tree@V?$_Tmap_traits@KPAUGROUP_DATA@@U?$less@K@std@@V?$CustomAllocator@PAUGROUP_DATA@@@util@@$0A@@std@@@std@@IBEAAPAU_Node@?$_Tree_nod@V?$_Tmap_traits@KPAUGROUP_DATA@@U?$less@K@std@@V?$CustomAllocator@PAUGROUP_DATA@@@util@@$0A@@std@@@2@XZ 0040e4a0 f i authcommon:ServerDataManager.obj
 0001:0000d4a0       ?_Lmost@?$_Tree@V?$_Tmap_traits@V?$basic_string@DU?$char_traits@D@std@@V?$allocator@D@2@@std@@EU?$less@V?$basic_string@DU?$char_traits@D@std@@V?$allocator@D@2@@std@@@2@V?$allocator@U?$pair@$$CBV?$basic_string@DU?$char_traits@D@std@@V?$allocator@D@2@@std@@E@std@@@2@$0A@@std@@@std@@IBEAAPAU_Node@?$_Tree_nod@V?$_Tmap_traits@V?$basic_string@DU?$char_traits@D@std@@V?$allocator@D@2@@std@@EU?$less@V?$basic_string@DU?$char_traits@D@std@@V?$allocator@D@2@@std@@@2@V?$allocator@U?$pair@$$CBV?$basic_string@DU?$char_traits@D@std@@V?$allocator@D@2@@std@@E@std@@@2@$0A@@std@@@2@XZ 0040e4a0 f i authcommon:csvlib.obj
 0001:0000d4a0       ?_Lmost@?$_Tree@V?$_Tmap_traits@KPAVServerData@@U?$less@K@std@@V?$CustomAllocator@PAVServerData@@@util@@$0A@@std@@@std@@IBEAAPAU_Node@?$_Tree_nod@V?$_Tmap_traits@KPAVServerData@@U?$less@K@std@@V?$CustomAllocator@PAVServerData@@@util@@$0A@@std@@@2@XZ 0040e4a0 f i authcommon:ServerDataManager.obj
 0001:0000d4a0       ?_Lmost@?$_Tree@V?$_Tmap_traits@KKU?$less@K@std@@V?$CustomAllocator@K@util@@$0A@@std@@@std@@IBEAAPAU_Node@?$_Tree_nod@V?$_Tmap_traits@KKU?$less@K@std@@V?$CustomAllocator@K@util@@$0A@@std@@@2@XZ 0040e4a0 f i ClientManager.obj
 0001:0000d4c0       ??Diterator@?$_Tree@V?$_Tmap_traits@KPAUGROUP_DATA@@U?$less@K@std@@V?$CustomAllocator@PAUGROUP_DATA@@@util@@$0A@@std@@@std@@QBEAAU?$pair@$$CBKPAUGROUP_DATA@@@2@XZ 0040e4c0 f i authcommon:ServerDataManager.obj
 0001:0000d4c0       ??Diterator@?$_Tree@V?$_Tmap_traits@V?$basic_string@DU?$char_traits@D@std@@V?$allocator@D@2@@std@@EU?$less@V?$basic_string@DU?$char_traits@D@std@@V?$allocator@D@2@@std@@@2@V?$allocator@U?$pair@$$CBV?$basic_string@DU?$char_traits@D@std@@V?$allocator@D@2@@std@@E@std@@@2@$0A@@std@@@std@@QBEAAU?$pair@$$CBV?$basic_string@DU?$char_traits@D@std@@V?$allocator@D@2@@std@@E@2@XZ 0040e4c0 f i authcommon:csvlib.obj
 0001:0000d4c0       ??Diterator@?$_Tree@V?$_Tmap_traits@KPAVServerData@@U?$less@K@std@@V?$CustomAllocator@PAVServerData@@@util@@$0A@@std@@@std@@QBEAAU?$pair@$$CBKPAVServerData@@@2@XZ 0040e4c0 f i authcommon:ServerDataManager.obj
 0001:0000d4e0       ??0iterator@?$_Tree@V?$_Tmap_traits@KPAUGROUP_DATA@@U?$less@K@std@@V?$CustomAllocator@PAUGROUP_DATA@@@util@@$0A@@std@@@std@@QAE@PAU_Node@?$_Tree_nod@V?$_Tmap_traits@KPAUGROUP_DATA@@U?$less@K@std@@V?$CustomAllocator@PAUGROUP_DATA@@@util@@$0A@@std@@@2@PBV12@@Z 0040e4e0 f i authcommon:ServerDataManager.obj
 0001:0000d4e0       ??0iterator@?$_Tree@V?$_Tmap_traits@V?$basic_string@DU?$char_traits@D@std@@V?$allocator@D@2@@std@@EU?$less@V?$basic_string@DU?$char_traits@D@std@@V?$allocator@D@2@@std@@@2@V?$allocator@U?$pair@$$CBV?$basic_string@DU?$char_traits@D@std@@V?$allocator@D@2@@std@@E@std@@@2@$0A@@std@@@std@@QAE@PAU_Node@?$_Tree_nod@V?$_Tmap_traits@V?$basic_string@DU?$char_traits@D@std@@V?$allocator@D@2@@std@@EU?$less@V?$basic_string@DU?$char_traits@D@std@@V?$allocator@D@2@@std@@@2@V?$allocator@U?$pair@$$CBV?$basic_string@DU?$char_traits@D@std@@V?$allocator@D@2@@std@@E@std@@@2@$0A@@std@@@2@PBV12@@Z 0040e4e0 f i authcommon:csvlib.obj
 0001:0000d4e0       ??0iterator@?$_Tree@V?$_Tmap_traits@KPAVServerData@@U?$less@K@std@@V?$CustomAllocator@PAVServerData@@@util@@$0A@@std@@@std@@QAE@PAU_Node@?$_Tree_nod@V?$_Tmap_traits@KPAVServerData@@U?$less@K@std@@V?$CustomAllocator@PAVServerData@@@util@@$0A@@std@@@2@PBV12@@Z 0040e4e0 f i authcommon:ServerDataManager.obj
 0001:0000d500       ??Fiterator@?$_Tree@V?$_Tmap_traits@KPAUGROUP_DATA@@U?$less@K@std@@V?$CustomAllocator@PAUGROUP_DATA@@@util@@$0A@@std@@@std@@QAEAAV012@XZ 0040e500 f i authcommon:ServerDataManager.obj
 0001:0000d500       ??Fiterator@?$_Tree@V?$_Tmap_traits@KPAVServerData@@U?$less@K@std@@V?$CustomAllocator@PAVServerData@@@util@@$0A@@std@@@std@@QAEAAV012@XZ 0040e500 f i authcommon:ServerDataManager.obj
 0001:0000d520       ??Econst_iterator@?$_Tree@V?$_Tmap_traits@KPAVServerData@@U?$less@K@std@@V?$CustomAllocator@PAVServerData@@@util@@$0A@@std@@@std@@QAEAAV012@XZ 0040e520 f i authcommon:ServerDataManager.obj
 0001:0000d520       ??Econst_iterator@?$_Tree@V?$_Tmap_traits@KPAUGROUP_DATA@@U?$less@K@std@@V?$CustomAllocator@PAUGROUP_DATA@@@util@@$0A@@std@@@std@@QAEAAV012@XZ 0040e520 f i authcommon:ServerDataManager.obj
 0001:0000d540       ??8const_iterator@?$_Tree@V?$_Tmap_traits@V?$basic_string@DU?$char_traits@D@std@@V?$allocator@D@2@@std@@EU?$less@V?$basic_string@DU?$char_traits@D@std@@V?$allocator@D@2@@std@@@2@V?$allocator@U?$pair@$$CBV?$basic_string@DU?$char_traits@D@std@@V?$allocator@D@2@@std@@E@std@@@2@$0A@@std@@@std@@QBE_NABV012@@Z 0040e540 f i authcommon:csvlib.obj
 0001:0000d540       ??8const_iterator@?$_Tree@V?$_Tmap_traits@KPAUGROUP_DATA@@U?$less@K@std@@V?$CustomAllocator@PAUGROUP_DATA@@@util@@$0A@@std@@@std@@QBE_NABV012@@Z 0040e540 f i authcommon:ServerDataManager.obj
 0001:0000d540       ??8?$_Vector_const_iterator@V?$basic_string@DU?$char_traits@D@std@@V?$allocator@D@2@@std@@V?$allocator@V?$basic_string@DU?$char_traits@D@std@@V?$allocator@D@2@@std@@@2@@std@@QBE_NABV01@@Z 0040e540 f i authcommon:csvlib.obj
 0001:0000d540       ??8const_iterator@?$_Tree@V?$_Tmap_traits@KPAVServerData@@U?$less@K@std@@V?$CustomAllocator@PAVServerData@@@util@@$0A@@std@@@std@@QBE_NABV012@@Z 0040e540 f i authcommon:ServerDataManager.obj
 0001:0000d590       ?erase@?$_Tree@V?$_Tmap_traits@KPAVServerData@@U?$less@K@std@@V?$CustomAllocator@PAVServerData@@@util@@$0A@@std@@@std@@QAE?AViterator@12@Vconst_iterator@12@0@Z 0040e590 f i authcommon:ServerDataManager.obj
 0001:0000d590       ?erase@?$_Tree@V?$_Tmap_traits@KPAUGROUP_DATA@@U?$less@K@std@@V?$CustomAllocator@PAUGROUP_DATA@@@util@@$0A@@std@@@std@@QAE?AViterator@12@Vconst_iterator@12@0@Z 0040e590 f i authcommon:ServerDataManager.obj
 0001:0000d640       ?_Color@?$_Tree@V?$_Tmap_traits@KKU?$less@K@std@@V?$CustomAllocator@K@util@@$0A@@std@@@std@@KAAADPAU_Node@?$_Tree_nod@V?$_Tmap_traits@KKU?$less@K@std@@V?$CustomAllocator@K@util@@$0A@@std@@@2@@Z 0040e640 f i ClientManager.obj
 0001:0000d640       ?_Color@?$_Tree@V?$_Tmap_traits@KPAVServerData@@U?$less@K@std@@V?$CustomAllocator@PAVServerData@@@util@@$0A@@std@@@std@@KAAADPAU_Node@?$_Tree_nod@V?$_Tmap_traits@KPAVServerData@@U?$less@K@std@@V?$CustomAllocator@PAVServerData@@@util@@$0A@@std@@@2@@Z 0040e640 f i authcommon:ServerDataManager.obj
 0001:0000d640       ?_Color@?$_Tree@V?$_Tmap_traits@KPAUGROUP_DATA@@U?$less@K@std@@V?$CustomAllocator@PAUGROUP_DATA@@@util@@$0A@@std@@@std@@KAAADPAU_Node@?$_Tree_nod@V?$_Tmap_traits@KPAUGROUP_DATA@@U?$less@K@std@@V?$CustomAllocator@PAUGROUP_DATA@@@util@@$0A@@std@@@2@@Z 0040e640 f i authcommon:ServerDataManager.obj
 0001:0000d650       ?_Parent@?$_Tree@V?$_Tmap_traits@V?$basic_string@DU?$char_traits@D@std@@V?$allocator@D@2@@std@@EU?$less@V?$basic_string@DU?$char_traits@D@std@@V?$allocator@D@2@@std@@@2@V?$allocator@U?$pair@$$CBV?$basic_string@DU?$char_traits@D@std@@V?$allocator@D@2@@std@@E@std@@@2@$0A@@std@@@std@@KAAAPAU_Node@?$_Tree_nod@V?$_Tmap_traits@V?$basic_string@DU?$char_traits@D@std@@V?$allocator@D@2@@std@@EU?$less@V?$basic_string@DU?$char_traits@D@std@@V?$allocator@D@2@@std@@@2@V?$allocator@U?$pair@$$CBV?$basic_string@DU?$char_traits@D@std@@V?$allocator@D@2@@std@@E@std@@@2@$0A@@std@@@2@PAU342@@Z 0040e650 f i authcommon:csvlib.obj
 0001:0000d650       ?_Parent@?$_Tree@V?$_Tmap_traits@KPAVServerData@@U?$less@K@std@@V?$CustomAllocator@PAVServerData@@@util@@$0A@@std@@@std@@KAAAPAU_Node@?$_Tree_nod@V?$_Tmap_traits@KPAVServerData@@U?$less@K@std@@V?$CustomAllocator@PAVServerData@@@util@@$0A@@std@@@2@PAU342@@Z 0040e650 f i authcommon:ServerDataManager.obj
 0001:0000d650       ?_Prevnode@?$list@U?$pair@$$CBKPAVClientSession@@@std@@V?$CustomAllocator@U?$pair@$$CBKPAVClientSession@@@std@@@util@@@std@@KAAAPAU_Node@?$_List_nod@U?$pair@$$CBKPAVClientSession@@@std@@V?$CustomAllocator@U?$pair@$$CBKPAVClientSession@@@std@@@util@@@2@PAU342@@Z 0040e650 f i ClientManager.obj
 0001:0000d650       ?_Parent@?$_Tree@V?$_Tmap_traits@KKU?$less@K@std@@V?$CustomAllocator@K@util@@$0A@@std@@@std@@KAAAPAU_Node@?$_Tree_nod@V?$_Tmap_traits@KKU?$less@K@std@@V?$CustomAllocator@K@util@@$0A@@std@@@2@PAU342@@Z 0040e650 f i ClientManager.obj
 0001:0000d650       ?_Parent@?$_Tree@V?$_Tmap_traits@KPAUGROUP_DATA@@U?$less@K@std@@V?$CustomAllocator@PAUGROUP_DATA@@@util@@$0A@@std@@@std@@KAAAPAU_Node@?$_Tree_nod@V?$_Tmap_traits@KPAUGROUP_DATA@@U?$less@K@std@@V?$CustomAllocator@PAUGROUP_DATA@@@util@@$0A@@std@@@2@PAU342@@Z 0040e650 f i authcommon:ServerDataManager.obj
 0001:0000d660       ?_Myval@?$_Tree@V?$_Tmap_traits@KKU?$less@K@std@@V?$CustomAllocator@K@util@@$0A@@std@@@std@@KAAAU?$pair@$$CBKK@2@PAU_Node@?$_Tree_nod@V?$_Tmap_traits@KKU?$less@K@std@@V?$CustomAllocator@K@util@@$0A@@std@@@2@@Z 0040e660 f i ClientManager.obj
 0001:0000d660       ?_Myval@?$_Tree@V?$_Tmap_traits@V?$basic_string@DU?$char_traits@D@std@@V?$allocator@D@2@@std@@EU?$less@V?$basic_string@DU?$char_traits@D@std@@V?$allocator@D@2@@std@@@2@V?$allocator@U?$pair@$$CBV?$basic_string@DU?$char_traits@D@std@@V?$allocator@D@2@@std@@E@std@@@2@$0A@@std@@@std@@KAAAU?$pair@$$CBV?$basic_string@DU?$char_traits@D@std@@V?$allocator@D@2@@std@@E@2@PAU_Node@?$_Tree_nod@V?$_Tmap_traits@V?$basic_string@DU?$char_traits@D@std@@V?$allocator@D@2@@std@@EU?$less@V?$basic_string@DU?$char_traits@D@std@@V?$allocator@D@2@@std@@@2@V?$allocator@U?$pair@$$CBV?$basic_string@DU?$char_traits@D@std@@V?$allocator@D@2@@std@@E@std@@@2@$0A@@std@@@2@@Z 0040e660 f i authcommon:csvlib.obj
 0001:0000d660       ?_Myval@?$_Tree@V?$_Tmap_traits@KPAUGROUP_DATA@@U?$less@K@std@@V?$CustomAllocator@PAUGROUP_DATA@@@util@@$0A@@std@@@std@@KAAAU?$pair@$$CBKPAUGROUP_DATA@@@2@PAU_Node@?$_Tree_nod@V?$_Tmap_traits@KPAUGROUP_DATA@@U?$less@K@std@@V?$CustomAllocator@PAUGROUP_DATA@@@util@@$0A@@std@@@2@@Z 0040e660 f i authcommon:ServerDataManager.obj
 0001:0000d660       ?_Myval@?$_Tree@V?$_Tmap_traits@KPAVServerData@@U?$less@K@std@@V?$CustomAllocator@PAVServerData@@@util@@$0A@@std@@@std@@KAAAU?$pair@$$CBKPAVServerData@@@2@PAU_Node@?$_Tree_nod@V?$_Tmap_traits@KPAVServerData@@U?$less@K@std@@V?$CustomAllocator@PAVServerData@@@util@@$0A@@std@@@2@@Z 0040e660 f i authcommon:ServerDataManager.obj
 0001:0000d670       ??0?$_Tree@V?$_Tmap_traits@KPAVServerData@@U?$less@K@std@@V?$CustomAllocator@PAVServerData@@@util@@$0A@@std@@@std@@QAE@ABU?$less@K@1@ABV?$CustomAllocator@U?$pair@$$CBKPAVServerData@@@std@@@util@@@Z 0040e670 f i authcommon:ServerDataManager.obj
 0001:0000d670       ??0?$_Tree@V?$_Tmap_traits@KPAUGROUP_DATA@@U?$less@K@std@@V?$CustomAllocator@PAUGROUP_DATA@@@util@@$0A@@std@@@std@@QAE@ABU?$less@K@1@ABV?$CustomAllocator@U?$pair@$$CBKPAUGROUP_DATA@@@std@@@util@@@Z 0040e670 f i authcommon:ServerDataManager.obj
 0001:0000d670       ??0?$_Tree@V?$_Tmap_traits@KKU?$less@K@std@@V?$CustomAllocator@K@util@@$0A@@std@@@std@@QAE@ABU?$less@K@1@ABV?$CustomAllocator@U?$pair@$$CBKK@std@@@util@@@Z 0040e670 f i ClientManager.obj
 0001:0000d6e0       ?max_size@?$_Tree@V?$_Tmap_traits@KKU?$less@K@std@@V?$CustomAllocator@K@util@@$0A@@std@@@std@@QBEIXZ 0040e6e0 f i ClientManager.obj
 0001:0000d6e0       ?max_size@?$_Tree@V?$_Tmap_traits@KPAUGROUP_DATA@@U?$less@K@std@@V?$CustomAllocator@PAUGROUP_DATA@@@util@@$0A@@std@@@std@@QBEIXZ 0040e6e0 f i authcommon:ServerDataManager.obj
 0001:0000d6e0       ?max_size@?$_Tree@V?$_Tmap_traits@KPAVServerData@@U?$less@K@std@@V?$CustomAllocator@PAVServerData@@@util@@$0A@@std@@@std@@QBEIXZ 0040e6e0 f i authcommon:ServerDataManager.obj
 0001:0000d700       ??Dconst_iterator@?$_Tree@V?$_Tmap_traits@V?$basic_string@DU?$char_traits@D@std@@V?$allocator@D@2@@std@@EU?$less@V?$basic_string@DU?$char_traits@D@std@@V?$allocator@D@2@@std@@@2@V?$allocator@U?$pair@$$CBV?$basic_string@DU?$char_traits@D@std@@V?$allocator@D@2@@std@@E@std@@@2@$0A@@std@@@std@@QBEABU?$pair@$$CBV?$basic_string@DU?$char_traits@D@std@@V?$allocator@D@2@@std@@E@2@XZ 0040e700 f i authcommon:csvlib.obj
 0001:0000d700       ??Dconst_iterator@?$_Tree@V?$_Tmap_traits@KPAUGROUP_DATA@@U?$less@K@std@@V?$CustomAllocator@PAUGROUP_DATA@@@util@@$0A@@std@@@std@@QBEABU?$pair@$$CBKPAUGROUP_DATA@@@2@XZ 0040e700 f i authcommon:ServerDataManager.obj
 0001:0000d700       ??Dconst_iterator@?$_Tree@V?$_Tmap_traits@KPAVServerData@@U?$less@K@std@@V?$CustomAllocator@PAVServerData@@@util@@$0A@@std@@@std@@QBEABU?$pair@$$CBKPAVServerData@@@2@XZ 0040e700 f i authcommon:ServerDataManager.obj
 0001:0000d750       ??0const_iterator@?$_Tree@V?$_Tmap_traits@KPAUGROUP_DATA@@U?$less@K@std@@V?$CustomAllocator@PAUGROUP_DATA@@@util@@$0A@@std@@@std@@QAE@PAU_Node@?$_Tree_nod@V?$_Tmap_traits@KPAUGROUP_DATA@@U?$less@K@std@@V?$CustomAllocator@PAUGROUP_DATA@@@util@@$0A@@std@@@2@PBV12@@Z 0040e750 f i authcommon:ServerDataManager.obj
 0001:0000d750       ??0const_iterator@?$_Tree@V?$_Tmap_traits@KPAVServerData@@U?$less@K@std@@V?$CustomAllocator@PAVServerData@@@util@@$0A@@std@@@std@@QAE@PAU_Node@?$_Tree_nod@V?$_Tmap_traits@KPAVServerData@@U?$less@K@std@@V?$CustomAllocator@PAVServerData@@@util@@$0A@@std@@@2@PBV12@@Z 0040e750 f i authcommon:ServerDataManager.obj
 0001:0000d750       ??0const_iterator@?$_Tree@V?$_Tmap_traits@V?$basic_string@DU?$char_traits@D@std@@V?$allocator@D@2@@std@@EU?$less@V?$basic_string@DU?$char_traits@D@std@@V?$allocator@D@2@@std@@@2@V?$allocator@U?$pair@$$CBV?$basic_string@DU?$char_traits@D@std@@V?$allocator@D@2@@std@@E@std@@@2@$0A@@std@@@std@@QAE@PAU_Node@?$_Tree_nod@V?$_Tmap_traits@V?$basic_string@DU?$char_traits@D@std@@V?$allocator@D@2@@std@@EU?$less@V?$basic_string@DU?$char_traits@D@std@@V?$allocator@D@2@@std@@@2@V?$allocator@U?$pair@$$CBV?$basic_string@DU?$char_traits@D@std@@V?$allocator@D@2@@std@@E@std@@@2@$0A@@std@@@2@PBV12@@Z 0040e750 f i authcommon:csvlib.obj
 0001:0000d790       ??Fconst_iterator@?$_Tree@V?$_Tmap_traits@KPAVServerData@@U?$less@K@std@@V?$CustomAllocator@PAVServerData@@@util@@$0A@@std@@@std@@QAEAAV012@XZ 0040e790 f i authcommon:ServerDataManager.obj
 0001:0000d790       ??Fconst_iterator@?$_Tree@V?$_Tmap_traits@KPAUGROUP_DATA@@U?$less@K@std@@V?$CustomAllocator@PAUGROUP_DATA@@@util@@$0A@@std@@@std@@QAEAAV012@XZ 0040e790 f i authcommon:ServerDataManager.obj
 0001:0000d7b0       ?_Inc@const_iterator@?$_Tree@V?$_Tmap_traits@KPAVServerData@@U?$less@K@std@@V?$CustomAllocator@PAVServerData@@@util@@$0A@@std@@@std@@QAEXXZ 0040e7b0 f i authcommon:ServerDataManager.obj
 0001:0000d7b0       ?_Inc@const_iterator@?$_Tree@V?$_Tmap_traits@KPAUGROUP_DATA@@U?$less@K@std@@V?$CustomAllocator@PAUGROUP_DATA@@@util@@$0A@@std@@@std@@QAEXXZ 0040e7b0 f i authcommon:ServerDataManager.obj
 0001:0000d890       ??0?$_Iterator_with_base@Urandom_access_iterator_tag@std@@U_List_position@?$_Hash@V?$_Hmap_traits@KPAVClientSession@@V?$hash_compare@KU?$less@K@std@@@stdext@@V?$CustomAllocator@PAVClientSession@@@util@@$0A@@stdext@@@stdext@@HPBU345@ABU345@V_Iterator_base_aux@2@@std@@QAE@XZ 0040e890 f i ClientManager.obj
 0001:0000d890       ??0?$_Iterator_with_base@Ubidirectional_iterator_tag@std@@U?$pair@$$CBKK@2@HPBU32@ABU32@V_Iterator_base_aux@2@@std@@QAE@XZ 0040e890 f i ClientManager.obj
 0001:0000d890       ??0?$_Iterator_with_base@Ubidirectional_iterator_tag@std@@U?$pair@$$CBKPAVServerData@@@2@HPBU32@ABU32@V_Iterator_base_aux@2@@std@@QAE@XZ 0040e890 f i authcommon:ServerDataManager.obj
 0001:0000d890       ??0?$_Iterator_with_base@Ubidirectional_iterator_tag@std@@U?$pair@$$CBKPAUGROUP_DATA@@@2@HPBU32@ABU32@V_Iterator_base_aux@2@@std@@QAE@XZ 0040e890 f i authcommon:ServerDataManager.obj
 0001:0000d890       ??0?$_Iterator_with_base@Ubidirectional_iterator_tag@std@@U?$pair@$$CBV?$basic_string@DU?$char_traits@D@std@@V?$allocator@D@2@@std@@E@2@HPBU32@ABU32@V_Iterator_base_aux@2@@std@@QAE@XZ 0040e890 f i authcommon:csvlib.obj
 0001:0000d890       ??0?$_Iterator_with_base@Urandom_access_iterator_tag@std@@V?$basic_string@DU?$char_traits@D@std@@V?$allocator@D@2@@2@HPBV32@ABV32@V_Iterator_base_aux@2@@std@@QAE@XZ 0040e890 f i authcommon:csvlib.obj
 0001:0000d890       ??0?$_Iterator_with_base@Ubidirectional_iterator_tag@std@@U?$pair@$$CBKPAVClientSession@@@2@HPBU32@ABU32@V_Iterator_base_aux@2@@std@@QAE@XZ 0040e890 f i ClientManager.obj
 0001:0000d890       ??0?$_Ranit_base@DHPBDABDV_Iterator_base_secure@std@@@std@@QAE@XZ 0040e890 f i LoginFrontFrame.obj
 0001:0000d8b0       ?erase@?$_Tree@V?$_Tmap_traits@KPAVServerData@@U?$less@K@std@@V?$CustomAllocator@PAVServerData@@@util@@$0A@@std@@@std@@QAE?AViterator@12@Vconst_iterator@12@@Z 0040e8b0 f i authcommon:ServerDataManager.obj
 0001:0000d8b0       ?erase@?$_Tree@V?$_Tmap_traits@KPAUGROUP_DATA@@U?$less@K@std@@V?$CustomAllocator@PAUGROUP_DATA@@@util@@$0A@@std@@@std@@QAE?AViterator@12@Vconst_iterator@12@@Z 0040e8b0 f i authcommon:ServerDataManager.obj
 0001:0000e090       ?_Make_iter@?$_Tree@V?$_Tmap_traits@KPAVServerData@@U?$less@K@std@@V?$CustomAllocator@PAVServerData@@@util@@$0A@@std@@@std@@QBE?AViterator@12@Vconst_iterator@12@@Z 0040f090 f i authcommon:ServerDataManager.obj
 0001:0000e090       ?_Make_iter@?$_Tree@V?$_Tmap_traits@KPAUGROUP_DATA@@U?$less@K@std@@V?$CustomAllocator@PAUGROUP_DATA@@@util@@$0A@@std@@@std@@QBE?AViterator@12@Vconst_iterator@12@@Z 0040f090 f i authcommon:ServerDataManager.obj
 0001:0000e090       ?_Make_iter@?$_Tree@V?$_Tmap_traits@V?$basic_string@DU?$char_traits@D@std@@V?$allocator@D@2@@std@@EU?$less@V?$basic_string@DU?$char_traits@D@std@@V?$allocator@D@2@@std@@@2@V?$allocator@U?$pair@$$CBV?$basic_string@DU?$char_traits@D@std@@V?$allocator@D@2@@std@@E@std@@@2@$0A@@std@@@std@@QBE?AViterator@12@Vconst_iterator@12@@Z 0040f090 f i authcommon:csvlib.obj
 0001:0000e0c0       ?_Init@?$_Tree@V?$_Tmap_traits@KKU?$less@K@std@@V?$CustomAllocator@K@util@@$0A@@std@@@std@@IAEXXZ 0040f0c0 f i ClientManager.obj
 0001:0000e0c0       ?_Init@?$_Tree@V?$_Tmap_traits@KPAVServerData@@U?$less@K@std@@V?$CustomAllocator@PAVServerData@@@util@@$0A@@std@@@std@@IAEXXZ 0040f0c0 f i authcommon:ServerDataManager.obj
 0001:0000e0c0       ?_Init@?$_Tree@V?$_Tmap_traits@KPAUGROUP_DATA@@U?$less@K@std@@V?$CustomAllocator@PAUGROUP_DATA@@@util@@$0A@@std@@@std@@IAEXXZ 0040f0c0 f i authcommon:ServerDataManager.obj
 0001:0000e130       ?_Min@?$_Tree@V?$_Tmap_traits@KKU?$less@K@std@@V?$CustomAllocator@K@util@@$0A@@std@@@std@@KAPAU_Node@?$_Tree_nod@V?$_Tmap_traits@KKU?$less@K@std@@V?$CustomAllocator@K@util@@$0A@@std@@@2@PAU342@@Z 0040f130 f i ClientManager.obj
 0001:0000e130       ?_Min@?$_Tree@V?$_Tmap_traits@KPAUGROUP_DATA@@U?$less@K@std@@V?$CustomAllocator@PAUGROUP_DATA@@@util@@$0A@@std@@@std@@KAPAU_Node@?$_Tree_nod@V?$_Tmap_traits@KPAUGROUP_DATA@@U?$less@K@std@@V?$CustomAllocator@PAUGROUP_DATA@@@util@@$0A@@std@@@2@PAU342@@Z 0040f130 f i authcommon:ServerDataManager.obj
 0001:0000e130       ?_Min@?$_Tree@V?$_Tmap_traits@KPAVServerData@@U?$less@K@std@@V?$CustomAllocator@PAVServerData@@@util@@$0A@@std@@@std@@KAPAU_Node@?$_Tree_nod@V?$_Tmap_traits@KPAVServerData@@U?$less@K@std@@V?$CustomAllocator@PAVServerData@@@util@@$0A@@std@@@2@PAU342@@Z 0040f130 f i authcommon:ServerDataManager.obj
 0001:0000e170       ??0?$_Tree_val@V?$_Tmap_traits@KPAVServerData@@U?$less@K@std@@V?$CustomAllocator@PAVServerData@@@util@@$0A@@std@@@std@@IAE@ABU?$less@K@1@V?$CustomAllocator@U?$pair@$$CBKPAVServerData@@@std@@@util@@@Z 0040f170 f i authcommon:ServerDataManager.obj
 0001:0000e170       ??0?$_Tree_val@V?$_Tmap_traits@KKU?$less@K@std@@V?$CustomAllocator@K@util@@$0A@@std@@@std@@IAE@ABU?$less@K@1@V?$CustomAllocator@U?$pair@$$CBKK@std@@@util@@@Z 0040f170 f i ClientManager.obj
 0001:0000e170       ??0?$_Tree_val@V?$_Tmap_traits@KPAUGROUP_DATA@@U?$less@K@std@@V?$CustomAllocator@PAUGROUP_DATA@@@util@@$0A@@std@@@std@@IAE@ABU?$less@K@1@V?$CustomAllocator@U?$pair@$$CBKPAUGROUP_DATA@@@std@@@util@@@Z 0040f170 f i authcommon:ServerDataManager.obj
 0001:0000e1a0       ??Econst_iterator@?$_Tree@V?$_Tmap_traits@KPAUGROUP_DATA@@U?$less@K@std@@V?$CustomAllocator@PAUGROUP_DATA@@@util@@$0A@@std@@@std@@QAE?AV012@H@Z 0040f1a0 f i authcommon:ServerDataManager.obj
 0001:0000e1a0       ??Econst_iterator@?$_Tree@V?$_Tmap_traits@KPAVServerData@@U?$less@K@std@@V?$CustomAllocator@PAVServerData@@@util@@$0A@@std@@@std@@QAE?AV012@H@Z 0040f1a0 f i authcommon:ServerDataManager.obj
 0001:0000e1e0       ?_Dec@const_iterator@?$_Tree@V?$_Tmap_traits@KPAUGROUP_DATA@@U?$less@K@std@@V?$CustomAllocator@PAUGROUP_DATA@@@util@@$0A@@std@@@std@@QAEXXZ 0040f1e0 f i authcommon:ServerDataManager.obj
 0001:0000e1e0       ?_Dec@const_iterator@?$_Tree@V?$_Tmap_traits@KPAVServerData@@U?$less@K@std@@V?$CustomAllocator@PAVServerData@@@util@@$0A@@std@@@std@@QAEXXZ 0040f1e0 f i authcommon:ServerDataManager.obj
 0001:0000e310       ?_Buynode@?$_Tree@V?$_Tmap_traits@KPAUGROUP_DATA@@U?$less@K@std@@V?$CustomAllocator@PAUGROUP_DATA@@@util@@$0A@@std@@@std@@IAEPAU_Node@?$_Tree_nod@V?$_Tmap_traits@KPAUGROUP_DATA@@U?$less@K@std@@V?$CustomAllocator@PAUGROUP_DATA@@@util@@$0A@@std@@@2@XZ 0040f310 f i authcommon:ServerDataManager.obj
 0001:0000e310       ?_Buynode@?$_Tree@V?$_Tmap_traits@KPAVServerData@@U?$less@K@std@@V?$CustomAllocator@PAVServerData@@@util@@$0A@@std@@@std@@IAEPAU_Node@?$_Tree_nod@V?$_Tmap_traits@KPAVServerData@@U?$less@K@std@@V?$CustomAllocator@PAVServerData@@@util@@$0A@@std@@@2@XZ 0040f310 f i authcommon:ServerDataManager.obj
 0001:0000e310       ?_Buynode@?$_Tree@V?$_Tmap_traits@KKU?$less@K@std@@V?$CustomAllocator@K@util@@$0A@@std@@@std@@IAEPAU_Node@?$_Tree_nod@V?$_Tmap_traits@KKU?$less@K@std@@V?$CustomAllocator@K@util@@$0A@@std@@@2@XZ 0040f310 f i ClientManager.obj
 0001:0000e490       ??0?$_Tree_ptr@V?$_Tmap_traits@KPAUGROUP_DATA@@U?$less@K@std@@V?$CustomAllocator@PAUGROUP_DATA@@@util@@$0A@@std@@@std@@IAE@ABU?$less@K@1@V?$CustomAllocator@U?$pair@$$CBKPAUGROUP_DATA@@@std@@@util@@@Z 0040f490 f i authcommon:ServerDataManager.obj
 0001:0000e490       ??0?$_Tree_ptr@V?$_Tmap_traits@KPAVServerData@@U?$less@K@std@@V?$CustomAllocator@PAVServerData@@@util@@$0A@@std@@@std@@IAE@ABU?$less@K@1@V?$CustomAllocator@U?$pair@$$CBKPAVServerData@@@std@@@util@@@Z 0040f490 f i authcommon:ServerDataManager.obj
 0001:0000e490       ??0?$_Tree_ptr@V?$_Tmap_traits@KKU?$less@K@std@@V?$CustomAllocator@K@util@@$0A@@std@@@std@@IAE@ABU?$less@K@1@V?$CustomAllocator@U?$pair@$$CBKK@std@@@util@@@Z 0040f490 f i ClientManager.obj
 0001:0000e500       ??0?$_Tree_nod@V?$_Tmap_traits@KPAVServerData@@U?$less@K@std@@V?$CustomAllocator@PAVServerData@@@util@@$0A@@std@@@std@@IAE@ABU?$less@K@1@V?$CustomAllocator@U?$pair@$$CBKPAVServerData@@@std@@@util@@@Z 0040f500 f i authcommon:ServerDataManager.obj
 0001:0000e500       ??0?$_Tree_nod@V?$_Tmap_traits@KPAUGROUP_DATA@@U?$less@K@std@@V?$CustomAllocator@PAUGROUP_DATA@@@util@@$0A@@std@@@std@@IAE@ABU?$less@K@1@V?$CustomAllocator@U?$pair@$$CBKPAUGROUP_DATA@@@std@@@util@@@Z 0040f500 f i authcommon:ServerDataManager.obj
 0001:0000e500       ??0?$_Tree_nod@V?$_Tmap_traits@KKU?$less@K@std@@V?$CustomAllocator@K@util@@$0A@@std@@@std@@IAE@ABU?$less@K@1@V?$CustomAllocator@U?$pair@$$CBKK@std@@@util@@@Z 0040f500 f i ClientManager.obj
 0001:0000e580       ??0?$_Tmap_traits@KKU?$less@K@std@@V?$CustomAllocator@K@util@@$0A@@std@@QAE@U?$less@K@1@V?$CustomAllocator@K@util@@@Z 0040f580 f i ClientManager.obj
 0001:0000e580       ??0?$_Tmap_traits@KPAUGROUP_DATA@@U?$less@K@std@@V?$CustomAllocator@PAUGROUP_DATA@@@util@@$0A@@std@@QAE@U?$less@K@1@V?$CustomAllocator@PAUGROUP_DATA@@@util@@@Z 0040f580 f i authcommon:ServerDataManager.obj
 0001:0000e580       ??0?$_Tmap_traits@KPAVServerData@@U?$less@K@std@@V?$CustomAllocator@PAVServerData@@@util@@$0A@@std@@QAE@U?$less@K@1@V?$CustomAllocator@PAVServerData@@@util@@@Z 0040f580 f i authcommon:ServerDataManager.obj
 0001:0000e5a0       ?GetProtocolType@AuthStepAuthToken@@SA?AW4eProtocol@1@PAUMSG_BASE_INTERNAL@@G@Z 0040f5a0 f   authcommon:AuthStepAuthToken.obj
 0001:0000e6f0       ?MakeReAuthToken@AuthStepAuthToken@@SAEKGPAUReAuthStepAuthTokenInfo@@@Z 0040f6f0 f   authcommon:AuthStepAuthToken.obj
 0001:0000eca0       ?ExtractReAuthTokenRawIndex@AuthStepAuthToken@@SAEPBUToken@CSAuthFlow@nsPacket@@PAG@Z 0040fca0 f   authcommon:AuthStepAuthToken.obj
 0001:0000ed20       ?ExtractReAuthToken@AuthStepAuthToken@@SAEPBUReAuthStepAuthTokenInfo@@PBUToken@CSAuthFlow@nsPacket@@PAKPAG@Z 0040fd20 f   authcommon:AuthStepAuthToken.obj
 0001:0000ee40       ?StringTokenConverter@@YAKK@Z 0040fe40 f i authcommon:AuthStepAuthToken.obj
 0001:0000eec0       ??0Csvlib@@QAE@XZ          0040fec0 f   authcommon:csvlib.obj
 0001:0000ef30       ??1Csvlib@@UAE@XZ          0040ff30 f   authcommon:csvlib.obj
 0001:0000efa0       ?Clear@Csvlib@@QAEXXZ      0040ffa0 f   authcommon:csvlib.obj
 0001:0000efd0       ?LoadFromFile@Csvlib@@QAE_NPAD@Z 0040ffd0 f   authcommon:csvlib.obj
 0001:0000f140       ?Select@Csvlib@@QAE?AV?$basic_string@DU?$char_traits@D@std@@V?$allocator@D@2@@std@@HPAD@Z 00410140 f   authcommon:csvlib.obj
 0001:0000f2d0       ?DecodeCsv@Csvlib@@AAEXW4CSV_TYPE@1@PAD@Z 004102d0 f   authcommon:csvlib.obj
 0001:0000f590       ??_ECsvlib@@UAEPAXI@Z      00410590 f i authcommon:csvlib.obj
 0001:0000f590       ??_GCsvlib@@UAEPAXI@Z      00410590 f i authcommon:csvlib.obj
 0001:0000f5c0       ??1?$map@V?$basic_string@DU?$char_traits@D@std@@V?$allocator@D@2@@std@@EU?$less@V?$basic_string@DU?$char_traits@D@std@@V?$allocator@D@2@@std@@@2@V?$allocator@U?$pair@$$CBV?$basic_string@DU?$char_traits@D@std@@V?$allocator@D@2@@std@@E@std@@@2@@std@@QAE@XZ 004105c0 f i authcommon:csvlib.obj
 0001:0000f5e0       ??_D?$basic_ifstream@DU?$char_traits@D@std@@@std@@QAEXXZ 004105e0 f i authcommon:csvlib.obj
 0001:0000f610       ??1?$pair@V?$basic_string@DU?$char_traits@D@std@@V?$allocator@D@2@@std@@E@std@@QAE@XZ 00410610 f i authcommon:csvlib.obj
 0001:0000f610       ??1?$pair@$$CBV?$basic_string@DU?$char_traits@D@std@@V?$allocator@D@2@@std@@E@std@@QAE@XZ 00410610 f i authcommon:csvlib.obj
 0001:0000f630       ?getline@?$basic_istream@DU?$char_traits@D@std@@@std@@QAEAAV12@PADH@Z 00410630 f i authcommon:csvlib.obj
 0001:0000f670       ??0?$map@V?$basic_string@DU?$char_traits@D@std@@V?$allocator@D@2@@std@@EU?$less@V?$basic_string@DU?$char_traits@D@std@@V?$allocator@D@2@@std@@@2@V?$allocator@U?$pair@$$CBV?$basic_string@DU?$char_traits@D@std@@V?$allocator@D@2@@std@@E@std@@@2@@std@@QAE@XZ 00410670 f i authcommon:csvlib.obj
 0001:0000f6a0       ??1?$_Tree@V?$_Tmap_traits@V?$basic_string@DU?$char_traits@D@std@@V?$allocator@D@2@@std@@EU?$less@V?$basic_string@DU?$char_traits@D@std@@V?$allocator@D@2@@std@@@2@V?$allocator@U?$pair@$$CBV?$basic_string@DU?$char_traits@D@std@@V?$allocator@D@2@@std@@E@std@@@2@$0A@@std@@@std@@QAE@XZ 004106a0 f i authcommon:csvlib.obj
 0001:0000f700       ?end@?$_Tree@V?$_Tmap_traits@V?$basic_string@DU?$char_traits@D@std@@V?$allocator@D@2@@std@@EU?$less@V?$basic_string@DU?$char_traits@D@std@@V?$allocator@D@2@@std@@@2@V?$allocator@U?$pair@$$CBV?$basic_string@DU?$char_traits@D@std@@V?$allocator@D@2@@std@@E@std@@@2@$0A@@std@@@std@@QAE?AViterator@12@XZ 00410700 f i authcommon:csvlib.obj
 0001:0000f700       ?end@?$_Tree@V?$_Tmap_traits@KPAVServerData@@U?$less@K@std@@V?$CustomAllocator@PAVServerData@@@util@@$0A@@std@@@std@@QAE?AViterator@12@XZ 00410700 f i authcommon:ServerDataManager.obj
 0001:0000f700       ?end@?$_Tree@V?$_Tmap_traits@KPAUGROUP_DATA@@U?$less@K@std@@V?$CustomAllocator@PAUGROUP_DATA@@@util@@$0A@@std@@@std@@QAE?AViterator@12@XZ 00410700 f i authcommon:ServerDataManager.obj
 0001:0000f730       ?insert@?$_Tree@V?$_Tmap_traits@V?$basic_string@DU?$char_traits@D@std@@V?$allocator@D@2@@std@@EU?$less@V?$basic_string@DU?$char_traits@D@std@@V?$allocator@D@2@@std@@@2@V?$allocator@U?$pair@$$CBV?$basic_string@DU?$char_traits@D@std@@V?$allocator@D@2@@std@@E@std@@@2@$0A@@std@@@std@@QAE?AU?$pair@Viterator@?$_Tree@V?$_Tmap_traits@V?$basic_string@DU?$char_traits@D@std@@V?$allocator@D@2@@std@@EU?$less@V?$basic_string@DU?$char_traits@D@std@@V?$allocator@D@2@@std@@@2@V?$allocator@U?$pair@$$CBV?$basic_string@DU?$char_traits@D@std@@V?$allocator@D@2@@std@@E@std@@@2@$0A@@std@@@std@@_N@2@ABU?$pair@$$CBV?$basic_string@DU?$char_traits@D@std@@V?$allocator@D@2@@std@@E@2@@Z 00410730 f i authcommon:csvlib.obj
 0001:0000f900       ?clear@?$_Tree@V?$_Tmap_traits@V?$basic_string@DU?$char_traits@D@std@@V?$allocator@D@2@@std@@EU?$less@V?$basic_string@DU?$char_traits@D@std@@V?$allocator@D@2@@std@@@2@V?$allocator@U?$pair@$$CBV?$basic_string@DU?$char_traits@D@std@@V?$allocator@D@2@@std@@E@std@@@2@$0A@@std@@@std@@QAEXXZ 00410900 f i authcommon:csvlib.obj
 0001:0000f960       ?find@?$_Tree@V?$_Tmap_traits@V?$basic_string@DU?$char_traits@D@std@@V?$allocator@D@2@@std@@EU?$less@V?$basic_string@DU?$char_traits@D@std@@V?$allocator@D@2@@std@@@2@V?$allocator@U?$pair@$$CBV?$basic_string@DU?$char_traits@D@std@@V?$allocator@D@2@@std@@E@std@@@2@$0A@@std@@@std@@QAE?AViterator@12@ABV?$basic_string@DU?$char_traits@D@std@@V?$allocator@D@2@@2@@Z 00410960 f i authcommon:csvlib.obj
 0001:0000fa00       ??0?$vector@V?$basic_string@DU?$char_traits@D@std@@V?$allocator@D@2@@std@@V?$allocator@V?$basic_string@DU?$char_traits@D@std@@V?$allocator@D@2@@std@@@2@@std@@QAE@XZ 00410a00 f i authcommon:csvlib.obj
 0001:0000fa70       ??1?$vector@V?$basic_string@DU?$char_traits@D@std@@V?$allocator@D@2@@std@@V?$allocator@V?$basic_string@DU?$char_traits@D@std@@V?$allocator@D@2@@std@@@2@@std@@QAE@XZ 00410a70 f i authcommon:csvlib.obj
 0001:0000fad0       ?size@?$vector@V?$basic_string@DU?$char_traits@D@std@@V?$allocator@D@2@@std@@V?$allocator@V?$basic_string@DU?$char_traits@D@std@@V?$allocator@D@2@@std@@@2@@std@@QBEIXZ 00410ad0 f i authcommon:csvlib.obj
 0001:0000faf0       ??A?$vector@V?$basic_string@DU?$char_traits@D@std@@V?$allocator@D@2@@std@@V?$allocator@V?$basic_string@DU?$char_traits@D@std@@V?$allocator@D@2@@std@@@2@@std@@QAEAAV?$basic_string@DU?$char_traits@D@std@@V?$allocator@D@2@@1@I@Z 00410af0 f i authcommon:csvlib.obj
 0001:0000fb20       ?push_back@?$vector@V?$basic_string@DU?$char_traits@D@std@@V?$allocator@D@2@@std@@V?$allocator@V?$basic_string@DU?$char_traits@D@std@@V?$allocator@D@2@@std@@@2@@std@@QAEXABV?$basic_string@DU?$char_traits@D@std@@V?$allocator@D@2@@2@@Z 00410b20 f i authcommon:csvlib.obj
 0001:0000fba0       ?clear@?$vector@V?$basic_string@DU?$char_traits@D@std@@V?$allocator@D@2@@std@@V?$allocator@V?$basic_string@DU?$char_traits@D@std@@V?$allocator@D@2@@std@@@2@@std@@QAEXXZ 00410ba0 f i authcommon:csvlib.obj
 0001:0000fc00       ??0?$basic_ifstream@DU?$char_traits@D@std@@@std@@QAE@PBDHH@Z 00410c00 f i authcommon:csvlib.obj
 0001:0000fcf0       ??1?$basic_ifstream@DU?$char_traits@D@std@@@std@@UAE@XZ 00410cf0 f i authcommon:csvlib.obj
 0001:0000fd60       ??1?$basic_filebuf@DU?$char_traits@D@std@@@std@@UAE@XZ 00410d60 f i authcommon:csvlib.obj
 0001:0000fdd0       ?overflow@?$basic_filebuf@DU?$char_traits@D@std@@@std@@MAEHH@Z 00410dd0 f i authcommon:csvlib.obj
 0001:00010110       ??$_Fputc@D@std@@YA_NDPAU_iobuf@@@Z 00411110 f i authcommon:csvlib.obj
 0001:00010130       ?pbackfail@?$basic_filebuf@DU?$char_traits@D@std@@@std@@MAEHH@Z 00411130 f i authcommon:csvlib.obj
 0001:00010280       ??$_Ungetc@D@std@@YA_NABDPAU_iobuf@@@Z 00411280 f i authcommon:csvlib.obj
 0001:000102b0       ?underflow@?$basic_filebuf@DU?$char_traits@D@std@@@std@@MAEHXZ 004112b0 f i authcommon:csvlib.obj
 0001:00010340       ?uflow@?$basic_filebuf@DU?$char_traits@D@std@@@std@@MAEHXZ 00411340 f i authcommon:csvlib.obj
 0001:00010640       ??$_Fgetc@D@std@@YA_NAADPAU_iobuf@@@Z 00411640 f i authcommon:csvlib.obj
 0001:00010670       ?to_char_type@?$char_traits@D@std@@SADABH@Z 00411670 f i authcommon:csvlib.obj
 0001:00010680       ?to_int_type@?$char_traits@D@std@@SAHABD@Z 00411680 f i authcommon:csvlib.obj
 0001:00010690       ?eq_int_type@?$char_traits@D@std@@SA_NABH0@Z 00411690 f i authcommon:csvlib.obj
 0001:000106b0       ?eof@?$char_traits@D@std@@SAHXZ 004116b0 f i authcommon:csvlib.obj
 0001:000106c0       ?not_eof@?$char_traits@D@std@@SAHABH@Z 004116c0 f i authcommon:csvlib.obj
 0001:000106f0       ?seekoff@?$basic_filebuf@DU?$char_traits@D@std@@@std@@MAE?AV?$fpos@H@2@JHH@Z 004116f0 f i authcommon:csvlib.obj
 0001:000107e0       ?seekpos@?$basic_filebuf@DU?$char_traits@D@std@@@std@@MAE?AV?$fpos@H@2@V32@H@Z 004117e0 f i authcommon:csvlib.obj
 0001:000108e0       ?setbuf@?$basic_filebuf@DU?$char_traits@D@std@@@std@@MAEPAV?$basic_streambuf@DU?$char_traits@D@std@@@2@PADH@Z 004118e0 f i authcommon:csvlib.obj
 0001:00010950       ?sync@?$basic_filebuf@DU?$char_traits@D@std@@@std@@MAEHXZ 00411950 f i authcommon:csvlib.obj
 0001:000109d0       ?imbue@?$basic_filebuf@DU?$char_traits@D@std@@@std@@MAEXABVlocale@2@@Z 004119d0 f i authcommon:csvlib.obj
 0001:00010a00       ??0?$pair@V?$basic_string@DU?$char_traits@D@std@@V?$allocator@D@2@@std@@E@std@@QAE@ABV?$basic_string@DU?$char_traits@D@std@@V?$allocator@D@2@@1@ABE@Z 00411a00 f i authcommon:csvlib.obj
 0001:00010a30       ??1?$_Tree_val@V?$_Tmap_traits@V?$basic_string@DU?$char_traits@D@std@@V?$allocator@D@2@@std@@EU?$less@V?$basic_string@DU?$char_traits@D@std@@V?$allocator@D@2@@std@@@2@V?$allocator@U?$pair@$$CBV?$basic_string@DU?$char_traits@D@std@@V?$allocator@D@2@@std@@E@std@@@2@$0A@@std@@@std@@QAE@XZ 00411a30 f i authcommon:csvlib.obj
 0001:00010a50       ??1?$_Tmap_traits@V?$basic_string@DU?$char_traits@D@std@@V?$allocator@D@2@@std@@EU?$less@V?$basic_string@DU?$char_traits@D@std@@V?$allocator@D@2@@std@@@2@V?$allocator@U?$pair@$$CBV?$basic_string@DU?$char_traits@D@std@@V?$allocator@D@2@@std@@E@std@@@2@$0A@@std@@QAE@XZ 00411a50 f i authcommon:csvlib.obj
 0001:00010a50       ??1?$_Vector_val@V?$basic_string@DU?$char_traits@D@std@@V?$allocator@D@2@@std@@V?$allocator@V?$basic_string@DU?$char_traits@D@std@@V?$allocator@D@2@@std@@@2@@std@@QAE@XZ 00411a50 f i authcommon:csvlib.obj
 0001:00010a70       ??_E?$basic_ifstream@DU?$char_traits@D@std@@@std@@UAEPAXI@Z 00411a70 f i authcommon:csvlib.obj
 0001:00010a70       ??_G?$basic_ifstream@DU?$char_traits@D@std@@@std@@UAEPAXI@Z 00411a70 f i authcommon:csvlib.obj
 0001:00010ab0       ??_G?$basic_filebuf@DU?$char_traits@D@std@@@std@@UAEPAXI@Z 00411ab0 f i authcommon:csvlib.obj
 0001:00010ab0       ??_E?$basic_filebuf@DU?$char_traits@D@std@@@std@@UAEPAXI@Z 00411ab0 f i authcommon:csvlib.obj
 0001:00010ae0       ??1?$_Tree_ptr@V?$_Tmap_traits@V?$basic_string@DU?$char_traits@D@std@@V?$allocator@D@2@@std@@EU?$less@V?$basic_string@DU?$char_traits@D@std@@V?$allocator@D@2@@std@@@2@V?$allocator@U?$pair@$$CBV?$basic_string@DU?$char_traits@D@std@@V?$allocator@D@2@@std@@E@std@@@2@$0A@@std@@@std@@QAE@XZ 00411ae0 f i authcommon:csvlib.obj
 0001:00010b00       ??1?$_Tree_nod@V?$_Tmap_traits@V?$basic_string@DU?$char_traits@D@std@@V?$allocator@D@2@@std@@EU?$less@V?$basic_string@DU?$char_traits@D@std@@V?$allocator@D@2@@std@@@2@V?$allocator@U?$pair@$$CBV?$basic_string@DU?$char_traits@D@std@@V?$allocator@D@2@@std@@E@std@@@2@$0A@@std@@@std@@QAE@XZ 00411b00 f i authcommon:csvlib.obj
 0001:00010b20       ??0?$basic_string@DU?$char_traits@D@std@@V?$allocator@D@2@@std@@QAE@ID@Z 00411b20 f i authcommon:csvlib.obj
 0001:00010b60       ?append@?$basic_string@DU?$char_traits@D@std@@V?$allocator@D@2@@std@@QAEAAV12@ID@Z 00411b60 f i authcommon:csvlib.obj
 0001:00010bd0       ?widen@?$basic_ios@DU?$char_traits@D@std@@@std@@QBEDD@Z 00411bd0 f i authcommon:csvlib.obj
 0001:00010c50       ??0?$basic_ios@DU?$char_traits@D@std@@@std@@IAE@XZ 00411c50 f i authcommon:csvlib.obj
 0001:00010c70       ??0?$basic_istream@DU?$char_traits@D@std@@@std@@QAE@PAV?$basic_streambuf@DU?$char_traits@D@std@@@1@_N@Z 00411c70 f i authcommon:csvlib.obj
 0001:00010d20       ?getline@?$basic_istream@DU?$char_traits@D@std@@@std@@QAEAAV12@PADHD@Z 00411d20 f i authcommon:csvlib.obj
 0001:00010f40       ?eback@?$basic_streambuf@DU?$char_traits@D@std@@@std@@IBEPADXZ 00411f40 f i authcommon:csvlib.obj
 0001:00010f60       ?egptr@?$basic_streambuf@DU?$char_traits@D@std@@@std@@IBEPADXZ 00411f60 f i authcommon:csvlib.obj
 0001:00010f80       ?setg@?$basic_streambuf@DU?$char_traits@D@std@@@std@@IAEXPAD00@Z 00411f80 f i authcommon:csvlib.obj
 0001:00010fc0       ?epptr@?$basic_streambuf@DU?$char_traits@D@std@@@std@@IBEPADXZ 00411fc0 f i authcommon:csvlib.obj
 0001:00010fe0       ?_Gndec@?$basic_streambuf@DU?$char_traits@D@std@@@std@@IAEPADXZ 00411fe0 f i authcommon:csvlib.obj
 0001:00011020       ??0?$fpos@H@std@@QAE@H_J@Z 00412020 f i authcommon:csvlib.obj
 0001:00011060       ?seekpos@?$fpos@H@std@@QBE_JXZ 00412060 f i authcommon:csvlib.obj
 0001:00011080       ??B?$fpos@H@std@@QBEJXZ    00412080 f i authcommon:csvlib.obj
 0001:000110a0       ?_Isnil@?$_Tree@V?$_Tmap_traits@V?$basic_string@DU?$char_traits@D@std@@V?$allocator@D@2@@std@@EU?$less@V?$basic_string@DU?$char_traits@D@std@@V?$allocator@D@2@@std@@@2@V?$allocator@U?$pair@$$CBV?$basic_string@DU?$char_traits@D@std@@V?$allocator@D@2@@std@@E@std@@@2@$0A@@std@@@std@@KAAADPAU_Node@?$_Tree_nod@V?$_Tmap_traits@V?$basic_string@DU?$char_traits@D@std@@V?$allocator@D@2@@std@@EU?$less@V?$basic_string@DU?$char_traits@D@std@@V?$allocator@D@2@@std@@@2@V?$allocator@U?$pair@$$CBV?$basic_string@DU?$char_traits@D@std@@V?$allocator@D@2@@std@@E@std@@@2@$0A@@std@@@2@@Z 004120a0 f i authcommon:csvlib.obj
 0001:000110b0       ?_Nextnode@?$list@U?$pair@$$CBKPAVClientSession@@@std@@V?$CustomAllocator@U?$pair@$$CBKPAVClientSession@@@std@@@util@@@std@@KAAAPAU_Node@?$_List_nod@U?$pair@$$CBKPAVClientSession@@@std@@V?$CustomAllocator@U?$pair@$$CBKPAVClientSession@@@std@@@util@@@2@PAU342@@Z 004120b0 f i ClientManager.obj
 0001:000110b0       ?_Kfn@?$_Tmap_traits@KPAVServerData@@U?$less@K@std@@V?$CustomAllocator@PAVServerData@@@util@@$0A@@std@@SAABKABU?$pair@$$CBKPAVServerData@@@2@@Z 004120b0 f i authcommon:ServerDataManager.obj
 0001:000110b0       ?nextof@?$pool@Udefault_user_allocator_new_delete@boost@@@boost@@KAAAPAXQAX@Z 004120b0 f i LoginFrontFrame.obj
 0001:000110b0       ?_Kfn@?$_Hmap_traits@KPAVClientSession@@V?$hash_compare@KU?$less@K@std@@@stdext@@V?$CustomAllocator@PAVClientSession@@@util@@$0A@@stdext@@SAABKABU?$pair@$$CBKPAVClientSession@@@std@@@Z 004120b0 f i ClientManager.obj
 0001:000110b0       ?nextof@?$simple_segregated_storage@I@boost@@KAAAPAXQAX@Z 004120b0 f i LoginFrontFrame.obj
 0001:000110b0       ?_Left@?$_Tree@V?$_Tmap_traits@KPAVServerData@@U?$less@K@std@@V?$CustomAllocator@PAVServerData@@@util@@$0A@@std@@@std@@KAAAPAU_Node@?$_Tree_nod@V?$_Tmap_traits@KPAVServerData@@U?$less@K@std@@V?$CustomAllocator@PAVServerData@@@util@@$0A@@std@@@2@PAU342@@Z 004120b0 f i authcommon:ServerDataManager.obj
 0001:000110b0       ?_Kfn@?$_Tmap_traits@KKU?$less@K@std@@V?$CustomAllocator@K@util@@$0A@@std@@SAABKABU?$pair@$$CBKK@2@@Z 004120b0 f i ClientManager.obj
 0001:000110b0       ?_Left@?$_Tree@V?$_Tmap_traits@KKU?$less@K@std@@V?$CustomAllocator@K@util@@$0A@@std@@@std@@KAAAPAU_Node@?$_Tree_nod@V?$_Tmap_traits@KKU?$less@K@std@@V?$CustomAllocator@K@util@@$0A@@std@@@2@PAU342@@Z 004120b0 f i ClientManager.obj
 0001:000110b0       ?_Left@?$_Tree@V?$_Tmap_traits@V?$basic_string@DU?$char_traits@D@std@@V?$allocator@D@2@@std@@EU?$less@V?$basic_string@DU?$char_traits@D@std@@V?$allocator@D@2@@std@@@2@V?$allocator@U?$pair@$$CBV?$basic_string@DU?$char_traits@D@std@@V?$allocator@D@2@@std@@E@std@@@2@$0A@@std@@@std@@KAAAPAU_Node@?$_Tree_nod@V?$_Tmap_traits@V?$basic_string@DU?$char_traits@D@std@@V?$allocator@D@2@@std@@EU?$less@V?$basic_string@DU?$char_traits@D@std@@V?$allocator@D@2@@std@@@2@V?$allocator@U?$pair@$$CBV?$basic_string@DU?$char_traits@D@std@@V?$allocator@D@2@@std@@E@std@@@2@$0A@@std@@@2@PAU342@@Z 004120b0 f i authcommon:csvlib.obj
 0001:000110b0       ?_Left@?$_Tree@V?$_Tmap_traits@KPAUGROUP_DATA@@U?$less@K@std@@V?$CustomAllocator@PAUGROUP_DATA@@@util@@$0A@@std@@@std@@KAAAPAU_Node@?$_Tree_nod@V?$_Tmap_traits@KPAUGROUP_DATA@@U?$less@K@std@@V?$CustomAllocator@PAUGROUP_DATA@@@util@@$0A@@std@@@2@PAU342@@Z 004120b0 f i authcommon:ServerDataManager.obj
 0001:000110b0       ?_Kfn@?$_Tmap_traits@V?$basic_string@DU?$char_traits@D@std@@V?$allocator@D@2@@std@@EU?$less@V?$basic_string@DU?$char_traits@D@std@@V?$allocator@D@2@@std@@@2@V?$allocator@U?$pair@$$CBV?$basic_string@DU?$char_traits@D@std@@V?$allocator@D@2@@std@@E@std@@@2@$0A@@std@@SAABV?$basic_string@DU?$char_traits@D@std@@V?$allocator@D@2@@2@ABU?$pair@$$CBV?$basic_string@DU?$char_traits@D@std@@V?$allocator@D@2@@std@@E@2@@Z 004120b0 f i authcommon:csvlib.obj
 0001:000110b0       ?_Kfn@?$_Tmap_traits@KPAUGROUP_DATA@@U?$less@K@std@@V?$CustomAllocator@PAUGROUP_DATA@@@util@@$0A@@std@@SAABKABU?$pair@$$CBKPAUGROUP_DATA@@@2@@Z 004120b0 f i authcommon:ServerDataManager.obj
 0001:000110c0       ??0?$_Tree@V?$_Tmap_traits@V?$basic_string@DU?$char_traits@D@std@@V?$allocator@D@2@@std@@EU?$less@V?$basic_string@DU?$char_traits@D@std@@V?$allocator@D@2@@std@@@2@V?$allocator@U?$pair@$$CBV?$basic_string@DU?$char_traits@D@std@@V?$allocator@D@2@@std@@E@std@@@2@$0A@@std@@@std@@QAE@ABU?$less@V?$basic_string@DU?$char_traits@D@std@@V?$allocator@D@2@@std@@@1@ABV?$allocator@U?$pair@$$CBV?$basic_string@DU?$char_traits@D@std@@V?$allocator@D@2@@std@@E@std@@@1@@Z 004120c0 f i authcommon:csvlib.obj
 0001:00011130       ?lower_bound@?$_Tree@V?$_Tmap_traits@V?$basic_string@DU?$char_traits@D@std@@V?$allocator@D@2@@std@@EU?$less@V?$basic_string@DU?$char_traits@D@std@@V?$allocator@D@2@@std@@@2@V?$allocator@U?$pair@$$CBV?$basic_string@DU?$char_traits@D@std@@V?$allocator@D@2@@std@@E@std@@@2@$0A@@std@@@std@@QAE?AViterator@12@ABV?$basic_string@DU?$char_traits@D@std@@V?$allocator@D@2@@2@@Z 00412130 f i authcommon:csvlib.obj
 0001:00011160       ?_Erase@?$_Tree@V?$_Tmap_traits@V?$basic_string@DU?$char_traits@D@std@@V?$allocator@D@2@@std@@EU?$less@V?$basic_string@DU?$char_traits@D@std@@V?$allocator@D@2@@std@@@2@V?$allocator@U?$pair@$$CBV?$basic_string@DU?$char_traits@D@std@@V?$allocator@D@2@@std@@E@std@@@2@$0A@@std@@@std@@IAEXPAU_Node@?$_Tree_nod@V?$_Tmap_traits@V?$basic_string@DU?$char_traits@D@std@@V?$allocator@D@2@@std@@EU?$less@V?$basic_string@DU?$char_traits@D@std@@V?$allocator@D@2@@std@@@2@V?$allocator@U?$pair@$$CBV?$basic_string@DU?$char_traits@D@std@@V?$allocator@D@2@@std@@E@std@@@2@$0A@@std@@@2@@Z 00412160 f i authcommon:csvlib.obj
 0001:000111e0       ?_Insert@?$_Tree@V?$_Tmap_traits@V?$basic_string@DU?$char_traits@D@std@@V?$allocator@D@2@@std@@EU?$less@V?$basic_string@DU?$char_traits@D@std@@V?$allocator@D@2@@std@@@2@V?$allocator@U?$pair@$$CBV?$basic_string@DU?$char_traits@D@std@@V?$allocator@D@2@@std@@E@std@@@2@$0A@@std@@@std@@IAE?AViterator@12@_NPAU_Node@?$_Tree_nod@V?$_Tmap_traits@V?$basic_string@DU?$char_traits@D@std@@V?$allocator@D@2@@std@@EU?$less@V?$basic_string@DU?$char_traits@D@std@@V?$allocator@D@2@@std@@@2@V?$allocator@U?$pair@$$CBV?$basic_string@DU?$char_traits@D@std@@V?$allocator@D@2@@std@@E@std@@@2@$0A@@std@@@2@ABU?$pair@$$CBV?$basic_string@DU?$char_traits@D@std@@V?$allocator@D@2@@std@@E@2@@Z 004121e0 f i authcommon:csvlib.obj
 0001:00011660       ?_Root@?$_Tree@V?$_Tmap_traits@KPAUGROUP_DATA@@U?$less@K@std@@V?$CustomAllocator@PAUGROUP_DATA@@@util@@$0A@@std@@@std@@IBEAAPAU_Node@?$_Tree_nod@V?$_Tmap_traits@KPAUGROUP_DATA@@U?$less@K@std@@V?$CustomAllocator@PAUGROUP_DATA@@@util@@$0A@@std@@@2@XZ 00412660 f i authcommon:ServerDataManager.obj
 0001:00011660       ?_Root@?$_Tree@V?$_Tmap_traits@V?$basic_string@DU?$char_traits@D@std@@V?$allocator@D@2@@std@@EU?$less@V?$basic_string@DU?$char_traits@D@std@@V?$allocator@D@2@@std@@@2@V?$allocator@U?$pair@$$CBV?$basic_string@DU?$char_traits@D@std@@V?$allocator@D@2@@std@@E@std@@@2@$0A@@std@@@std@@IBEAAPAU_Node@?$_Tree_nod@V?$_Tmap_traits@V?$basic_string@DU?$char_traits@D@std@@V?$allocator@D@2@@std@@EU?$less@V?$basic_string@DU?$char_traits@D@std@@V?$allocator@D@2@@std@@@2@V?$allocator@U?$pair@$$CBV?$basic_string@DU?$char_traits@D@std@@V?$allocator@D@2@@std@@E@std@@@2@$0A@@std@@@2@XZ 00412660 f i authcommon:csvlib.obj
 0001:00011660       ?_Root@?$_Tree@V?$_Tmap_traits@KKU?$less@K@std@@V?$CustomAllocator@K@util@@$0A@@std@@@std@@IBEAAPAU_Node@?$_Tree_nod@V?$_Tmap_traits@KKU?$less@K@std@@V?$CustomAllocator@K@util@@$0A@@std@@@2@XZ 00412660 f i ClientManager.obj
 0001:00011660       ?_Root@?$_Tree@V?$_Tmap_traits@KPAVServerData@@U?$less@K@std@@V?$CustomAllocator@PAVServerData@@@util@@$0A@@std@@@std@@IBEAAPAU_Node@?$_Tree_nod@V?$_Tmap_traits@KPAVServerData@@U?$less@K@std@@V?$CustomAllocator@PAVServerData@@@util@@$0A@@std@@@2@XZ 00412660 f i authcommon:ServerDataManager.obj
 0001:00011680       ?_Tidy@?$_Tree@V?$_Tmap_traits@V?$basic_string@DU?$char_traits@D@std@@V?$allocator@D@2@@std@@EU?$less@V?$basic_string@DU?$char_traits@D@std@@V?$allocator@D@2@@std@@@2@V?$allocator@U?$pair@$$CBV?$basic_string@DU?$char_traits@D@std@@V?$allocator@D@2@@std@@E@std@@@2@$0A@@std@@@std@@IAEXXZ 00412680 f i authcommon:csvlib.obj
 0001:00011750       ??R?$less@V?$basic_string@DU?$char_traits@D@std@@V?$allocator@D@2@@std@@@std@@QBE_NABV?$basic_string@DU?$char_traits@D@std@@V?$allocator@D@2@@1@0@Z 00412750 f i authcommon:csvlib.obj
 0001:00011770       ?capacity@?$vector@V?$basic_string@DU?$char_traits@D@std@@V?$allocator@D@2@@std@@V?$allocator@V?$basic_string@DU?$char_traits@D@std@@V?$allocator@D@2@@std@@@2@@std@@QBEIXZ 00412770 f i authcommon:csvlib.obj
 0001:000117b0       ?begin@?$vector@V?$basic_string@DU?$char_traits@D@std@@V?$allocator@D@2@@std@@V?$allocator@V?$basic_string@DU?$char_traits@D@std@@V?$allocator@D@2@@std@@@2@@std@@QAE?AV?$_Vector_iterator@V?$basic_string@DU?$char_traits@D@std@@V?$allocator@D@2@@std@@V?$allocator@V?$basic_string@DU?$char_traits@D@std@@V?$allocator@D@2@@std@@@2@@2@XZ 004127b0 f i authcommon:csvlib.obj
 0001:000117e0       ?end@?$vector@V?$basic_string@DU?$char_traits@D@std@@V?$allocator@D@2@@std@@V?$allocator@V?$basic_string@DU?$char_traits@D@std@@V?$allocator@D@2@@std@@@2@@std@@QAE?AV?$_Vector_iterator@V?$basic_string@DU?$char_traits@D@std@@V?$allocator@D@2@@std@@V?$allocator@V?$basic_string@DU?$char_traits@D@std@@V?$allocator@D@2@@std@@@2@@2@XZ 004127e0 f i authcommon:csvlib.obj
 0001:00011810       ?insert@?$vector@V?$basic_string@DU?$char_traits@D@std@@V?$allocator@D@2@@std@@V?$allocator@V?$basic_string@DU?$char_traits@D@std@@V?$allocator@D@2@@std@@@2@@std@@QAE?AV?$_Vector_iterator@V?$basic_string@DU?$char_traits@D@std@@V?$allocator@D@2@@std@@V?$allocator@V?$basic_string@DU?$char_traits@D@std@@V?$allocator@D@2@@std@@@2@@2@V?$_Vector_const_iterator@V?$basic_string@DU?$char_traits@D@std@@V?$allocator@D@2@@std@@V?$allocator@V?$basic_string@DU?$char_traits@D@std@@V?$allocator@D@2@@std@@@2@@2@ABV?$basic_string@DU?$char_traits@D@std@@V?$allocator@D@2@@2@@Z 00412810 f i authcommon:csvlib.obj
 0001:00011890       ?erase@?$vector@V?$basic_string@DU?$char_traits@D@std@@V?$allocator@D@2@@std@@V?$allocator@V?$basic_string@DU?$char_traits@D@std@@V?$allocator@D@2@@std@@@2@@std@@QAE?AV?$_Vector_iterator@V?$basic_string@DU?$char_traits@D@std@@V?$allocator@D@2@@std@@V?$allocator@V?$basic_string@DU?$char_traits@D@std@@V?$allocator@D@2@@std@@@2@@2@V?$_Vector_const_iterator@V?$basic_string@DU?$char_traits@D@std@@V?$allocator@D@2@@std@@V?$allocator@V?$basic_string@DU?$char_traits@D@std@@V?$allocator@D@2@@std@@@2@@2@0@Z 00412890 f i authcommon:csvlib.obj
 0001:00011930       ?_Buy@?$vector@V?$basic_string@DU?$char_traits@D@std@@V?$allocator@D@2@@std@@V?$allocator@V?$basic_string@DU?$char_traits@D@std@@V?$allocator@D@2@@std@@@2@@std@@IAE_NI@Z 00412930 f i authcommon:csvlib.obj
 0001:000119b0       ?_Tidy@?$vector@V?$basic_string@DU?$char_traits@D@std@@V?$allocator@D@2@@std@@V?$allocator@V?$basic_string@DU?$char_traits@D@std@@V?$allocator@D@2@@std@@@2@@std@@IAEXXZ 004129b0 f i authcommon:csvlib.obj
 0001:00011a30       ?_Ufill@?$vector@V?$basic_string@DU?$char_traits@D@std@@V?$allocator@D@2@@std@@V?$allocator@V?$basic_string@DU?$char_traits@D@std@@V?$allocator@D@2@@std@@@2@@std@@IAEPAV?$basic_string@DU?$char_traits@D@std@@V?$allocator@D@2@@2@PAV32@IABV32@@Z 00412a30 f i authcommon:csvlib.obj
 0001:00011a70       ??0?$_Vector_val@V?$basic_string@DU?$char_traits@D@std@@V?$allocator@D@2@@std@@V?$allocator@V?$basic_string@DU?$char_traits@D@std@@V?$allocator@D@2@@std@@@2@@std@@IAE@V?$allocator@V?$basic_string@DU?$char_traits@D@std@@V?$allocator@D@2@@std@@@1@@Z 00412a70 f i authcommon:csvlib.obj
 0001:00011ab0       ??1?$_Container_base_aux_alloc_real@V?$allocator@V?$basic_string@DU?$char_traits@D@std@@V?$allocator@D@2@@std@@@std@@@std@@IAE@XZ 00412ab0 f i authcommon:csvlib.obj
 0001:00011ab0       ??1?$_Container_base_aux_alloc_real@V?$allocator@U?$pair@$$CBV?$basic_string@DU?$char_traits@D@std@@V?$allocator@D@2@@std@@E@std@@@std@@@std@@IAE@XZ 00412ab0 f i authcommon:csvlib.obj
 0001:00011b10       ??0?$basic_filebuf@DU?$char_traits@D@std@@@std@@QAE@PAU_iobuf@@@Z 00412b10 f i authcommon:csvlib.obj
 0001:00011b80       ?open@?$basic_filebuf@DU?$char_traits@D@std@@@std@@QAEPAV12@PBDHH@Z 00412b80 f i authcommon:csvlib.obj
 0001:00011c40       ?close@?$basic_filebuf@DU?$char_traits@D@std@@@std@@QAEPAV12@XZ 00412c40 f i authcommon:csvlib.obj
 0001:00011cb0       ?_Init@?$basic_filebuf@DU?$char_traits@D@std@@@std@@IAEXPAU_iobuf@@W4_Initfl@12@@Z 00412cb0 f i authcommon:csvlib.obj
 0001:00011d50       ?_Endwrite@?$basic_filebuf@DU?$char_traits@D@std@@@std@@IAE_NXZ 00412d50 f i authcommon:csvlib.obj
 0001:00011f60       ??1locale@std@@QAE@XZ      00412f60 f i authcommon:csvlib.obj
 0001:00011fb0       ?_Decref@facet@locale@std@@QAEPAV123@XZ 00412fb0 f i authcommon:csvlib.obj
 0001:00012010       ?_Initcvt@?$basic_filebuf@DU?$char_traits@D@std@@@std@@IAEXPAV?$codecvt@DDH@2@@Z 00413010 f i authcommon:csvlib.obj
 0001:00012050       ??Fiterator@?$_Tree@V?$_Tmap_traits@V?$basic_string@DU?$char_traits@D@std@@V?$allocator@D@2@@std@@EU?$less@V?$basic_string@DU?$char_traits@D@std@@V?$allocator@D@2@@std@@@2@V?$allocator@U?$pair@$$CBV?$basic_string@DU?$char_traits@D@std@@V?$allocator@D@2@@std@@E@std@@@2@$0A@@std@@@std@@QAEAAV012@XZ 00413050 f i authcommon:csvlib.obj
 0001:00012070       ??0?$pair@Viterator@?$_Tree@V?$_Tmap_traits@KKU?$less@K@std@@V?$CustomAllocator@K@util@@$0A@@std@@@std@@_N@std@@QAE@ABViterator@?$_Tree@V?$_Tmap_traits@KKU?$less@K@std@@V?$CustomAllocator@K@util@@$0A@@std@@@1@AB_N@Z 00413070 f i ClientManager.obj
 0001:00012070       ??0?$pair@Viterator@?$_Tree@V?$_Tmap_traits@KPAVServerData@@U?$less@K@std@@V?$CustomAllocator@PAVServerData@@@util@@$0A@@std@@@std@@_N@std@@QAE@ABViterator@?$_Tree@V?$_Tmap_traits@KPAVServerData@@U?$less@K@std@@V?$CustomAllocator@PAVServerData@@@util@@$0A@@std@@@1@AB_N@Z 00413070 f i authcommon:ServerDataManager.obj
 0001:00012070       ??0?$pair@Viterator@?$_Tree@V?$_Tmap_traits@V?$basic_string@DU?$char_traits@D@std@@V?$allocator@D@2@@std@@EU?$less@V?$basic_string@DU?$char_traits@D@std@@V?$allocator@D@2@@std@@@2@V?$allocator@U?$pair@$$CBV?$basic_string@DU?$char_traits@D@std@@V?$allocator@D@2@@std@@E@std@@@2@$0A@@std@@@std@@_N@std@@QAE@ABViterator@?$_Tree@V?$_Tmap_traits@V?$basic_string@DU?$char_traits@D@std@@V?$allocator@D@2@@std@@EU?$less@V?$basic_string@DU?$char_traits@D@std@@V?$allocator@D@2@@std@@@2@V?$allocator@U?$pair@$$CBV?$basic_string@DU?$char_traits@D@std@@V?$allocator@D@2@@std@@E@std@@@2@$0A@@std@@@1@AB_N@Z 00413070 f i authcommon:csvlib.obj
 0001:00012070       ??0?$pair@V?$_Iterator@$00@?$list@U?$pair@$$CBKPAVClientSession@@@std@@V?$CustomAllocator@U?$pair@$$CBKPAVClientSession@@@std@@@util@@@std@@_N@std@@QAE@ABV?$_Iterator@$00@?$list@U?$pair@$$CBKPAVClientSession@@@std@@V?$CustomAllocator@U?$pair@$$CBKPAVClientSession@@@std@@@util@@@1@AB_N@Z 00413070 f i ClientManager.obj
 0001:00012070       ??0?$pair@Viterator@?$_Tree@V?$_Tmap_traits@KPAUGROUP_DATA@@U?$less@K@std@@V?$CustomAllocator@PAUGROUP_DATA@@@util@@$0A@@std@@@std@@_N@std@@QAE@ABViterator@?$_Tree@V?$_Tmap_traits@KPAUGROUP_DATA@@U?$less@K@std@@V?$CustomAllocator@PAUGROUP_DATA@@@util@@$0A@@std@@@1@AB_N@Z 00413070 f i authcommon:ServerDataManager.obj
 0001:000120a0       ?in@?$codecvt@DDH@std@@QBEHAAHPBD1AAPBDPAD3AAPAD@Z 004130a0 f i authcommon:csvlib.obj
 0001:000120e0       ?out@?$codecvt@DDH@std@@QBEHAAHPBD1AAPBDPAD3AAPAD@Z 004130e0 f i authcommon:csvlib.obj
 0001:00012120       ??D?$_String_iterator@DU?$char_traits@D@std@@V?$allocator@D@2@@std@@QBEAADXZ 00413120 f i authcommon:csvlib.obj
 0001:00012140       ?always_noconv@codecvt_base@std@@QBE_NXZ 00413140 f i authcommon:csvlib.obj
 0001:00012160       ?assign@?$basic_string@DU?$char_traits@D@std@@V?$allocator@D@2@@std@@QAEAAV12@ID@Z 00413160 f i authcommon:csvlib.obj
 0001:000121b0       ?_Chassign@?$basic_string@DU?$char_traits@D@std@@V?$allocator@D@2@@std@@IAEXIID@Z 004131b0 f i authcommon:csvlib.obj
 0001:00012200       ?assign@?$char_traits@D@std@@SAPADPADID@Z 00413200 f i authcommon:csvlib.obj
 0001:00012220       ?init@?$basic_ios@DU?$char_traits@D@std@@@std@@IAEXPAV?$basic_streambuf@DU?$char_traits@D@std@@@2@_N@Z 00413220 f i authcommon:csvlib.obj
 0001:00012290       ??0?$basic_streambuf@DU?$char_traits@D@std@@@std@@IAE@XZ 00413290 f i authcommon:csvlib.obj
 0001:00012330       ??0locale@std@@QAE@XZ      00413330 f i authcommon:csvlib.obj
 0001:00012360       ?_Incref@facet@locale@std@@QAEXXZ 00413360 f i authcommon:csvlib.obj
 0001:000123a0       ?getloc@?$basic_streambuf@DU?$char_traits@D@std@@@std@@QBE?AVlocale@2@XZ 004133a0 f i authcommon:csvlib.obj
 0001:000123e0       ??0locale@std@@QAE@ABV01@@Z 004133e0 f i authcommon:csvlib.obj
 0001:00012410       ?_Init@?$basic_streambuf@DU?$char_traits@D@std@@@std@@IAEXXZ 00413410 f i authcommon:csvlib.obj
 0001:00012480       ?_Init@?$basic_streambuf@DU?$char_traits@D@std@@@std@@IAEXPAPAD0PAH001@Z 00413480 f i authcommon:csvlib.obj
 0001:000124d0       ??D?$_String_const_iterator@DU?$char_traits@D@std@@V?$allocator@D@2@@std@@QBEABDXZ 004134d0 f i authcommon:csvlib.obj
 0001:00012530       ?_Color@?$_Tree@V?$_Tmap_traits@V?$basic_string@DU?$char_traits@D@std@@V?$allocator@D@2@@std@@EU?$less@V?$basic_string@DU?$char_traits@D@std@@V?$allocator@D@2@@std@@@2@V?$allocator@U?$pair@$$CBV?$basic_string@DU?$char_traits@D@std@@V?$allocator@D@2@@std@@E@std@@@2@$0A@@std@@@std@@KAAADPAU_Node@?$_Tree_nod@V?$_Tmap_traits@V?$basic_string@DU?$char_traits@D@std@@V?$allocator@D@2@@std@@EU?$less@V?$basic_string@DU?$char_traits@D@std@@V?$allocator@D@2@@std@@@2@V?$allocator@U?$pair@$$CBV?$basic_string@DU?$char_traits@D@std@@V?$allocator@D@2@@std@@E@std@@@2@$0A@@std@@@2@@Z 00413530 f i authcommon:csvlib.obj
 0001:00012540       ?max_size@?$_Tree@V?$_Tmap_traits@V?$basic_string@DU?$char_traits@D@std@@V?$allocator@D@2@@std@@EU?$less@V?$basic_string@DU?$char_traits@D@std@@V?$allocator@D@2@@std@@@2@V?$allocator@U?$pair@$$CBV?$basic_string@DU?$char_traits@D@std@@V?$allocator@D@2@@std@@E@std@@@2@$0A@@std@@@std@@QBEIXZ 00413540 f i authcommon:csvlib.obj
 0001:00012560       ?erase@?$_Tree@V?$_Tmap_traits@V?$basic_string@DU?$char_traits@D@std@@V?$allocator@D@2@@std@@EU?$less@V?$basic_string@DU?$char_traits@D@std@@V?$allocator@D@2@@std@@@2@V?$allocator@U?$pair@$$CBV?$basic_string@DU?$char_traits@D@std@@V?$allocator@D@2@@std@@E@std@@@2@$0A@@std@@@std@@QAE?AViterator@12@Vconst_iterator@12@0@Z 00413560 f i authcommon:csvlib.obj
 0001:00012610       ?_Init@?$_Tree@V?$_Tmap_traits@V?$basic_string@DU?$char_traits@D@std@@V?$allocator@D@2@@std@@EU?$less@V?$basic_string@DU?$char_traits@D@std@@V?$allocator@D@2@@std@@@2@V?$allocator@U?$pair@$$CBV?$basic_string@DU?$char_traits@D@std@@V?$allocator@D@2@@std@@E@std@@@2@$0A@@std@@@std@@IAEXXZ 00413610 f i authcommon:csvlib.obj
 0001:00012680       ?_Lbound@?$_Tree@V?$_Tmap_traits@V?$basic_string@DU?$char_traits@D@std@@V?$allocator@D@2@@std@@EU?$less@V?$basic_string@DU?$char_traits@D@std@@V?$allocator@D@2@@std@@@2@V?$allocator@U?$pair@$$CBV?$basic_string@DU?$char_traits@D@std@@V?$allocator@D@2@@std@@E@std@@@2@$0A@@std@@@std@@IBEPAU_Node@?$_Tree_nod@V?$_Tmap_traits@V?$basic_string@DU?$char_traits@D@std@@V?$allocator@D@2@@std@@EU?$less@V?$basic_string@DU?$char_traits@D@std@@V?$allocator@D@2@@std@@@2@V?$allocator@U?$pair@$$CBV?$basic_string@DU?$char_traits@D@std@@V?$allocator@D@2@@std@@E@std@@@2@$0A@@std@@@2@ABV?$basic_string@DU?$char_traits@D@std@@V?$allocator@D@2@@2@@Z 00413680 f i authcommon:csvlib.obj
 0001:00012710       ?_Lrotate@?$_Tree@V?$_Tmap_traits@V?$basic_string@DU?$char_traits@D@std@@V?$allocator@D@2@@std@@EU?$less@V?$basic_string@DU?$char_traits@D@std@@V?$allocator@D@2@@std@@@2@V?$allocator@U?$pair@$$CBV?$basic_string@DU?$char_traits@D@std@@V?$allocator@D@2@@std@@E@std@@@2@$0A@@std@@@std@@IAEXPAU_Node@?$_Tree_nod@V?$_Tmap_traits@V?$basic_string@DU?$char_traits@D@std@@V?$allocator@D@2@@std@@EU?$less@V?$basic_string@DU?$char_traits@D@std@@V?$allocator@D@2@@std@@@2@V?$allocator@U?$pair@$$CBV?$basic_string@DU?$char_traits@D@std@@V?$allocator@D@2@@std@@E@std@@@2@$0A@@std@@@2@@Z 00413710 f i authcommon:csvlib.obj
 0001:00012840       ?_Rrotate@?$_Tree@V?$_Tmap_traits@V?$basic_string@DU?$char_traits@D@std@@V?$allocator@D@2@@std@@EU?$less@V?$basic_string@DU?$char_traits@D@std@@V?$allocator@D@2@@std@@@2@V?$allocator@U?$pair@$$CBV?$basic_string@DU?$char_traits@D@std@@V?$allocator@D@2@@std@@E@std@@@2@$0A@@std@@@std@@IAEXPAU_Node@?$_Tree_nod@V?$_Tmap_traits@V?$basic_string@DU?$char_traits@D@std@@V?$allocator@D@2@@std@@EU?$less@V?$basic_string@DU?$char_traits@D@std@@V?$allocator@D@2@@std@@@2@V?$allocator@U?$pair@$$CBV?$basic_string@DU?$char_traits@D@std@@V?$allocator@D@2@@std@@E@std@@@2@$0A@@std@@@2@@Z 00413840 f i authcommon:csvlib.obj
 0001:00012970       ?_Buynode@?$_Tree@V?$_Tmap_traits@V?$basic_string@DU?$char_traits@D@std@@V?$allocator@D@2@@std@@EU?$less@V?$basic_string@DU?$char_traits@D@std@@V?$allocator@D@2@@std@@@2@V?$allocator@U?$pair@$$CBV?$basic_string@DU?$char_traits@D@std@@V?$allocator@D@2@@std@@E@std@@@2@$0A@@std@@@std@@IAEPAU_Node@?$_Tree_nod@V?$_Tmap_traits@V?$basic_string@DU?$char_traits@D@std@@V?$allocator@D@2@@std@@EU?$less@V?$basic_string@DU?$char_traits@D@std@@V?$allocator@D@2@@std@@@2@V?$allocator@U?$pair@$$CBV?$basic_string@DU?$char_traits@D@std@@V?$allocator@D@2@@std@@E@std@@@2@$0A@@std@@@2@PAU342@00ABU?$pair@$$CBV?$basic_string@DU?$char_traits@D@std@@V?$allocator@D@2@@std@@E@2@D@Z 00413970 f i authcommon:csvlib.obj
 0001:00012a60       ??0?$_Tree_val@V?$_Tmap_traits@V?$basic_string@DU?$char_traits@D@std@@V?$allocator@D@2@@std@@EU?$less@V?$basic_string@DU?$char_traits@D@std@@V?$allocator@D@2@@std@@@2@V?$allocator@U?$pair@$$CBV?$basic_string@DU?$char_traits@D@std@@V?$allocator@D@2@@std@@E@std@@@2@$0A@@std@@@std@@IAE@ABU?$less@V?$basic_string@DU?$char_traits@D@std@@V?$allocator@D@2@@std@@@1@V?$allocator@U?$pair@$$CBV?$basic_string@DU?$char_traits@D@std@@V?$allocator@D@2@@std@@E@std@@@1@@Z 00413a60 f i authcommon:csvlib.obj
 0001:00012aa0       ?deallocate@?$allocator@V_Aux_cont@std@@@std@@QAEXPAV_Aux_cont@2@I@Z 00413aa0 f i authcommon:csvlib.obj
 0001:00012aa0       ?deallocate@?$allocator@D@std@@QAEXPADI@Z 00413aa0 f i LoginFrontFrame.obj
 0001:00012aa0       ?deallocate@?$allocator@U_Node@?$_Tree_nod@V?$_Tmap_traits@V?$basic_string@DU?$char_traits@D@std@@V?$allocator@D@2@@std@@EU?$less@V?$basic_string@DU?$char_traits@D@std@@V?$allocator@D@2@@std@@@2@V?$allocator@U?$pair@$$CBV?$basic_string@DU?$char_traits@D@std@@V?$allocator@D@2@@std@@E@std@@@2@$0A@@std@@@std@@@std@@QAEXPAU_Node@?$_Tree_nod@V?$_Tmap_traits@V?$basic_string@DU?$char_traits@D@std@@V?$allocator@D@2@@std@@EU?$less@V?$basic_string@DU?$char_traits@D@std@@V?$allocator@D@2@@std@@@2@V?$allocator@U?$pair@$$CBV?$basic_string@DU?$char_traits@D@std@@V?$allocator@D@2@@std@@E@std@@@2@$0A@@std@@@2@I@Z 00413aa0 f i authcommon:csvlib.obj
 0001:00012aa0       ?deallocate@?$allocator@V?$basic_string@DU?$char_traits@D@std@@V?$allocator@D@2@@std@@@std@@QAEXPAV?$basic_string@DU?$char_traits@D@std@@V?$allocator@D@2@@2@I@Z 00413aa0 f i authcommon:csvlib.obj
 0001:00012ac0       ?destroy@?$allocator@U_Node@?$_Tree_nod@V?$_Tmap_traits@V?$basic_string@DU?$char_traits@D@std@@V?$allocator@D@2@@std@@EU?$less@V?$basic_string@DU?$char_traits@D@std@@V?$allocator@D@2@@std@@@2@V?$allocator@U?$pair@$$CBV?$basic_string@DU?$char_traits@D@std@@V?$allocator@D@2@@std@@E@std@@@2@$0A@@std@@@std@@@std@@QAEXPAU_Node@?$_Tree_nod@V?$_Tmap_traits@V?$basic_string@DU?$char_traits@D@std@@V?$allocator@D@2@@std@@EU?$less@V?$basic_string@DU?$char_traits@D@std@@V?$allocator@D@2@@std@@@2@V?$allocator@U?$pair@$$CBV?$basic_string@DU?$char_traits@D@std@@V?$allocator@D@2@@std@@E@std@@@2@$0A@@std@@@2@@Z 00413ac0 f i authcommon:csvlib.obj
 0001:00012ae0       ?destroy@?$allocator@PAU_Node@?$_Tree_nod@V?$_Tmap_traits@V?$basic_string@DU?$char_traits@D@std@@V?$allocator@D@2@@std@@EU?$less@V?$basic_string@DU?$char_traits@D@std@@V?$allocator@D@2@@std@@@2@V?$allocator@U?$pair@$$CBV?$basic_string@DU?$char_traits@D@std@@V?$allocator@D@2@@std@@E@std@@@2@$0A@@std@@@std@@@std@@QAEXPAPAU_Node@?$_Tree_nod@V?$_Tmap_traits@V?$basic_string@DU?$char_traits@D@std@@V?$allocator@D@2@@std@@EU?$less@V?$basic_string@DU?$char_traits@D@std@@V?$allocator@D@2@@std@@@2@V?$allocator@U?$pair@$$CBV?$basic_string@DU?$char_traits@D@std@@V?$allocator@D@2@@std@@E@std@@@2@$0A@@std@@@2@@Z 00413ae0 f i authcommon:csvlib.obj
 0001:00012b00       ??$?0U?$pair@$$CBKK@std@@@?$CustomAllocator@K@util@@QAE@ABV?$CustomAllocator@U?$pair@$$CBKK@std@@@1@@Z 00413b00 f i ClientManager.obj
 0001:00012b00       ??$?0U?$pair@$$CBKPAUGROUP_DATA@@@std@@@?$CustomAllocator@PAU_Node@?$_Tree_nod@V?$_Tmap_traits@KPAUGROUP_DATA@@U?$less@K@std@@V?$CustomAllocator@PAUGROUP_DATA@@@util@@$0A@@std@@@std@@@util@@QAE@ABV?$CustomAllocator@U?$pair@$$CBKPAUGROUP_DATA@@@std@@@1@@Z 00413b00 f i authcommon:ServerDataManager.obj
 0001:00012b00       ??$?0U?$pair@$$CBKPAUGROUP_DATA@@@std@@@?$CustomAllocator@PAUGROUP_DATA@@@util@@QAE@ABV?$CustomAllocator@U?$pair@$$CBKPAUGROUP_DATA@@@std@@@1@@Z 00413b00 f i authcommon:ServerDataManager.obj
 0001:00012b00       ??$?0U?$pair@$$CBKK@std@@@?$CustomAllocator@PAU_Node@?$_Tree_nod@V?$_Tmap_traits@KKU?$less@K@std@@V?$CustomAllocator@K@util@@$0A@@std@@@std@@@util@@QAE@ABV?$CustomAllocator@U?$pair@$$CBKK@std@@@1@@Z 00413b00 f i ClientManager.obj
 0001:00012b00       ??$?0U?$pair@$$CBKPAVClientSession@@@std@@@?$CustomAllocator@PAU_Node@?$_List_nod@U?$pair@$$CBKPAVClientSession@@@std@@V?$CustomAllocator@U?$pair@$$CBKPAVClientSession@@@std@@@util@@@std@@@util@@QAE@ABV?$CustomAllocator@U?$pair@$$CBKPAVClientSession@@@std@@@1@@Z 00413b00 f i ClientManager.obj
 0001:00012b00       ??$?0U?$pair@$$CBKPAVClientSession@@@std@@@?$CustomAllocator@U_Node@?$_List_nod@U?$pair@$$CBKPAVClientSession@@@std@@V?$CustomAllocator@U?$pair@$$CBKPAVClientSession@@@std@@@util@@@std@@@util@@QAE@ABV?$CustomAllocator@U?$pair@$$CBKPAVClientSession@@@std@@@1@@Z 00413b00 f i ClientManager.obj
 0001:00012b00       ??$?0V?$basic_string@DU?$char_traits@D@std@@V?$allocator@D@2@@std@@@?$allocator@V_Aux_cont@std@@@std@@QAE@ABV?$allocator@V?$basic_string@DU?$char_traits@D@std@@V?$allocator@D@2@@std@@@1@@Z 00413b00 f i authcommon:csvlib.obj
 0001:00012b00       ??$?0U?$pair@$$CBV?$basic_string@DU?$char_traits@D@std@@V?$allocator@D@2@@std@@E@std@@@?$allocator@V_Aux_cont@std@@@std@@QAE@ABV?$allocator@U?$pair@$$CBV?$basic_string@DU?$char_traits@D@std@@V?$allocator@D@2@@std@@E@std@@@1@@Z 00413b00 f i authcommon:csvlib.obj
 0001:00012b00       ??$?0U_List_position@?$_Hash@V?$_Hmap_traits@KPAVClientSession@@V?$hash_compare@KU?$less@K@std@@@stdext@@V?$CustomAllocator@PAVClientSession@@@util@@$0A@@stdext@@@stdext@@@?$CustomAllocator@V_Aux_cont@std@@@util@@QAE@ABV?$CustomAllocator@U_List_position@?$_Hash@V?$_Hmap_traits@KPAVClientSession@@V?$hash_compare@KU?$less@K@std@@@stdext@@V?$CustomAllocator@PAVClientSession@@@util@@$0A@@stdext@@@stdext@@@1@@Z 00413b00 f i ClientManager.obj
 0001:00012b00       ??0?$allocator@D@std@@QAE@ABV01@@Z 00413b00 f i LoginFrontFrame.obj
 0001:00012b00       ??$?0U?$pair@$$CBKPAVClientSession@@@std@@@?$CustomAllocator@V_Aux_cont@std@@@util@@QAE@ABV?$CustomAllocator@U?$pair@$$CBKPAVClientSession@@@std@@@1@@Z 00413b00 f i ClientManager.obj
 0001:00012b00       ??$?0U?$pair@$$CBV?$basic_string@DU?$char_traits@D@std@@V?$allocator@D@2@@std@@E@std@@@?$allocator@PAU_Node@?$_Tree_nod@V?$_Tmap_traits@V?$basic_string@DU?$char_traits@D@std@@V?$allocator@D@2@@std@@EU?$less@V?$basic_string@DU?$char_traits@D@std@@V?$allocator@D@2@@std@@@2@V?$allocator@U?$pair@$$CBV?$basic_string@DU?$char_traits@D@std@@V?$allocator@D@2@@std@@E@std@@@2@$0A@@std@@@std@@@std@@QAE@ABV?$allocator@U?$pair@$$CBV?$basic_string@DU?$char_traits@D@std@@V?$allocator@D@2@@std@@E@std@@@1@@Z 00413b00 f i authcommon:csvlib.obj
 0001:00012b00       ??0?$allocator@U?$pair@$$CBV?$basic_string@DU?$char_traits@D@std@@V?$allocator@D@2@@std@@E@std@@@std@@QAE@ABV01@@Z 00413b00 f i authcommon:csvlib.obj
 0001:00012b00       ??0?$allocator@V?$basic_string@DU?$char_traits@D@std@@V?$allocator@D@2@@std@@@std@@QAE@ABV01@@Z 00413b00 f i authcommon:csvlib.obj
 0001:00012b00       ??$?0K@?$CustomAllocator@V_Aux_cont@std@@@util@@QAE@ABV?$CustomAllocator@K@1@@Z 00413b00 f i ClientManager.obj
 0001:00012b00       ??$?0U?$pair@$$CBKPAVClientSession@@@std@@@?$CustomAllocator@U_List_position@?$_Hash@V?$_Hmap_traits@KPAVClientSession@@V?$hash_compare@KU?$less@K@std@@@stdext@@V?$CustomAllocator@PAVClientSession@@@util@@$0A@@stdext@@@stdext@@@util@@QAE@ABV?$CustomAllocator@U?$pair@$$CBKPAVClientSession@@@std@@@1@@Z 00413b00 f i ClientManager.obj
 0001:00012b00       ??$?0U?$pair@$$CBV?$basic_string@DU?$char_traits@D@std@@V?$allocator@D@2@@std@@E@std@@@?$allocator@U_Node@?$_Tree_nod@V?$_Tmap_traits@V?$basic_string@DU?$char_traits@D@std@@V?$allocator@D@2@@std@@EU?$less@V?$basic_string@DU?$char_traits@D@std@@V?$allocator@D@2@@std@@@2@V?$allocator@U?$pair@$$CBV?$basic_string@DU?$char_traits@D@std@@V?$allocator@D@2@@std@@E@std@@@2@$0A@@std@@@std@@@std@@QAE@ABV?$allocator@U?$pair@$$CBV?$basic_string@DU?$char_traits@D@std@@V?$allocator@D@2@@std@@E@std@@@1@@Z 00413b00 f i authcommon:csvlib.obj
 0001:00012b00       ??$?0U?$pair@$$CBKPAVServerData@@@std@@@?$CustomAllocator@U_Node@?$_Tree_nod@V?$_Tmap_traits@KPAVServerData@@U?$less@K@std@@V?$CustomAllocator@PAVServerData@@@util@@$0A@@std@@@std@@@util@@QAE@ABV?$CustomAllocator@U?$pair@$$CBKPAVServerData@@@std@@@1@@Z 00413b00 f i authcommon:ServerDataManager.obj
 0001:00012b00       ??$?0U?$pair@$$CBKPAUGROUP_DATA@@@std@@@?$CustomAllocator@U_Node@?$_Tree_nod@V?$_Tmap_traits@KPAUGROUP_DATA@@U?$less@K@std@@V?$CustomAllocator@PAUGROUP_DATA@@@util@@$0A@@std@@@std@@@util@@QAE@ABV?$CustomAllocator@U?$pair@$$CBKPAUGROUP_DATA@@@std@@@1@@Z 00413b00 f i authcommon:ServerDataManager.obj
 0001:00012b00       ??$?0U?$pair@$$CBKPAVServerData@@@std@@@?$CustomAllocator@PAU_Node@?$_Tree_nod@V?$_Tmap_traits@KPAVServerData@@U?$less@K@std@@V?$CustomAllocator@PAVServerData@@@util@@$0A@@std@@@std@@@util@@QAE@ABV?$CustomAllocator@U?$pair@$$CBKPAVServerData@@@std@@@1@@Z 00413b00 f i authcommon:ServerDataManager.obj
 0001:00012b00       ??$?0PAUGROUP_DATA@@@?$CustomAllocator@V_Aux_cont@std@@@util@@QAE@ABV?$CustomAllocator@PAUGROUP_DATA@@@1@@Z 00413b00 f i authcommon:ServerDataManager.obj
 0001:00012b00       ??$?0U?$pair@$$CBKPAVServerData@@@std@@@?$CustomAllocator@PAVServerData@@@util@@QAE@ABV?$CustomAllocator@U?$pair@$$CBKPAVServerData@@@std@@@1@@Z 00413b00 f i authcommon:ServerDataManager.obj
 0001:00012b00       ??$?0PAVServerData@@@?$CustomAllocator@V_Aux_cont@std@@@util@@QAE@ABV?$CustomAllocator@PAVServerData@@@1@@Z 00413b00 f i authcommon:ServerDataManager.obj
 0001:00012b00       ??$?0U?$pair@$$CBKK@std@@@?$CustomAllocator@U_Node@?$_Tree_nod@V?$_Tmap_traits@KKU?$less@K@std@@V?$CustomAllocator@K@util@@$0A@@std@@@std@@@util@@QAE@ABV?$CustomAllocator@U?$pair@$$CBKK@std@@@1@@Z 00413b00 f i ClientManager.obj
 0001:00012b10       ?allocate@?$allocator@V?$basic_string@DU?$char_traits@D@std@@V?$allocator@D@2@@std@@@std@@QAEPAV?$basic_string@DU?$char_traits@D@std@@V?$allocator@D@2@@2@I@Z 00413b10 f i authcommon:csvlib.obj
 0001:00012b30       ?_Make_iter@?$vector@V?$basic_string@DU?$char_traits@D@std@@V?$allocator@D@2@@std@@V?$allocator@V?$basic_string@DU?$char_traits@D@std@@V?$allocator@D@2@@std@@@2@@std@@QBE?AV?$_Vector_iterator@V?$basic_string@DU?$char_traits@D@std@@V?$allocator@D@2@@std@@V?$allocator@V?$basic_string@DU?$char_traits@D@std@@V?$allocator@D@2@@std@@@2@@2@V?$_Vector_const_iterator@V?$basic_string@DU?$char_traits@D@std@@V?$allocator@D@2@@std@@V?$allocator@V?$basic_string@DU?$char_traits@D@std@@V?$allocator@D@2@@std@@@2@@2@@Z 00413b30 f i authcommon:csvlib.obj
 0001:00012b50       ?max_size@?$vector@V?$basic_string@DU?$char_traits@D@std@@V?$allocator@D@2@@std@@V?$allocator@V?$basic_string@DU?$char_traits@D@std@@V?$allocator@D@2@@std@@@2@@std@@QBEIXZ 00413b50 f i authcommon:csvlib.obj
 0001:00012b70       ?_Destroy@?$vector@V?$basic_string@DU?$char_traits@D@std@@V?$allocator@D@2@@std@@V?$allocator@V?$basic_string@DU?$char_traits@D@std@@V?$allocator@D@2@@std@@@2@@std@@IAEXPAV?$basic_string@DU?$char_traits@D@std@@V?$allocator@D@2@@2@0@Z 00413b70 f i authcommon:csvlib.obj
 0001:00012ba0       ?_Insert_n@?$vector@V?$basic_string@DU?$char_traits@D@std@@V?$allocator@D@2@@std@@V?$allocator@V?$basic_string@DU?$char_traits@D@std@@V?$allocator@D@2@@std@@@2@@std@@IAEXV?$_Vector_const_iterator@V?$basic_string@DU?$char_traits@D@std@@V?$allocator@D@2@@std@@V?$allocator@V?$basic_string@DU?$char_traits@D@std@@V?$allocator@D@2@@std@@@2@@2@IABV?$basic_string@DU?$char_traits@D@std@@V?$allocator@D@2@@2@@Z 00413ba0 f i authcommon:csvlib.obj
 0001:00012fa0       ??0?$_Container_base_aux_alloc_real@V?$allocator@U?$pair@$$CBV?$basic_string@DU?$char_traits@D@std@@V?$allocator@D@2@@std@@E@std@@@std@@@std@@IAE@V?$allocator@U?$pair@$$CBV?$basic_string@DU?$char_traits@D@std@@V?$allocator@D@2@@std@@E@std@@@1@@Z 00413fa0 f i authcommon:csvlib.obj
 0001:00012fa0       ??0?$_Container_base_aux_alloc_real@V?$allocator@V?$basic_string@DU?$char_traits@D@std@@V?$allocator@D@2@@std@@@std@@@std@@IAE@V?$allocator@V?$basic_string@DU?$char_traits@D@std@@V?$allocator@D@2@@std@@@1@@Z 00413fa0 f i authcommon:csvlib.obj
 0001:00013060       ??Fconst_iterator@?$_Tree@V?$_Tmap_traits@V?$basic_string@DU?$char_traits@D@std@@V?$allocator@D@2@@std@@EU?$less@V?$basic_string@DU?$char_traits@D@std@@V?$allocator@D@2@@std@@@2@V?$allocator@U?$pair@$$CBV?$basic_string@DU?$char_traits@D@std@@V?$allocator@D@2@@std@@E@std@@@2@$0A@@std@@@std@@QAEAAV012@XZ 00414060 f i authcommon:csvlib.obj
 0001:00013080       ??0?$_Vector_iterator@V?$basic_string@DU?$char_traits@D@std@@V?$allocator@D@2@@std@@V?$allocator@V?$basic_string@DU?$char_traits@D@std@@V?$allocator@D@2@@std@@@2@@std@@QAE@PAV?$basic_string@DU?$char_traits@D@std@@V?$allocator@D@2@@1@PBV_Container_base_aux@1@@Z 00414080 f i authcommon:csvlib.obj
 0001:000130a0       ??H?$_Vector_iterator@V?$basic_string@DU?$char_traits@D@std@@V?$allocator@D@2@@std@@V?$allocator@V?$basic_string@DU?$char_traits@D@std@@V?$allocator@D@2@@std@@@2@@std@@QBE?AV01@H@Z 004140a0 f i authcommon:csvlib.obj
 0001:000130e0       ??G?$_Vector_const_iterator@V?$basic_string@DU?$char_traits@D@std@@V?$allocator@D@2@@std@@V?$allocator@V?$basic_string@DU?$char_traits@D@std@@V?$allocator@D@2@@std@@@2@@std@@QBEHABV01@@Z 004140e0 f i authcommon:csvlib.obj
 0001:00013130       ?unshift@?$codecvt@DDH@std@@QBEHAAHPAD1AAPAD@Z 00414130 f i authcommon:csvlib.obj
 0001:00013160       ?setp@?$basic_streambuf@DU?$char_traits@D@std@@@std@@IAEXPAD0@Z 00414160 f i authcommon:csvlib.obj
 0001:000131a0       ?widen@?$ctype@D@std@@QBEDD@Z 004141a0 f i authcommon:csvlib.obj
 0001:000131c0       ?erase@?$_Tree@V?$_Tmap_traits@V?$basic_string@DU?$char_traits@D@std@@V?$allocator@D@2@@std@@EU?$less@V?$basic_string@DU?$char_traits@D@std@@V?$allocator@D@2@@std@@@2@V?$allocator@U?$pair@$$CBV?$basic_string@DU?$char_traits@D@std@@V?$allocator@D@2@@std@@E@std@@@2@$0A@@std@@@std@@QAE?AViterator@12@Vconst_iterator@12@@Z 004141c0 f i authcommon:csvlib.obj
 0001:000139a0       ?_Buynode@?$_Tree@V?$_Tmap_traits@V?$basic_string@DU?$char_traits@D@std@@V?$allocator@D@2@@std@@EU?$less@V?$basic_string@DU?$char_traits@D@std@@V?$allocator@D@2@@std@@@2@V?$allocator@U?$pair@$$CBV?$basic_string@DU?$char_traits@D@std@@V?$allocator@D@2@@std@@E@std@@@2@$0A@@std@@@std@@IAEPAU_Node@?$_Tree_nod@V?$_Tmap_traits@V?$basic_string@DU?$char_traits@D@std@@V?$allocator@D@2@@std@@EU?$less@V?$basic_string@DU?$char_traits@D@std@@V?$allocator@D@2@@std@@@2@V?$allocator@U?$pair@$$CBV?$basic_string@DU?$char_traits@D@std@@V?$allocator@D@2@@std@@E@std@@@2@$0A@@std@@@2@XZ 004149a0 f i authcommon:csvlib.obj
 0001:00013b20       ??0?$_Tree_ptr@V?$_Tmap_traits@V?$basic_string@DU?$char_traits@D@std@@V?$allocator@D@2@@std@@EU?$less@V?$basic_string@DU?$char_traits@D@std@@V?$allocator@D@2@@std@@@2@V?$allocator@U?$pair@$$CBV?$basic_string@DU?$char_traits@D@std@@V?$allocator@D@2@@std@@E@std@@@2@$0A@@std@@@std@@IAE@ABU?$less@V?$basic_string@DU?$char_traits@D@std@@V?$allocator@D@2@@std@@@1@V?$allocator@U?$pair@$$CBV?$basic_string@DU?$char_traits@D@std@@V?$allocator@D@2@@std@@E@std@@@1@@Z 00414b20 f i authcommon:csvlib.obj
 0001:00013b60       ?max_size@?$allocator@U?$pair@$$CBV?$basic_string@DU?$char_traits@D@std@@V?$allocator@D@2@@std@@E@std@@@std@@QBEIXZ 00414b60 f i authcommon:csvlib.obj
 0001:00013b90       ?allocate@?$allocator@V_Aux_cont@std@@@std@@QAEPAV_Aux_cont@2@I@Z 00414b90 f i authcommon:csvlib.obj
 0001:00013bb0       ?allocate@?$allocator@U_Node@?$_Tree_nod@V?$_Tmap_traits@V?$basic_string@DU?$char_traits@D@std@@V?$allocator@D@2@@std@@EU?$less@V?$basic_string@DU?$char_traits@D@std@@V?$allocator@D@2@@std@@@2@V?$allocator@U?$pair@$$CBV?$basic_string@DU?$char_traits@D@std@@V?$allocator@D@2@@std@@E@std@@@2@$0A@@std@@@std@@@std@@QAEPAU_Node@?$_Tree_nod@V?$_Tmap_traits@V?$basic_string@DU?$char_traits@D@std@@V?$allocator@D@2@@std@@EU?$less@V?$basic_string@DU?$char_traits@D@std@@V?$allocator@D@2@@std@@@2@V?$allocator@U?$pair@$$CBV?$basic_string@DU?$char_traits@D@std@@V?$allocator@D@2@@std@@E@std@@@2@$0A@@std@@@2@I@Z 00414bb0 f i authcommon:csvlib.obj
 0001:00013bd0       ?max_size@?$allocator@V?$basic_string@DU?$char_traits@D@std@@V?$allocator@D@2@@std@@@std@@QBEIXZ 00414bd0 f i authcommon:csvlib.obj
 0001:00013c00       ??Econst_iterator@?$_Tree@V?$_Tmap_traits@V?$basic_string@DU?$char_traits@D@std@@V?$allocator@D@2@@std@@EU?$less@V?$basic_string@DU?$char_traits@D@std@@V?$allocator@D@2@@std@@@2@V?$allocator@U?$pair@$$CBV?$basic_string@DU?$char_traits@D@std@@V?$allocator@D@2@@std@@E@std@@@2@$0A@@std@@@std@@QAE?AV012@H@Z 00414c00 f i authcommon:csvlib.obj
 0001:00013c40       ?_Dec@const_iterator@?$_Tree@V?$_Tmap_traits@V?$basic_string@DU?$char_traits@D@std@@V?$allocator@D@2@@std@@EU?$less@V?$basic_string@DU?$char_traits@D@std@@V?$allocator@D@2@@std@@@2@V?$allocator@U?$pair@$$CBV?$basic_string@DU?$char_traits@D@std@@V?$allocator@D@2@@std@@E@std@@@2@$0A@@std@@@std@@QAEXXZ 00414c40 f i authcommon:csvlib.obj
 0001:00013d70       ??Y?$_Vector_iterator@V?$basic_string@DU?$char_traits@D@std@@V?$allocator@D@2@@std@@V?$allocator@V?$basic_string@DU?$char_traits@D@std@@V?$allocator@D@2@@std@@@2@@std@@QAEAAV01@H@Z 00414d70 f i authcommon:csvlib.obj
 0001:00013d90       ??0?$_Vector_const_iterator@V?$basic_string@DU?$char_traits@D@std@@V?$allocator@D@2@@std@@V?$allocator@V?$basic_string@DU?$char_traits@D@std@@V?$allocator@D@2@@std@@@2@@std@@QAE@PAV?$basic_string@DU?$char_traits@D@std@@V?$allocator@D@2@@1@PBV_Container_base_aux@1@@Z 00414d90 f i authcommon:csvlib.obj
 0001:00013df0       ??0_Node@?$_Tree_nod@V?$_Tmap_traits@V?$basic_string@DU?$char_traits@D@std@@V?$allocator@D@2@@std@@EU?$less@V?$basic_string@DU?$char_traits@D@std@@V?$allocator@D@2@@std@@@2@V?$allocator@U?$pair@$$CBV?$basic_string@DU?$char_traits@D@std@@V?$allocator@D@2@@std@@E@std@@@2@$0A@@std@@@std@@QAE@PAU012@00ABU?$pair@$$CBV?$basic_string@DU?$char_traits@D@std@@V?$allocator@D@2@@std@@E@2@D@Z 00414df0 f i authcommon:csvlib.obj
 0001:00013e40       ?_Max@?$_Tree@V?$_Tmap_traits@V?$basic_string@DU?$char_traits@D@std@@V?$allocator@D@2@@std@@EU?$less@V?$basic_string@DU?$char_traits@D@std@@V?$allocator@D@2@@std@@@2@V?$allocator@U?$pair@$$CBV?$basic_string@DU?$char_traits@D@std@@V?$allocator@D@2@@std@@E@std@@@2@$0A@@std@@@std@@KAPAU_Node@?$_Tree_nod@V?$_Tmap_traits@V?$basic_string@DU?$char_traits@D@std@@V?$allocator@D@2@@std@@EU?$less@V?$basic_string@DU?$char_traits@D@std@@V?$allocator@D@2@@std@@@2@V?$allocator@U?$pair@$$CBV?$basic_string@DU?$char_traits@D@std@@V?$allocator@D@2@@std@@E@std@@@2@$0A@@std@@@2@PAU342@@Z 00414e40 f i authcommon:csvlib.obj
 0001:00013e80       ?_Min@?$_Tree@V?$_Tmap_traits@V?$basic_string@DU?$char_traits@D@std@@V?$allocator@D@2@@std@@EU?$less@V?$basic_string@DU?$char_traits@D@std@@V?$allocator@D@2@@std@@@2@V?$allocator@U?$pair@$$CBV?$basic_string@DU?$char_traits@D@std@@V?$allocator@D@2@@std@@E@std@@@2@$0A@@std@@@std@@KAPAU_Node@?$_Tree_nod@V?$_Tmap_traits@V?$basic_string@DU?$char_traits@D@std@@V?$allocator@D@2@@std@@EU?$less@V?$basic_string@DU?$char_traits@D@std@@V?$allocator@D@2@@std@@@2@V?$allocator@U?$pair@$$CBV?$basic_string@DU?$char_traits@D@std@@V?$allocator@D@2@@std@@E@std@@@2@$0A@@std@@@2@PAU342@@Z 00414e80 f i authcommon:csvlib.obj
 0001:00013ec0       ??0?$_Tree_nod@V?$_Tmap_traits@V?$basic_string@DU?$char_traits@D@std@@V?$allocator@D@2@@std@@EU?$less@V?$basic_string@DU?$char_traits@D@std@@V?$allocator@D@2@@std@@@2@V?$allocator@U?$pair@$$CBV?$basic_string@DU?$char_traits@D@std@@V?$allocator@D@2@@std@@E@std@@@2@$0A@@std@@@std@@IAE@ABU?$less@V?$basic_string@DU?$char_traits@D@std@@V?$allocator@D@2@@std@@@1@V?$allocator@U?$pair@$$CBV?$basic_string@DU?$char_traits@D@std@@V?$allocator@D@2@@std@@E@std@@@1@@Z 00414ec0 f i authcommon:csvlib.obj
 0001:00013f00       ?construct@?$allocator@PAU_Node@?$_Tree_nod@V?$_Tmap_traits@V?$basic_string@DU?$char_traits@D@std@@V?$allocator@D@2@@std@@EU?$less@V?$basic_string@DU?$char_traits@D@std@@V?$allocator@D@2@@std@@@2@V?$allocator@U?$pair@$$CBV?$basic_string@DU?$char_traits@D@std@@V?$allocator@D@2@@std@@E@std@@@2@$0A@@std@@@std@@@std@@QAEXPAPAU_Node@?$_Tree_nod@V?$_Tmap_traits@V?$basic_string@DU?$char_traits@D@std@@V?$allocator@D@2@@std@@EU?$less@V?$basic_string@DU?$char_traits@D@std@@V?$allocator@D@2@@std@@@2@V?$allocator@U?$pair@$$CBV?$basic_string@DU?$char_traits@D@std@@V?$allocator@D@2@@std@@E@std@@@2@$0A@@std@@@2@ABQAU342@@Z 00414f00 f i authcommon:csvlib.obj
 0001:00013f20       ??Econst_iterator@?$_Tree@V?$_Tmap_traits@V?$basic_string@DU?$char_traits@D@std@@V?$allocator@D@2@@std@@EU?$less@V?$basic_string@DU?$char_traits@D@std@@V?$allocator@D@2@@std@@@2@V?$allocator@U?$pair@$$CBV?$basic_string@DU?$char_traits@D@std@@V?$allocator@D@2@@std@@E@std@@@2@$0A@@std@@@std@@QAEAAV012@XZ 00414f20 f i authcommon:csvlib.obj
 0001:00013f40       ??Y?$_Vector_const_iterator@V?$basic_string@DU?$char_traits@D@std@@V?$allocator@D@2@@std@@V?$allocator@V?$basic_string@DU?$char_traits@D@std@@V?$allocator@D@2@@std@@@2@@std@@QAEAAV01@H@Z 00414f40 f i authcommon:csvlib.obj
 0001:00013fc0       ??0?$_Tmap_traits@V?$basic_string@DU?$char_traits@D@std@@V?$allocator@D@2@@std@@EU?$less@V?$basic_string@DU?$char_traits@D@std@@V?$allocator@D@2@@std@@@2@V?$allocator@U?$pair@$$CBV?$basic_string@DU?$char_traits@D@std@@V?$allocator@D@2@@std@@E@std@@@2@$0A@@std@@QAE@U?$less@V?$basic_string@DU?$char_traits@D@std@@V?$allocator@D@2@@std@@@1@V?$allocator@U?$pair@$$CBV?$basic_string@DU?$char_traits@D@std@@V?$allocator@D@2@@std@@E@std@@@1@@Z 00414fc0 f i authcommon:csvlib.obj
 0001:00013ff0       ?_Inc@const_iterator@?$_Tree@V?$_Tmap_traits@V?$basic_string@DU?$char_traits@D@std@@V?$allocator@D@2@@std@@EU?$less@V?$basic_string@DU?$char_traits@D@std@@V?$allocator@D@2@@std@@@2@V?$allocator@U?$pair@$$CBV?$basic_string@DU?$char_traits@D@std@@V?$allocator@D@2@@std@@E@std@@@2@$0A@@std@@@std@@QAEXXZ 00414ff0 f i authcommon:csvlib.obj
 0001:000140d0       ??$?0V?$basic_string@DU?$char_traits@D@std@@V?$allocator@D@2@@std@@E@?$pair@$$CBV?$basic_string@DU?$char_traits@D@std@@V?$allocator@D@2@@std@@E@std@@QAE@ABU?$pair@V?$basic_string@DU?$char_traits@D@std@@V?$allocator@D@2@@std@@E@1@@Z 004150d0 f i authcommon:csvlib.obj
 0001:000140d0       ??0?$pair@$$CBV?$basic_string@DU?$char_traits@D@std@@V?$allocator@D@2@@std@@E@std@@QAE@ABU01@@Z 004150d0 f i authcommon:csvlib.obj
 0001:00014100       ??$use_facet@V?$codecvt@DDH@std@@@std@@YAABV?$codecvt@DDH@0@ABVlocale@0@@Z 00415100 f i authcommon:csvlib.obj
 0001:000141f0       ??Bid@locale@std@@QAEIXZ   004151f0 f i authcommon:csvlib.obj
 0001:00014240       ?_Register@facet@locale@std@@QAEXXZ 00415240 f i authcommon:csvlib.obj
 0001:00014260       ?_Getfacet@locale@std@@QBEPBVfacet@12@I@Z 00415260 f i authcommon:csvlib.obj
 0001:000142f0       ??$?MDU?$char_traits@D@std@@V?$allocator@D@1@@std@@YA_NABV?$basic_string@DU?$char_traits@D@std@@V?$allocator@D@2@@0@0@Z 004152f0 f i authcommon:csvlib.obj
 0001:00014310       ??$unchecked_copy@PAV?$basic_string@DU?$char_traits@D@std@@V?$allocator@D@2@@std@@PAV12@@stdext@@YAPAV?$basic_string@DU?$char_traits@D@std@@V?$allocator@D@2@@std@@PAV12@00@Z 00415310 f i authcommon:csvlib.obj
 0001:00014380       ??$unchecked_uninitialized_fill_n@PAV?$basic_string@DU?$char_traits@D@std@@V?$allocator@D@2@@std@@IV12@V?$allocator@V?$basic_string@DU?$char_traits@D@std@@V?$allocator@D@2@@std@@@2@@stdext@@YAXPAV?$basic_string@DU?$char_traits@D@std@@V?$allocator@D@2@@std@@IABV12@AAV?$allocator@V?$basic_string@DU?$char_traits@D@std@@V?$allocator@D@2@@std@@@2@@Z 00415380 f i authcommon:csvlib.obj
 0001:000143d0       ??$_Destroy@U_Node@?$_Tree_nod@V?$_Tmap_traits@V?$basic_string@DU?$char_traits@D@std@@V?$allocator@D@2@@std@@EU?$less@V?$basic_string@DU?$char_traits@D@std@@V?$allocator@D@2@@std@@@2@V?$allocator@U?$pair@$$CBV?$basic_string@DU?$char_traits@D@std@@V?$allocator@D@2@@std@@E@std@@@2@$0A@@std@@@std@@@std@@YAXPAU_Node@?$_Tree_nod@V?$_Tmap_traits@V?$basic_string@DU?$char_traits@D@std@@V?$allocator@D@2@@std@@EU?$less@V?$basic_string@DU?$char_traits@D@std@@V?$allocator@D@2@@std@@@2@V?$allocator@U?$pair@$$CBV?$basic_string@DU?$char_traits@D@std@@V?$allocator@D@2@@std@@E@std@@@2@$0A@@std@@@0@@Z 004153d0 f i authcommon:csvlib.obj
 0001:000143e0       ??3@YAXPAX0@Z              004153e0 f i LoginFrontFrame.obj
 0001:000143e0       ??$_Destroy@PAU_Node@?$_Tree_nod@V?$_Tmap_traits@V?$basic_string@DU?$char_traits@D@std@@V?$allocator@D@2@@std@@EU?$less@V?$basic_string@DU?$char_traits@D@std@@V?$allocator@D@2@@std@@@2@V?$allocator@U?$pair@$$CBV?$basic_string@DU?$char_traits@D@std@@V?$allocator@D@2@@std@@E@std@@@2@$0A@@std@@@std@@@std@@YAXPAPAU_Node@?$_Tree_nod@V?$_Tmap_traits@V?$basic_string@DU?$char_traits@D@std@@V?$allocator@D@2@@std@@EU?$less@V?$basic_string@DU?$char_traits@D@std@@V?$allocator@D@2@@std@@@2@V?$allocator@U?$pair@$$CBV?$basic_string@DU?$char_traits@D@std@@V?$allocator@D@2@@std@@E@std@@@2@$0A@@std@@@0@@Z 004153e0 f i authcommon:csvlib.obj
 0001:000143f0       ??$_Allocate@V?$basic_string@DU?$char_traits@D@std@@V?$allocator@D@2@@std@@@std@@YAPAV?$basic_string@DU?$char_traits@D@std@@V?$allocator@D@2@@0@IPAV10@@Z 004153f0 f i authcommon:csvlib.obj
 0001:00014440       ??$_Destroy_range@V?$allocator@V?$basic_string@DU?$char_traits@D@std@@V?$allocator@D@2@@std@@@std@@@std@@YAXPAV?$basic_string@DU?$char_traits@D@std@@V?$allocator@D@2@@0@0AAV?$allocator@V?$basic_string@DU?$char_traits@D@std@@V?$allocator@D@2@@std@@@0@@Z 00415440 f i authcommon:csvlib.obj
 0001:00014480       ??$_Umove@PAV?$basic_string@DU?$char_traits@D@std@@V?$allocator@D@2@@std@@@?$vector@V?$basic_string@DU?$char_traits@D@std@@V?$allocator@D@2@@std@@V?$allocator@V?$basic_string@DU?$char_traits@D@std@@V?$allocator@D@2@@std@@@2@@std@@IAEPAV?$basic_string@DU?$char_traits@D@std@@V?$allocator@D@2@@1@PAV21@00@Z 00415480 f i authcommon:csvlib.obj
 0001:000144b0       ??$fill@PAV?$basic_string@DU?$char_traits@D@std@@V?$allocator@D@2@@std@@V12@@std@@YAXPAV?$basic_string@DU?$char_traits@D@std@@V?$allocator@D@2@@0@0ABV10@@Z 004154b0 f i authcommon:csvlib.obj
 0001:000144e0       ??$_Unchecked_move_backward@PAV?$basic_string@DU?$char_traits@D@std@@V?$allocator@D@2@@std@@PAV12@@stdext@@YAPAV?$basic_string@DU?$char_traits@D@std@@V?$allocator@D@2@@std@@PAV12@00@Z 004154e0 f i authcommon:csvlib.obj
 0001:00014550       ??$_Allocate@V_Aux_cont@std@@@std@@YAPAV_Aux_cont@0@IPAV10@@Z 00415550 f i authcommon:csvlib.obj
 0001:000145a0       ??$_Allocate@U_Node@?$_Tree_nod@V?$_Tmap_traits@V?$basic_string@DU?$char_traits@D@std@@V?$allocator@D@2@@std@@EU?$less@V?$basic_string@DU?$char_traits@D@std@@V?$allocator@D@2@@std@@@2@V?$allocator@U?$pair@$$CBV?$basic_string@DU?$char_traits@D@std@@V?$allocator@D@2@@std@@E@std@@@2@$0A@@std@@@std@@@std@@YAPAU_Node@?$_Tree_nod@V?$_Tmap_traits@V?$basic_string@DU?$char_traits@D@std@@V?$allocator@D@2@@std@@EU?$less@V?$basic_string@DU?$char_traits@D@std@@V?$allocator@D@2@@std@@@2@V?$allocator@U?$pair@$$CBV?$basic_string@DU?$char_traits@D@std@@V?$allocator@D@2@@std@@E@std@@@2@$0A@@std@@@0@IPAU120@@Z 004155a0 f i authcommon:csvlib.obj
 0001:000145f0       ??$_Construct@PAU_Node@?$_Tree_nod@V?$_Tmap_traits@V?$basic_string@DU?$char_traits@D@std@@V?$allocator@D@2@@std@@EU?$less@V?$basic_string@DU?$char_traits@D@std@@V?$allocator@D@2@@std@@@2@V?$allocator@U?$pair@$$CBV?$basic_string@DU?$char_traits@D@std@@V?$allocator@D@2@@std@@E@std@@@2@$0A@@std@@@std@@PAU123@@std@@YAXPAPAU_Node@?$_Tree_nod@V?$_Tmap_traits@V?$basic_string@DU?$char_traits@D@std@@V?$allocator@D@2@@std@@EU?$less@V?$basic_string@DU?$char_traits@D@std@@V?$allocator@D@2@@std@@@2@V?$allocator@U?$pair@$$CBV?$basic_string@DU?$char_traits@D@std@@V?$allocator@D@2@@std@@E@std@@@2@$0A@@std@@@0@ABQAU120@@Z 004155f0 f i authcommon:csvlib.obj
 0001:00014630       ??_G_Node@?$_Tree_nod@V?$_Tmap_traits@V?$basic_string@DU?$char_traits@D@std@@V?$allocator@D@2@@std@@EU?$less@V?$basic_string@DU?$char_traits@D@std@@V?$allocator@D@2@@std@@@2@V?$allocator@U?$pair@$$CBV?$basic_string@DU?$char_traits@D@std@@V?$allocator@D@2@@std@@E@std@@@2@$0A@@std@@@std@@QAEPAXI@Z 00415630 f i authcommon:csvlib.obj
 0001:00014660       ??1_Node@?$_Tree_nod@V?$_Tmap_traits@V?$basic_string@DU?$char_traits@D@std@@V?$allocator@D@2@@std@@EU?$less@V?$basic_string@DU?$char_traits@D@std@@V?$allocator@D@2@@std@@@2@V?$allocator@U?$pair@$$CBV?$basic_string@DU?$char_traits@D@std@@V?$allocator@D@2@@std@@E@std@@@2@$0A@@std@@@std@@QAE@XZ 00415660 f i authcommon:csvlib.obj
 0001:00014680       ?_Getcat@?$codecvt@DDH@std@@SAIPAPBVfacet@locale@2@PBV42@@Z 00415680 f i authcommon:csvlib.obj
 0001:000147f0       ??0_Locinfo@std@@QAE@ABV?$basic_string@DU?$char_traits@D@std@@V?$allocator@D@2@@1@@Z 004157f0 f i authcommon:csvlib.obj
 0001:00014890       ??1_Locinfo@std@@QAE@XZ    00415890 f i authcommon:csvlib.obj
 0001:00014930       ?name@locale@std@@QBE?AV?$basic_string@DU?$char_traits@D@std@@V?$allocator@D@2@@2@XZ 00415930 f i authcommon:csvlib.obj
 0001:00014970       ??0?$codecvt@DDH@std@@QAE@ABV_Locinfo@1@I@Z 00415970 f i authcommon:csvlib.obj
 0001:000149e0       ?do_out@?$codecvt@DDH@std@@MBEHAAHPBD1AAPBDPAD3AAPAD@Z 004159e0 f i authcommon:csvlib.obj
 0001:000149e0       ?do_in@?$codecvt@DDH@std@@MBEHAAHPBD1AAPBDPAD3AAPAD@Z 004159e0 f i authcommon:csvlib.obj
 0001:00014a10       ?do_unshift@?$codecvt@DDH@std@@MBEHAAHPAD1AAPAD@Z 00415a10 f i authcommon:csvlib.obj
 0001:00014a30       ?do_length@?$codecvt@DDH@std@@MBEHABHPBD1I@Z 00415a30 f i authcommon:csvlib.obj
 0001:00014a60       ??0codecvt_base@std@@QAE@I@Z 00415a60 f i authcommon:csvlib.obj
 0001:00014a90       ??0facet@locale@std@@IAE@I@Z 00415a90 f i authcommon:csvlib.obj
 0001:00014ac0       ??_Efacet@locale@std@@UAEPAXI@Z 00415ac0 f i authcommon:csvlib.obj
 0001:00014ac0       ??_Gfacet@locale@std@@UAEPAXI@Z 00415ac0 f i authcommon:csvlib.obj
 0001:00014af0       ??1facet@locale@std@@UAE@XZ 00415af0 f i authcommon:csvlib.obj
 0001:00014b10       ??_E?$codecvt@DDH@std@@MAEPAXI@Z 00415b10 f i authcommon:csvlib.obj
 0001:00014b10       ??_G?$codecvt@DDH@std@@MAEPAXI@Z 00415b10 f i authcommon:csvlib.obj
 0001:00014b40       ??1?$codecvt@DDH@std@@MAE@XZ 00415b40 f i authcommon:csvlib.obj
 0001:00014b60       ??1codecvt_base@std@@UAE@XZ 00415b60 f i authcommon:csvlib.obj
 0001:00014b80       ?do_always_noconv@codecvt_base@std@@MBE_NXZ 00415b80 f i authcommon:csvlib.obj
 0001:00014b90       ?do_max_length@codecvt_base@std@@MBEHXZ 00415b90 f i authcommon:csvlib.obj
 0001:00014b90       ?do_encoding@codecvt_base@std@@MBEHXZ 00415b90 f i authcommon:csvlib.obj
 0001:00014ba0       ??_Ecodecvt_base@std@@UAEPAXI@Z 00415ba0 f i authcommon:csvlib.obj
 0001:00014ba0       ??_Gcodecvt_base@std@@UAEPAXI@Z 00415ba0 f i authcommon:csvlib.obj
 0001:00014bd0       ??$_Iter_random@PAU_List_position@?$_Hash@V?$_Hmap_traits@KPAVClientSession@@V?$hash_compare@KU?$less@K@std@@@stdext@@V?$CustomAllocator@PAVClientSession@@@util@@$0A@@stdext@@@stdext@@PAU123@@std@@YA?AUrandom_access_iterator_tag@0@ABQAU_List_position@?$_Hash@V?$_Hmap_traits@KPAVClientSession@@V?$hash_compare@KU?$less@K@std@@@stdext@@V?$CustomAllocator@PAVClientSession@@@util@@$0A@@stdext@@@stdext@@0@Z 00415bd0 f i ClientManager.obj
 0001:00014bd0       ??$_Iter_random@PAV?$basic_string@DU?$char_traits@D@std@@V?$allocator@D@2@@std@@PAV12@@std@@YA?AUrandom_access_iterator_tag@0@ABQAV?$basic_string@DU?$char_traits@D@std@@V?$allocator@D@2@@0@0@Z 00415bd0 f i authcommon:csvlib.obj
 0001:00014bd0       ??$_Iter_cat@V?$_Const_iterator@$00@?$list@U?$pair@$$CBKPAVClientSession@@@std@@V?$CustomAllocator@U?$pair@$$CBKPAVClientSession@@@std@@@util@@@std@@@std@@YA?AUbidirectional_iterator_tag@0@ABV?$_Const_iterator@$00@?$list@U?$pair@$$CBKPAVClientSession@@@std@@V?$CustomAllocator@U?$pair@$$CBKPAVClientSession@@@std@@@util@@@0@@Z 00415bd0 f i ClientManager.obj
 0001:00014be0       ??$_Copy_opt@PAV?$basic_string@DU?$char_traits@D@std@@V?$allocator@D@2@@std@@PAV12@@std@@YAPAV?$basic_string@DU?$char_traits@D@std@@V?$allocator@D@2@@0@PAV10@00Urandom_access_iterator_tag@0@U_Nonscalar_ptr_iterator_tag@0@U_Range_checked_iterator_tag@0@@Z 00415be0 f i authcommon:csvlib.obj
 0001:00014c40       ??$_Uninit_fill_n@PAV?$basic_string@DU?$char_traits@D@std@@V?$allocator@D@2@@std@@IV12@V?$allocator@V?$basic_string@DU?$char_traits@D@std@@V?$allocator@D@2@@std@@@2@@std@@YAXPAV?$basic_string@DU?$char_traits@D@std@@V?$allocator@D@2@@0@IABV10@AAV?$allocator@V?$basic_string@DU?$char_traits@D@std@@V?$allocator@D@2@@std@@@0@U_Nonscalar_ptr_iterator_tag@0@U_Range_checked_iterator_tag@0@@Z 00415c40 f i authcommon:csvlib.obj
 0001:00014d00       ??$_Destroy_range@V?$allocator@V?$basic_string@DU?$char_traits@D@std@@V?$allocator@D@2@@std@@@std@@@std@@YAXPAV?$basic_string@DU?$char_traits@D@std@@V?$allocator@D@2@@0@0AAV?$allocator@V?$basic_string@DU?$char_traits@D@std@@V?$allocator@D@2@@std@@@0@U_Nonscalar_ptr_iterator_tag@0@@Z 00415d00 f i authcommon:csvlib.obj
 0001:00014d30       ??$_Unchecked_uninitialized_move@PAV?$basic_string@DU?$char_traits@D@std@@V?$allocator@D@2@@std@@PAV12@V?$allocator@V?$basic_string@DU?$char_traits@D@std@@V?$allocator@D@2@@std@@@2@@stdext@@YAPAV?$basic_string@DU?$char_traits@D@std@@V?$allocator@D@2@@std@@PAV12@00AAV?$allocator@V?$basic_string@DU?$char_traits@D@std@@V?$allocator@D@2@@std@@@2@@Z 00415d30 f i authcommon:csvlib.obj
 0001:00014d80       ??$_Fill@PAV?$basic_string@DU?$char_traits@D@std@@V?$allocator@D@2@@std@@V12@@std@@YAXPAV?$basic_string@DU?$char_traits@D@std@@V?$allocator@D@2@@0@0ABV10@@Z 00415d80 f i authcommon:csvlib.obj
 0001:00014db0       ??$_Move_backward_opt@PAV?$basic_string@DU?$char_traits@D@std@@V?$allocator@D@2@@std@@PAV12@@std@@YAPAV?$basic_string@DU?$char_traits@D@std@@V?$allocator@D@2@@0@PAV10@00Urandom_access_iterator_tag@0@U_Swap_move_tag@0@U_Range_checked_iterator_tag@0@@Z 00415db0 f i authcommon:csvlib.obj
 0001:00014e10       ??4?$basic_string@DU?$char_traits@D@std@@V?$allocator@D@2@@std@@QAEAAV01@ABV01@@Z 00415e10 f i authcommon:csvlib.obj
 0001:00014e30       ?construct@?$allocator@V?$basic_string@DU?$char_traits@D@std@@V?$allocator@D@2@@std@@@std@@QAEXPAV?$basic_string@DU?$char_traits@D@std@@V?$allocator@D@2@@2@ABV32@@Z 00415e30 f i authcommon:csvlib.obj
 0001:00014e50       ?destroy@?$allocator@V?$basic_string@DU?$char_traits@D@std@@V?$allocator@D@2@@std@@@std@@QAEXPAV?$basic_string@DU?$char_traits@D@std@@V?$allocator@D@2@@2@@Z 00415e50 f i authcommon:csvlib.obj
 0001:00014e70       ?assign@?$basic_string@DU?$char_traits@D@std@@V?$allocator@D@2@@std@@QAEAAV12@ABV12@@Z 00415e70 f i authcommon:csvlib.obj
 0001:00014e90       ??$_Copy_opt@PAV?$basic_string@DU?$char_traits@D@std@@V?$allocator@D@2@@std@@PAV12@Uforward_iterator_tag@2@@std@@YAPAV?$basic_string@DU?$char_traits@D@std@@V?$allocator@D@2@@0@PAV10@00Uforward_iterator_tag@0@U_Nonscalar_ptr_iterator_tag@0@U_Range_checked_iterator_tag@0@@Z 00415e90 f i authcommon:csvlib.obj
 0001:00014ed0       ??$_Uninit_move@PAV?$basic_string@DU?$char_traits@D@std@@V?$allocator@D@2@@std@@PAV12@V?$allocator@V?$basic_string@DU?$char_traits@D@std@@V?$allocator@D@2@@std@@@2@@std@@YAPAV?$basic_string@DU?$char_traits@D@std@@V?$allocator@D@2@@0@PAV10@00AAV?$allocator@V?$basic_string@DU?$char_traits@D@std@@V?$allocator@D@2@@std@@@0@U_Swap_move_tag@0@U_Range_checked_iterator_tag@0@@Z 00415ed0 f i authcommon:csvlib.obj
 0001:00014fd0       ??$_Move_backward_opt@PAV?$basic_string@DU?$char_traits@D@std@@V?$allocator@D@2@@std@@PAV12@Uforward_iterator_tag@2@@std@@YAPAV?$basic_string@DU?$char_traits@D@std@@V?$allocator@D@2@@0@PAV10@00Uforward_iterator_tag@0@U_Swap_move_tag@0@U_Range_checked_iterator_tag@0@@Z 00415fd0 f i authcommon:csvlib.obj
 0001:00015010       ??$_Construct@V?$basic_string@DU?$char_traits@D@std@@V?$allocator@D@2@@std@@V12@@std@@YAXPAV?$basic_string@DU?$char_traits@D@std@@V?$allocator@D@2@@0@ABV10@@Z 00416010 f i authcommon:csvlib.obj
 0001:00015090       ??$_Destroy@V?$basic_string@DU?$char_traits@D@std@@V?$allocator@D@2@@std@@@std@@YAXPAV?$basic_string@DU?$char_traits@D@std@@V?$allocator@D@2@@0@@Z 00416090 f i authcommon:csvlib.obj
 0001:000150a0       ??_G?$basic_string@DU?$char_traits@D@std@@V?$allocator@D@2@@std@@QAEPAXI@Z 004160a0 f i authcommon:csvlib.obj
 0001:000150d0       ?eof@ios_base@std@@QBE_NXZ 004160d0 f i authcommon:csvlib.obj
 0001:000150f0       ?rdstate@ios_base@std@@QBEHXZ 004160f0 f i authcommon:csvlib.obj
 0001:00015110       ??$_Swap_adl@V?$basic_string@DU?$char_traits@D@std@@V?$allocator@D@2@@std@@@std@@YAXAAV?$basic_string@DU?$char_traits@D@std@@V?$allocator@D@2@@0@0@Z 00416110 f i authcommon:csvlib.obj
 0001:00015130       ??$swap@DU?$char_traits@D@std@@V?$allocator@D@2@@std@@YAXAAV?$basic_string@DU?$char_traits@D@std@@V?$allocator@D@2@@0@0@Z 00416130 f i authcommon:csvlib.obj
 0001:00015150       ?swap@?$basic_string@DU?$char_traits@D@std@@V?$allocator@D@2@@std@@QAEXAAV12@@Z 00416150 f i authcommon:csvlib.obj
 0001:000152a0       ??$?8U?$pair@$$CBKPAVClientSession@@@std@@U01@@util@@YA_NABV?$CustomAllocator@U?$pair@$$CBKPAVClientSession@@@std@@@0@0@Z 004162a0 f i ClientManager.obj
 0001:000152a0       ??$?8DD@std@@YA_NABV?$allocator@D@0@0@Z 004162a0 f i authcommon:csvlib.obj
 0001:000152b0       ?getloc@ios_base@std@@QBE?AVlocale@2@XZ 004162b0 f i authcommon:csvlib.obj
 0001:000152f0       ??0ios_base@std@@IAE@XZ    004162f0 f i authcommon:csvlib.obj
 0001:00015310       ?_Init@ios_base@std@@IAEXXZ 00416310 f i authcommon:csvlib.obj
 0001:000153b0       ?clear@ios_base@std@@QAEXH@Z 004163b0 f i authcommon:csvlib.obj
 0001:000153d0       ?clear@ios_base@std@@QAEXH_N@Z 004163d0 f i authcommon:csvlib.obj
 0001:00015560       ??0runtime_error@std@@QAE@ABV01@@Z 00416560 f i authcommon:csvlib.obj
 0001:000155d0       ??_Eruntime_error@std@@UAEPAXI@Z 004165d0 f i authcommon:csvlib.obj
 0001:000155d0       ??_Gruntime_error@std@@UAEPAXI@Z 004165d0 f i authcommon:csvlib.obj
 0001:00015600       ??1runtime_error@std@@UAE@XZ 00416600 f i authcommon:csvlib.obj
 0001:00015630       ??0failure@ios_base@std@@QAE@ABV?$basic_string@DU?$char_traits@D@std@@V?$allocator@D@2@@2@@Z 00416630 f i authcommon:csvlib.obj
 0001:00015660       ??0runtime_error@std@@QAE@ABV?$basic_string@DU?$char_traits@D@std@@V?$allocator@D@2@@1@@Z 00416660 f i authcommon:csvlib.obj
 0001:000156d0       ??1failure@ios_base@std@@UAE@XZ 004166d0 f i authcommon:csvlib.obj
 0001:000156f0       ??_Efailure@ios_base@std@@UAEPAXI@Z 004166f0 f i authcommon:csvlib.obj
 0001:000156f0       ??_Gfailure@ios_base@std@@UAEPAXI@Z 004166f0 f i authcommon:csvlib.obj
 0001:00015720       ??0failure@ios_base@std@@QAE@ABV012@@Z 00416720 f i authcommon:csvlib.obj
 0001:00015750       ??_Eios_base@std@@UAEPAXI@Z 00416750 f i authcommon:csvlib.obj
 0001:00015750       ??_Gios_base@std@@UAEPAXI@Z 00416750 f i authcommon:csvlib.obj
 0001:00015780       ??1ios_base@std@@UAE@XZ    00416780 f i authcommon:csvlib.obj
 0001:000157a0       ??1sentry@?$basic_istream@DU?$char_traits@D@std@@@std@@QAE@XZ 004167a0 f i authcommon:csvlib.obj
 0001:000157c0       ?compare@?$basic_string@DU?$char_traits@D@std@@V?$allocator@D@2@@std@@QBEHABV12@@Z 004167c0 f i authcommon:csvlib.obj
 0001:000157f0       ??1?$basic_ios@DU?$char_traits@D@std@@@std@@UAE@XZ 004167f0 f i authcommon:csvlib.obj
 0001:00015810       ?setstate@?$basic_ios@DU?$char_traits@D@std@@@std@@QAEXH_N@Z 00416810 f i authcommon:csvlib.obj
 0001:00015840       ?rdbuf@?$basic_ios@DU?$char_traits@D@std@@@std@@QBEPAV?$basic_streambuf@DU?$char_traits@D@std@@@2@XZ 00416840 f i authcommon:csvlib.obj
 0001:00015860       ??1?$basic_istream@DU?$char_traits@D@std@@@std@@UAE@XZ 00416860 f i authcommon:csvlib.obj
 0001:00015880       ??0sentry@?$basic_istream@DU?$char_traits@D@std@@@std@@QAE@AAV12@_N@Z 00416880 f i authcommon:csvlib.obj
 0001:000158f0       ??Bsentry@?$basic_istream@DU?$char_traits@D@std@@@std@@QBE_NXZ 004168f0 f i authcommon:csvlib.obj
 0001:00015910       ??1_Sentry_base@?$basic_istream@DU?$char_traits@D@std@@@std@@QAE@XZ 00416910 f i authcommon:csvlib.obj
 0001:00015950       ??1?$basic_streambuf@DU?$char_traits@D@std@@@std@@UAE@XZ 00416950 f i authcommon:csvlib.obj
 0001:000159a0       ?sgetc@?$basic_streambuf@DU?$char_traits@D@std@@@std@@QAEHXZ 004169a0 f i authcommon:csvlib.obj
 0001:000159f0       ?snextc@?$basic_streambuf@DU?$char_traits@D@std@@@std@@QAEHXZ 004169f0 f i authcommon:csvlib.obj
 0001:00015a70       ?overflow@?$basic_streambuf@DU?$char_traits@D@std@@@std@@MAEHH@Z 00416a70 f i authcommon:csvlib.obj
 0001:00015a70       ?pbackfail@?$basic_streambuf@DU?$char_traits@D@std@@@std@@MAEHH@Z 00416a70 f i authcommon:csvlib.obj
 0001:00015a90       ?sync@?$basic_streambuf@DU?$char_traits@D@std@@@std@@MAEHXZ 00416a90 f i authcommon:csvlib.obj
 0001:00015a90       ?showmanyc@?$basic_streambuf@DU?$char_traits@D@std@@@std@@MAEHXZ 00416a90 f i authcommon:csvlib.obj
 0001:00015a90       ?GetNumberOfBands@IMemoryPoolFactoryImpl@internal@util@@UBEHXZ 00416a90 f i LoginFrontFrame.obj
 0001:00015a90       ?GetPoolBasicSize@IMemoryPoolFactoryImpl@internal@util@@UBEHXZ 00416a90 f i LoginFrontFrame.obj
 0001:00015a90       ?GetAvailableNumberOfTypes@IMemoryPoolFactoryImpl@internal@util@@UBEHXZ 00416a90 f i LoginFrontFrame.obj
 0001:00015a90       ?GetPoolExtendSize@IMemoryPoolFactoryImpl@internal@util@@UBEHXZ 00416a90 f i LoginFrontFrame.obj
 0001:00015aa0       ?underflow@?$basic_streambuf@DU?$char_traits@D@std@@@std@@MAEHXZ 00416aa0 f i authcommon:csvlib.obj
 0001:00015ab0       ?uflow@?$basic_streambuf@DU?$char_traits@D@std@@@std@@MAEHXZ 00416ab0 f i authcommon:csvlib.obj
 0001:00015b10       ?xsgetn@?$basic_streambuf@DU?$char_traits@D@std@@@std@@MAEHPADH@Z 00416b10 f i authcommon:csvlib.obj
 0001:00015b40       ?_Xsgetn_s@?$basic_streambuf@DU?$char_traits@D@std@@@std@@MAEHPADIH@Z 00416b40 f i authcommon:csvlib.obj
 0001:00015c40       ?xsputn@?$basic_streambuf@DU?$char_traits@D@std@@@std@@MAEHPBDH@Z 00416c40 f i authcommon:csvlib.obj
 0001:00015d30       ?seekoff@?$basic_streambuf@DU?$char_traits@D@std@@@std@@MAE?AV?$fpos@H@2@JHH@Z 00416d30 f i authcommon:csvlib.obj
 0001:00015d50       ?seekpos@?$basic_streambuf@DU?$char_traits@D@std@@@std@@MAE?AV?$fpos@H@2@V32@H@Z 00416d50 f i authcommon:csvlib.obj
 0001:00015d70       ?setbuf@?$basic_streambuf@DU?$char_traits@D@std@@@std@@MAEPAV12@PADH@Z 00416d70 f i authcommon:csvlib.obj
 0001:00015d80       ??_E?$basic_ios@DU?$char_traits@D@std@@@std@@UAEPAXI@Z 00416d80 f i authcommon:csvlib.obj
 0001:00015d80       ??_G?$basic_ios@DU?$char_traits@D@std@@@std@@UAEPAXI@Z 00416d80 f i authcommon:csvlib.obj
 0001:00015db0       ??_E?$basic_istream@DU?$char_traits@D@std@@@std@@UAEPAXI@Z 00416db0 f i authcommon:csvlib.obj
 0001:00015db0       ??_G?$basic_istream@DU?$char_traits@D@std@@@std@@UAEPAXI@Z 00416db0 f i authcommon:csvlib.obj
 0001:00015df0       ??_E?$basic_streambuf@DU?$char_traits@D@std@@@std@@UAEPAXI@Z 00416df0 f i authcommon:csvlib.obj
 0001:00015df0       ??_G?$basic_streambuf@DU?$char_traits@D@std@@@std@@UAEPAXI@Z 00416df0 f i authcommon:csvlib.obj
 0001:00015e20       ??_Glocale@std@@QAEPAXI@Z  00416e20 f i authcommon:csvlib.obj
 0001:00015e50       ??_D?$basic_istream@DU?$char_traits@D@std@@@std@@QAEXXZ 00416e50 f i authcommon:csvlib.obj
 0001:00015e80       ?compare@?$basic_string@DU?$char_traits@D@std@@V?$allocator@D@2@@std@@QBEHIIPBDI@Z 00416e80 f i authcommon:csvlib.obj
 0001:00015f30       ?compare@?$char_traits@D@std@@SAHPBD0I@Z 00416f30 f i authcommon:csvlib.obj
 0001:00015f70       ?clear@?$basic_ios@DU?$char_traits@D@std@@@std@@QAEXH_N@Z 00416f70 f i authcommon:csvlib.obj
 0001:00015fb0       ?_Ipfx@?$basic_istream@DU?$char_traits@D@std@@@std@@QAE_N_N@Z 00416fb0 f i authcommon:csvlib.obj
 0001:000161d0       ?is@?$ctype@D@std@@QBE_NFD@Z 004171d0 f i authcommon:csvlib.obj
 0001:00016200       ?good@ios_base@std@@QBE_NXZ 00417200 f i authcommon:csvlib.obj
 0001:00016220       ?GetMode@ServerFrame@@QAE?AW4eSERVER_MODE@@XZ 00417220 f i ClientSession.obj
 0001:00016220       ?state@?$fpos@H@std@@QBEHXZ 00417220 f i authcommon:csvlib.obj
 0001:00016220       ?flags@ios_base@std@@QBEHXZ 00417220 f i authcommon:csvlib.obj
 0001:00016240       ?flush@?$basic_ostream@DU?$char_traits@D@std@@@std@@QAEAAV12@XZ 00417240 f i authcommon:csvlib.obj
 0001:000162b0       ?fail@ios_base@std@@QBE_NXZ 004172b0 f i authcommon:csvlib.obj
 0001:000162d0       ??0_Sentry_base@?$basic_istream@DU?$char_traits@D@std@@@std@@QAE@AAV12@@Z 004172d0 f i authcommon:csvlib.obj
 0001:00016320       ?pubsync@?$basic_streambuf@DU?$char_traits@D@std@@@std@@QAEHXZ 00417320 f i authcommon:csvlib.obj
 0001:00016340       ?sbumpc@?$basic_streambuf@DU?$char_traits@D@std@@@std@@QAEHXZ 00417340 f i authcommon:csvlib.obj
 0001:00016390       ?_Unlock@?$basic_streambuf@DU?$char_traits@D@std@@@std@@QAEXXZ 00417390 f i authcommon:csvlib.obj
 0001:000163b0       ?gptr@?$basic_streambuf@DU?$char_traits@D@std@@@std@@IBEPADXZ 004173b0 f i authcommon:csvlib.obj
 0001:000163d0       ?pptr@?$basic_streambuf@DU?$char_traits@D@std@@@std@@IBEPADXZ 004173d0 f i authcommon:csvlib.obj
 0001:000163f0       ?gbump@?$basic_streambuf@DU?$char_traits@D@std@@@std@@IAEXH@Z 004173f0 f i authcommon:csvlib.obj
 0001:00016430       ?_Gninc@?$basic_streambuf@DU?$char_traits@D@std@@@std@@IAEPADXZ 00417430 f i authcommon:csvlib.obj
 0001:00016480       ?_Gnpreinc@?$basic_streambuf@DU?$char_traits@D@std@@@std@@IAEPADXZ 00417480 f i authcommon:csvlib.obj
 0001:000164c0       ?_Gnavail@?$basic_streambuf@DU?$char_traits@D@std@@@std@@IBEHXZ 004174c0 f i authcommon:csvlib.obj
 0001:000164f0       ?pbump@?$basic_streambuf@DU?$char_traits@D@std@@@std@@IAEXH@Z 004174f0 f i authcommon:csvlib.obj
 0001:00016530       ?_Pnavail@?$basic_streambuf@DU?$char_traits@D@std@@@std@@IBEHXZ 00417530 f i authcommon:csvlib.obj
 0001:00016560       ??0?$fpos@H@std@@QAE@J@Z   00417560 f i authcommon:csvlib.obj
 0001:000165a0       ?tie@?$basic_ios@DU?$char_traits@D@std@@@std@@QBEPAV?$basic_ostream@DU?$char_traits@D@std@@@2@XZ 004175a0 f i authcommon:csvlib.obj
 0001:000165c0       ?_Lock@?$basic_streambuf@DU?$char_traits@D@std@@@std@@QAEXXZ 004175c0 f i authcommon:csvlib.obj
 0001:000165e0       ?_Pninc@?$basic_streambuf@DU?$char_traits@D@std@@@std@@IAEPADXZ 004175e0 f i authcommon:csvlib.obj
 0001:00016630       ??$use_facet@V?$ctype@D@std@@@std@@YAABV?$ctype@D@0@ABVlocale@0@@Z 00417630 f i authcommon:csvlib.obj
 0001:00016720       ?_Getcat@?$ctype@D@std@@SAIPAPBVfacet@locale@2@PBV42@@Z 00417720 f i authcommon:csvlib.obj
 0001:00016890       ??0?$ctype@D@std@@QAE@ABV_Locinfo@1@I@Z 00417890 f i authcommon:csvlib.obj
 0001:00016900       ??0ctype_base@std@@QAE@I@Z 00417900 f i authcommon:csvlib.obj
 0001:00016930       ??1ctype_base@std@@UAE@XZ  00417930 f i authcommon:csvlib.obj
 0001:00016950       ??_Ectype_base@std@@UAEPAXI@Z 00417950 f i authcommon:csvlib.obj
 0001:00016950       ??_Gctype_base@std@@UAEPAXI@Z 00417950 f i authcommon:csvlib.obj
 0001:00016980       ?_Init@?$ctype@D@std@@IAEXABV_Locinfo@2@@Z 00417980 f i authcommon:csvlib.obj
 0001:000169c0       ?_Getctype@_Locinfo@std@@QBE?AU_Ctypevec@@XZ 004179c0 f i authcommon:csvlib.obj
 0001:00016a10       ?do_tolower@?$ctype@D@std@@MBEDD@Z 00417a10 f i authcommon:csvlib.obj
 0001:00016a40       ?do_tolower@?$ctype@D@std@@MBEPBDPADPBD@Z 00417a40 f i authcommon:csvlib.obj
 0001:00016a80       ?do_toupper@?$ctype@D@std@@MBEDD@Z 00417a80 f i authcommon:csvlib.obj
 0001:00016ab0       ?do_toupper@?$ctype@D@std@@MBEPBDPADPBD@Z 00417ab0 f i authcommon:csvlib.obj
 0001:00016af0       ?do_widen@?$ctype@D@std@@MBEDD@Z 00417af0 f i authcommon:csvlib.obj
 0001:00016b00       ?do_widen@?$ctype@D@std@@MBEPBDPBD0PAD@Z 00417b00 f i authcommon:csvlib.obj
 0001:00016b30       ?_Do_widen_s@?$ctype@D@std@@MBEPBDPBD0PADI@Z 00417b30 f i authcommon:csvlib.obj
 0001:00016b70       ?do_narrow@?$ctype@D@std@@MBEDDD@Z 00417b70 f i authcommon:csvlib.obj
 0001:00016b80       ?do_narrow@?$ctype@D@std@@MBEPBDPBD0DPAD@Z 00417b80 f i authcommon:csvlib.obj
 0001:00016bc0       ?_Do_narrow_s@?$ctype@D@std@@MBEPBDPBD0DPADI@Z 00417bc0 f i authcommon:csvlib.obj
 0001:00016c00       ??_E?$ctype@D@std@@MAEPAXI@Z 00417c00 f i authcommon:csvlib.obj
 0001:00016c00       ??_G?$ctype@D@std@@MAEPAXI@Z 00417c00 f i authcommon:csvlib.obj
 0001:00016c30       ??1?$ctype@D@std@@MAE@XZ   00417c30 f i authcommon:csvlib.obj
 0001:00016c90       ?_Tidy@?$ctype@D@std@@IAEXXZ 00417c90 f i authcommon:csvlib.obj
 0001:00016ce0       ??0ServerData@@QAE@XZ      00417ce0 f   authcommon:ServerData.obj
 0001:00016d50       ?CheckServerCrowd@ServerData@@QAEHXZ 00417d50 f   authcommon:ServerData.obj
 0001:00016d90       ?IncLoginUserCount@ServerData@@QAEXXZ 00417d90 f   authcommon:ServerData.obj
 0001:00016dc0       ?DecLoginUserCount@ServerData@@QAEXXZ 00417dc0 f   authcommon:ServerData.obj
 0001:00016e00       ?Finalize@@YAXXZ           00417e00 f   extreme:eXtreme.obj
 0001:00016e20       ?Initialize@eXtreme@@YA_NPADP6AXK0@Z@Z 00417e20 f   extreme:eXtreme.obj
 0001:00016ee0       ?Init@ServerTimeInfoPerFrame@util@@QAEXXZ 00417ee0 f   servercommon:ServerFrame.obj
 0001:00016f20       ?Update@ServerTimeInfoPerFrame@util@@QAEXXZ 00417f20 f   servercommon:ServerFrame.obj
 0001:00017010       ?IsListening@ServerFrame@@QAEHK@Z 00418010 f   servercommon:ServerFrame.obj
 0001:00017020       ?SuspendListenThread@ServerFrame@@QAEXK@Z 00418020 f   servercommon:ServerFrame.obj
 0001:00017030       ?ResumeListenThread@ServerFrame@@QAEXK@Z 00418030 f   servercommon:ServerFrame.obj
 0001:00017040       ?Listen@ServerFrame@@IAEXKPBDG@Z 00418040 f   servercommon:ServerFrame.obj
 0001:000170b0       ?UpdateAppTitle@ServerFrame@@QAEXXZ 004180b0 f   servercommon:ServerFrame.obj
 0001:00017100       ?FrameCheck@ServerFrame@@IAEXXZ 00418100 f   servercommon:ServerFrame.obj
 0001:00017190       ?SendServerType@ServerFrame@@UAEXPAVServerSession@@@Z 00418190 f   servercommon:ServerFrame.obj
 0001:000171c0       ?RunUnitTest@ServerFrame@@IAEXXZ 004181c0 f   servercommon:ServerFrame.obj
 0001:00017300       ?Listen@ServerFrame@@QAEXK@Z 00418300 f   servercommon:ServerFrame.obj
 0001:00017340       ?Connect@ServerFrame@@IAEXPAVServerSession@@@Z 00418340 f   servercommon:ServerFrame.obj
 0001:00017400       ?MaintainConnection@ServerFrame@@IAEXXZ 00418400 f   servercommon:ServerFrame.obj
 0001:000174d0       ?_Update@ServerFrame@@AAEHXZ 004184d0 f   servercommon:ServerFrame.obj
 0001:000175f0       ?DisplayAppInfo@ServerFrame@@IAEXH@Z 004185f0 f   servercommon:ServerFrame.obj
 0001:000177c0       ?DisplayServerList@ServerFrame@@IAEXXZ 004187c0 f   servercommon:ServerFrame.obj
 0001:00017990       ?SendToSessionType@ServerFrame@@QAEXW4eSERVER_TYPE@@PAUMSG_BASE@@GK@Z 00418990 f   servercommon:ServerFrame.obj
 0001:00017a40       ?ProcessConsole@ServerFrame@@IAEHXZ 00418a40 f   servercommon:ServerFrame.obj
 0001:00017ad0       ?SendToSessionType@ServerFrame@@QAEXW4eSERVER_TYPE@@PAUMSG_BASE_INTERNAL@@GK@Z 00418ad0 f   servercommon:ServerFrame.obj
 0001:00017ae0       ?SendToSession@ServerFrame@@QAEHKPAUMSG_BASE@@G@Z 00418ae0 f   servercommon:ServerFrame.obj
 0001:00017b70       ??1ServerFrame@@UAE@XZ     00418b70 f   servercommon:ServerFrame.obj
 0001:00017c60       ?DoProcess@ServerFrame@@QAEXXZ 00418c60 f   servercommon:ServerFrame.obj
 0001:00017ca0       ?DoUpdate@ServerFrame@@QAEHXZ 00418ca0 f   servercommon:ServerFrame.obj
 0001:00017cd0       ?SendToSession@ServerFrame@@QAEHKPAUMSG_BASE_INTERNAL@@G@Z 00418cd0 f   servercommon:ServerFrame.obj
 0001:00017ce0       ?DoRelease@ServerFrame@@QAEXXZ 00418ce0 f   servercommon:ServerFrame.obj
 0001:00017dc0       ?AddConnectionlessConnector@ServerFrame@@QAEXPAVServerSession@@@Z 00418dc0 f   servercommon:ServerFrame.obj
 0001:00017e30       ??0ServerFrame@@QAE@XZ     00418e30 f   servercommon:ServerFrame.obj
 0001:00017f40       ?InitConnectSession@ServerFrame@@QAEPAVServerSession@@W4eSERVER_TYPE@@PADG@Z 00418f40 f   servercommon:ServerFrame.obj
 0001:00017fd0       ?Connect@ServerFrame@@IAEXH@Z 00418fd0 f   servercommon:ServerFrame.obj
 0001:00018100       ?DoInit@ServerFrame@@QAEHPBDP6APAVNetworkObject@@XZP6AXPAV2@@Z3133@Z 00419100 f   servercommon:ServerFrame.obj
 0001:00018500       ??$_Uninit_copy@PAU_List_position@?$_Hash@V?$_Hmap_traits@KPAVServerSession@@V?$hash_compare@KU?$less@K@std@@@stdext@@V?$CustomAllocator@PAVServerSession@@@util@@$0A@@stdext@@@stdext@@PAU123@V?$CustomAllocator@U_List_position@?$_Hash@V?$_Hmap_traits@KPAVServerSession@@V?$hash_compare@KU?$less@K@std@@@stdext@@V?$CustomAllocator@PAVServerSession@@@util@@$0A@@stdext@@@stdext@@@util@@@std@@YAPAU_List_position@?$_Hash@V?$_Hmap_traits@KPAVServerSession@@V?$hash_compare@KU?$less@K@std@@@stdext@@V?$CustomAllocator@PAVServerSession@@@util@@$0A@@stdext@@@stdext@@PAU123@00AAV?$CustomAllocator@U_List_position@?$_Hash@V?$_Hmap_traits@KPAVServerSession@@V?$hash_compare@KU?$less@K@std@@@stdext@@V?$CustomAllocator@PAVServerSession@@@util@@$0A@@stdext@@@stdext@@@util@@U_Nonscalar_ptr_iterator_tag@0@U_Range_checked_iterator_tag@0@@Z 00419500 f i servercommon:ServerFrame.obj
 0001:00018530       ?_Tidy@?$list@U?$pair@$$CBKPAVServerSession@@@std@@V?$CustomAllocator@U?$pair@$$CBKPAVServerSession@@@std@@@util@@@std@@IAEXXZ 00419530 f i servercommon:ServerFrame.obj
 0001:00018530       ?_Tidy@?$list@PAVSession@@V?$RedirectedAllocator@PAVSession@@@module@@@std@@IAEXXZ 00419530 f i Network:SessionList.obj
 0001:00018580       ?_Buynode@?$list@U?$pair@$$CBKPAVServerSession@@@std@@V?$CustomAllocator@U?$pair@$$CBKPAVServerSession@@@std@@@util@@@std@@IAEPAU_Node@?$_List_nod@U?$pair@$$CBKPAVServerSession@@@std@@V?$CustomAllocator@U?$pair@$$CBKPAVServerSession@@@std@@@util@@@2@XZ 00419580 f i servercommon:ServerFrame.obj
 0001:000185a0       ?_Buynode@?$list@U?$pair@$$CBKPAVServerSession@@@std@@V?$CustomAllocator@U?$pair@$$CBKPAVServerSession@@@std@@@util@@@std@@IAEPAU_Node@?$_List_nod@U?$pair@$$CBKPAVServerSession@@@std@@V?$CustomAllocator@U?$pair@$$CBKPAVServerSession@@@std@@@util@@@2@PAU342@0ABU?$pair@$$CBKPAVServerSession@@@2@@Z 004195a0 f i servercommon:ServerFrame.obj
 0001:000185e0       ??$_Uninit_fill_n@PAU_List_position@?$_Hash@V?$_Hmap_traits@KPAVServerSession@@V?$hash_compare@KU?$less@K@std@@@stdext@@V?$CustomAllocator@PAVServerSession@@@util@@$0A@@stdext@@@stdext@@IU123@V?$CustomAllocator@U_List_position@?$_Hash@V?$_Hmap_traits@KPAVServerSession@@V?$hash_compare@KU?$less@K@std@@@stdext@@V?$CustomAllocator@PAVServerSession@@@util@@$0A@@stdext@@@stdext@@@util@@@std@@YAXPAU_List_position@?$_Hash@V?$_Hmap_traits@KPAVServerSession@@V?$hash_compare@KU?$less@K@std@@@stdext@@V?$CustomAllocator@PAVServerSession@@@util@@$0A@@stdext@@@stdext@@IABU123@AAV?$CustomAllocator@U_List_position@?$_Hash@V?$_Hmap_traits@KPAVServerSession@@V?$hash_compare@KU?$less@K@std@@@stdext@@V?$CustomAllocator@PAVServerSession@@@util@@$0A@@stdext@@@stdext@@@util@@U_Nonscalar_ptr_iterator_tag@0@U_Range_checked_iterator_tag@0@@Z 004195e0 f i servercommon:ServerFrame.obj
 0001:00018610       ?_Hashval@?$_Hash@V?$_Hmap_traits@KPAVServerSession@@V?$hash_compare@KU?$less@K@std@@@stdext@@V?$CustomAllocator@PAVServerSession@@@util@@$0A@@stdext@@@stdext@@IBEIABK@Z 00419610 f i servercommon:ServerFrame.obj
 0001:00018670       ??$fill@PAU_List_position@?$_Hash@V?$_Hmap_traits@KPAVServerSession@@V?$hash_compare@KU?$less@K@std@@@stdext@@V?$CustomAllocator@PAVServerSession@@@util@@$0A@@stdext@@@stdext@@U123@@std@@YAXPAU_List_position@?$_Hash@V?$_Hmap_traits@KPAVServerSession@@V?$hash_compare@KU?$less@K@std@@@stdext@@V?$CustomAllocator@PAVServerSession@@@util@@$0A@@stdext@@@stdext@@0ABU123@@Z 00419670 f i servercommon:ServerFrame.obj
 0001:000186a0       ?_Ufill@?$vector@U_List_position@?$_Hash@V?$_Hmap_traits@KPAVServerSession@@V?$hash_compare@KU?$less@K@std@@@stdext@@V?$CustomAllocator@PAVServerSession@@@util@@$0A@@stdext@@@stdext@@V?$CustomAllocator@U_List_position@?$_Hash@V?$_Hmap_traits@KPAVServerSession@@V?$hash_compare@KU?$less@K@std@@@stdext@@V?$CustomAllocator@PAVServerSession@@@util@@$0A@@stdext@@@stdext@@@util@@@std@@IAEPAU_List_position@?$_Hash@V?$_Hmap_traits@KPAVServerSession@@V?$hash_compare@KU?$less@K@std@@@stdext@@V?$CustomAllocator@PAVServerSession@@@util@@$0A@@stdext@@@stdext@@PAU345@IABU345@@Z 004196a0 f i servercommon:ServerFrame.obj
 0001:000186e0       ??$_Unchecked_move_backward@PAU_List_position@?$_Hash@V?$_Hmap_traits@KPAVServerSession@@V?$hash_compare@KU?$less@K@std@@@stdext@@V?$CustomAllocator@PAVServerSession@@@util@@$0A@@stdext@@@stdext@@PAU123@@stdext@@YAPAU_List_position@?$_Hash@V?$_Hmap_traits@KPAVServerSession@@V?$hash_compare@KU?$less@K@std@@@stdext@@V?$CustomAllocator@PAVServerSession@@@util@@$0A@@stdext@@@0@PAU120@00@Z 004196e0 f i servercommon:ServerFrame.obj
 0001:00018720       ??$_Umove@PAU_List_position@?$_Hash@V?$_Hmap_traits@KPAVServerSession@@V?$hash_compare@KU?$less@K@std@@@stdext@@V?$CustomAllocator@PAVServerSession@@@util@@$0A@@stdext@@@stdext@@@?$vector@U_List_position@?$_Hash@V?$_Hmap_traits@KPAVServerSession@@V?$hash_compare@KU?$less@K@std@@@stdext@@V?$CustomAllocator@PAVServerSession@@@util@@$0A@@stdext@@@stdext@@V?$CustomAllocator@U_List_position@?$_Hash@V?$_Hmap_traits@KPAVServerSession@@V?$hash_compare@KU?$less@K@std@@@stdext@@V?$CustomAllocator@PAVServerSession@@@util@@$0A@@stdext@@@stdext@@@util@@@std@@IAEPAU_List_position@?$_Hash@V?$_Hmap_traits@KPAVServerSession@@V?$hash_compare@KU?$less@K@std@@@stdext@@V?$CustomAllocator@PAVServerSession@@@util@@$0A@@stdext@@@stdext@@PAU234@00@Z 00419720 f i servercommon:ServerFrame.obj
 0001:00018750       ?lower_bound@?$_Hash@V?$_Hmap_traits@KPAVServerSession@@V?$hash_compare@KU?$less@K@std@@@stdext@@V?$CustomAllocator@PAVServerSession@@@util@@$0A@@stdext@@@stdext@@QAE?AV?$_Iterator@$00@?$list@U?$pair@$$CBKPAVServerSession@@@std@@V?$CustomAllocator@U?$pair@$$CBKPAVServerSession@@@std@@@util@@@std@@ABK@Z 00419750 f i servercommon:ServerFrame.obj
 0001:000188a0       ??1?$list@U?$pair@$$CBKPAVServerSession@@@std@@V?$CustomAllocator@U?$pair@$$CBKPAVServerSession@@@std@@@util@@@std@@QAE@XZ 004198a0 f i servercommon:ServerFrame.obj
 0001:000188a0       ??1?$list@PAVSession@@V?$RedirectedAllocator@PAVSession@@@module@@@std@@QAE@XZ 004198a0 f i Network:SessionList.obj
 0001:000188c0       ??1?$vector@U_List_position@?$_Hash@V?$_Hmap_traits@KPAVServerSession@@V?$hash_compare@KU?$less@K@std@@@stdext@@V?$CustomAllocator@PAVServerSession@@@util@@$0A@@stdext@@@stdext@@V?$CustomAllocator@U_List_position@?$_Hash@V?$_Hmap_traits@KPAVServerSession@@V?$hash_compare@KU?$less@K@std@@@stdext@@V?$CustomAllocator@PAVServerSession@@@util@@$0A@@stdext@@@stdext@@@util@@@std@@QAE@XZ 004198c0 f i servercommon:ServerFrame.obj
 0001:00018900       ??0?$list@U?$pair@$$CBKPAVServerSession@@@std@@V?$CustomAllocator@U?$pair@$$CBKPAVServerSession@@@std@@@util@@@std@@QAE@ABV?$CustomAllocator@U?$pair@$$CBKPAVServerSession@@@std@@@util@@@Z 00419900 f i servercommon:ServerFrame.obj
 0001:00018970       ?erase@?$vector@U_List_position@?$_Hash@V?$_Hmap_traits@KPAVServerSession@@V?$hash_compare@KU?$less@K@std@@@stdext@@V?$CustomAllocator@PAVServerSession@@@util@@$0A@@stdext@@@stdext@@V?$CustomAllocator@U_List_position@?$_Hash@V?$_Hmap_traits@KPAVServerSession@@V?$hash_compare@KU?$less@K@std@@@stdext@@V?$CustomAllocator@PAVServerSession@@@util@@$0A@@stdext@@@stdext@@@util@@@std@@QAE?AV?$_Vector_iterator@U_List_position@?$_Hash@V?$_Hmap_traits@KPAVServerSession@@V?$hash_compare@KU?$less@K@std@@@stdext@@V?$CustomAllocator@PAVServerSession@@@util@@$0A@@stdext@@@stdext@@V?$CustomAllocator@U_List_position@?$_Hash@V?$_Hmap_traits@KPAVServerSession@@V?$hash_compare@KU?$less@K@std@@@stdext@@V?$CustomAllocator@PAVServerSession@@@util@@$0A@@stdext@@@stdext@@@util@@@2@V?$_Vector_const_iterator@U_List_position@?$_Hash@V?$_Hmap_traits@KPAVServerSession@@V?$hash_compare@KU?$less@K@std@@@stdext@@V?$CustomAllocator@PAVServerSession@@@util@@$0A@@stdext@@@stdext@@V?$CustomAllocator@U_List_position@?$_Hash@V?$_Hmap_traits@KPAVServerSession@@V?$hash_compare@KU?$less@K@std@@@stdext@@V?$CustomAllocator@PAVServerSession@@@util@@$0A@@stdext@@@stdext@@@util@@@2@0@Z 00419970 f i servercommon:ServerFrame.obj
 0001:00018a10       ?_Incsize@?$list@U?$pair@$$CBKPAVServerSession@@@std@@V?$CustomAllocator@U?$pair@$$CBKPAVServerSession@@@std@@@util@@@std@@IAEXI@Z 00419a10 f i servercommon:ServerFrame.obj
 0001:00018ab0       ?_Xlen@?$vector@U_List_position@?$_Hash@V?$_Hmap_traits@KPAVServerSession@@V?$hash_compare@KU?$less@K@std@@@stdext@@V?$CustomAllocator@PAVServerSession@@@util@@$0A@@stdext@@@stdext@@V?$CustomAllocator@U_List_position@?$_Hash@V?$_Hmap_traits@KPAVServerSession@@V?$hash_compare@KU?$less@K@std@@@stdext@@V?$CustomAllocator@PAVServerSession@@@util@@$0A@@stdext@@@stdext@@@util@@@std@@KAXXZ 00419ab0 f i servercommon:ServerFrame.obj
 0001:00018b30       ??1?$chunk_hash_map@KPAVServerSession@@V?$hash_compare@KU?$less@K@std@@@stdext@@@util@@QAE@XZ 00419b30 f i servercommon:ServerFrame.obj
 0001:00018b80       ?KeyEvent@ServerFrame@@MAEHD@Z 00419b80 f i servercommon:ServerFrame.obj
 0001:00018b90       ?_Insert_n@?$vector@U_List_position@?$_Hash@V?$_Hmap_traits@KPAVServerSession@@V?$hash_compare@KU?$less@K@std@@@stdext@@V?$CustomAllocator@PAVServerSession@@@util@@$0A@@stdext@@@stdext@@V?$CustomAllocator@U_List_position@?$_Hash@V?$_Hmap_traits@KPAVServerSession@@V?$hash_compare@KU?$less@K@std@@@stdext@@V?$CustomAllocator@PAVServerSession@@@util@@$0A@@stdext@@@stdext@@@util@@@std@@IAEXV?$_Vector_const_iterator@U_List_position@?$_Hash@V?$_Hmap_traits@KPAVServerSession@@V?$hash_compare@KU?$less@K@std@@@stdext@@V?$CustomAllocator@PAVServerSession@@@util@@$0A@@stdext@@@stdext@@V?$CustomAllocator@U_List_position@?$_Hash@V?$_Hmap_traits@KPAVServerSession@@V?$hash_compare@KU?$less@K@std@@@stdext@@V?$CustomAllocator@PAVServerSession@@@util@@$0A@@stdext@@@stdext@@@util@@@2@IABU_List_position@?$_Hash@V?$_Hmap_traits@KPAVServerSession@@V?$hash_compare@KU?$less@K@std@@@stdext@@V?$CustomAllocator@PAVServerSession@@@util@@$0A@@stdext@@@stdext@@@Z 00419b90 f i servercommon:ServerFrame.obj
 0001:00018de0       ??_EServerFrame@@UAEPAXI@Z 00419de0 f i servercommon:ServerFrame.obj
 0001:00018de0       ??_GServerFrame@@UAEPAXI@Z 00419de0 f i servercommon:ServerFrame.obj
 0001:00018e00       ?insert@?$list@U?$pair@$$CBKPAVServerSession@@@std@@V?$CustomAllocator@U?$pair@$$CBKPAVServerSession@@@std@@@util@@@std@@QAE?AV?$_Iterator@$00@12@V?$_Const_iterator@$00@12@ABU?$pair@$$CBKPAVServerSession@@@2@@Z 00419e00 f i servercommon:ServerFrame.obj
 0001:00018e90       ??0?$vector@U_List_position@?$_Hash@V?$_Hmap_traits@KPAVServerSession@@V?$hash_compare@KU?$less@K@std@@@stdext@@V?$CustomAllocator@PAVServerSession@@@util@@$0A@@stdext@@@stdext@@V?$CustomAllocator@U_List_position@?$_Hash@V?$_Hmap_traits@KPAVServerSession@@V?$hash_compare@KU?$less@K@std@@@stdext@@V?$CustomAllocator@PAVServerSession@@@util@@$0A@@stdext@@@stdext@@@util@@@std@@QAE@ABV?$CustomAllocator@U_List_position@?$_Hash@V?$_Hmap_traits@KPAVServerSession@@V?$hash_compare@KU?$less@K@std@@@stdext@@V?$CustomAllocator@PAVServerSession@@@util@@$0A@@stdext@@@stdext@@@util@@@Z 00419e90 f i servercommon:ServerFrame.obj
 0001:00018ef0       ?_Splice@?$list@U?$pair@$$CBKPAVServerSession@@@std@@V?$CustomAllocator@U?$pair@$$CBKPAVServerSession@@@std@@@util@@@std@@QAEXV?$_Const_iterator@$00@12@AAV12@00I_N@Z 00419ef0 f i servercommon:ServerFrame.obj
 0001:00018f60       ?_Assign_n@?$vector@U_List_position@?$_Hash@V?$_Hmap_traits@KPAVServerSession@@V?$hash_compare@KU?$less@K@std@@@stdext@@V?$CustomAllocator@PAVServerSession@@@util@@$0A@@stdext@@@stdext@@V?$CustomAllocator@U_List_position@?$_Hash@V?$_Hmap_traits@KPAVServerSession@@V?$hash_compare@KU?$less@K@std@@@stdext@@V?$CustomAllocator@PAVServerSession@@@util@@$0A@@stdext@@@stdext@@@util@@@std@@IAEXIABU_List_position@?$_Hash@V?$_Hmap_traits@KPAVServerSession@@V?$hash_compare@KU?$less@K@std@@@stdext@@V?$CustomAllocator@PAVServerSession@@@util@@$0A@@stdext@@@stdext@@@Z 00419f60 f i servercommon:ServerFrame.obj
 0001:00018fe0       ?splice@?$list@U?$pair@$$CBKPAVServerSession@@@std@@V?$CustomAllocator@U?$pair@$$CBKPAVServerSession@@@std@@@util@@@std@@QAEXV?$_Const_iterator@$00@12@AAV12@0@Z 00419fe0 f i servercommon:ServerFrame.obj
 0001:000190a0       ?_Insert@?$_Hash@V?$_Hmap_traits@KPAVServerSession@@V?$hash_compare@KU?$less@K@std@@@stdext@@V?$CustomAllocator@PAVServerSession@@@util@@$0A@@stdext@@@stdext@@IAE?AU?$pair@V?$_Iterator@$00@?$list@U?$pair@$$CBKPAVServerSession@@@std@@V?$CustomAllocator@U?$pair@$$CBKPAVServerSession@@@std@@@util@@@std@@_N@std@@ABU?$pair@$$CBKPAVServerSession@@@4@V?$_Iterator@$00@?$list@U?$pair@$$CBKPAVServerSession@@@std@@V?$CustomAllocator@U?$pair@$$CBKPAVServerSession@@@std@@@util@@@4@@Z 0041a0a0 f i servercommon:ServerFrame.obj
 0001:00019420       ??0?$_Hash@V?$_Hmap_traits@KPAVServerSession@@V?$hash_compare@KU?$less@K@std@@@stdext@@V?$CustomAllocator@PAVServerSession@@@util@@$0A@@stdext@@@stdext@@QAE@ABV?$hash_compare@KU?$less@K@std@@@1@ABV?$CustomAllocator@U?$pair@$$CBKPAVServerSession@@@std@@@util@@@Z 0041a420 f i servercommon:ServerFrame.obj
 0001:000194e0       ?_Reinsert@?$_Hash@V?$_Hmap_traits@KPAVServerSession@@V?$hash_compare@KU?$less@K@std@@@stdext@@V?$CustomAllocator@PAVServerSession@@@util@@$0A@@stdext@@@stdext@@IAEXXZ 0041a4e0 f i servercommon:ServerFrame.obj
 0001:00019570       ?clear@?$_Hash@V?$_Hmap_traits@KPAVServerSession@@V?$hash_compare@KU?$less@K@std@@@stdext@@V?$CustomAllocator@PAVServerSession@@@util@@$0A@@stdext@@@stdext@@QAEXXZ 0041a570 f i servercommon:ServerFrame.obj
 0001:000195e0       ??0ReadyState@@QAE@XZ      0041a5e0 f   servercommon:ReadyState.obj
 0001:000195f0       ??1ReadyState@@QAE@XZ      0041a5f0 f   servercommon:ReadyState.obj
 0001:00019610       ?Init@ReadyState@@QAEXE@Z  0041a610 f   servercommon:ReadyState.obj
 0001:00019650       ?SetReadyState@ReadyState@@QAEXEH@Z 0041a650 f   servercommon:ReadyState.obj
 0001:00019670       ?IsReady@ReadyState@@AAEHE@Z 0041a670 f   servercommon:ReadyState.obj
 0001:00019690       ?IsAllReady@ReadyState@@AAE?AW4READY_STATE@@XZ 0041a690 f   servercommon:ReadyState.obj
 0001:000196c0       ?Update@ReadyState@@QAE?AW4READY_STATE@@XZ 0041a6c0 f   servercommon:ReadyState.obj
 0001:00019700       ??0CSunLog@@QAE@XZ         0041a700 f   servercommon:SunLog.obj
 0001:00019720       ?SetLogLevel@CSunLog@@QAEXE@Z 0041a720 f   servercommon:SunLog.obj
 0001:00019740       ?RegisterHandler@CSunLog@@QAEXP6AHPBV1@PBDPAD@Z@Z 0041a740 f   servercommon:SunLog.obj
 0001:00019750       ?WriteMessage_IO@CSunLog@@SAHPAXPBEK@Z 0041a750 f   servercommon:SunLog.obj
 0001:000197f0       ?WriteMessage_Console@CSunLog@@SAHPBV1@PBDPAD@Z 0041a7f0 f   servercommon:SunLog.obj
 0001:00019870       ?WriteMessage_File@CSunLog@@SAHPBV1@PBDPAD@Z 0041a870 f   servercommon:SunLog.obj
 0001:00019910       ?WriteMessage_Console2@CSunLog@@SAHPBV1@PBDPAD@Z 0041a910 f   servercommon:SunLog.obj
 0001:00019920       ?WriteMessage_Console3@CSunLog@@SAHPBV1@PBDPAD@Z 0041a920 f   servercommon:SunLog.obj
 0001:00019980       ?GetCategoryNameByCode@@YA?AUCHAR_WRAPPER@@W4eLOGCATEGORY@CSunLog@@@Z 0041a980 f   servercommon:SunLog.obj
 0001:000199b0       ?MakePrefixFormat@CSunLog@@CAHW4ePREFIX@1@PADKW4eLOGCATEGORY@1@@Z 0041a9b0 f   servercommon:SunLog.obj
 0001:00019a80       ??0CSunLogInfo@CSunLog@@QAE@XZ 0041aa80 f   servercommon:SunLog.obj
 0001:00019af0       ??1CSunLogInfo@CSunLog@@QAE@XZ 0041aaf0 f   servercommon:SunLog.obj
 0001:00019b40       ?CheckHandler@CSunLog@@AAEHAAP6AHPBV1@PBDPAD@Z3@Z 0041ab40 f   servercommon:SunLog.obj
 0001:00019bb0       ?Flush@CSunLog@@QAEXW4eLOGOPTION@1@@Z 0041abb0 f   servercommon:SunLog.obj
 0001:00019c00       ?LOGGINGwithARG@CSunLog@@SAHPAV1@W4eLOGOPTION@1@W4eLOGLEVEL@1@W4eLOGCATEGORY@1@PBDPAD@Z 0041ac00 f   servercommon:SunLog.obj
 0001:00019cb0       ??1CSunLog@@QAE@XZ         0041acb0 f   servercommon:SunLog.obj
 0001:00019d40       ?Init@CSunLog@@UAEHEEPBD0H@Z 0041ad40 f   servercommon:SunLog.obj
 0001:00019f30       ?Update@CSunLog@@QAEXXZ    0041af30 f   servercommon:SunLog.obj
 0001:00019f90       ?MessageOut@@YA_NW4eSUN_LOG_LEVEL@@PBDZZ 0041af90 f   servercommon:SunLog.Interfaces.obj
 0001:0001a050       ?ConsoleOut@@YA_NW4eSUN_LOG_LEVEL@@PBDZZ 0041b050 f   servercommon:SunLog.Interfaces.obj
 0001:0001a110       ?MessageOutEx@@YA_NPAVCSunLog@@W4eLOGLEVEL@1@W4eLOGOPTION@1@W4eLOGCATEGORY@1@PBDZZ 0041b110 f   servercommon:SunLog.Interfaces.obj
 0001:0001a1d0       ?MessageSecure@@YAHKKPBD00W4eABUSE_TYPE@@W4eABUSE_SUB_TYPE@@0ZZ 0041b1d0 f   servercommon:SunLog.Interfaces.obj
 0001:0001a370       ?AssertionLogger4Pool_Server@@YAXXZ 0041b370 f   servercommon:SunLog.Interfaces.obj
 0001:0001a380       ?OnRecv@ServerSession@@MAEXPAEG@Z 0041b380 f i servercommon:ServerSession.obj
 0001:0001a380       ?OnConnect@NetworkObject@@MAEXHK@Z 0041b380 f i servercommon:ServerSession.obj
 0001:0001a390       ?OnConnect@ServerSession@@MAEXHK@Z 0041b390 f   servercommon:ServerSession.obj
 0001:0001a3c0       ?SendHeartbeatPacket@ServerSession@@MAEXXZ 0041b3c0 f   servercommon:ServerSession.obj
 0001:0001a3d0       ?OnLogString@ServerSession@@MAEXPAD@Z 0041b3d0 f   servercommon:ServerSession.obj
 0001:0001a400       ?Update@ServerSession@@UAEXXZ 0041b400 f   servercommon:ServerSession.obj
 0001:0001a440       ?Clear@ServerSession@@QAEXXZ 0041b440 f   servercommon:ServerSession.obj
 0001:0001a480       ?Init@ServerSession@@MAEXXZ 0041b480 f   servercommon:ServerSession.obj
 0001:0001a4c0       ?Release@ServerSession@@UAEXXZ 0041b4c0 f   servercommon:ServerSession.obj
 0001:0001a500       ??0ServerSession@@QAE@XZ   0041b500 f   servercommon:ServerSession.obj
 0001:0001a570       ??1ServerSession@@UAE@XZ   0041b570 f   servercommon:ServerSession.obj
 0001:0001a5b0       ?OnRedirect@ServerSession@@UAEXKQAUMSG_SERVER_TYPE@@@Z 0041b5b0 f   servercommon:ServerSession.obj
 0001:0001a600       ?OnAccept@ServerSession@@MAEXK@Z 0041b600 f   servercommon:ServerSession.obj
 0001:0001a660       ?OnConnectSuccess@ServerSession@@MAEXK@Z 0041b660 f   servercommon:ServerSession.obj
 0001:0001a6f0       ?OnDisconnect@ServerSession@@MAEXXZ 0041b6f0 f   servercommon:ServerSession.obj
 0001:0001a770       ??$_Distance2@V?$_Iterator@$00@?$list@U?$pair@$$CBKPAVServerSession@@@std@@V?$CustomAllocator@U?$pair@$$CBKPAVServerSession@@@std@@@util@@@std@@I@std@@YAXV?$_Iterator@$00@?$list@U?$pair@$$CBKPAVServerSession@@@std@@V?$CustomAllocator@U?$pair@$$CBKPAVServerSession@@@std@@@util@@@0@0AAIUbidirectional_iterator_tag@0@@Z 0041b770 f i servercommon:ServerSession.obj
 0001:0001a7e0       ?GetServerType@ServerSession@@UAE?AW4eSERVER_TYPE@@XZ 0041b7e0 f i servercommon:ServerSession.obj
 0001:0001a7f0       ??_GServerSession@@UAEPAXI@Z 0041b7f0 f i servercommon:ServerSession.obj
 0001:0001a7f0       ??_EServerSession@@UAEPAXI@Z 0041b7f0 f i servercommon:ServerSession.obj
 0001:0001a840       ?equal_range@?$_Hash@V?$_Hmap_traits@KPAVServerSession@@V?$hash_compare@KU?$less@K@std@@@stdext@@V?$CustomAllocator@PAVServerSession@@@util@@$0A@@stdext@@@stdext@@QAE?AU?$pair@V?$_Iterator@$00@?$list@U?$pair@$$CBKPAVServerSession@@@std@@V?$CustomAllocator@U?$pair@$$CBKPAVServerSession@@@std@@@util@@@std@@V123@@std@@ABK@Z 0041b840 f i servercommon:ServerSession.obj
 0001:0001a9b0       ?erase@?$_Hash@V?$_Hmap_traits@KPAVServerSession@@V?$hash_compare@KU?$less@K@std@@@stdext@@V?$CustomAllocator@PAVServerSession@@@util@@$0A@@stdext@@@stdext@@QAE?AV?$_Iterator@$00@?$list@U?$pair@$$CBKPAVServerSession@@@std@@V?$CustomAllocator@U?$pair@$$CBKPAVServerSession@@@std@@@util@@@std@@V?$_Const_iterator@$00@45@@Z 0041b9b0 f i servercommon:ServerSession.obj
 0001:0001aab0       ?erase@?$_Hash@V?$_Hmap_traits@KPAVServerSession@@V?$hash_compare@KU?$less@K@std@@@stdext@@V?$CustomAllocator@PAVServerSession@@@util@@$0A@@stdext@@@stdext@@QAE?AV?$_Iterator@$00@?$list@U?$pair@$$CBKPAVServerSession@@@std@@V?$CustomAllocator@U?$pair@$$CBKPAVServerSession@@@std@@@util@@@std@@V?$_Const_iterator@$00@45@0@Z 0041bab0 f i servercommon:ServerSession.obj
 0001:0001abb0       ?AddSession@ServerFrame@@QAEXKPAVServerSession@@@Z 0041bbb0 f i servercommon:ServerSession.obj
 0001:0001ac10       ?erase@?$_Hash@V?$_Hmap_traits@KPAVServerSession@@V?$hash_compare@KU?$less@K@std@@@stdext@@V?$CustomAllocator@PAVServerSession@@@util@@$0A@@stdext@@@stdext@@QAEIABK@Z 0041bc10 f i servercommon:ServerSession.obj
 0001:0001ac80       ?GetServerType2String@@YAPADW4eSERVER_TYPE@@@Z 0041bc80 f   servercommon:ServerGlobal.obj
 0001:0001aca0       ?GetCommandLineArg@@YAHHPAD0H@Z 0041bca0 f   servercommon:ServerGlobal.obj
 0001:0001ad70       ?DisplayDebugInfo@@YAXW4eSERVER_TYPE@@HHKKKKGGG@Z 0041bd70 f   servercommon:ServerGlobal.obj
 0001:0001aef0       ?SetApplicationDirectory@@YAXXZ 0041bef0 f   servercommon:ServerGlobal.obj
 0001:0001af90       ?ParseArguments@@YAHPAD@Z  0041bf90 f   servercommon:ServerGlobal.obj
 0001:0001b000       ?BASE_NUMBER@SERVER_VERSION_INFO@@SAKXZ 0041c000 f   servercommon:ServerBuildVersion.obj
 0001:0001b010       ?RELEASE_BUILD_NUMBER@SERVER_VERSION_INFO@@SAKXZ 0041c010 f   servercommon:ServerBuildVersion.obj
 0001:0001b020       ?IsCategoryPacked@CategoryConverter@nsPacket@@SAEE@Z 0041c020 f i servercommon:PacketControlS2S.obj
 0001:0001b150       ?Init@Environment@Server@nsPacket@@SAEXZ 0041c150 f   servercommon:PacketControlS2S.obj
 0001:0001b170       ?MakeStream@?$SubControl@$0BL@$00@PacketControl@Server@nsPacket@@SA?AUPacketInfo@4@QAUMSG_BASE@@G@Z 0041c170 f   servercommon:PacketControlS2S.obj
 0001:0001b2b0       ?MakeStream@CSAuthFlow@nsPacket@@SAGABU_WLAUTH_INFO@@PAUStream@MSG_CF_AUTH_TOKEN_PASS_SYN@@@Z 0041c2b0 f   programcommon_s:PacketControl_AuthFlow.obj
 0001:0001b2f0       ?PreVerifier@CSAuthFlow@nsPacket@@SAEPBUMSG_CF_AUTH_TOKEN_PASS_SYN@@G@Z 0041c2f0 f   programcommon_s:PacketControl_AuthFlow.obj
 0001:0001b300       ?PostVerifier@CSAuthFlow@nsPacket@@UAEEPBUStream@MSG_CF_AUTH_TOKEN_PASS_SYN@@PAUToken@12@1@Z 0041c300 f   programcommon_s:PacketControl_AuthFlow.obj
 0001:0001b350       ?MakeReAuthStream@CSAuthFlow@nsPacket@@SAGPBDABUReAuthTokenStream@2@PAU32@@Z 0041c350 f   programcommon_s:PacketControl_AuthFlow.obj
 0001:0001b3c0       ?MakeStream@CSAuthFlow@nsPacket@@SAGPBDABUReAuthTokenStream@2@PAUMSG_CG_CONNECTION_SERVER_SELECT_REQUEST_ACK@@@Z 0041c3c0 f   programcommon_s:PacketControl_AuthFlow.obj
 0001:0001b3e0       ?MakeStream@CSAuthFlow@nsPacket@@SAGPBDABUReAuthTokenStream@2@PAUMSG_AU_AUTH_SERVER_SELECT_ACK@@@Z 0041c3e0 f   programcommon_s:PacketControl_AuthFlow.obj
 0001:0001b400       ?PreVerifier@CSAuthFlow@nsPacket@@SAEPBUMSG_CF_AUTH_REAUTH_PASS_SYN@@G@Z 0041c400 f   programcommon_s:PacketControl_AuthFlow.obj
 0001:0001b410       ?PostVerifier@CSAuthFlow@nsPacket@@UAEEPBUMSG_CF_AUTH_REAUTH_PASS_SYN@@PAUToken@12@1@Z 0041c410 f   programcommon_s:PacketControl_AuthFlow.obj
 0001:0001b460       ?MakeStream@CSAuthFlow@nsPacket@@SAGPBDABUReAuthTokenStream@2@PAUMSG_CF_AUTH_REAUTH_PASS_SYN@@@Z 0041c460 f   programcommon_s:PacketControl_AuthFlow.obj
 0001:0001b480       ?Init@Environment@nsPacket@@SAEXZ 0041c480 f   programcommon_s:PacketControl.obj
 0001:0001b4b0       ?MakeStream@PacketControl@nsPacket@@CA?AUPacketInfo@2@EQAUMSG_BASE@@G@Z 0041c4b0 f   programcommon_s:PacketControl.obj
 0001:0001b560       ?Pack@PacketControl@nsPacket@@SA?AUPacketInfo@2@QAUMSG_BASE@@G@Z 0041c560 f   programcommon_s:PacketControl.obj
 0001:0001b580       ?UnPack@PacketControl@nsPacket@@SA?AUPacketInfo@2@QAUMSG_BASE@@G@Z 0041c580 f   programcommon_s:PacketControl.obj
 0001:0001b5a0       ?SetPackInfo@CategoryConverter@nsPacket@@SAEQAUMSG_BASE@@@Z 0041c5a0 f i programcommon_s:PacketControl_Compress.obj
 0001:0001b840       ?MakeStream@CompressUtil@nsPacket@@SA?AUPacketInfo@2@EPAEQAUMSG_BASE@@G@Z 0041c840 f   programcommon_s:PacketControl_Compress.obj
 0001:0001b910       ?memfree_handler@CompressUtil@nsPacket@@CAXPAXH@Z 0041c910 f   programcommon_s:PacketControl_Compress.obj
 0001:0001b920       ?memalloc_handler@CompressUtil@nsPacket@@CAPAXIH@Z 0041c920 f   programcommon_s:PacketControl_Compress.obj
 0001:0001ba70       ??1IVMemoryPool@util@@UAE@XZ 0041ca70 f   utility_s:MemoryPoolFactory.obj
 0001:0001ba80       ??0MemoryPoolSizeBased@internal@util@@QAE@IP6AXPAX@Z1@Z 0041ca80 f   utility_s:MemoryPoolFactory.obj
 0001:0001bad0       ?AddBlock@MemoryPoolSizeBased@internal@util@@AAEXI@Z 0041cad0 f   utility_s:MemoryPoolFactory.obj
 0001:0001bb70       ?Initialize@MemoryPoolSizeBased@internal@util@@QAEXIIPBD@Z 0041cb70 f   utility_s:MemoryPoolFactory.obj
 0001:0001bbb0       ?Allocate@MemoryPoolSizeBased@internal@util@@QAEPAXXZ 0041cbb0 f   utility_s:MemoryPoolFactory.obj
 0001:0001bc00       ?Deallocate@MemoryPoolSizeBased@internal@util@@QAEXPAX@Z 0041cc00 f   utility_s:MemoryPoolFactory.obj
 0001:0001bcb0       ?FreeAllElements@MemoryPoolSizeBased@internal@util@@QAEXXZ 0041ccb0 f   utility_s:MemoryPoolFactory.obj
 0001:0001be20       ??1MemoryPoolSizeBased@internal@util@@QAE@XZ 0041ce20 f   utility_s:MemoryPoolFactory.obj
 0001:0001be50       ??0SolarSimpleConsole@@QAE@XZ 0041ce50 f   utility_s:SolarSimpleConsole.obj
 0001:0001be70       ?DefaultErrorHandler@@YAXKPAD@Z 0041ce70 f   extreme:eXtreme.obj
 0001:0001be70       ??1SolarSimpleConsole@@QAE@XZ 0041ce70 f   utility_s:SolarSimpleConsole.obj
 0001:0001be80       ?Print@SolarSimpleConsole@@QAAXPADZZ 0041ce80 f   utility_s:SolarSimpleConsole.obj
 0001:0001bf00       ?Release@SolarSimpleConsole@@QAEHXZ 0041cf00 f   utility_s:SolarSimpleConsole.obj
 0001:0001bf30       ?_redirectToConsole@SolarSimpleConsole@@AAEXXZ 0041cf30 f   utility_s:SolarSimpleConsole.obj
 0001:0001c110       ?Init@SolarSimpleConsole@@QAEHPAUtagCONSOLE_DESC@@@Z 0041d110 f   utility_s:SolarSimpleConsole.obj
 0001:0001c250       ?CheckNodeHeader@SharedMemoryPoolSizeBased@memory@util@@SAPAUMemoryForUse@123@PAXQAW4eCheckMemoryNodeResult@23@@Z 0041d250 f   utility_s:SharedMemoryPool.obj
 0001:0001c330       ?AddBlock@SharedMemoryPoolSizeBased@memory@util@@AAEXQAUSharedMemoryTable@23@@Z 0041d330 f   utility_s:SharedMemoryPool.obj
 0001:0001c410       ??0SharedMemoryTable@memory@util@@QAE@XZ 0041d410 f   utility_s:SharedMemoryPool.obj
 0001:0001cbe0       ?ReportRuntimeFailedObject@SharedMemoryTable@memory@util@@SAXW4eCheckMemoryNodeResult@23@PAXPAUMemoryForUse@SharedMemoryPoolSizeBased@23@@Z 0041dbe0 f   utility_s:SharedMemoryPool.obj
 0001:0001cd90       ??0SharedMemoryPool@@AAE@XZ 0041dd90 f   utility_s:SharedMemoryPool.obj
 0001:0001cdd0       ?Allocate@SharedMemoryPoolSizeBased@memory@util@@QAEPAXQAUSharedMemoryTable@23@IPBDH@Z 0041ddd0 f   utility_s:SharedMemoryPool.obj
 0001:0001ce80       ?Deallocate@SharedMemoryPoolSizeBased@memory@util@@QAEXQAUSharedMemoryTable@23@PAUMemoryForUse@123@@Z 0041de80 f   utility_s:SharedMemoryPool.obj
 0001:0001cf70       ?FreeAllElements@SharedMemoryPoolSizeBased@memory@util@@QAEXQAUSharedMemoryTable@23@@Z 0041df70 f   utility_s:SharedMemoryPool.obj
 0001:0001d040       ?Allocate@SharedMemoryTable@memory@util@@QAEPAXIPBDH@Z 0041e040 f   utility_s:SharedMemoryPool.obj
 0001:0001d190       ?Deallocate@SharedMemoryTable@memory@util@@QAEXPAX@Z 0041e190 f   utility_s:SharedMemoryPool.obj
 0001:0001d260       ??1SharedMemoryTable@memory@util@@QAE@XZ 0041e260 f   utility_s:SharedMemoryPool.obj
 0001:0001d460       ?CreateInstance@SharedMemoryPool@@SA_NXZ 0041e460 f   utility_s:SharedMemoryPool.obj
 0001:0001d480       ?MemoryAllocate@SharedMemoryPool@@SAPAXIPBDH@Z 0041e480 f   utility_s:SharedMemoryPool.obj
 0001:0001d4c0       ?CheckValidAllocatedMemory@SharedMemoryPool@@SA_NPAX@Z 0041e4c0 f   utility_s:SharedMemoryPool.obj
 0001:0001d510       ?MemoryDeAllocate@SharedMemoryPool@@SAXPAX@Z 0041e510 f   utility_s:SharedMemoryPool.obj
 0001:0001d580       ??0RandomNumberGenerator@@QAE@XZ 0041e580 f   utility_s:RandomNumberGenerator.obj
 0001:0001d640       ?_Update@RandomNumberGenerator@@CAXXZ 0041e640 f   utility_s:RandomNumberGenerator.obj
 0001:0001d820       ?GetRandomNumber@RandomNumberGenerator@@SAKXZ 0041e820 f   utility_s:RandomNumberGenerator.obj
 0001:0001d850       ?CreateInstance@TimeSync@util@@CAPAV12@XZ 0041e850 f   utility_s:SolarDateTime.obj
 0001:0001d8d0       ?Command_ClientRecv@TimeSync@util@@SA_NABUTimeSyncNode@2@@Z 0041e8d0 f   utility_s:SolarDateTime.obj
 0001:0001da30       ?Command_Standalone@TimeSync@util@@SAXXZ 0041ea30 f   utility_s:SolarDateTime.obj
 0001:0001dac0       ?CalculateTime@TimeSync@util@@AAEXXZ 0041eac0 f   utility_s:SolarDateTime.obj
 0001:0001db60       ?GetLocalTime@TimeSync@util@@SAXPAU_SYSTEMTIME@@@Z 0041eb60 f   utility_s:SolarDateTime.obj
 0001:0001dc00       ?UpdateTimeInfoPerFrame@TimeSync@util@@SAXPAUTimeInfoPerFrame@2@@Z 0041ec00 f   utility_s:SolarDateTime.obj
 0001:0001dce0       ?RegisterLoggingHandler@SafeMemoryPoolFactoryShared@util@@SAXP6AXPBDPAXI@Z@Z 0041ece0 f   utility_s:SafeMemoryPoolFactory.obj
 0001:0001dcf0       ?SetTimer@ITimerBase@util@@QAE_NK_N0@Z 0041ecf0 f   utility_s:ITimeout.obj
 0001:0001dd80       ?IsExpired@ITimerBase@util@@QBE_NXZ 0041ed80 f   utility_s:ITimeout.obj
 0001:0001ddf0       ?PacketDecode@Crypt@@YA_NPAEH0K@Z 0041edf0 f   cryptlib:PacketCrypt.obj
 0001:0001de70       ?TeaDecode@Crypt@@YAXPAK0@Z 0041ee70 f   cryptlib:Tea.obj
 0001:0001df01       ?_Xlen@_String_base@std@@SAXXZ 0041ef01 f   libcpmt:string.obj
 0001:0001df39       ?_Xran@_String_base@std@@SAXXZ 0041ef39 f   libcpmt:string.obj
 0001:0001df71       ?_Callfns@ios_base@std@@AAEXW4event@12@@Z 0041ef71 f i libcpmt:ios.obj
 0001:0001df98       ?_Tidy@ios_base@std@@AAAXXZ 0041ef98 f i libcpmt:ios.obj
 0001:0001dfe3       ?_Addstd@ios_base@std@@SAXPAV12@@Z 0041efe3 f   libcpmt:ios.obj
 0001:0001e035       ?_Ios_base_dtor@ios_base@std@@CAXPAV12@@Z 0041f035 f   libcpmt:ios.obj
 0001:0001e071       ?_Fiopen@std@@YAPAU_iobuf@@PB_WHH@Z 0041f071 f   libcpmt:fiopen.obj
 0001:0001e129       ?_Fiopen@std@@YAPAU_iobuf@@PBDHH@Z 0041f129 f   libcpmt:fiopen.obj
 0001:0001e186       ??0_Init_locks@std@@QAE@XZ 0041f186 f   libcpmt:xlock.obj
 0001:0001e1b7       ??1_Init_locks@std@@QAE@XZ 0041f1b7 f   libcpmt:xlock.obj
 0001:0001e1e0       ??0_Lockit@std@@QAE@H@Z    0041f1e0 f   libcpmt:xlock.obj
 0001:0001e208       ??1_Lockit@std@@QAE@XZ     0041f208 f   libcpmt:xlock.obj
 0001:0001e21f       ??0_Mutex@std@@QAE@XZ      0041f21f f   libcpmt:xmutex.obj
 0001:0001e239       ??1_Mutex@std@@QAE@XZ      0041f239 f   libcpmt:xmutex.obj
 0001:0001e250       ?_Lock@_Mutex@std@@QAEXXZ  0041f250 f   libcpmt:xmutex.obj
 0001:0001e259       ?_Unlock@_Mutex@std@@QAEXXZ 0041f259 f   libcpmt:xmutex.obj
 0001:0001e262       ?_AtModuleExit@@YAXP6AXXZ@Z 0041f262 f   libcpmt:locale0.obj
 0001:0001e27c       ??1_Fac_node@std@@QAE@XZ   0041f27c f i libcpmt:locale0.obj
 0001:0001e291       ??_G_Fac_node@std@@QAEPAXI@Z 0041f291 f i libcpmt:locale0.obj
 0001:0001e2b2       __Deletegloballocale       0041f2b2 f   libcpmt:locale0.obj
 0001:0001e2ff       ?_Getgloballocale@locale@std@@CAPAV_Locimp@12@XZ 0041f2ff f   libcpmt:locale0.obj
 0001:0001e305       ?_Setgloballocale@locale@std@@CAXPAX@Z 0041f305 f   libcpmt:locale0.obj
 0001:0001e32f       ?_Locimp_dtor@_Locimp@locale@std@@CAXPAV123@@Z 0041f32f f   libcpmt:locale0.obj
 0001:0001e38f       __Fac_tidy                 0041f38f f   libcpmt:locale0.obj
 0001:0001e3c4       ?facet_Register@facet@locale@std@@CAXPAV123@@Z 0041f3c4 f   libcpmt:locale0.obj
 0001:0001e402       ?_Locinfo_dtor@_Locinfo@std@@SAXPAV12@@Z 0041f402 f   libcpmt:locale0.obj
 0001:0001e42a       ??0_Locimp@locale@std@@AAE@_N@Z 0041f42a f i libcpmt:locale0.obj
 0001:0001e473       ??1_Locimp@locale@std@@MAE@XZ 0041f473 f i libcpmt:locale0.obj
 0001:0001e4b0       ??_E_Locimp@locale@std@@MAEPAXI@Z 0041f4b0 f i libcpmt:locale0.obj
 0001:0001e4b0       ??_G_Locimp@locale@std@@MAEPAXI@Z 0041f4b0 f i libcpmt:locale0.obj
 0001:0001e4d1       ?_Init@locale@std@@CAPAV_Locimp@12@XZ 0041f4d1 f   libcpmt:locale0.obj
 0001:0001e56b       ?_Locinfo_ctor@_Locinfo@std@@SAXPAV12@ABV?$basic_string@DU?$char_traits@D@std@@V?$allocator@D@2@@2@@Z 0041f56b f   libcpmt:locale0.obj
 0001:0001e5c7       __Tolower                  0041f5c7 f   libcpmt:_tolower.obj
 0001:0001e6d4       __Getctype                 0041f6d4 f   libcpmt:_tolower.obj
 0001:0001e734       __Toupper                  0041f734 f   libcpmt:_toupper.obj
 0001:0001e846       ??_U@YAPAXI@Z              0041f846 f   libcpmt:newaop.obj
 0001:0001e851       __Mtxinit                  0041f851 f   libcpmt:xmtx.obj
 0001:0001e861       __Mtxdst                   0041f861 f   libcpmt:xmtx.obj
 0001:0001e871       __Mtxlock                  0041f871 f   libcpmt:xmtx.obj
 0001:0001e881       __Mtxunlock                0041f881 f   libcpmt:xmtx.obj
 0001:0001e891       ?_Atexit@@YAXP6AXXZ@Z      0041f891 f   libcpmt:iosptrs.obj
 0001:0001e8b7       ??1_Init_atexit@@QAE@XZ    0041f8b7 f i libcpmt:iosptrs.obj
 0001:0001e8e0       ??_Gsystem_error_category@?A0xa00a0bbd@system@boost@@UAEPAXI@Z 0041f8e0 f i libboost_system-vc90-mt-s-1_60:error_code.obj
 0001:0001e8e0       ??_Ggeneric_error_category@?A0xa00a0bbd@system@boost@@UAEPAXI@Z 0041f8e0 f i libboost_system-vc90-mt-s-1_60:error_code.obj
 0001:0001e8e0       ??_Esystem_error_category@?A0xa00a0bbd@system@boost@@UAEPAXI@Z 0041f8e0 f i libboost_system-vc90-mt-s-1_60:error_code.obj
 0001:0001e8e0       ??_Gerror_category@system@boost@@UAEPAXI@Z 0041f8e0 f i libboost_system-vc90-mt-s-1_60:error_code.obj
 0001:0001e8e0       ??_Eerror_category@system@boost@@UAEPAXI@Z 0041f8e0 f i libboost_system-vc90-mt-s-1_60:error_code.obj
 0001:0001e8e0       ??_Egeneric_error_category@?A0xa00a0bbd@system@boost@@UAEPAXI@Z 0041f8e0 f i libboost_system-vc90-mt-s-1_60:error_code.obj
 0001:0001e900       ?default_error_condition@error_category@system@boost@@UBE?AVerror_condition@23@H@Z 0041f900 f i libboost_system-vc90-mt-s-1_60:error_code.obj
 0001:0001e910       ?equivalent@error_category@system@boost@@UBE_NHABVerror_condition@23@@Z 0041f910 f i libboost_system-vc90-mt-s-1_60:error_code.obj
 0001:0001e950       ?equivalent@error_category@system@boost@@UBE_NABVerror_code@23@H@Z 0041f950 f i libboost_system-vc90-mt-s-1_60:error_code.obj
 0001:0001e970       ??1local_free_on_destruction@detail@system@boost@@QAE@XZ 0041f970 f i libboost_system-vc90-mt-s-1_60:error_code.obj
 0001:0001e980       ?name@generic_error_category@?A0xa00a0bbd@system@boost@@UBEPBDXZ 0041f980 f   libboost_system-vc90-mt-s-1_60:error_code.obj
 0001:0001e990       ?name@system_error_category@?A0xa00a0bbd@system@boost@@UBEPBDXZ 0041f990 f   libboost_system-vc90-mt-s-1_60:error_code.obj
 0001:0001e9a0       ?system_category@system@boost@@YAABVerror_category@12@XZ 0041f9a0 f   libboost_system-vc90-mt-s-1_60:error_code.obj
 0001:0001ea10       ?generic_category@system@boost@@YAABVerror_category@12@XZ 0041fa10 f   libboost_system-vc90-mt-s-1_60:error_code.obj
 0001:0001ea80       ?default_error_condition@system_error_category@?A0xa00a0bbd@system@boost@@UBE?AVerror_condition@34@H@Z 0041fa80 f   libboost_system-vc90-mt-s-1_60:error_code.obj
 0001:0001f170       ?message@generic_error_category@?A0xa00a0bbd@system@boost@@UBE?AV?$basic_string@DU?$char_traits@D@std@@V?$allocator@D@2@@std@@H@Z 00420170 f   libboost_system-vc90-mt-s-1_60:error_code.obj
 0001:0001f2a0       ?message@system_error_category@?A0xa00a0bbd@system@boost@@UBE?AV?$basic_string@DU?$char_traits@D@std@@V?$allocator@D@2@@std@@H@Z 004202a0 f   libboost_system-vc90-mt-s-1_60:error_code.obj
 0001:0001f480       _zcalloc                   00420480 f   zlib:zutil.obj
 0001:0001f4c0       _zcfree                    004204c0 f   zlib:zutil.obj
 0001:0001f4f0       ___zlib_register_malloc    004204f0 f   zlib:zutil.obj
 0001:0001f500       ___zlib_register_free      00420500 f   zlib:zutil.obj
 0001:0001f510       _compress2                 00420510 f   zlib:compress.obj
 0001:0001f650       _deflate                   00420650 f   zlib:deflate.obj
 0001:0001f8c0       _deflateEnd                004208c0 f   zlib:deflate.obj
 0001:00020600       _deflateReset              00421600 f   zlib:deflate.obj
 0001:00020670       _deflateInit2_             00421670 f   zlib:deflate.obj
 0001:00020870       _deflateInit_              00421870 f   zlib:deflate.obj
 0001:000208a0       _adler32                   004218a0 f   zlib:adler32.obj
 0001:00021bd0       __tr_init                  00422bd0 f   zlib:trees.obj
 0001:00021fa0       __tr_stored_block          00422fa0 f   zlib:trees.obj
 0001:00022050       __tr_align                 00423050 f   zlib:trees.obj
 0001:00022240       __tr_flush_block           00423240 f   zlib:trees.obj
 0001:00022430       ??0SMTPClient@@QAE@XZ      00423430 f   CrashHandler:SMTPClient.obj
 0001:000224d0       ??1SMTPClient@@QAE@XZ      004234d0 f   CrashHandler:SMTPClient.obj
 0001:000224f0       ?CheckResponse@SMTPClient@@AAEHE@Z 004234f0 f   CrashHandler:SMTPClient.obj
 0001:000225b0       ?MailLogin@SMTPClient@@AAEHPBD0@Z 004235b0 f   CrashHandler:SMTPClient.obj
 0001:00022720       ?MailFrom@SMTPClient@@QAEHPBD0@Z 00423720 f   CrashHandler:SMTPClient.obj
 0001:000227d0       ?MailTo@SMTPClient@@QAEHPBD@Z 004237d0 f   CrashHandler:SMTPClient.obj
 0001:000228a0       ?MailContents@SMTPClient@@QAEHPBD0@Z 004238a0 f   CrashHandler:SMTPClient.obj
 0001:00022c00       ?MailAttachFile@SMTPClient@@QAEHPAD@Z 00423c00 f   CrashHandler:SMTPClient.obj
 0001:00022f30       ?MailSubmit@SMTPClient@@QAEHXZ 00423f30 f   CrashHandler:SMTPClient.obj
 0001:00023030       ?Connect@SMTPClient@@QAEHPBD00G@Z 00424030 f   CrashHandler:SMTPClient.obj
 0001:00023190       ?_exception_code@CrashHandler@@CAXPADK@Z 00424190 f   CrashHandler:CrashHandler.obj
 0001:00023430       ?HandleException@CrashHandler@@SGJPAU_EXCEPTION_POINTERS@@@Z 00424430 f   CrashHandler:CrashHandler.obj
 0001:00023b60       ?Install@CrashHandler@@SAX_NP6APBDXZP6AXPBD2@Z@Z 00424b60 f   CrashHandler:CrashHandler.obj
 0001:00023b90       ?CreateMimeBoundary@Mime@@QAEPADXZ 00424b90 f   CrashHandler:Mime.obj
 0001:00023bc0       ?GetContentType@Mime@@QAEPADPBD@Z 00424bc0 f   CrashHandler:Mime.obj
 0001:000240d0       ??0Mime@@QAE@XZ            004250d0 f   CrashHandler:Mime.obj
 0001:000240f0       ??0ClientSocket@@QAE@XZ    004250f0 f   CrashHandler:ClientSocket.obj
 0001:00024140       ?Connect@ClientSocket@@QAE_NPBDG@Z 00425140 f   CrashHandler:ClientSocket.obj
 0001:00024210       ?Close@ClientSocket@@QAEXXZ 00425210 f   CrashHandler:ClientSocket.obj
 0001:00024230       ?Send@ClientSocket@@QAEHPAXH@Z 00425230 f   CrashHandler:ClientSocket.obj
 0001:00024250       ?Recv@ClientSocket@@QAEHPAXH@Z 00425250 f   CrashHandler:ClientSocket.obj
 0001:00024270       ?Base64Encode@@YAXPBDHPADH@Z 00425270 f   CrashHandler:Base64.obj
 0001:00024550       ?GenerateMiniDump@MiniDump@@SA_NPAU_EXCEPTION_POINTERS@@PBD@Z 00425550 f   CrashHandler:MiniDump.obj
 0001:00024680       ??0NetworkObject@@QAE@XZ   00425680 f   Network:NetworkObject.obj
 0001:000246a0       ??1NetworkObject@@UAE@XZ   004256a0 f   Network:NetworkObject.obj
 0001:000246b0       ?Disconnect@NetworkObject@@QAEXH@Z 004256b0 f   Network:NetworkObject.obj
 0001:000246d0       ?OnDisconnect@NetworkObject@@MAEXXZ 004256d0 f   Network:NetworkObject.obj
 0001:000246e0       ?Send@NetworkObject@@QAEHPAEG@Z 004256e0 f   Network:NetworkObject.obj
 0001:00024710       ?SendEx@NetworkObject@@QAEHKPAPAEPAG@Z 00425710 f   Network:NetworkObject.obj
 0001:00024750       ?Redirect@NetworkObject@@QAEXPAV1@@Z 00425750 f   Network:NetworkObject.obj
 0001:00024760       ?GetIP@NetworkObject@@QAEPADXZ 00425760 f   Network:NetworkObject.obj
 0001:00024780       ?GetIPAddress@NetworkObject@@QAEKXZ 00425780 f   Network:NetworkObject.obj
 0001:000247a0       ?GetPort@NetworkObject@@QAEGXZ 004257a0 f   Network:NetworkObject.obj
 0001:000247c0       ?GetSendBufferInfo@NetworkObject@@QAEXAAUBUFFER_INFO@1@@Z 004257c0 f   Network:NetworkObject.obj
 0001:000247f0       ?GetRecvBufferInfo@NetworkObject@@QAEXAAUBUFFER_INFO@1@@Z 004257f0 f   Network:NetworkObject.obj
 0001:00024820       ?SetSockOpt@NetworkObject@@QAEHHHPBDH@Z 00425820 f   Network:NetworkObject.obj
 0001:00024840       ?SetSession@NetworkObject@@AAEXPAVSession@@@Z 00425840 f   Network:NetworkObject.obj
 0001:00024860       ?UseSendPendingBuffer@NetworkObject@@QAE_NK@Z 00425860 f   Network:NetworkObject.obj
 0001:00024880       ?UseRecvDualBuffer@NetworkObject@@QAE_NK@Z 00425880 f   Network:NetworkObject.obj
 0001:000248a0       ?OnLogString@NetworkObject@@EAEXPAD@Z 004258a0 f i Network:NetworkObject.obj
 0001:000248a0       ?OnAccept@NetworkObject@@MAEXK@Z 004258a0 f i servercommon:ServerSession.obj
 0001:000248b0       ??_GNetworkObject@@UAEPAXI@Z 004258b0 f i Network:NetworkObject.obj
 0001:000248b0       ??_ENetworkObject@@UAEPAXI@Z 004258b0 f i Network:NetworkObject.obj
 0001:000248d0       ?InitWinsock@IOCPServer@@AAEHXZ 004258d0 f   Network:IOCPServer.obj
 0001:00024940       ?send_thread@@YGIPAX@Z     00425940 f   Network:IOCPServer.obj
 0001:000249e0       ?Shutdown@IOCPServer@@QAEXXZ 004259e0 f   Network:IOCPServer.obj
 0001:00024ad0       ?Update@IOCPServer@@QAEXXZ 00425ad0 f   Network:IOCPServer.obj
 0001:00024b40       ?GetIoHandler@IOCPServer@@AAEPAVIoHandler@@K@Z 00425b40 f   Network:IOCPServer.obj
 0001:00024bb0       ?StartListen@IOCPServer@@QAEHKPADG@Z 00425bb0 f   Network:IOCPServer.obj
 0001:00024c30       ?Connect@IOCPServer@@QAEKKPAVNetworkObject@@PADG@Z 00425c30 f   Network:IOCPServer.obj
 0001:00024cd0       ?IsListening@IOCPServer@@QAEHK@Z 00425cd0 f   Network:IOCPServer.obj
 0001:00024d50       ?SuspendListenThread@IOCPServer@@QAEXK@Z 00425d50 f   Network:IOCPServer.obj
 0001:00024dc0       ?ResumeListenThread@IOCPServer@@QAEXK@Z 00425dc0 f   Network:IOCPServer.obj
 0001:00024e30       ?GetNumberOfConnections@IOCPServer@@QAEKK@Z 00425e30 f   Network:IOCPServer.obj
 0001:00024eb0       ?GetMaxBuffer@IOCPServer@@AAEKKKHH@Z 00425eb0 f   Network:IOCPServer.obj
 0001:00024f20       ?Display@IOCPServer@@QAEXKK@Z 00425f20 f   Network:IOCPServer.obj
 0001:00025030       ?CreateIoHandler@IOCPServer@@AAEXPAUtagIOHANDLER_DESC@@@Z 00426030 f   Network:IOCPServer.obj
 0001:000250d0       ?Init@IOCPServer@@QAEHPAUtagIOHANDLER_DESC@@K@Z 004260d0 f   Network:IOCPServer.obj
 0001:00025130       ??0IOCPServer@@QAE@XZ      00426130 f   Network:IOCPServer.obj
 0001:000251c0       ??1IOCPServer@@UAE@XZ      004261c0 f   Network:IOCPServer.obj
 0001:00025210       ?_Min@?$_Tree@V?$_Tmap_traits@KPAVIoHandler@@U?$less@K@std@@V?$RedirectedAllocator@PAVIoHandler@@@module@@$0A@@std@@@std@@KAPAU_Node@?$_Tree_nod@V?$_Tmap_traits@KPAVIoHandler@@U?$less@K@std@@V?$RedirectedAllocator@PAVIoHandler@@@module@@$0A@@std@@@2@PAU342@@Z 00426210 f i Network:IOCPServer.obj
 0001:00025230       ?_Max@?$_Tree@V?$_Tmap_traits@KPAVIoHandler@@U?$less@K@std@@V?$RedirectedAllocator@PAVIoHandler@@@module@@$0A@@std@@@std@@KAPAU_Node@?$_Tree_nod@V?$_Tmap_traits@KPAVIoHandler@@U?$less@K@std@@V?$RedirectedAllocator@PAVIoHandler@@@module@@$0A@@std@@@2@PAU342@@Z 00426230 f i Network:IOCPServer.obj
 0001:00025250       ??E?$_Const_iterator@$00@?$list@PAVSession@@V?$RedirectedAllocator@PAVSession@@@module@@@std@@QAEAAV012@XZ 00426250 f i Network:IOCPServer.obj
 0001:00025290       ??9?$_Const_iterator@$00@?$list@PAVSession@@V?$RedirectedAllocator@PAVSession@@@module@@@std@@QBE_NABV012@@Z 00426290 f i Network:IOCPServer.obj
 0001:000252c0       ?_Erase@?$_Tree@V?$_Tmap_traits@KPAVIoHandler@@U?$less@K@std@@V?$RedirectedAllocator@PAVIoHandler@@@module@@$0A@@std@@@std@@IAEXPAU_Node@?$_Tree_nod@V?$_Tmap_traits@KPAVIoHandler@@U?$less@K@std@@V?$RedirectedAllocator@PAVIoHandler@@@module@@$0A@@std@@@2@@Z 004262c0 f i Network:IOCPServer.obj
 0001:00025300       ?_Inc@const_iterator@?$_Tree@V?$_Tmap_traits@KPAVIoHandler@@U?$less@K@std@@V?$RedirectedAllocator@PAVIoHandler@@@module@@$0A@@std@@@std@@QAEXXZ 00426300 f i Network:IOCPServer.obj
 0001:00025370       ?_Lrotate@?$_Tree@V?$_Tmap_traits@KPAVIoHandler@@U?$less@K@std@@V?$RedirectedAllocator@PAVIoHandler@@@module@@$0A@@std@@@std@@IAEXPAU_Node@?$_Tree_nod@V?$_Tmap_traits@KPAVIoHandler@@U?$less@K@std@@V?$RedirectedAllocator@PAVIoHandler@@@module@@$0A@@std@@@2@@Z 00426370 f i Network:IOCPServer.obj
 0001:000253c0       ?_Rrotate@?$_Tree@V?$_Tmap_traits@KPAVIoHandler@@U?$less@K@std@@V?$RedirectedAllocator@PAVIoHandler@@@module@@$0A@@std@@@std@@IAEXPAU_Node@?$_Tree_nod@V?$_Tmap_traits@KPAVIoHandler@@U?$less@K@std@@V?$RedirectedAllocator@PAVIoHandler@@@module@@$0A@@std@@@2@@Z 004263c0 f i Network:IOCPServer.obj
 0001:00025420       ?_Buynode@?$_Tree@V?$_Tmap_traits@KPAVIoHandler@@U?$less@K@std@@V?$RedirectedAllocator@PAVIoHandler@@@module@@$0A@@std@@@std@@IAEPAU_Node@?$_Tree_nod@V?$_Tmap_traits@KPAVIoHandler@@U?$less@K@std@@V?$RedirectedAllocator@PAVIoHandler@@@module@@$0A@@std@@@2@PAU342@00ABU?$pair@$$CBKPAVIoHandler@@@2@D@Z 00426420 f i Network:IOCPServer.obj
 0001:00025460       ?_Buynode@?$_Tree@V?$_Tmap_traits@KPAVIoHandler@@U?$less@K@std@@V?$RedirectedAllocator@PAVIoHandler@@@module@@$0A@@std@@@std@@IAEPAU_Node@?$_Tree_nod@V?$_Tmap_traits@KPAVIoHandler@@U?$less@K@std@@V?$RedirectedAllocator@PAVIoHandler@@@module@@$0A@@std@@@2@XZ 00426460 f i Network:IOCPServer.obj
 0001:000254a0       ?_Dec@const_iterator@?$_Tree@V?$_Tmap_traits@KPAVIoHandler@@U?$less@K@std@@V?$RedirectedAllocator@PAVIoHandler@@@module@@$0A@@std@@@std@@QAEXXZ 004264a0 f i Network:IOCPServer.obj
 0001:00025530       ?find@?$_Tree@V?$_Tmap_traits@KPAVIoHandler@@U?$less@K@std@@V?$RedirectedAllocator@PAVIoHandler@@@module@@$0A@@std@@@std@@QAE?AViterator@12@ABK@Z 00426530 f i Network:IOCPServer.obj
 0001:00025530       ?find@?$_Tree@V?$_Tmap_traits@KPAVIoHandler@@U?$less@K@std@@V?$RedirectedAllocator@PAVIoHandler@@@module@@$0A@@std@@@std@@QBE?AVconst_iterator@12@ABK@Z 00426530 f i Network:IOCPServer.obj
 0001:000255c0       ??0?$_Tree@V?$_Tmap_traits@KPAVIoHandler@@U?$less@K@std@@V?$RedirectedAllocator@PAVIoHandler@@@module@@$0A@@std@@@std@@QAE@ABU?$less@K@1@ABV?$RedirectedAllocator@U?$pair@$$CBKPAVIoHandler@@@std@@@module@@@Z 004265c0 f i Network:IOCPServer.obj
 0001:00025650       ?_Insert@?$_Tree@V?$_Tmap_traits@KPAVIoHandler@@U?$less@K@std@@V?$RedirectedAllocator@PAVIoHandler@@@module@@$0A@@std@@@std@@IAE?AViterator@12@_NPAU_Node@?$_Tree_nod@V?$_Tmap_traits@KPAVIoHandler@@U?$less@K@std@@V?$RedirectedAllocator@PAVIoHandler@@@module@@$0A@@std@@@2@ABU?$pair@$$CBKPAVIoHandler@@@2@@Z 00426650 f i Network:IOCPServer.obj
 0001:00025850       ?erase@?$_Tree@V?$_Tmap_traits@KPAVIoHandler@@U?$less@K@std@@V?$RedirectedAllocator@PAVIoHandler@@@module@@$0A@@std@@@std@@QAE?AViterator@12@Vconst_iterator@12@@Z 00426850 f i Network:IOCPServer.obj
 0001:00025b20       ?insert@?$_Tree@V?$_Tmap_traits@KPAVIoHandler@@U?$less@K@std@@V?$RedirectedAllocator@PAVIoHandler@@@module@@$0A@@std@@@std@@QAE?AU?$pair@Viterator@?$_Tree@V?$_Tmap_traits@KPAVIoHandler@@U?$less@K@std@@V?$RedirectedAllocator@PAVIoHandler@@@module@@$0A@@std@@@std@@_N@2@ABU?$pair@$$CBKPAVIoHandler@@@2@@Z 00426b20 f i Network:IOCPServer.obj
 0001:00025c10       ?erase@?$_Tree@V?$_Tmap_traits@KPAVIoHandler@@U?$less@K@std@@V?$RedirectedAllocator@PAVIoHandler@@@module@@$0A@@std@@@std@@QAE?AViterator@12@Vconst_iterator@12@0@Z 00426c10 f i Network:IOCPServer.obj
 0001:00025cf0       ??1?$_Tree@V?$_Tmap_traits@KPAVIoHandler@@U?$less@K@std@@V?$RedirectedAllocator@PAVIoHandler@@@module@@$0A@@std@@@std@@QAE@XZ 00426cf0 f i Network:IOCPServer.obj
 0001:00025d70       ??_EIOCPServer@@UAEPAXI@Z  00426d70 f i Network:IOCPServer.obj
 0001:00025d70       ??_GIOCPServer@@UAEPAXI@Z  00426d70 f i Network:IOCPServer.obj
 0001:00025d90       ?Init@Session@@QAEXXZ      00426d90 f   Network:Session.obj
 0001:00025dd0       ?Reuse@Session@@QAEXPAX@Z  00426dd0 f   Network:Session.obj
 0001:00025e60       ?PreSend@Session@@QAE_NXZ  00426e60 f   Network:Session.obj
 0001:00025ee0       ?CreateSocket@Session@@QAEIXZ 00426ee0 f   Network:Session.obj
 0001:00025f00       ?BindNetworkObject@Session@@QAEXPAVNetworkObject@@@Z 00426f00 f   Network:Session.obj
 0001:00025f20       ?UnbindNetworkObject@Session@@QAEXXZ 00426f20 f   Network:Session.obj
 0001:00025f40       ?OnAccept@Session@@QAEXXZ  00426f40 f   Network:Session.obj
 0001:00025f80       ?OnConnect@Session@@QAEX_N@Z 00426f80 f   Network:Session.obj
 0001:00025fc0       ?OnLogString@Session@@QAAXPBDZZ 00426fc0 f   Network:Session.obj
 0001:00026030       ?Disconnect@Session@@QAEX_N@Z 00427030 f   Network:Session.obj
 0001:00026050       ?SetSockOpt@Session@@QAEHHHPBDH@Z 00427050 f   Network:Session.obj
 0001:00026080       ??0Session@@QAE@KKKK@Z     00427080 f   Network:Session.obj
 0001:000260f0       ??1Session@@UAE@XZ         004270f0 f   Network:Session.obj
 0001:00026150       ?Send@Session@@QAE_NPAEG@Z 00427150 f   Network:Session.obj
 0001:000261c0       ?SendEx@Session@@QAE_NKPAPAEPAG@Z 004271c0 f   Network:Session.obj
 0001:00026240       ?ProcessReceivedPacket@Session@@QAE_NH@Z 00427240 f   Network:Session.obj
 0001:00026340       ?PreRecv@Session@@QAE_NXZ  00427340 f   Network:Session.obj
 0001:000263e0       ?PreAccept@Session@@QAE_NI@Z 004273e0 f   Network:Session.obj
 0001:000264c0       ?Allocate@?$TAllocator@VSendBuffer@@@module@@SAPAVSendBuffer@@XZ 004274c0 f i Network:Session.obj
 0001:00026530       ?Allocate@?$TAllocator@VRecvBuffer@@@module@@SAPAVRecvBuffer@@XZ 00427530 f i Network:Session.obj
 0001:000265a0       ??_GSession@@UAEPAXI@Z     004275a0 f i Network:Session.obj
 0001:000265a0       ??_ESession@@UAEPAXI@Z     004275a0 f i Network:Session.obj
 0001:000265c0       ??0SendBuffer@@QAE@XZ      004275c0 f   Network:SendBuffer.obj
 0001:00026650       ?PumpPendingBuffer@SendBuffer@@AAEXXZ 00427650 f   Network:SendBuffer.obj
 0001:000266f0       ?WriteMessages@SendBuffer@@QAE_NPAPBEPAGKW4HEADER_SIZE_TYPE@@@Z 004276f0 f   Network:SendBuffer.obj
 0001:000267d0       ??1SendBuffer@@QAE@XZ      004277d0 f   Network:SendBuffer.obj
 0001:00026820       ?Create@SendBuffer@@QAEXKK@Z 00427820 f   Network:SendBuffer.obj
 0001:000268b0       ?UsePendingBuffer@SendBuffer@@QAE_NK@Z 004278b0 f   Network:SendBuffer.obj
 0001:000269b0       ?Clear@SendBuffer@@QAEXXZ  004279b0 f   Network:SendBuffer.obj
 0001:000269f0       ?PrepareSend@SendBuffer@@QAE_NQAURingBufferInfo@module@@@Z 004279f0 f   Network:SendBuffer.obj
 0001:00026ac0       ?IsEmpty@SendBuffer@@QBE_NXZ 00427ac0 f   Network:SendBuffer.obj
 0001:00026ae0       ?GetBufferSizeInfo@SendBuffer@@QBEXAAK0@Z 00427ae0 f   Network:SendBuffer.obj
 0001:00026b30       ??0RecvBuffer@@QAE@XZ      00427b30 f   Network:RecvBuffer.obj
 0001:00026bd0       ?PumpTo2ndBuffer@RecvBuffer@@AAEXXZ 00427bd0 f   Network:RecvBuffer.obj
 0001:00026c70       ?GetRecvParam@RecvBuffer@@QAEXPAPAEAAH@Z 00427c70 f   Network:RecvBuffer.obj
 0001:00026ca0       ?PopHeadMessage@RecvBuffer@@QAE_NH@Z 00427ca0 f   Network:RecvBuffer.obj
 0001:00026cd0       ?GetFirstPacketPtr@RecvBuffer@@QAEPAEW4HEADER_SIZE_TYPE@@PAK@Z 00427cd0 f   Network:RecvBuffer.obj
 0001:00026d80       ??1RecvBuffer@@QAE@XZ      00427d80 f   Network:RecvBuffer.obj
 0001:00026df0       ?Create@RecvBuffer@@QAEXHK@Z 00427df0 f   Network:RecvBuffer.obj
 0001:00026e80       ?Clear@RecvBuffer@@QAEXXZ  00427e80 f   Network:RecvBuffer.obj
 0001:00026ed0       ?UseDualBuffer@RecvBuffer@@QAE_NK@Z 00427ed0 f   Network:RecvBuffer.obj
 0001:00026fc0       ?GetReceivableInfo@RecvBuffer@@AAE_NQAURingBufferInfo@module@@@Z 00427fc0 f   Network:RecvBuffer.obj
 0001:00027030       ?PrepareRecv@RecvBuffer@@QAE_NQAURingBufferInfo@module@@@Z 00428030 f   Network:RecvBuffer.obj
 0001:000270f0       ?GetBufferSizeInfo@RecvBuffer@@QBEXAAK0@Z 004280f0 f   Network:RecvBuffer.obj
 0001:00027140       ??0IoHandler@@QAE@XZ       00428140 f   Network:IoHandler.obj
 0001:00027160       ?Init@IoHandler@@QAEXPAVIOCPServer@@PAUtagIOHANDLER_DESC@@@Z 00428160 f   Network:IoHandler.obj
 0001:000274a0       ?IsListening@IoHandler@@QAEHXZ 004284a0 f   Network:IoHandler.obj
 0001:000274b0       ?SuspendListenThread@IoHandler@@QAEXXZ 004284b0 f   Network:IoHandler.obj
 0001:000274c0       ?ResumeListenThread@IoHandler@@QAEXXZ 004284c0 f   Network:IoHandler.obj
 0001:000274d0       ?AllocAcceptSession@IoHandler@@AAEPAVSession@@XZ 004284d0 f   Network:IoHandler.obj
 0001:000274f0       ?AllocConnectSession@IoHandler@@AAEPAVSession@@XZ 004284f0 f   Network:IoHandler.obj
 0001:00027510       ?FreeSession@IoHandler@@AAEXPAVSession@@@Z 00428510 f   Network:IoHandler.obj
 0001:00027550       ?ReuseSession@IoHandler@@AAEXPAVSession@@@Z 00428550 f   Network:IoHandler.obj
 0001:00027560       ?ProcessSend@IoHandler@@AAEXXZ 00428560 f   Network:IoHandler.obj
 0001:000275b0       ?Connect@IoHandler@@QAEKPAVNetworkObject@@PADG@Z 004285b0 f   Network:IoHandler.obj
 0001:00027690       ?StartListen@IoHandler@@QAEHPADG@Z 00428690 f   Network:IoHandler.obj
 0001:000276f0       ?GetSession@IoHandler@@QAEPAVSession@@K@Z 004286f0 f   Network:IoHandler.obj
 0001:00027760       ?ProcessConnectFailList@IoHandler@@AAEXXZ 00428760 f   Network:IoHandler.obj
 0001:00027850       ?ProcessActiveSessionList@IoHandler@@AAEXXZ 00428850 f   Network:IoHandler.obj
 0001:00027950       ?KickAllSessions@IoHandler@@AAEXXZ 00428950 f   Network:IoHandler.obj
 0001:000279d0       ?ProcessConnectSuccessList@IoHandler@@AAEXXZ 004289d0 f   Network:IoHandler.obj
 0001:00027b80       ?ProcessAcceptedSessionList@IoHandler@@AAEXXZ 00428b80 f   Network:IoHandler.obj
 0001:00027d50       ?KickDeadSessions@IoHandler@@AAEXXZ 00428d50 f   Network:IoHandler.obj
 0001:00028020       ?Update@IoHandler@@QAEXXZ  00429020 f   Network:IoHandler.obj
 0001:00028060       ?Shutdown@IoHandler@@QAEXXZ 00429060 f   Network:IoHandler.obj
 0001:000280c0       ??1IoHandler@@QAE@XZ       004290c0 f   Network:IoHandler.obj
 0001:00028230       ??F?$_Const_iterator@$00@?$list@PAVSession@@V?$RedirectedAllocator@PAVSession@@@module@@@std@@QAEAAV012@XZ 00429230 f i Network:IoHandler.obj
 0001:00028260       ?clear@?$list@PAVSession@@V?$RedirectedAllocator@PAVSession@@@module@@@std@@QAEXXZ 00429260 f i Network:IoHandler.obj
 0001:000282a0       ?_Buynode@?$list@PAVSession@@V?$RedirectedAllocator@PAVSession@@@module@@@std@@IAEPAU_Node@?$_List_nod@PAVSession@@V?$RedirectedAllocator@PAVSession@@@module@@@2@PAU342@0ABQAVSession@@@Z 004292a0 f i Network:IoHandler.obj
 0001:000282e0       ?erase@?$list@PAVSession@@V?$RedirectedAllocator@PAVSession@@@module@@@std@@QAE?AV?$_Iterator@$00@12@V?$_Const_iterator@$00@12@@Z 004292e0 f i Network:IoHandler.obj
 0001:000282e0       ?erase@?$list@U?$pair@$$CBKPAVServerSession@@@std@@V?$CustomAllocator@U?$pair@$$CBKPAVServerSession@@@std@@@util@@@std@@QAE?AV?$_Iterator@$00@12@V?$_Const_iterator@$00@12@@Z 004292e0 f i servercommon:ServerFrame.obj
 0001:00028360       ?erase@?$list@PAVSession@@V?$RedirectedAllocator@PAVSession@@@module@@@std@@QAE?AV?$_Iterator@$00@12@V?$_Const_iterator@$00@12@0@Z 00429360 f i Network:IoHandler.obj
 0001:00028420       ?_Incsize@?$list@PAVSession@@V?$RedirectedAllocator@PAVSession@@@module@@@std@@IAEXI@Z 00429420 f i Network:IoHandler.obj
 0001:000284c0       ??$_Insert@V?$_Const_iterator@$00@?$list@PAVSession@@V?$RedirectedAllocator@PAVSession@@@module@@@std@@@?$list@PAVSession@@V?$RedirectedAllocator@PAVSession@@@module@@@std@@QAEXV?$_Const_iterator@$00@01@00Uforward_iterator_tag@1@@Z 004294c0 f i Network:IoHandler.obj
 0001:00028620       ?_Splice@?$list@PAVSession@@V?$RedirectedAllocator@PAVSession@@@module@@@std@@QAEXV?$_Const_iterator@$00@12@AAV12@00I_N@Z 00429620 f i Network:IoHandler.obj
 0001:000286f0       ?LoadExtensionFunction@MsWinsockUtil@@CA_NIU_GUID@@PAPAX@Z 004296f0 f   Network:MsWinsockUtil.obj
 0001:00028760       ?LoadExtensionFunction@MsWinsockUtil@@SAXI@Z 00429760 f   Network:MsWinsockUtil.obj
 0001:00028940       ??0WxRingBuffer@module@@QAE@K@Z 00429940 f   Network:WxRingBuffer.obj
 0001:00028960       ??0WxRingBuffer@module@@QAE@KK@Z 00429960 f   Network:WxRingBuffer.obj
 0001:000289a0       ??0WxRingBuffer@module@@QAE@KPAEK@Z 004299a0 f   Network:WxRingBuffer.obj
 0001:000289d0       ??1WxRingBuffer@module@@UAE@XZ 004299d0 f   Network:WxRingBuffer.obj
 0001:00028a00       ?Reset@WxRingBuffer@module@@QAEXXZ 00429a00 f   Network:WxRingBuffer.obj
 0001:00028a10       ?Enqueue@WxRingBuffer@module@@QAEEPBEK@Z 00429a10 f   Network:WxRingBuffer.obj
 0001:00028b40       ?Dequeue@WxRingBuffer@module@@QAEEPAEK@Z 00429b40 f   Network:WxRingBuffer.obj
 0001:00028c70       ?Peek@WxRingBuffer@module@@QAEEPAEK@Z 00429c70 f   Network:WxRingBuffer.obj
 0001:00028d20       ?WritableInfo@WxRingBuffer@module@@QBEEPAURingBufferInfo@2@@Z 00429d20 f   Network:WxRingBuffer.obj
 0001:00028dd0       ?ReadableInfo@WxRingBuffer@module@@QBEEPAURingBufferInfo@2@@Z 00429dd0 f   Network:WxRingBuffer.obj
 0001:00028e70       ??_EWxRingBuffer@module@@UAEPAXI@Z 00429e70 f i Network:WxRingBuffer.obj
 0001:00028e70       ??_GWxRingBuffer@module@@UAEPAXI@Z 00429e70 f i Network:WxRingBuffer.obj
 0001:00028eb0       ?Allocate@?$TAllocator@VSessionList@@@module@@SAPAVSessionList@@XZ 00429eb0 f i Network:SessionPool.obj
 0001:00028f20       ??1SessionPool@@QAE@XZ     00429f20 f   Network:SessionPool.obj
 0001:00028f50       ?GetLength@SessionPool@@QAEHXZ 00429f50 f   Network:SessionPool.obj
 0001:00028f80       ?Alloc@SessionPool@@QAEPAVSession@@XZ 00429f80 f   Network:SessionPool.obj
 0001:00029000       ?Create@SessionPool@@AAEXKKKKKKH@Z 0042a000 f   Network:SessionPool.obj
 0001:00029100       ?Free@SessionPool@@QAEXPAVSession@@@Z 0042a100 f   Network:SessionPool.obj
 0001:00029160       ??0SessionPool@@QAE@KKKKKKH@Z 0042a160 f   Network:SessionPool.obj
 0001:000291a0       ??0Acceptor@@QAE@XZ        0042a1a0 f   Network:Acceptor.obj
 0001:000291f0       ?Init@Acceptor@@QAEXPAVIoHandler@@K@Z 0042a1f0 f   Network:Acceptor.obj
 0001:00029250       ?CreateListenSocket@Acceptor@@AAEHPBDG@Z 0042a250 f   Network:Acceptor.obj
 0001:00029320       ?SuspendListenThread@Acceptor@@QAEXXZ 0042a320 f   Network:Acceptor.obj
 0001:00029350       ?ResumeListenThread@Acceptor@@QAEXXZ 0042a350 f   Network:Acceptor.obj
 0001:00029380       ?Shutdown@Acceptor@@QAEXXZ 0042a380 f   Network:Acceptor.obj
 0001:000293f0       ??1Acceptor@@QAE@XZ        0042a3f0 f   Network:Acceptor.obj
 0001:00029430       ?StartListen@Acceptor@@QAEHPBDG@Z 0042a430 f   Network:Acceptor.obj
 0001:000294a0       ??0Connector@@QAE@XZ       0042a4a0 f   Network:Connector.obj
 0001:00029520       ?Init@Connector@@QAEXPAVIoHandler@@K@Z 0042a520 f   Network:Connector.obj
 0001:000295e0       ?Shutdown@Connector@@QAEXXZ 0042a5e0 f   Network:Connector.obj
 0001:00029620       ??1Connector@@QAE@XZ       0042a620 f   Network:Connector.obj
 0001:00029690       ?Connect@Connector@@QAEXPAVSession@@@Z 0042a690 f   Network:Connector.obj
 0001:000296f0       ?_Buynode@?$list@PAVSession@@V?$RedirectedAllocator@PAVSession@@@module@@@std@@IAEPAU_Node@?$_List_nod@PAVSession@@V?$RedirectedAllocator@PAVSession@@@module@@@2@XZ 0042a6f0 f i Network:SessionList.obj
 0001:00029710       ??1?$_List_val@PAVSession@@V?$RedirectedAllocator@PAVSession@@@module@@@std@@QAE@XZ 0042a710 f i Network:SessionList.obj
 0001:00029710       ??1?$_Vector_val@U_List_position@?$_Hash@V?$_Hmap_traits@KPAVServerSession@@V?$hash_compare@KU?$less@K@std@@@stdext@@V?$CustomAllocator@PAVServerSession@@@util@@$0A@@stdext@@@stdext@@V?$CustomAllocator@U_List_position@?$_Hash@V?$_Hmap_traits@KPAVServerSession@@V?$hash_compare@KU?$less@K@std@@@stdext@@V?$CustomAllocator@PAVServerSession@@@util@@$0A@@stdext@@@stdext@@@util@@@std@@QAE@XZ 0042a710 f i servercommon:ServerFrame.obj
 0001:00029710       ??1?$_List_val@U?$pair@$$CBKPAVServerSession@@@std@@V?$CustomAllocator@U?$pair@$$CBKPAVServerSession@@@std@@@util@@@std@@QAE@XZ 0042a710 f i servercommon:ServerFrame.obj
 0001:00029710       ??1?$_Tree_val@V?$_Tmap_traits@KPAVIoHandler@@U?$less@K@std@@V?$RedirectedAllocator@PAVIoHandler@@@module@@$0A@@std@@@std@@QAE@XZ 0042a710 f i Network:IOCPServer.obj
 0001:00029720       ?Clear@SessionList@@QAEXXZ 0042a720 f   Network:SessionList.obj
 0001:000297e0       ??0SessionList@@QAE@XZ     0042a7e0 f   Network:SessionList.obj
 0001:00029800       ??1SessionList@@QAE@XZ     0042a800 f   Network:SessionList.obj
 0001:00029870       ??0?$list@PAVSession@@V?$RedirectedAllocator@PAVSession@@@module@@@std@@QAE@XZ 0042a870 f i Network:SessionList.obj
 0001:000298e0       ?io_thread@@YGIPAX@Z       0042a8e0 f   Network:IoHandler_Worker.obj
 0001:00029a00       ?accept_thread@@YGIPAX@Z   0042aa00 f   Network:Acceptor_Worker.obj
 0001:00029b70       ?connect_thread@@YGIPAX@Z  0042ab70 f   Network:Connector_Worker.obj
 0001:00029cd0       ?CheckSkipType@ns_formula@@YA_NW4eATTR_TYPE@@_N@Z 0042acd0 f   SolarSlot_s:ItemOptionHeader.obj
 0001:00029d00       ?CheckAttrValidity@ns_formula@@YA_NW4eATTR_TYPE@@HH@Z 0042ad00 f   SolarSlot_s:ItemOptionHeader.obj
 0001:00029d20       ?CheckStatsRelatedOption@ns_formula@@YA_NG@Z 0042ad20 f   SolarSlot_s:ItemOptionHeader.obj
 0001:00029d55       ?_JumpToContinuation@@YGXPAXPAUEHRegistrationNode@@@Z 0042ad55 f   LIBCMT:_trnsctrl_.obj
 0001:00029d87       ?_CallMemberFunction0@@YGXPAX0@Z 0042ad87 f   LIBCMT:_trnsctrl_.obj
 0001:00029d87       ?_CallMemberFunction2@@YGXPAX00H@Z 0042ad87 f   LIBCMT:_trnsctrl_.obj
 0001:00029d87       ?_CallMemberFunction1@@YGXPAX00@Z 0042ad87 f   LIBCMT:_trnsctrl_.obj
 0001:00029d8e       ?_UnwindNestedFrames@@YGXPAUEHRegistrationNode@@PAUEHExceptionRecord@@@Z 0042ad8e f   LIBCMT:_trnsctrl_.obj
 0001:00029de2       ___CxxFrameHandler3        0042ade2 f   LIBCMT:_trnsctrl_.obj
 0001:00029de2       ___CxxFrameHandler         0042ade2 f   LIBCMT:_trnsctrl_.obj
 0001:00029e4b       ?_CallSETranslator@@YAHPAUEHExceptionRecord@@PAUEHRegistrationNode@@PAX2PBU_s_FuncInfo@@H1@Z 0042ae4b f   LIBCMT:_trnsctrl_.obj
 0001:00029fc1       ?_GetRangeOfTrysToCheck@@YAPBU_s_TryBlockMapEntry@@PBU_s_FuncInfo@@HHPAI1@Z 0042afc1 f   LIBCMT:_trnsctrl_.obj
 0001:0002a036       __CreateFrameInfo          0042b036 f   LIBCMT:_trnsctrl_.obj
 0001:0002a062       __IsExceptionObjectToBeDestroyed 0042b062 f   LIBCMT:_trnsctrl_.obj
 0001:0002a089       __FindAndUnlinkFrame       0042b089 f   LIBCMT:_trnsctrl_.obj
 0001:0002a0db       ?_CallCatchBlock2@@YAPAXPAUEHRegistrationNode@@PBU_s_FuncInfo@@PAXHK@Z 0042b0db f   LIBCMT:_trnsctrl_.obj
 0001:0002a13b       @__security_check_cookie@4 0042b13b f   LIBCMT:secchk.obj
 0001:0002a14a       ??1type_info@@UAE@XZ       0042b14a f   LIBCMT:typinfo.obj
 0001:0002a15a       ??_Gtype_info@@UAEPAXI@Z   0042b15a f i LIBCMT:typinfo.obj
 0001:0002a15a       ??_Etype_info@@UAEPAXI@Z   0042b15a f i LIBCMT:typinfo.obj
 0001:0002a17b       ??8type_info@@QBE_NABV0@@Z 0042b17b f   LIBCMT:typinfo.obj
 0001:0002a19b       ??3@YAXPAX@Z               0042b19b f   LIBCMT:delete.obj
 0001:0002a1a6       _printf                    0042b1a6 f   LIBCMT:printf.obj
 0001:0002a255       __get_printf_count_output  0042b255 f   LIBCMT:printf.obj
 0001:0002a26b       _sprintf                   0042b26b f   LIBCMT:sprintf.obj
 0001:0002a3a2       ___onexitinit              0042b3a2 f   LIBCMT:onexit.obj
 0001:0002a3d3       __onexit                   0042b3d3 f   LIBCMT:onexit.obj
 0001:0002a40f       _atexit                    0042b40f f   LIBCMT:onexit.obj
 0001:0002a426       ??0bad_alloc@std@@QAE@XZ   0042b426 f i LIBCMT:new.obj
 0001:0002a441       ??2@YAPAXI@Z               0042b441 f   LIBCMT:new.obj
 0001:0002a4a6       __purecall                 0042b4a6 f   LIBCMT:purevirt.obj
 0001:0002a4d0       _V6_HeapAlloc              0042b4d0 f   LIBCMT:malloc.obj
 0001:0002a51f       _malloc                    0042b51f f   LIBCMT:malloc.obj
 0001:0002a5e9       _free                      0042b5e9 f   LIBCMT:free.obj
 0001:0002a677       __initp_misc_invarg        0042b677 f   LIBCMT:invarg.obj
 0001:0002a686       __invoke_watson            0042b686 f   LIBCMT:invarg.obj
 0001:0002a7ae       __invalid_parameter        0042b7ae f   LIBCMT:invarg.obj
 0001:0002a7d4       __invalid_parameter_noinfo 0042b7d4 f   LIBCMT:invarg.obj
 0001:0002a7e4       ??_U@YAPAXIABUnothrow_t@std@@@Z 0042b7e4 f   LIBCMT:newaopnt.obj
 0001:0002a7ef       ??_V@YAXPAX@Z              0042b7ef f   LIBCMT:delete2.obj
 0001:0002a7fa       __CxxThrowException@8      0042b7fa f   LIBCMT:throw.obj
 0001:0002a846       ??0exception@std@@QAE@XZ   0042b846 f   LIBCMT:stdexcpt.obj
 0001:0002a857       ??0exception@std@@QAE@ABQBD@Z 0042b857 f   LIBCMT:stdexcpt.obj
 0001:0002a8aa       ??0exception@std@@QAE@ABQBDH@Z 0042b8aa f   LIBCMT:stdexcpt.obj
 0001:0002a8c7       ??0exception@std@@QAE@ABV01@@Z 0042b8c7 f   LIBCMT:stdexcpt.obj
 0001:0002a924       ??1exception@std@@UAE@XZ   0042b924 f   LIBCMT:stdexcpt.obj
 0001:0002a93a       ?what@exception@std@@UBEPBDXZ 0042b93a f   LIBCMT:stdexcpt.obj
 0001:0002a947       ??0bad_cast@std@@QAE@PBD@Z 0042b947 f   LIBCMT:stdexcpt.obj
 0001:0002a965       ??0bad_cast@std@@QAE@ABV01@@Z 0042b965 f   LIBCMT:stdexcpt.obj
 0001:0002a982       ??1bad_cast@std@@UAE@XZ    0042b982 f   LIBCMT:stdexcpt.obj
 0001:0002a98d       ??_Gexception@std@@UAEPAXI@Z 0042b98d f i LIBCMT:stdexcpt.obj
 0001:0002a98d       ??_Eexception@std@@UAEPAXI@Z 0042b98d f i LIBCMT:stdexcpt.obj
 0001:0002a9ae       ??_Gbad_cast@std@@UAEPAXI@Z 0042b9ae f i LIBCMT:stdexcpt.obj
 0001:0002a9ae       ??_Ebad_cast@std@@UAEPAXI@Z 0042b9ae f i LIBCMT:stdexcpt.obj
 0001:0002a9d5       _memcpy_s                  0042b9d5 f   LIBCMT:memcpy_s.obj
 0001:0002aa52       _memmove_s                 0042ba52 f   LIBCMT:memmove_s.obj
 0001:0002aaaf       __fclose_nolock            0042baaf f   LIBCMT:fclose.obj
 0001:0002ab26       _fclose                    0042bb26 f   LIBCMT:fclose.obj
 0001:0002aba2       _fprintf                   0042bba2 f   LIBCMT:fprintf.obj
 0001:0002acbe       __fsopen                   0042bcbe f   LIBCMT:fopen.obj
 0001:0002ad82       _fopen                     0042bd82 f   LIBCMT:fopen.obj
 0001:0002ada0       __chkstk                   0042bda0 f   LIBCMT:chkstk.obj
 0001:0002ada0       __alloca_probe             0042bda0     LIBCMT:chkstk.obj
 0001:0002adcb       __cfltcvt_init             0042bdcb f   LIBCMT:_fpinit_.obj
 0001:0002ae2b       __fpmath                   0042be2b f   LIBCMT:_fpinit_.obj
 0001:0002ae4e       _ldiv                      0042be4e f   LIBCMT:ldiv.obj
 0001:0002ae5c       ??0_LocaleUpdate@@QAE@PAUlocaleinfo_struct@@@Z 0042be5c f i LIBCMT:mbsnbcpy.obj
 0001:0002aee3       __mbsnbcpy_l               0042bee3 f   LIBCMT:mbsnbcpy.obj
 0001:0002afc6       __mbsnbcpy                 0042bfc6 f   LIBCMT:mbsnbcpy.obj
 0001:0002afe0       _memset                    0042bfe0 f   LIBCMT:memset.obj
 0001:0002b060       _memcpy                    0042c060 f   LIBCMT:memcpy.obj
 0001:0002b540       _mainCRTStartup            0042c540 f   LIBCMT:crt0.obj
 0001:0002b550       _strncpy                   0042c550 f   LIBCMT:strncpy.obj
 0001:0002b674       _atol                      0042c674 f   LIBCMT:atox.obj
 0001:0002b68a       _atoi                      0042c68a f   LIBCMT:atox.obj
 0001:0002b6ff       _sscanf                    0042c6ff f   LIBCMT:sscanf.obj
 0001:0002b721       __fwrite_nolock            0042c721 f   LIBCMT:fwrite.obj
 0001:0002b883       _fwrite                    0042c883 f   LIBCMT:fwrite.obj
 0001:0002b905       _fputc                     0042c905 f   LIBCMT:fputc.obj
 0001:0002ba11       __ungetc_nolock            0042ca11 f   LIBCMT:ungetc.obj
 0001:0002bb02       _ungetc                    0042cb02 f   LIBCMT:ungetc.obj
 0001:0002bb74       _fgetc                     0042cb74 f   LIBCMT:fgetc.obj
 0001:0002bc78       _fgetpos                   0042cc78 f   LIBCMT:fgetpos.obj
 0001:0002bce6       __fseek_nolock             0042cce6 f   LIBCMT:fseek.obj
 0001:0002bd70       _fseek                     0042cd70 f   LIBCMT:fseek.obj
 0001:0002bdf5       _fsetpos                   0042cdf5 f   LIBCMT:fsetpos.obj
 0001:0002be3a       _setvbuf                   0042ce3a f   LIBCMT:setvbuf.obj
 0001:0002bf38       __flush                    0042cf38 f   LIBCMT:fflush.obj
 0001:0002bfa0       __fflush_nolock            0042cfa0 f   LIBCMT:fflush.obj
 0001:0002c0c2       _fflush                    0042d0c2 f   LIBCMT:fflush.obj
 0001:0002c115       __flushall                 0042d115 f   LIBCMT:fflush.obj
 0001:0002c120       __aulldiv                  0042d120 f   LIBCMT:ulldiv.obj
 0001:0002c190       __aulldvrm                 0042d190 f   LIBCMT:ulldvrm.obj
 0001:0002c230       __allmul                   0042d230 f   LIBCMT:llmul.obj
 0001:0002c264       __time32                   0042d264 f   LIBCMT:time.obj
 0001:0002c2b2       _puts                      0042d2b2 f   LIBCMT:puts.obj
 0001:0002c411       __snprintf                 0042d411 f   LIBCMT:snprintf.obj
 0001:0002c4c0       __toupper_l                0042d4c0 f   LIBCMT:toupper.obj
 0001:0002c5d6       _toupper                   0042d5d6 f   LIBCMT:toupper.obj
 0001:0002c602       __freea                    0042d602 f i LIBCMT:getch.obj
 0001:0002c622       __getextendedkeycode       0042d622 f   LIBCMT:getch.obj
 0001:0002c6d5       __getch_nolock             0042d6d5 f   LIBCMT:getch.obj
 0001:0002c79a       __kbhit_nolock             0042d79a f   LIBCMT:getch.obj
 0001:0002c8c4       _getch                     0042d8c4 f   LIBCMT:getch.obj
 0001:0002c8c4       __getch                    0042d8c4 f   LIBCMT:getch.obj
 0001:0002c902       __kbhit                    0042d902 f   LIBCMT:getch.obj
 0001:0002c940       _srand                     0042d940 f   LIBCMT:rand.obj
 0001:0002c952       _rand                      0042d952 f   LIBCMT:rand.obj
 0001:0002c974       _system                    0042d974 f   LIBCMT:system.obj
 0001:0002ca54       __get_sys_err_msg          0042da54 f i LIBCMT:perror.obj
 0001:0002ca7c       _perror                    0042da7c f   LIBCMT:perror.obj
 0001:0002cb0a       __vsnprintf_l              0042db0a f   LIBCMT:vsnprint.obj
 0001:0002cbbd       __vsnprintf                0042dbbd f   LIBCMT:vsnprint.obj
 0001:0002cbda       __access_s                 0042dbda f   LIBCMT:access.obj
 0001:0002cc63       __access                   0042dc63 f   LIBCMT:access.obj
 0001:0002cc7b       _strtok                    0042dc7b f   LIBCMT:strtok.obj
 0001:0002cd40       _strrchr                   0042dd40 f   LIBCMT:strrchr.obj
 0001:0002cd6d       ___iob_func                0042dd6d f   LIBCMT:_file.obj
 0001:0002cd73       ___initstdio               0042dd73 f   LIBCMT:_file.obj
 0001:0002ce24       ___endstdio                0042de24 f   LIBCMT:_file.obj
 0001:0002ce44       __lock_file                0042de44 f   LIBCMT:_file.obj
 0001:0002ce85       __lock_file2               0042de85 f   LIBCMT:_file.obj
 0001:0002ceb7       __unlock_file              0042deb7 f   LIBCMT:_file.obj
 0001:0002cef3       __unlock_file2             0042def3 f   LIBCMT:_file.obj
 0001:0002cf22       __fdopen                   0042df22 f   LIBCMT:fdopen.obj
 0001:0002d0a8       __set_osfhnd               0042e0a8 f   LIBCMT:osfinfo.obj
 0001:0002d129       __free_osfhnd              0042e129 f   LIBCMT:osfinfo.obj
 0001:0002d1af       __get_osfhandle            0042e1af f   LIBCMT:osfinfo.obj
 0001:0002d226       ___lock_fhandle            0042e226 f   LIBCMT:osfinfo.obj
 0001:0002d2c6       __unlock_fhandle           0042e2c6 f   LIBCMT:osfinfo.obj
 0001:0002d2ed       __alloc_osfhnd             0042e2ed f   LIBCMT:osfinfo.obj
 0001:0002d487       __open_osfhandle           0042e487 f   LIBCMT:osfinfo.obj
 0001:0002d59d       __localtime64_s            0042e59d f   LIBCMT:loctim64.obj
 0001:0002d855       __localtime64              0042e855 f   LIBCMT:loctim64.obj
 0001:0002db31       __mktime64                 0042eb31 f   LIBCMT:mktime64.obj
 0001:0002db43       __gmtime64_s               0042eb43 f   LIBCMT:gmtime64.obj
 0001:0002dd90       _strlen                    0042ed90 f   LIBCMT:strlen.obj
 0001:0002de1b       __EH_prolog3               0042ee1b f   LIBCMT:ehprolg3.obj
 0001:0002de4e       __EH_prolog3_catch         0042ee4e f   LIBCMT:ehprolg3.obj
 0001:0002de84       __EH_epilog3               0042ee84 f   LIBCMT:ehprolg3.obj
 0001:0002de98       __wfsopen                  0042ee98 f   LIBCMT:wfopen.obj
 0001:0002df5e       __mbstowcs_l_helper        0042ef5e f   LIBCMT:mbstowcs.obj
 0001:0002e0ff       __mbstowcs_s_l             0042f0ff f   LIBCMT:mbstowcs.obj
 0001:0002e20f       _mbstowcs_s                0042f20f f   LIBCMT:mbstowcs.obj
 0001:0002e22f       _abort                     0042f22f f   LIBCMT:abort.obj
 0001:0002e346       __set_abort_behavior       0042f346 f   LIBCMT:abort.obj
 0001:0002e367       ___freetlocinfo            0042f367 f   LIBCMT:setlocal.obj
 0001:0002e4b0       ___addlocaleref            0042f4b0 f   LIBCMT:setlocal.obj
 0001:0002e53f       ___removelocaleref         0042f53f f   LIBCMT:setlocal.obj
 0001:0002e63c       ___updatetlocinfo          0042f63c f   LIBCMT:setlocal.obj
 0001:0002e705       ___init_dummy              0042f705 f   LIBCMT:setlocal.obj
 0001:0002e705       ___init_collate            0042f705 f   LIBCMT:initcoll.obj
 0001:0002e708       __strcats                  0042f708 f   LIBCMT:setlocal.obj
 0001:0002e748       ___lc_strtolc              0042f748 f   LIBCMT:setlocal.obj
 0001:0002e871       ___lc_lctostr              0042f871 f   LIBCMT:setlocal.obj
 0001:0002ea5b       __expandlocale             0042fa5b f   LIBCMT:setlocal.obj
 0001:0002f1a9       _setlocale                 004301a9 f   LIBCMT:setlocal.obj
 0001:0002f6be       ___crtLCMapStringA         004306be f   LIBCMT:a_map.obj
 0001:0002f703       ___pctype_func             00430703 f   LIBCMT:ctype.obj
 0001:0002f72c       __isupper_l                0043072c f i LIBCMT:_ctype.obj
 0001:0002f77d       _isupper                   0043077d f i LIBCMT:_ctype.obj
 0001:0002f7ab       __islower_l                004307ab f i LIBCMT:_ctype.obj
 0001:0002f7fc       _islower                   004307fc f i LIBCMT:_ctype.obj
 0001:0002f82a       __isdigit_l                0043082a f i LIBCMT:_ctype.obj
 0001:0002f87b       _isdigit                   0043087b f i LIBCMT:_ctype.obj
 0001:0002f8a9       __isxdigit_l               004308a9 f i LIBCMT:_ctype.obj
 0001:0002f8ff       _isxdigit                  004308ff f i LIBCMT:_ctype.obj
 0001:0002f92f       __isspace_l                0043092f f i LIBCMT:_ctype.obj
 0001:0002f980       _isspace                   00430980 f i LIBCMT:_ctype.obj
 0001:0002f9ae       ___init_ctype              004309ae f   LIBCMT:initctyp.obj
 0001:0002fd50       ____lc_codepage_func       00430d50 f   LIBCMT:initctyp.obj
 0001:0002fd76       ____lc_handle_func         00430d76 f   LIBCMT:initctyp.obj
 0001:0002fd9c       __malloc_crt               00430d9c f   LIBCMT:crtheap.obj
 0001:0002fde1       __calloc_crt               00430de1 f   LIBCMT:crtheap.obj
 0001:0002fe2d       __realloc_crt              00430e2d f   LIBCMT:crtheap.obj
 0001:0002fe7b       __recalloc_crt             00430e7b f   LIBCMT:crtheap.obj
 0001:0002fecd       _strerror                  00430ecd f   LIBCMT:strerror.obj
 0001:0002ff39       _calloc                    00430f39 f   LIBCMT:calloc.obj
 0001:0002ff7c       __global_unwind2           00430f7c f   LIBCMT:exsup.obj
 0001:0002ffe1       __local_unwind2            00430fe1 f   LIBCMT:exsup.obj
 0001:00030065       __abnormal_termination     00431065 f   LIBCMT:exsup.obj
 0001:00030088       __NLG_Notify1              00431088 f   LIBCMT:exsup.obj
 0001:00030091       __NLG_Notify               00431091 f   LIBCMT:exsup.obj
 0001:000300a8       __NLG_Dispatch             004310a8     LIBCMT:exsup.obj
 0001:000300a8       __NLG_Dispatch2            004310a8     LIBCMT:exsup.obj
 0001:000300b0       __NLG_Call                 004310b0 f   LIBCMT:exsup.obj
 0001:000300b2       __NLG_Return2              004310b2     LIBCMT:exsup.obj
 0001:000300c0       __ftol2_sse                004310c0 f   LIBCMT:ftol2.obj
 0001:000300c9       __ftol2_pentium4           004310c9 f   LIBCMT:ftol2.obj
 0001:000300dc       __ftol2_sse_excpt          004310dc f   LIBCMT:ftol2.obj
 0001:000300f6       __ftol2                    004310f6 f   LIBCMT:ftol2.obj
 0001:0003035d       __splitpath                0043135d f   LIBCMT:splitpat.obj
 0001:000303a9       __endthreadex              004313a9 f   LIBCMT:threadex.obj
 0001:000304aa       __beginthreadex            004314aa f   LIBCMT:threadex.obj
 0001:0003055a       ??0bad_exception@std@@QAE@PBD@Z 0043155a f i LIBCMT:frame.obj
 0001:00030578       ??1bad_exception@std@@UAE@XZ 00431578 f i LIBCMT:frame.obj
 0001:00030583       ??_Gbad_exception@std@@UAEPAXI@Z 00431583 f i LIBCMT:frame.obj
 0001:00030583       ??_Ebad_exception@std@@UAEPAXI@Z 00431583 f i LIBCMT:frame.obj
 0001:000305aa       ___TypeMatch               004315aa f   LIBCMT:frame.obj
 0001:00030609       ___FrameUnwindFilter       00431609 f   LIBCMT:frame.obj
 0001:00030652       ___FrameUnwindToState      00431652 f   LIBCMT:frame.obj
 0001:00030778       ___DestructExceptionObject 00431778 f   LIBCMT:frame.obj
 0001:000307cd       ___AdjustPointer           004317cd f   LIBCMT:frame.obj
 0001:00030a56       ___BuildCatchObjectHelper  00431a56 f   LIBCMT:frame.obj
 0001:00030bd5       ___BuildCatchObject        00431bd5 f   LIBCMT:frame.obj
 0001:00031110       ??0bad_exception@std@@QAE@ABV01@@Z 00432110 f i LIBCMT:frame.obj
 0001:0003112d       ___InternalCxxFrameHandler 0043212d f   LIBCMT:frame.obj
 0001:00031213       __encode_pointer           00432213 f   LIBCMT:tidtable.obj
 0001:00031285       __encoded_null             00432285 f   LIBCMT:tidtable.obj
 0001:0003128e       __decode_pointer           0043228e f   LIBCMT:tidtable.obj
 0001:00031300       ___crtTlsAlloc@4           00432300 f   LIBCMT:tidtable.obj
 0001:00031309       ___fls_getvalue@4          00432309 f   LIBCMT:tidtable.obj
 0001:00031323       ___get_flsindex            00432323 f   LIBCMT:tidtable.obj
 0001:00031329       ___set_flsgetvalue         00432329 f   LIBCMT:tidtable.obj
 0001:0003135d       ___fls_setvalue@8          0043235d f   LIBCMT:tidtable.obj
 0001:0003137a       __mtterm                   0043237a f   LIBCMT:tidtable.obj
 0001:000313b7       __initptd                  004323b7 f   LIBCMT:tidtable.obj
 0001:0003149e       __getptd_noexit            0043249e f   LIBCMT:tidtable.obj
 0001:00031517       __getptd                   00432517 f   LIBCMT:tidtable.obj
 0001:00031531       __freefls@4                00432531 f   LIBCMT:tidtable.obj
 0001:00031660       __freeptd                  00432660 f   LIBCMT:tidtable.obj
 0001:000316ce       __mtinit                   004326ce f   LIBCMT:tidtable.obj
 0001:0003185b       ?terminate@@YAXXZ          0043285b f   LIBCMT:hooks.obj
 0001:00031894       ?unexpected@@YAXXZ         00432894 f   LIBCMT:hooks.obj
 0001:000318a7       ?_inconsistency@@YAXXZ     004328a7 f   LIBCMT:hooks.obj
 0001:000318df       __initp_eh_hooks           004328df f   LIBCMT:hooks.obj
 0001:000318f0       __CallSettingFrame@12      004328f0 f   LIBCMT:lowhelpr.obj
 0001:00031917       __NLG_Return               00432917     LIBCMT:lowhelpr.obj
 0001:0003193c       ___report_gsfailure        0043293c f   LIBCMT:gs_report.obj
 0001:00031a42       ?_Type_info_dtor@type_info@@CAXPAV1@@Z 00432a42 f   LIBCMT:typname.obj
 0001:00031ac0       _strcmp                    00432ac0 f   LIBCMT:strcmp.obj
 0001:00031b48       __stbuf                    00432b48 f   LIBCMT:_sftbuf.obj
 0001:00031be4       __ftbuf                    00432be4 f   LIBCMT:_sftbuf.obj
 0001:00031cbe       __output_l                 00432cbe f   LIBCMT:output.obj
 0001:00032856       __get_errno_from_oserr     00433856 f   LIBCMT:dosmap.obj
 0001:00032898       __errno                    00433898 f   LIBCMT:dosmap.obj
 0001:000328ab       ___doserrno                004338ab f   LIBCMT:dosmap.obj
 0001:000328be       __dosmaperr                004338be f   LIBCMT:dosmap.obj
 0001:000328e4       __SEH_prolog4              004338e4 f   LIBCMT:sehprolg4.obj
 0001:00032929       __SEH_epilog4              00433929 f   LIBCMT:sehprolg4.obj
 0001:00032940       __except_handler4          00433940 f   LIBCMT:chandler4.obj
 0001:00032acc       __flsbuf                   00433acc f   LIBCMT:_flsbuf.obj
 0001:00032c30       __msize                    00433c30 f   LIBCMT:msize.obj
 0001:00032cd3       __crt_waiting_on_module_handle 00433cd3 f   LIBCMT:crt0dat.obj
 0001:00032d03       __amsg_exit                00433d03 f   LIBCMT:crt0dat.obj
 0001:00032d2c       ___crtCorExitProcess       00433d2c f   LIBCMT:crt0dat.obj
 0001:00032d57       ___crtExitProcess          00433d57 f   LIBCMT:crt0dat.obj
 0001:00032d6f       __lockexit                 00433d6f f   LIBCMT:crt0dat.obj
 0001:00032d78       __unlockexit               00433d78 f   LIBCMT:crt0dat.obj
 0001:00032d9e       __initterm_e               00433d9e f   LIBCMT:crt0dat.obj
 0001:00032dc2       __cinit                    00433dc2 f   LIBCMT:crt0dat.obj
 0001:00032f73       _exit                      00433f73 f   LIBCMT:crt0dat.obj
 0001:00032f89       __exit                     00433f89 f   LIBCMT:crt0dat.obj
 0001:00032f9f       __cexit                    00433f9f f   LIBCMT:crt0dat.obj
 0001:00032fae       __c_exit                   00433fae f   LIBCMT:crt0dat.obj
 0001:00032fbd       __init_pointers            00433fbd f   LIBCMT:crt0dat.obj
 0001:0003300b       __initp_heap_handler       0043400b f   LIBCMT:handler.obj
 0001:0003301a       __callnewh                 0043401a f   LIBCMT:handler.obj
 0001:00033042       __NMSG_WRITE               00434042 f   LIBCMT:crt0msg.obj
 0001:000331ed       __FF_MSGBANNER             004341ed f   LIBCMT:crt0msg.obj
 0001:00033226       ___getlocaleinfo           00434226 f   LIBCMT:inithelp.obj
 0001:000333a5       __initp_misc_purevirt      004343a5 f   LIBCMT:inithelp.obj
 0001:000333b4       __mtinitlocks              004343b4 f   LIBCMT:mlock.obj
 0001:000333ff       __mtdeletelocks            004343ff f   LIBCMT:mlock.obj
 0001:00033456       __unlock                   00434456 f   LIBCMT:mlock.obj
 0001:0003346d       __mtinitlocknum            0043446d f   LIBCMT:mlock.obj
 0001:00033530       __lock                     00434530 f   LIBCMT:mlock.obj
 0001:00033563       ___sbh_find_block          00434563 f   LIBCMT:sbheap.obj
 0001:00033593       ___sbh_free_block          00434593 f   LIBCMT:sbheap.obj
 0001:000338a9       ___sbh_alloc_new_region    004348a9 f   LIBCMT:sbheap.obj
 0001:00033959       ___sbh_alloc_new_group     00434959 f   LIBCMT:sbheap.obj
 0001:00033a61       ___sbh_resize_block        00434a61 f   LIBCMT:sbheap.obj
 0001:00033d42       ___sbh_alloc_block         00434d42 f   LIBCMT:sbheap.obj
 0001:00034027       __heap_init                00435027 f   LIBCMT:heapinit.obj
 0001:00034057       __crt_debugger_hook        00435057 f   LIBCMT:dbghook.obj
 0001:0003405f       ??2@YAPAXIABUnothrow_t@std@@@Z 0043505f f   LIBCMT:newopnt.obj
 0001:0003408e       _strcpy_s                  0043508e f   LIBCMT:strcpy_s.obj
 0001:00034100       _memmove                   00435100 f   LIBCMT:memmove.obj
 0001:00034465       __close_nolock             00435465 f   LIBCMT:close.obj
 0001:00034501       __close                    00435501 f   LIBCMT:close.obj
 0001:000345ce       __fileno                   004355ce f   LIBCMT:fileno.obj
 0001:00034600       __freebuf                  00435600 f   LIBCMT:_freebuf.obj
 0001:00034631       __ioinit                   00435631 f   LIBCMT:ioinit.obj
 0001:00034885       __openfile                 00435885 f   LIBCMT:_open.obj
 0001:00034b4e       __getstream                00435b4e f   LIBCMT:stream.obj
 0001:00034c88       __local_unwind4            00435c88 f   LIBCMT:exsup4.obj
 0001:00034d5e       __seh_longjmp_unwind4@4    00435d5e f   LIBCMT:exsup4.obj
 0001:00034d7a       @_EH4_CallFilterFunc@8     00435d7a f   LIBCMT:exsup4.obj
 0001:00034d91       @_EH4_TransferToHandler@8  00435d91 f   LIBCMT:exsup4.obj
 0001:00034daa       @_EH4_GlobalUnwind@4       00435daa f   LIBCMT:exsup4.obj
 0001:00034dc4       @_EH4_LocalUnwind@16       00435dc4 f   LIBCMT:exsup4.obj
 0001:00034ddb       __forcdecpt_l              00435ddb f   LIBCMT:cvt.obj
 0001:00034e4e       __cropzeros_l              00435e4e f   LIBCMT:cvt.obj
 0001:00034ed0       __positive                 00435ed0 f   LIBCMT:cvt.obj
 0001:00034eec       __fassign_l                00435eec f   LIBCMT:cvt.obj
 0001:00034f2e       __fassign                  00435f2e f   LIBCMT:cvt.obj
 0001:00034f67       __forcdecpt                00435f67 f   LIBCMT:cvt.obj
 0001:00034f7a       __cropzeros                00435f7a f   LIBCMT:cvt.obj
 0001:000350fc       __cftoe_l                  004360fc f   LIBCMT:cvt.obj
 0001:000351cc       __cftoe                    004361cc f   LIBCMT:cvt.obj
 0001:000351ec       __cftoa_l                  004361ec f   LIBCMT:cvt.obj
 0001:00035656       __cftof_l                  00436656 f   LIBCMT:cvt.obj
 0001:00035711       __cftog_l                  00436711 f   LIBCMT:cvt.obj
 0001:0003580b       __cfltcvt_l                0043680b f   LIBCMT:cvt.obj
 0001:00035893       __cfltcvt                  00436893 f   LIBCMT:cvt.obj
 0001:000358b6       __initp_misc_cfltcvt_tab   004368b6 f   LIBCMT:cmiscdat.obj
 0001:000358d7       __setdefaultprecision      004368d7 f   LIBCMT:fp8.obj
 0001:00035902       __ms_p5_test_fdiv          00436902 f   LIBCMT:_testfdiv_.obj
 0001:00035940       __ms_p5_mp_test_fdiv       00436940 f   LIBCMT:_testfdiv_.obj
 0001:00035b8f       ___updatetmbcinfo          00436b8f f   LIBCMT:mbctype.obj
 0001:00035caf       __setmbcp_nolock           00436caf f   LIBCMT:mbctype.obj
 0001:00035e94       __setmbcp                  00436e94 f   LIBCMT:mbctype.obj
 0001:0003602e       ___initmbctable            0043702e f   LIBCMT:mbctype.obj
 0001:000360a3       __VEC_memzero              004370a3 f   LIBCMT:p4_memset.obj
 0001:00036182       __get_sse2_info            00437182 f   LIBCMT:cpu_disp.obj
 0001:000361e4       ___sse2_available_init     004371e4 f   LIBCMT:cpu_disp.obj
 0001:00036278       __VEC_memcpy               00437278 f   LIBCMT:p4_memcpy.obj
 0001:0003635b       ?__CxxUnhandledExceptionFilter@@YGJPAU_EXCEPTION_POINTERS@@@Z 0043735b f   LIBCMT:unhandld.obj
 0001:0003639d       ___CxxSetUnhandledExceptionFilter 0043739d f   LIBCMT:unhandld.obj
 0001:000363ab       __fpclear                  004373ab f   LIBCMT:_fpinit_.obj
 0001:000363ab       __initp_misc_winxfltr      004373ab f   LIBCMT:winxfltr.obj
 0001:000363ac       __XcptFilter               004373ac f   LIBCMT:winxfltr.obj
 0001:0003650c       __setenvp                  0043750c f   LIBCMT:stdenvp.obj
 0001:00036784       __setargv                  00437784 f   LIBCMT:stdargv.obj
 0001:0003683f       ___crtGetEnvironmentStringsA 0043783f f   LIBCMT:a_env.obj
 0001:00036976       __RTC_Initialize           00437976 f   LIBCMT:_initsect_.obj
 0001:0003699c       __RTC_Terminate            0043799c f   LIBCMT:_initsect_.obj
 0001:000369c2       ___security_init_cookie    004379c2 f   LIBCMT:gs_support.obj
 0001:00036c87       _strtol                    00437c87 f   LIBCMT:strtol.obj
 0001:00036d7c       __input_l                  00437d7c f   LIBCMT:input.obj
 0001:00037d39       __write_nolock             00438d39 f   LIBCMT:write.obj
 0001:0003846c       __write                    0043946c f   LIBCMT:write.obj
 0001:00038548       __getbuf                   00439548 f   LIBCMT:_getbuf.obj
 0001:00038591       __filbuf                   00439591 f   LIBCMT:_filbuf.obj
 0001:000386bc       __ftelli64_nolock          004396bc f   LIBCMT:ftelli64.obj
 0001:00038a08       __ftelli64                 00439a08 f   LIBCMT:ftelli64.obj
 0001:00038a52       __lseek_nolock             00439a52 f   LIBCMT:lseek.obj
 0001:00038ac7       __lseek                    00439ac7 f   LIBCMT:lseek.obj
 0001:00038ba3       __ftell_nolock             00439ba3 f   LIBCMT:ftell.obj
 0001:00038d40       __fseeki64_nolock          00439d40 f   LIBCMT:fseeki64.obj
 0001:00038ddc       __fseeki64                 00439ddc f   LIBCMT:fseeki64.obj
 0001:00038e2b       __commit                   00439e2b f   LIBCMT:commit.obj
 0001:00038f0c       __isleadbyte_l             00439f0c f i LIBCMT:_wctype.obj
 0001:00038f44       _isleadbyte                00439f44 f i LIBCMT:_wctype.obj
 0001:00038f57       __isctype_l                00439f57 f   LIBCMT:isctype.obj
 0001:0003900f       ___initconin               0043a00f f   LIBCMT:initcon.obj
 0001:0003902e       ___initconout              0043a02e f   LIBCMT:initcon.obj
 0001:0003904d       ___termcon                 0043a04d f   LIBCMT:initcon.obj
 0001:00039080       __alloca_probe_16          0043a080 f   LIBCMT:alloca16.obj
 0001:00039096       __alloca_probe_8           0043a096     LIBCMT:alloca16.obj
 0001:000390ac       __spawnvpe                 0043a0ac f   LIBCMT:spawnvpe.obj
 0001:0003939e       __spawnve                  0043a39e f   LIBCMT:spawnve.obj
 0001:000395bf       __getenv_helper_nolock     0043a5bf f   LIBCMT:getenv.obj
 0001:00039646       __dupenv_s                 0043a646 f   LIBCMT:getenv.obj
 0001:0003972c       ___sys_nerr                0043a72c f   LIBCMT:syserr.obj
 0001:00039732       ___sys_errlist             0043a732 f   LIBCMT:syserr.obj
 0001:00039738       __fcloseall                0043a738 f   LIBCMT:closeall.obj
 0001:000397d7       __initp_misc_initcrit      0043a7d7 f   LIBCMT:initcrit.obj
 0001:000397e6       ___crtInitCritSecAndSpinCount 0043a7e6 f   LIBCMT:initcrit.obj
 0001:00039846       __set_daylight             0043a846 f i LIBCMT:tzset.obj
 0001:00039857       __set_dstbias              0043a857 f i LIBCMT:tzset.obj
 0001:00039868       __set_timezone             0043a868 f i LIBCMT:tzset.obj
 0001:00039f8e       ___tzset                   0043af8e f   LIBCMT:tzset.obj
 0001:00039fdd       __isindst                  0043afdd f   LIBCMT:tzset.obj
 0001:0003a01e       __get_daylight             0043b01e f   LIBCMT:timeset.obj
 0001:0003a057       __get_dstbias              0043b057 f   LIBCMT:timeset.obj
 0001:0003a090       __get_timezone             0043b090 f   LIBCMT:timeset.obj
 0001:0003a0c9       ___daylight                0043b0c9 f   LIBCMT:timeset.obj
 0001:0003a0cf       ___dstbias                 0043b0cf f   LIBCMT:timeset.obj
 0001:0003a0d5       ___timezone                0043b0d5 f   LIBCMT:timeset.obj
 0001:0003a0db       ___tzname                  0043b0db f   LIBCMT:timeset.obj
 0001:0003a0f0       __alldiv                   0043b0f0 f   LIBCMT:lldiv.obj
 0001:0003a1a0       __allrem                   0043b1a0 f   LIBCMT:llrem.obj
 0001:0003a252       ___getgmtimebuf            0043b252 f   LIBCMT:gmtime.obj
 0001:0003a289       __wopenfile                0043b289 f   LIBCMT:_wopen.obj
 0001:0003a53d       __initp_misc_winsig        0043b53d f   LIBCMT:winsig.obj
 0001:0003a592       ___get_sigabrt             0043b592 f   LIBCMT:winsig.obj
 0001:0003a59f       _raise                     0043b59f f   LIBCMT:winsig.obj
 0001:0003ab6a       ___free_lc_time            0043bb6a f   LIBCMT:inittime.obj
 0001:0003acff       ___init_time               0043bcff f   LIBCMT:inittime.obj
 0001:0003ad78       ___free_lconv_num          0043bd78 f   LIBCMT:initnum.obj
 0001:0003adbd       ___init_numeric            0043bdbd f   LIBCMT:initnum.obj
 0001:0003af87       ___free_lconv_mon          0043bf87 f   LIBCMT:initmon.obj
 0001:0003b015       ___init_monetary           0043c015 f   LIBCMT:initmon.obj
 0001:0003b2db       _strcat_s                  0043c2db f   LIBCMT:strcat_s.obj
 0001:0003b350       _strcspn                   0043c350 f   LIBCMT:strcspn.obj
 0001:0003b396       _strncpy_s                 0043c396 f   LIBCMT:strncpy_s.obj
 0001:0003ba06       ___get_qualified_locale    0043ca06 f   LIBCMT:getqloc.obj
 0001:0003bbf7       _memcmp                    0043cbf7 f   LIBCMT:memcmp.obj
 0001:0003d431       ___crtGetStringTypeA       0043e431 f   LIBCMT:a_str.obj
 0001:0003d473       _strncmp                   0043e473 f   LIBCMT:strncmp.obj
 0001:0003d540       _strpbrk                   0043e540 f   LIBCMT:strpbrk.obj
 0001:0003d580       ___ansicp                  0043e580 f   LIBCMT:convrtcp.obj
 0001:0003d5c9       ___convertcp               0043e5c9 f   LIBCMT:convrtcp.obj
 0001:0003d77d       __calloc_impl              0043e77d f   LIBCMT:calloc_impl.obj
 0001:0003d89b       _realloc                   0043e89b f   LIBCMT:realloc.obj
 0001:0003dab6       __recalloc                 0043eab6 f   LIBCMT:recalloc.obj
 0001:0003db84       __ismbblead_l              0043eb84 f   LIBCMT:ismbbyte.obj
 0001:0003db9d       __ismbblead                0043eb9d f   LIBCMT:ismbbyte.obj
 0001:0003dbb5       __mbsnbcpy_s               0043ebb5 f   LIBCMT:mbsnbcpy_s.obj
 0001:0003dbe0       __ValidateImageBase        0043ebe0 f   LIBCMT:pesect.obj
 0001:0003dc20       __FindPESection            0043ec20 f   LIBCMT:pesect.obj
 0001:0003dc70       __IsNonwritableInCurrentImage 0043ec70 f   LIBCMT:pesect.obj
 0001:0003dd2d       ?_ValidateExecute@@YAHP6GHXZ@Z 0043ed2d f   LIBCMT:validate.obj
 0001:0003dd2d       ?_ValidateWrite@@YAHPAXI@Z 0043ed2d f   LIBCMT:validate.obj
 0001:0003dd2d       ?_ValidateRead@@YAHPBXI@Z  0043ed2d f   LIBCMT:validate.obj
 0001:0003dd3f       __isatty                   0043ed3f f   LIBCMT:isatty.obj
 0001:0003dda3       __wctomb_s_l               0043eda3 f   LIBCMT:wctomb.obj
 0001:0003df0f       _wctomb_s                  0043ef0f f   LIBCMT:wctomb.obj
 0001:0003df2c       __lseeki64_nolock          0043ef2c f   LIBCMT:lseeki64.obj
 0001:0003dfb1       __lseeki64                 0043efb1 f   LIBCMT:lseeki64.obj
 0001:0003e0ca       __initp_misc_rand_s        0043f0ca f   LIBCMT:rand_s.obj
 0001:0003e0d9       ___crtMessageBoxA          0043f0d9 f   LIBCMT:crtmbox.obj
 0001:0003e242       __set_error_mode           0043f242 f   LIBCMT:errmode.obj
 0001:0003e28d       ___crtGetLocaleInfoW       0043f28d f   LIBCMT:w_loc.obj
 0001:0003e400       ___crtGetLocaleInfoA       0043f400 f   LIBCMT:a_loc.obj
 0001:0003eb5c       __sopen_helper             0043fb5c f   LIBCMT:open.obj
 0001:0003ec28       __sopen_s                  0043fc28 f   LIBCMT:open.obj
 0001:0003ec48       __mbsnbicmp_l              0043fc48 f   LIBCMT:mbsnbicm.obj
 0001:0003ee73       __mbsnbicmp                0043fe73 f   LIBCMT:mbsnbicm.obj
 0001:0003ee8d       __mbsnbcmp_l               0043fe8d f   LIBCMT:mbsnbcmp.obj
 0001:0003eff7       __mbsnbcmp                 0043fff7 f   LIBCMT:mbsnbcmp.obj
 0001:0003f011       __tolower_l                00440011 f   LIBCMT:tolower.obj
 0001:0003f126       _tolower                   00440126 f   LIBCMT:tolower.obj
 0001:0003f152       __atodbl_l                 00440152 f   LIBCMT:atodbl.obj
 0001:0003f1fa       __atoflt_l                 004401fa f   LIBCMT:atodbl.obj
 0001:0003f2a2       __fptostr                  004402a2 f   LIBCMT:_fptostr.obj
 0001:0003f361       ___dtold                   00440361 f   LIBCMT:_cfout_.obj
 0001:0003f41e       __fltout2                  0044041e f   LIBCMT:_cfout_.obj
 0001:0003f4b0       __alldvrm                  004404b0 f   LIBCMT:lldvrm.obj
 0001:0003f590       __aullshr                  00440590 f   LIBCMT:ullshr.obj
 0001:0003f5af       __fptrap                   004405af f   LIBCMT:crt0fp.obj
 0001:0003f5b8       __controlfp_s              004405b8 f   LIBCMT:_contrlfp_.obj
 0001:0003f624       __mbtowc_l                 00440624 f   LIBCMT:mbtowc.obj
 0001:0003f73b       _mbtowc                    0044073b f   LIBCMT:mbtowc.obj
 0001:0003f755       __putwch_nolock            00440755 f   LIBCMT:putwch.obj
 0001:0003f81a       __read_nolock              0044081a f   LIBCMT:read.obj
 0001:0003fddc       __read                     00440ddc f   LIBCMT:read.obj
 0001:0003fed9       __iswctype_l               00440ed9 f   LIBCMT:iswctype.obj
 0001:0003ff63       __getpath                  00440f63 f   LIBCMT:getpath.obj
 0001:0003fff8       __mbsrchr_l                00440ff8 f   LIBCMT:mbsrchr.obj
 0001:000400b4       __mbsrchr                  004410b4 f   LIBCMT:mbsrchr.obj
 0001:000400cb       __mbschr_l                 004410cb f   LIBCMT:mbschr.obj
 0001:00040187       __mbschr                   00441187 f   LIBCMT:mbschr.obj
 0001:0004019e       __dospawn                  0044119e f   LIBCMT:dospawn.obj
 0001:000403ad       __cenvarg                  004413ad f   LIBCMT:cenvarg.obj
 0001:00040786       __mbsnbicoll_l             00441786 f   LIBCMT:mbsnbico.obj
 0001:00040874       __mbsnbicoll               00441874 f   LIBCMT:mbsnbico.obj
 0001:0004088e       ___wtomb_environ           0044188e f   LIBCMT:wtombenv.obj
 0001:00041045       __wsopen_helper            00442045 f   LIBCMT:wopen.obj
 0001:00041111       __wsopen_s                 00442111 f   LIBCMT:wopen.obj
 0001:00041131       __wcsnicmp_l               00442131 f   LIBCMT:wcsnicmp.obj
 0001:0004121b       __wcsnicmp                 0044221b f   LIBCMT:wcsnicmp.obj
 0001:000412c1       _wcsncmp                   004422c1 f   LIBCMT:wcsncmp.obj
 0001:000412f8       ___ascii_stricmp           004422f8 f   LIBCMT:stricmp.obj
 0001:00041331       __stricmp_l                00442331 f   LIBCMT:stricmp.obj
 0001:00041406       _stricmp                   00442406 f   LIBCMT:stricmp.obj
 0001:00041406       __stricmp                  00442406 f   LIBCMT:stricmp.obj
 0001:00041458       __strnicmp_l               00442458 f   LIBCMT:strnicmp.obj
 0001:0004154a       __strnicmp                 0044254a f   LIBCMT:strnicmp.obj
 0001:00041685       __itoa_s                   00442685 f   LIBCMT:xtoas.obj
 0001:000416af       __mbsnbcpy_s_l             004426af f   LIBCMT:mbsnbcpy_s_l.obj
 0001:000418be       __chsize_nolock            004428be f   LIBCMT:chsize.obj
 0001:00041a74       __setmode_nolock           00442a74 f   LIBCMT:setmode.obj
 0001:00041b30       __get_fmode                00442b30 f   LIBCMT:setmode.obj
 0001:00041b69       __ld12tod                  00442b69 f   LIBCMT:_intrncvt_.obj
 0001:000420ad       __ld12tof                  004430ad f   LIBCMT:_intrncvt_.obj
 0001:000425f1       ___strgtold12_l            004435f1 f   LIBCMT:_strgtold_.obj
 0001:00042ce9       _$I10_OUTPUT               00443ce9 f   LIBCMT:_x10fout_.obj
 0001:0004373b       __control87                0044473b f i LIBCMT:_ieee87_.obj
 0001:00043a4a       ___crtGetStringTypeW       00444a4a f   LIBCMT:w_str.obj
 0001:00043aa0       _strchr                    00444aa0 f   LIBCMT:strchr.obj
 0001:00043aa6       ___from_strstr_to_strchr   00444aa6     LIBCMT:strchr.obj
 0001:00043b5e       __mbsnicmp_l               00444b5e f   LIBCMT:mbsnicmp.obj
 0001:00043d26       __mbsnicmp                 00444d26 f   LIBCMT:mbsnicmp.obj
 0001:000440ce       ___crtCompareStringA       004450ce f   LIBCMT:a_cmp.obj
 0001:00044110       __strnicoll_l              00445110 f   LIBCMT:strnicol.obj
 0001:000442b6       ___crtsetenv               004452b6 f   LIBCMT:setenv.obj
 0001:00044501       __towlower_l               00445501 f   LIBCMT:towlower.obj
 0001:000445c0       ___ascii_strnicmp          004455c0 f   LIBCMT:_strnicm.obj
 0001:00044621       ___mtold12                 00445621 f   LIBCMT:_mantold_.obj
 0001:000447ef       ___set_fpsr_sse2           004457ef f   LIBCMT:_fpctrl_.obj
 0001:00044861       __strdup                   00445861 f   LIBCMT:strdup.obj
 0001:000448b6       ___crtLCMapStringW         004458b6 f   LIBCMT:w_map.obj
 0001:0004490e       _RtlUnwind@16              0044590e f   kernel32:KERNEL32.dll
 0002:00000000       __imp__GetPrivateProfileIntA@16 00448000     kernel32:KERNEL32.dll
 0002:00000004       __imp__GetPrivateProfileStringA@24 00448004     kernel32:KERNEL32.dll
 0002:00000008       __imp__GetLocalTime@4      00448008     kernel32:KERNEL32.dll
 0002:0000000c       __imp__SetCurrentDirectoryA@4 0044800c     kernel32:KERNEL32.dll
 0002:00000010       __imp__GetModuleFileNameA@12 00448010     kernel32:KERNEL32.dll
 0002:00000014       __imp__InterlockedIncrement@4 00448014     kernel32:KERNEL32.dll
 0002:00000018       __imp__GetTickCount@0      00448018     kernel32:KERNEL32.dll
 0002:0000001c       __imp__SetEnvironmentVariableA@8 0044801c     kernel32:KERNEL32.dll
 0002:00000020       __imp__CompareStringW@24   00448020     kernel32:KERNEL32.dll
 0002:00000024       __imp__CompareStringA@24   00448024     kernel32:KERNEL32.dll
 0002:00000028       __imp__SetEndOfFile@4      00448028     kernel32:KERNEL32.dll
 0002:0000002c       __imp__CreateFileW@28      0044802c     kernel32:KERNEL32.dll
 0002:00000030       __imp__CreateProcessA@40   00448030     kernel32:KERNEL32.dll
 0002:00000034       __imp__GetExitCodeProcess@8 00448034     kernel32:KERNEL32.dll
 0002:00000038       __imp__WriteConsoleW@20    00448038     kernel32:KERNEL32.dll
 0002:0000003c       __imp__GetConsoleOutputCP@0 0044803c     kernel32:KERNEL32.dll
 0002:00000040       __imp__GetLocaleInfoW@16   00448040     kernel32:KERNEL32.dll
 0002:00000044       __imp__GetStringTypeW@16   00448044     kernel32:KERNEL32.dll
 0002:00000048       __imp__GetStringTypeA@20   00448048     kernel32:KERNEL32.dll
 0002:0000004c       __imp__IsValidLocale@8     0044804c     kernel32:KERNEL32.dll
 0002:00000050       __imp__EnumSystemLocalesA@8 00448050     kernel32:KERNEL32.dll
 0002:00000054       __imp__GetLocaleInfoA@16   00448054     kernel32:KERNEL32.dll
 0002:00000058       __imp__GetUserDefaultLCID@0 00448058     kernel32:KERNEL32.dll
 0002:0000005c       __imp__GetTimeZoneInformation@4 0044805c     kernel32:KERNEL32.dll
 0002:00000060       __imp__CloseHandle@4       00448060     kernel32:KERNEL32.dll
 0002:00000064       __imp__CreateMutexA@12     00448064     kernel32:KERNEL32.dll
 0002:00000068       __imp__OpenMutexA@12       00448068     kernel32:KERNEL32.dll
 0002:0000006c       __imp__QueryPerformanceFrequency@4 0044806c     kernel32:KERNEL32.dll
 0002:00000070       __imp__QueryPerformanceCounter@4 00448070     kernel32:KERNEL32.dll
 0002:00000074       __imp__Sleep@4             00448074     kernel32:KERNEL32.dll
 0002:00000078       __imp__WriteFile@20        00448078     kernel32:KERNEL32.dll
 0002:0000007c       __imp__InitializeCriticalSection@4 0044807c     kernel32:KERNEL32.dll
 0002:00000080       __imp__LeaveCriticalSection@4 00448080     kernel32:KERNEL32.dll
 0002:00000084       __imp__EnterCriticalSection@4 00448084     kernel32:KERNEL32.dll
 0002:00000088       __imp__GetStdHandle@4      00448088     kernel32:KERNEL32.dll
 0002:0000008c       __imp__CreateDirectoryA@8  0044808c     kernel32:KERNEL32.dll
 0002:00000090       __imp__SetConsoleTitleA@4  00448090     kernel32:KERNEL32.dll
 0002:00000094       __imp__WriteConsoleA@20    00448094     kernel32:KERNEL32.dll
 0002:00000098       __imp__FreeConsole@0       00448098     kernel32:KERNEL32.dll
 0002:0000009c       __imp__SetConsoleMode@8    0044809c     kernel32:KERNEL32.dll
 0002:000000a0       __imp__ReadConsoleInputA@16 004480a0     kernel32:KERNEL32.dll
 0002:000000a4       __imp__SetConsoleScreenBufferSize@8 004480a4     kernel32:KERNEL32.dll
 0002:000000a8       __imp__SetConsoleWindowInfo@12 004480a8     kernel32:KERNEL32.dll
 0002:000000ac       __imp__GetConsoleScreenBufferInfo@8 004480ac     kernel32:KERNEL32.dll
 0002:000000b0       __imp__GetConsoleMode@8    004480b0     kernel32:KERNEL32.dll
 0002:000000b4       __imp__AllocConsole@0      004480b4     kernel32:KERNEL32.dll
 0002:000000b8       __imp__CreateFileA@28      004480b8     kernel32:KERNEL32.dll
 0002:000000bc       __imp__FlushFileBuffers@4  004480bc     kernel32:KERNEL32.dll
 0002:000000c0       __imp__HeapAlloc@12        004480c0     kernel32:KERNEL32.dll
 0002:000000c4       __imp__GetProcessHeap@0    004480c4     kernel32:KERNEL32.dll
 0002:000000c8       __imp__IsBadReadPtr@8      004480c8     kernel32:KERNEL32.dll
 0002:000000cc       __imp__HeapFree@12         004480cc     kernel32:KERNEL32.dll
 0002:000000d0       __imp__GetCurrentThreadId@0 004480d0     kernel32:KERNEL32.dll
 0002:000000d4       __imp__InterlockedDecrement@4 004480d4     kernel32:KERNEL32.dll
 0002:000000d8       __imp__InterlockedExchange@8 004480d8     kernel32:KERNEL32.dll
 0002:000000dc       __imp__DeleteCriticalSection@4 004480dc     kernel32:KERNEL32.dll
 0002:000000e0       __imp__LocalFree@4         004480e0     kernel32:KERNEL32.dll
 0002:000000e4       __imp__FormatMessageA@28   004480e4     kernel32:KERNEL32.dll
 0002:000000e8       __imp__ReadFile@20         004480e8     kernel32:KERNEL32.dll
 0002:000000ec       __imp__SetUnhandledExceptionFilter@4 004480ec     kernel32:KERNEL32.dll
 0002:000000f0       __imp__GetLastError@0      004480f0     kernel32:KERNEL32.dll
 0002:000000f4       __imp__GetCurrentThread@0  004480f4     kernel32:KERNEL32.dll
 0002:000000f8       __imp__GetCurrentProcess@0 004480f8     kernel32:KERNEL32.dll
 0002:000000fc       __imp__GetCurrentProcessId@0 004480fc     kernel32:KERNEL32.dll
 0002:00000100       __imp__GetProcAddress@8    00448100     kernel32:KERNEL32.dll
 0002:00000104       __imp__LoadLibraryA@4      00448104     kernel32:KERNEL32.dll
 0002:00000108       __imp__WaitForSingleObject@8 00448108     kernel32:KERNEL32.dll
 0002:0000010c       __imp__PostQueuedCompletionStatus@16 0044810c     kernel32:KERNEL32.dll
 0002:00000110       __imp__InterlockedCompareExchange@12 00448110     kernel32:KERNEL32.dll
 0002:00000114       __imp__CreateIoCompletionPort@16 00448114     kernel32:KERNEL32.dll
 0002:00000118       __imp__WaitForMultipleObjects@16 00448118     kernel32:KERNEL32.dll
 0002:0000011c       __imp__SuspendThread@4     0044811c     kernel32:KERNEL32.dll
 0002:00000120       __imp__ResumeThread@4      00448120     kernel32:KERNEL32.dll
 0002:00000124       __imp__CreateEventA@16     00448124     kernel32:KERNEL32.dll
 0002:00000128       __imp__SetEvent@4          00448128     kernel32:KERNEL32.dll
 0002:0000012c       __imp__InitializeCriticalSectionAndSpinCount@8 0044812c     kernel32:KERNEL32.dll
 0002:00000130       __imp__GetQueuedCompletionStatus@20 00448130     kernel32:KERNEL32.dll
 0002:00000134       __imp__RtlUnwind@16        00448134     kernel32:KERNEL32.dll
 0002:00000138       __imp__TerminateProcess@8  00448138     kernel32:KERNEL32.dll
 0002:0000013c       __imp__UnhandledExceptionFilter@4 0044813c     kernel32:KERNEL32.dll
 0002:00000140       __imp__IsDebuggerPresent@0 00448140     kernel32:KERNEL32.dll
 0002:00000144       __imp__RaiseException@16   00448144     kernel32:KERNEL32.dll
 0002:00000148       __imp__GetCommandLineA@0   00448148     kernel32:KERNEL32.dll
 0002:0000014c       __imp__GetSystemTimeAsFileTime@4 0044814c     kernel32:KERNEL32.dll
 0002:00000150       __imp__PeekConsoleInputA@16 00448150     kernel32:KERNEL32.dll
 0002:00000154       __imp__GetNumberOfConsoleInputEvents@8 00448154     kernel32:KERNEL32.dll
 0002:00000158       __imp__GetFileAttributesA@4 00448158     kernel32:KERNEL32.dll
 0002:0000015c       __imp__SetStdHandle@8      0044815c     kernel32:KERNEL32.dll
 0002:00000160       __imp__GetFileType@4       00448160     kernel32:KERNEL32.dll
 0002:00000164       __imp__MultiByteToWideChar@24 00448164     kernel32:KERNEL32.dll
 0002:00000168       __imp__LCMapStringA@24     00448168     kernel32:KERNEL32.dll
 0002:0000016c       __imp__WideCharToMultiByte@32 0044816c     kernel32:KERNEL32.dll
 0002:00000170       __imp__LCMapStringW@24     00448170     kernel32:KERNEL32.dll
 0002:00000174       __imp__GetCPInfo@8         00448174     kernel32:KERNEL32.dll
 0002:00000178       __imp__ExitThread@4        00448178     kernel32:KERNEL32.dll
 0002:0000017c       __imp__CreateThread@24     0044817c     kernel32:KERNEL32.dll
 0002:00000180       __imp__GetModuleHandleW@4  00448180     kernel32:KERNEL32.dll
 0002:00000184       __imp__TlsGetValue@4       00448184     kernel32:KERNEL32.dll
 0002:00000188       __imp__TlsAlloc@0          00448188     kernel32:KERNEL32.dll
 0002:0000018c       __imp__TlsSetValue@8       0044818c     kernel32:KERNEL32.dll
 0002:00000190       __imp__TlsFree@4           00448190     kernel32:KERNEL32.dll
 0002:00000194       __imp__SetLastError@4      00448194     kernel32:KERNEL32.dll
 0002:00000198       __imp__HeapSize@12         00448198     kernel32:KERNEL32.dll
 0002:0000019c       __imp__ExitProcess@4       0044819c     kernel32:KERNEL32.dll
 0002:000001a0       __imp__VirtualFree@12      004481a0     kernel32:KERNEL32.dll
 0002:000001a4       __imp__VirtualAlloc@16     004481a4     kernel32:KERNEL32.dll
 0002:000001a8       __imp__HeapReAlloc@16      004481a8     kernel32:KERNEL32.dll
 0002:000001ac       __imp__HeapCreate@12       004481ac     kernel32:KERNEL32.dll
 0002:000001b0       __imp__SetHandleCount@4    004481b0     kernel32:KERNEL32.dll
 0002:000001b4       __imp__GetStartupInfoA@4   004481b4     kernel32:KERNEL32.dll
 0002:000001b8       __imp__GetModuleHandleA@4  004481b8     kernel32:KERNEL32.dll
 0002:000001bc       __imp__GetACP@0            004481bc     kernel32:KERNEL32.dll
 0002:000001c0       __imp__GetOEMCP@0          004481c0     kernel32:KERNEL32.dll
 0002:000001c4       __imp__IsValidCodePage@4   004481c4     kernel32:KERNEL32.dll
 0002:000001c8       __imp__FreeEnvironmentStringsA@4 004481c8     kernel32:KERNEL32.dll
 0002:000001cc       __imp__GetEnvironmentStrings@0 004481cc     kernel32:KERNEL32.dll
 0002:000001d0       __imp__FreeEnvironmentStringsW@4 004481d0     kernel32:KERNEL32.dll
 0002:000001d4       __imp__GetEnvironmentStringsW@0 004481d4     kernel32:KERNEL32.dll
 0002:000001d8       __imp__GetConsoleCP@0      004481d8     kernel32:KERNEL32.dll
 0002:000001dc       __imp__SetFilePointer@16   004481dc     kernel32:KERNEL32.dll
 0002:000001e0       \177KERNEL32_NULL_THUNK_DATA 004481e0     kernel32:KERNEL32.dll
 0002:000001e4       __imp_??1SolarLog@@QAE@XZ  004481e4     SolarLog:SolarLog.dll
 0002:000001e8       __imp_?Create@SolarLog@@QAEHPAD0@Z 004481e8     SolarLog:SolarLog.dll
 0002:000001ec       __imp_??0SolarLog@@QAE@XZ  004481ec     SolarLog:SolarLog.dll
 0002:000001f0       __imp_?LOG@SolarLog@@QAEHPAEK@Z 004481f0     SolarLog:SolarLog.dll
 0002:000001f4       \177SolarLog_NULL_THUNK_DATA 004481f4     SolarLog:SolarLog.dll
 0002:000001f8       __imp__WSASend@28          004481f8     ws2_32:WS2_32.dll
 0002:000001fc       __imp__send@16             004481fc     ws2_32:WS2_32.dll
 0002:00000200       __imp__closesocket@4       00448200     ws2_32:WS2_32.dll
 0002:00000204       __imp__WSASocketA@24       00448204     ws2_32:WS2_32.dll
 0002:00000208       __imp__setsockopt@20       00448208     ws2_32:WS2_32.dll
 0002:0000020c       __imp__WSARecv@28          0044820c     ws2_32:WS2_32.dll
 0002:00000210       __imp__recv@16             00448210     ws2_32:WS2_32.dll
 0002:00000214       __imp__WSAGetLastError@0   00448214     ws2_32:WS2_32.dll
 0002:00000218       __imp__htonl@4             00448218     ws2_32:WS2_32.dll
 0002:0000021c       __imp__WSAStartup@8        0044821c     ws2_32:WS2_32.dll
 0002:00000220       __imp__WSACleanup@0        00448220     ws2_32:WS2_32.dll
 0002:00000224       __imp__inet_addr@4         00448224     ws2_32:WS2_32.dll
 0002:00000228       __imp__inet_ntoa@4         00448228     ws2_32:WS2_32.dll
 0002:0000022c       __imp__ntohl@4             0044822c     ws2_32:WS2_32.dll
 0002:00000230       __imp__socket@12           00448230     ws2_32:WS2_32.dll
 0002:00000234       __imp__bind@12             00448234     ws2_32:WS2_32.dll
 0002:00000238       __imp__listen@8            00448238     ws2_32:WS2_32.dll
 0002:0000023c       __imp__gethostname@8       0044823c     ws2_32:WS2_32.dll
 0002:00000240       __imp__connect@12          00448240     ws2_32:WS2_32.dll
 0002:00000244       __imp__gethostbyname@4     00448244     ws2_32:WS2_32.dll
 0002:00000248       __imp__htons@4             00448248     ws2_32:WS2_32.dll
 0002:0000024c       __imp__WSAIoctl@36         0044824c     ws2_32:WS2_32.dll
 0002:00000250       \177WS2_32_NULL_THUNK_DATA 00448250     ws2_32:WS2_32.dll
 0002:00000254       __imp__SymCleanup@4        00448254     dbghelp:dbghelp.dll
 0002:00000258       __imp__SymGetLineFromAddr64@20 00448258     dbghelp:dbghelp.dll
 0002:0000025c       __imp__SymFromAddr@20      0044825c     dbghelp:dbghelp.dll
 0002:00000260       __imp__StackWalk@36        00448260     dbghelp:dbghelp.dll
 0002:00000264       __imp__SymFunctionTableAccess@8 00448264     dbghelp:dbghelp.dll
 0002:00000268       __imp__SymGetModuleBase@8  00448268     dbghelp:dbghelp.dll
 0002:0000026c       __imp__SymInitialize@12    0044826c     dbghelp:dbghelp.dll
 0002:00000270       __imp__SymSetOptions@4     00448270     dbghelp:dbghelp.dll
 0002:00000274       \177dbghelp_NULL_THUNK_DATA 00448274     dbghelp:dbghelp.dll
 0002:00000278       __imp__CoInitializeEx@8    00448278     ole32:ole32.dll
 0002:0000027c       __imp__CoUninitialize@0    0044827c     ole32:ole32.dll
 0002:00000280       \177ole32_NULL_THUNK_DATA  00448280     ole32:ole32.dll
 0002:00000284       ___xc_a                    00448284     LIBCMT:crt0init.obj
 0002:0000040c       ___xc_z                    0044840c     LIBCMT:crt0init.obj
 0002:00000410       ___xi_a                    00448410     LIBCMT:crt0init.obj
 0002:00000428       ___xi_z                    00448428     LIBCMT:crt0init.obj
 0002:0000042c       ___xp_a                    0044842c     LIBCMT:crt0init.obj
 0002:00000438       ___xp_z                    00448438     LIBCMT:crt0init.obj
 0002:0000043c       ___xt_a                    0044843c     LIBCMT:crt0init.obj
 0002:00000440       ___xt_z                    00448440     LIBCMT:crt0init.obj
 0002:0000046c       ??_C@_0P@GHFPNOJB@bad?5allocation?$AA@ 0044846c     LoginFrontFrame.obj
 0002:0000047c       ?min_alloc_size@?$pool@Udefault_user_allocator_new_delete@boost@@@boost@@0IB 0044847c     LoginFrontFrame.obj
 0002:0000067c       ??_7LoginFrontFrame@@6B@   0044867c     LoginFrontFrame.obj
 0002:000006a0       ??_C@_08JBMPEBFK@FRONT_ID?$AA@ 004486a0     LoginFrontFrame.obj
 0002:000006ac       ??_C@_0L@MLKEEIPA@ATTRIBUTES?$AA@ 004486ac     LoginFrontFrame.obj
 0002:000006b8       ??_C@_0L@IIIEBPD@LOGIN_TICK?$AA@ 004486b8     LoginFrontFrame.obj
 0002:000006c4       ??_C@_0BI@NIDALFOJ@?5Create?5SunLog?5Failed?4?4?$AA@ 004486c4     LoginFrontFrame.obj
 0002:000006dc       ??_C@_0O@LOPEPNOE@ClientSession?$AA@ 004486dc     LoginFrontFrame.obj
 0002:000006ec       ??_C@_0BC@GLDCIGCL@AuthServerSession?$AA@ 004486ec     LoginFrontFrame.obj
 0002:00000700       ??_C@_0CB@EMNJGPHC@?$CB?$CC?A?$LI?$MA?g?G?O?A?v?5?$LO?J?$LE?B?5?$LM?$KN?$LJ?v?E?$LI?$MA?T?$MA?T?$LE?O?$LE?Y?4?$CC@ 00448700     LoginFrontFrame.obj
 0002:00000724       ??_C@_0BG@NFACBHFA@?4?2LoginFrontFrame?4cpp?$AA@ 00448724     LoginFrontFrame.obj
 0002:0000073c       ??_C@_0BO@KNDKBDGG@?A?$LI?$MA?g?G?O?A?v?5?$LO?J?$LE?B?5?$LM?$KN?$LJ?v?E?$LI?$MA?T?$MA?T?$LE?O?$LE?Y?4?$AA@ 0044873c     LoginFrontFrame.obj
 0002:0000075c       ??_C@_0CB@FHPNAKMF@?$CB?$CC?$LM?$KN?$LJ?v?E?$LI?$MA?T?$MA?L?5?A?$LI?$MA?g?G?O?A?v?5?$LO?J?$LN?$MA?$LE?O?$LE?Y?4?$CC@ 0044875c     LoginFrontFrame.obj
 0002:00000780       ??_C@_0BO@IIPKNPDD@?$LM?$KN?$LJ?v?E?$LI?$MA?T?$MA?L?5?A?$LI?$MA?g?G?O?A?v?5?$LO?J?$LN?$MA?$LE?O?$LE?Y?4?$AA@ 00448780     LoginFrontFrame.obj
 0002:000007a0       ??_C@_0BB@JMBEONBM@GameVersion?5?3?5?$CFs?$AA@ 004487a0     LoginFrontFrame.obj
 0002:000007b4       ??_C@_0L@CMNGKJNA@?$FL?$CFd?4?$CFd?4?$CFd?$FN?$AA@ 004487b4     LoginFrontFrame.obj
 0002:000007c0       ??_C@_05OMKCEFIL@Minor?$AA@ 004487c0     LoginFrontFrame.obj
 0002:000007c8       ??_C@_05FDLAJJBN@Major?$AA@ 004487c8     LoginFrontFrame.obj
 0002:000007d0       ??_C@_08MCKKOKAP@Launcher?$AA@ 004487d0     LoginFrontFrame.obj
 0002:000007dc       ??_C@_0M@BDHLCANP@?$FL?$CFd?4?$CFd?4?$CFd?$FN?5?$AA@ 004487dc     LoginFrontFrame.obj
 0002:000007e8       ??_C@_08NAKOFPNG@Protocol?$AA@ 004487e8     LoginFrontFrame.obj
 0002:000007f4       ??_C@_0BF@MHGEBKHM@?$CB?$CC?A?$NP?$LK?$LJ?5Connect?5?$LN?C?$LF?$LF?$CC?$AA@ 004487f4     LoginFrontFrame.obj
 0002:0000080c       ??_C@_0BC@CDLHMGPH@?A?$NP?$LK?$LJ?5Connect?5?$LN?C?$LF?$LF?$AA@ 0044880c     LoginFrontFrame.obj
 0002:00000820       ??_C@_0L@HEKFBNNA@LoginFront?$AA@ 00448820     LoginFrontFrame.obj
 0002:0000082c       ??_C@_0BB@GNNLOKPE@SUN_LOGFILE_PATH?$AA@ 0044882c     LoginFrontFrame.obj
 0002:0000083d       ??_C@_00CNPNBAHC@?$AA@     0044883d     LoginFrontFrame.obj
 0002:00000840       ??_C@_0BC@MFDENCBO@SUN_LOGFILE_LEVEL?$AA@ 00448840     LoginFrontFrame.obj
 0002:00000854       ??_C@_07IBNALNMK@LOGFILE?$AA@ 00448854     LoginFrontFrame.obj
 0002:0000085c       ??_C@_0BD@MEJDLAAO@SUN_LOGFILE_OPTION?$AA@ 0044885c     LoginFrontFrame.obj
 0002:00000874       ??_7?$CMemoryPoolFactory@VClientSession@@@util@@6B@ 00448874     LoginFrontFrame.obj
 0002:0000088c       ??_7?$CMemoryPoolFactory@VAuthServerSession@@@util@@6B@ 0044888c     LoginFrontFrame.obj
 0002:000008a4       ??_7IVMemoryPool@util@@6B@ 004488a4     LoginFrontFrame.obj
 0002:000008bc       ??_7?$NotUseChunkImpl@VClientSession@@@internal@util@@6B@ 004488bc     LoginFrontFrame.obj
 0002:000008e8       ??_7?$VariableSizeChunkImpl@VClientSession@@@internal@util@@6B@ 004488e8     LoginFrontFrame.obj
 0002:00000914       ??_7?$FixedSizeChunkImpl@VClientSession@@@internal@util@@6B@ 00448914     LoginFrontFrame.obj
 0002:00000940       ??_7?$NotUseChunkImpl@VAuthServerSession@@@internal@util@@6B@ 00448940     LoginFrontFrame.obj
 0002:0000096c       ??_7?$VariableSizeChunkImpl@VAuthServerSession@@@internal@util@@6B@ 0044896c     LoginFrontFrame.obj
 0002:00000998       ??_7?$FixedSizeChunkImpl@VAuthServerSession@@@internal@util@@6B@ 00448998     LoginFrontFrame.obj
 0002:000009c4       ??_7IMemoryPoolFactoryImpl@internal@util@@6B@ 004489c4     LoginFrontFrame.obj
 0002:000009ec       ?npos@?$basic_string@DU?$char_traits@D@std@@V?$allocator@D@2@@std@@2IB 004489ec     LoginFrontFrame.obj
 0002:000009f4       ??_7bad_alloc@std@@6B@     004489f4     LoginFrontFrame.obj
 0002:00000bf8       ??_C@_0N@MAJGAMNL@Crash?5Report?$AA@ 00448bf8     main.obj
 0002:00000c08       ??_C@_0BD@CGHJEMHO@poong?$EAwebzen?4co?4kr?$AA@ 00448c08     main.obj
 0002:00000c1c       ??_C@_0BK@OLFLLJAI@CrashHandler?$EAwebzen?4co?4kr?$AA@ 00448c1c     main.obj
 0002:00000c38       ??_C@_0BC@MDBPPMFN@mail?4webzen?4co?4kr?$AA@ 00448c38     main.obj
 0002:00000c4c       ??_C@_0BI@EEEILDKE@Dump?5file?5path?5?3?5?$CFs?$AN?6?$AN?6?$AA@ 00448c4c     main.obj
 0002:00000c64       ??_C@_01NOFIACDB@w?$AA@    00448c64     main.obj
 0002:00000c68       ??_C@_0CI@PMIEIAOC@?$CFs_CrashLog_?$CFd?$CF02d?$CF02d_?$CF02d?$CF02d?$CF@ 00448c68     main.obj
 0002:00000c90       ??_C@_0BF@BENMOGJL@?$CFs_?$CFd?$CFd?$CFd_?$CFd?$CFd?$CFd?4dmp?$AA@ 00448c90     main.obj
 0002:00000ca8       ??_C@_0BB@LEJECHKG@Error?5?$DN?5?$CFd?0?5?5?$CFs?6?$AA@ 00448ca8     main.obj
 0002:00000cbc       ??_C@_0BB@JAHFEPGK@?4?1LoginFront?4ini?$AA@ 00448cbc     main.obj
 0002:00000cd0       ??_C@_0BO@GBFGBFPK@Already?5same?5server?5running?4?6?$AA@ 00448cd0     main.obj
 0002:000012d8       ??_C@_0BJ@FJNPGJAA@IPType?$FL?$CFd?$FN?5?$CFs?5?$CL?5Count?5?$CFd?$AA@ 004492d8     ClientManager.obj
 0002:000012f4       __real@40800000            004492f4     ClientManager.obj
 0002:000012f8       ??_C@_0BE@JONHPENG@map?1set?$DMT?$DO?5too?5long?$AA@ 004492f8     ClientManager.obj
 0002:00001310       ??_7length_error@std@@6B@  00449310     ClientManager.obj
 0002:0000131c       ??_7logic_error@std@@6B@   0044931c     ClientManager.obj
 0002:00001324       ??_C@_0BM@PAPJHAGI@invalid?5map?1set?$DMT?$DO?5iterator?$AA@ 00449324     ClientManager.obj
 0002:00001344       ??_7out_of_range@std@@6B@  00449344     ClientManager.obj
 0002:0000134c       ??_C@_0BB@MOGOBHAF@list?$DMT?$DO?5too?5long?$AA@ 0044934c     ClientManager.obj
 0002:00001360       ??_C@_0BD@OLBABOEK@vector?$DMT?$DO?5too?5long?$AA@ 00449360     ClientManager.obj
 0002:00001574       ??_7AuthServerSession@@6B@ 00449574     AuthServerSession.obj
 0002:000015b8       ??_C@_0EG@LMDFDDMM@?$FLAuthServerSession?$FN?5Invalid?5Pack@ 004495b8     AuthServerSession.obj
 0002:00001600       ??_C@_0CJ@GOEKPOOI@?$FLOnS2SControlIpList?$FN?5Control?5IP?5@ 00449600     AuthServerSession.obj
 0002:0000162c       ??_C@_0CM@GPJFJBEN@?$FLOnS2SControlIpList?$FN?5type?$FL?$CFd?$FN?5?$CFs@ 0044962c     AuthServerSession.obj
 0002:00001658       ??_C@_0DM@MKKIHJON@?$FLOnSF_AUTH_CLIENT_DISCONNECT_CMD@ 00449658     AuthServerSession.obj
 0002:00001698       ??_C@_0FH@LOJIEEHA@?$FLOnSF_AUTH_SERVER_SELECT_ACK?$FN?5Su@ 00449698     AuthServerSession.obj
 0002:000018ec       ??_7ClientSession@@6B@     004498ec     ClientSession.obj
 0002:00001930       ??_C@_0EI@NCNFEODL@?$FLClientSession?3?3Update?$CI?$CJ?$FN?5No?5mor@ 00449930     ClientSession.obj
 0002:00001978       ??_C@_0CM@HEKIKNAI@?$FLClientSession?3?3OnAccept?$FN?5IP?$FL?$CFs?$FN@ 00449978     ClientSession.obj
 0002:000019a4       ??_C@_0DE@PKEEKBKP@?$FLClientSession?3?3OnAccept?$FN?5Duplic@ 004499a4     ClientSession.obj
 0002:000019d8       ??_C@_0ED@EMMHALHH@?$FLClientSession?$FN?5Invalid?5Packet?$CB?5@ 004499d8     ClientSession.obj
 0002:00001a20       ??_C@_0GA@OIMNGDMB@?$FLClientSession?3?3OnCF_AUTH_VERIFY@ 00449a20     ClientSession.obj
 0002:00001a84       ??_7AuthStepAuthTokenInLoginFront@@6B@ 00449a84     ClientSession.obj
 0002:00001a94       ??_7AuthStepAuthToken@@6B@ 00449a94     ClientSession.obj
 0002:00001aa4       ??_7CSAuthFlow@nsPacket@@6B@ 00449aa4     ClientSession.obj
 0002:00001aac       ??_C@_0CL@GPFBKLLE@?$FLLoadGroupData?$FN?5GroupID?$FL?$CFd?$FN?5Alre@ 00449aac     authcommon:ServerDataManager.obj
 0002:00001ad8       ??_C@_04FABLJDN@Name?$AA@  00449ad8     authcommon:ServerDataManager.obj
 0002:00001ae0       ??_C@_09EBEAPHNM@ReceptAge?$AA@ 00449ae0     authcommon:ServerDataManager.obj
 0002:00001aec       ??_C@_07IKIDGEIC@GroupID?$AA@ 00449aec     authcommon:ServerDataManager.obj
 0002:00001af4       ??_C@_0CM@GLHPKPJC@?$FLLoadGroupData?$FN?5Group?5Info?5Overf@ 00449af4     authcommon:ServerDataManager.obj
 0002:00001b20       ??_C@_0O@DBODJFIF@GroupList?4csv?$AA@ 00449b20     authcommon:ServerDataManager.obj
 0002:00001b30       ??_C@_0DK@IPFFGBH@?$FLLoadServerData?$FN?5GroupID?$FL?$CFu?$FN?5Cha@ 00449b30     authcommon:ServerDataManager.obj
 0002:00001b6c       ??_C@_09DNNKNCMJ@PrivateIP?$AA@ 00449b6c     authcommon:ServerDataManager.obj
 0002:00001b78       ??_C@_08JEEKABPE@PublicIP?$AA@ 00449b78     authcommon:ServerDataManager.obj
 0002:00001b84       ??_C@_0O@JDBAPBFP@GameAgentPort?$AA@ 00449b84     authcommon:ServerDataManager.obj
 0002:00001b94       ??_C@_09LHEBCHMI@ReceptCnt?$AA@ 00449b94     authcommon:ServerDataManager.obj
 0002:00001ba0       ??_C@_0DJ@IPOLGFCD@?$FLLoadServerData?$FN?5GroupID?$FL?$CFu?$FN?5Cha@ 00449ba0     authcommon:ServerDataManager.obj
 0002:00001bdc       ??_C@_09LAAJHNOJ@ChannelID?$AA@ 00449bdc     authcommon:ServerDataManager.obj
 0002:00001be8       ??_C@_0CO@IANIDEEF@?$FLLoadServerData?$FN?5Server?5Info?5Ove@ 00449be8     authcommon:ServerDataManager.obj
 0002:00001c18       ??_C@_0P@LPNHBOAA@ServerList?4csv?$AA@ 00449c18     authcommon:ServerDataManager.obj
 0002:00001c28       ??_C@_0BM@GEGOEFGB@?$CFd?5?5?5?$CFs?5?5?5?$CFs?5?5?5?$CFs?7?$CFs?5?5?5?$CFd?5?6?$AA@ 00449c28     authcommon:ServerDataManager.obj
 0002:00001c48       ??_C@_0FD@IMKHJKMF@?$FLGAMEAGENTID?$FN?5?$FLGROUP?$FN?5?$FLCHANNEL?$FN?5@ 00449c48     authcommon:ServerDataManager.obj
 0002:00001c9c       ??_C@_0DE@MKMBBCBB@?$FLSetDynamicServerListInfo?$FN?5pServ@ 00449c9c     authcommon:ServerDataManager.obj
 0002:00001cd0       ?AuthTokenStreamTimeout@AuthStepAuthToken@@2QB_WB 00449cd0     authcommon:AuthStepAuthToken.obj
 0002:00001d20       ?AuthTokenStreamNull@AuthStepAuthToken@@2QB_WB 00449d20     authcommon:AuthStepAuthToken.obj
 0002:00001d6c       ?ReAuthTokenStreamMatchingTable@AuthStepAuthToken@@2QBDB 00449d6c     authcommon:AuthStepAuthToken.obj
 0002:00001d7c       ??_C@_02EMFKHFLK@?$CFX?$AA@ 00449d7c     authcommon:AuthStepAuthToken.obj
 0002:00001d84       ??_7Csvlib@@6B@            00449d84     authcommon:csvlib.obj
 0002:00001d8c       ??_7?$basic_ifstream@DU?$char_traits@D@std@@@std@@6B@ 00449d8c     authcommon:csvlib.obj
 0002:00001d90       ??_8?$basic_ifstream@DU?$char_traits@D@std@@@std@@7B@ 00449d90     authcommon:csvlib.obj
 0002:00001d9c       ??_7?$basic_filebuf@DU?$char_traits@D@std@@@std@@6B@ 00449d9c     authcommon:csvlib.obj
 0002:00001dd8       ??_7?$basic_ios@DU?$char_traits@D@std@@@std@@6B@ 00449dd8     authcommon:csvlib.obj
 0002:00001de0       ??_7?$basic_istream@DU?$char_traits@D@std@@@std@@6B@ 00449de0     authcommon:csvlib.obj
 0002:00001de4       ??_8?$basic_istream@DU?$char_traits@D@std@@@std@@7B@ 00449de4     authcommon:csvlib.obj
 0002:00001df0       ??_7?$basic_streambuf@DU?$char_traits@D@std@@@std@@6B@ 00449df0     authcommon:csvlib.obj
 0002:00001e28       ??_C@_08EPJLHIJG@bad?5cast?$AA@ 00449e28     authcommon:csvlib.obj
 0002:00001e38       ??_7?$codecvt@DDH@std@@6B@ 00449e38     authcommon:csvlib.obj
 0002:00001e5c       ??_7codecvt_base@std@@6B@  00449e5c     authcommon:csvlib.obj
 0002:00001e70       ??_7facet@locale@std@@6B@  00449e70     authcommon:csvlib.obj
 0002:00001e78       ??_7ios_base@std@@6B@      00449e78     authcommon:csvlib.obj
 0002:00001e7c       ??_C@_0BF@OOHOMBOF@ios_base?3?3eofbit?5set?$AA@ 00449e7c     authcommon:csvlib.obj
 0002:00001e94       ??_C@_0BG@FMKFHCIL@ios_base?3?3failbit?5set?$AA@ 00449e94     authcommon:csvlib.obj
 0002:00001eac       ??_C@_0BF@PHHKMMFD@ios_base?3?3badbit?5set?$AA@ 00449eac     authcommon:csvlib.obj
 0002:00001ec8       ??_7runtime_error@std@@6B@ 00449ec8     authcommon:csvlib.obj
 0002:00001ed4       ??_7failure@ios_base@std@@6B@ 00449ed4     authcommon:csvlib.obj
 0002:00001edc       ?_Stz@?$fpos@H@std@@0HB    00449edc     authcommon:csvlib.obj
 0002:00001ee4       ??_7?$ctype@D@std@@6B@     00449ee4     authcommon:csvlib.obj
 0002:00001f14       ??_7ctype_base@std@@6B@    00449f14     authcommon:csvlib.obj
 0002:00002110       ??_C@_09JOJMEOME@SUCCESS?$CB?6?$AA@ 0044a110     servercommon:ServerFrame.obj
 0002:0000211c       ??_C@_08LPEFHFBM@FAILED?$CB?6?$AA@ 0044a11c     servercommon:ServerFrame.obj
 0002:00002128       ??_C@_0CD@EMAPKKEP@?$FLListen?$FN?5Starting?5listen?$CI?$CFs?3?$CFd?$CJ?4@ 0044a128     servercommon:ServerFrame.obj
 0002:0000214c       ??_C@_0CA@LNPDLONP@?$FLWarning?$CB?$CB?$CB?5Frame?5Rate?5Low?$FL?$CFd?$FN?6?$AA@ 0044a14c     servercommon:ServerFrame.obj
 0002:0000216c       ??_C@_0DO@EKICPBDN@?$DN?$DN?$DN?$DN?$DN?$DN?$DN?$DN?$DN?$DN?$DN?$DN?$DN?$DN?$DN?$DN?$DN?$DN?$DN?$DN?$DN?$DN?$DN?$DN?$DN?$DN?$DN?$DN?$DN?$DN?$DN?$DN@ 0044a16c     servercommon:ServerFrame.obj
 0002:000021ac       ??_C@_0BF@HJOBFOF@NUMBER_OF_IO_THREADS?$AA@ 0044a1ac     servercommon:ServerFrame.obj
 0002:000021c4       ??_C@_0BK@OOEKLBCM@NUMBER_OF_CONNECT_THREADS?$AA@ 0044a1c4     servercommon:ServerFrame.obj
 0002:000021e0       ??_C@_0BJ@JLEKNJOM@NUMBER_OF_ACCEPT_THREADS?$AA@ 0044a1e0     servercommon:ServerFrame.obj
 0002:000021fc       ??_C@_08LHEHMJPB@TIME_OUT?$AA@ 0044a1fc     servercommon:ServerFrame.obj
 0002:00002208       ??_C@_0BA@EBJKCDKM@MAX_PACKET_SIZE?$AA@ 0044a208     servercommon:ServerFrame.obj
 0002:00002218       ??_C@_0BB@GAFBFDFH@RECV_BUFFER_SIZE?$AA@ 0044a218     servercommon:ServerFrame.obj
 0002:0000222c       ??_C@_0BB@JMCFBCNJ@SEND_BUFFER_SIZE?$AA@ 0044a22c     servercommon:ServerFrame.obj
 0002:00002240       ??_C@_0BE@IDGCOPPA@MAX_CONNECT_SESSION?$AA@ 0044a240     servercommon:ServerFrame.obj
 0002:00002254       ??_C@_0BD@KIFJHELM@MAX_ACCEPT_SESSION?$AA@ 0044a254     servercommon:ServerFrame.obj
 0002:00002268       ??_C@_0CL@BHBLBHDN@AssertionMessage?3?5?$CFs?5?$FLfile?3?5?$CFs?5?3@ 0044a268     servercommon:ServerFrame.obj
 0002:00002298       ??_C@_0GF@GHBDHHJB@?$FLMemory?5Report?$FN?$HMRelease?5resource@ 0044a298     servercommon:ServerFrame.obj
 0002:00002300       __real@4f800000            0044a300     servercommon:ServerFrame.obj
 0002:00002304       ??_C@_0BM@FDKOEACE@?$CBpNetObject?9?$DOIsConnecting?$CI?$CJ?$AA@ 0044a304     servercommon:ServerFrame.obj
 0002:00002320       ??_C@_0O@LLAJJOCK@m_pIOCPServer?$AA@ 0044a320     servercommon:ServerFrame.obj
 0002:00002330       ??_C@_0L@PNAAHKOF@pNetObject?$AA@ 0044a330     servercommon:ServerFrame.obj
 0002:0000233c       ??_C@_0BC@FLEDPKMF@?4?2ServerFrame?4cpp?$AA@ 0044a33c     servercommon:ServerFrame.obj
 0002:00002350       ??_C@_0BJ@FHLFMIJK@?$CBpSession?9?$DOIsConnected?$CI?$CJ?$AA@ 0044a350     servercommon:ServerFrame.obj
 0002:0000236c       ??_C@_0CB@HCBOHMFK@?$DO?$DO?5Warning?3?5Not?5connected?5to?5?$CFs?6@ 0044a36c     servercommon:ServerFrame.obj
 0002:00002390       ??_C@_0BK@JHPPMMEL@Client?5Connections?7?7?3?5?$CFd?6?$AA@ 0044a390     servercommon:ServerFrame.obj
 0002:000023ac       ??_C@_0BK@EAMEEPNG@Server?5Connections?7?7?3?5?$CFd?6?$AA@ 0044a3ac     servercommon:ServerFrame.obj
 0002:000023c8       ??_C@_0BI@IIKELJKK@Frame?5Per?5Second?7?7?3?5?$CFd?6?$AA@ 0044a3c8     servercommon:ServerFrame.obj
 0002:000023e0       ??_C@_0CC@BBHIDBKJ@?$DN?$DN?$DN?$DN?$DN?$DN?$DN?$DN?$DN?$DN?$DN?$DN?$DN?$DN?5?$CFs?5?$DN?$DN?$DN?$DN?$DN?$DN?$DN?$DN?$DN?$DN?$DN?$DN?$DN?$DN@ 0044a3e0     servercommon:ServerFrame.obj
 0002:00002404       ??_C@_0BJ@MNMACKBF@Client?5Connections?7?7?3?5?$CFd?$AA@ 0044a404     servercommon:ServerFrame.obj
 0002:00002420       ??_C@_0BJ@PLJBFJPE@Server?5Connections?7?7?3?5?$CFd?$AA@ 0044a420     servercommon:ServerFrame.obj
 0002:0000243c       ??_C@_0BH@EMDGKFMG@Frame?5Per?5Second?7?7?3?5?$CFd?$AA@ 0044a43c     servercommon:ServerFrame.obj
 0002:00002454       ??_C@_0CB@JJOPBMMF@?$DN?$DN?$DN?$DN?$DN?$DN?$DN?$DN?$DN?$DN?$DN?$DN?$DN?$DN?5?$CFs?5?$DN?$DN?$DN?$DN?$DN?$DN?$DN?$DN?$DN?$DN?$DN?$DN?$DN?$DN@ 0044a454     servercommon:ServerFrame.obj
 0002:00002478       ??_C@_0EC@JMAMGNNO@?$DN?$DN?$DN?$DN?$DN?$DN?$DN?$DN?$DN?$DN?$DN?$DN?$DN?$DN?$DN?$DN?$DN?$DN?$DN?$DN?$DN?$DN?$DN?$DN?$DN?$DN?$DN?$DN?$DN?$DN?$DN?$DN@ 0044a478     servercommon:ServerFrame.obj
 0002:000024bc       ??_C@_0CA@KLNOGAEC@?5Connected?5Server?5Counts?5?3?5?$CF3d?6?$AA@ 0044a4bc     servercommon:ServerFrame.obj
 0002:000024dc       ??_C@_0CB@JPIAHHPB@?$FL?$CF02u?$FN?5?$CF?924s?3?5?5?$CFu?4?$CFu?4?$CFu?4?$CFu?3?$CF05u?6@ 0044a4dc     servercommon:ServerFrame.obj
 0002:00002500       ??_C@_0BL@JOEMAOAP@?$FL?$CF02u?$FN?5?$CF?924s?3?5?5?$CF?916s?3?$CF05u?6?$AA@ 0044a500     servercommon:ServerFrame.obj
 0002:00002520       ??_C@_0EB@NLLJINAF@?$DN?$DN?$DN?$DN?$DN?$DN?$DN?$DN?$DN?$DN?$DN?$DN?$DN?$DN?$DN?$DN?$DN?$DN?$DN?5?5Connected?5S@ 0044a520     servercommon:ServerFrame.obj
 0002:00002564       ??_C@_0CN@LCHNOAMF@Press?5?8ESC?8?5Key?0?5Start?5Server?5Te@ 0044a564     servercommon:ServerFrame.obj
 0002:00002598       ??_7ServerFrame@@6B@       0044a598     servercommon:ServerFrame.obj
 0002:000025bc       ??_C@_09NEMMNGIP@rt?4second?$AA@ 0044a5bc     servercommon:ServerFrame.obj
 0002:000025c8       ??_C@_0BL@JBGOLBON@ServerType?$FL?$CFd?$FN?5wPort?5is?50?$CB?$AA@ 0044a5c8     servercommon:ServerFrame.obj
 0002:000025e4       ??_C@_0DB@CKOHPKL@wPort?5?$CB?$DN?50?5?$CG?$CG?5?$CC?5?F?w?F?$KO?$LA?$KB?50?$MA?T?$LE?O?$LE?Y?4S@ 0044a5e4     servercommon:ServerFrame.obj
 0002:00002618       ??_C@_0DJ@KOGDNFPC@pSession?5?$CG?$CG?5?$CC?$LM?$KN?$LJ?v?E?$LI?$MA?T?$MA?L?5?$MA?$NP?$LI?x?$LF?G?$LO?z@ 0044a618     servercommon:ServerFrame.obj
 0002:00002654       ??_C@_0P@NIHGLCCD@MANUAL_CONNECT?$AA@ 0044a654     servercommon:ServerFrame.obj
 0002:00002664       ??_C@_04KDPJLEDB@TYPE?$AA@ 0044a664     servercommon:ServerFrame.obj
 0002:0000266c       ??_C@_04HDFGONMM@PORT?$AA@ 0044a66c     servercommon:ServerFrame.obj
 0002:00002674       ??_C@_02MFEOMNPG@IP?$AA@   0044a674     servercommon:ServerFrame.obj
 0002:00002678       ??_C@_0O@POMKBDPG@CONNECTION_?$CFd?$AA@ 0044a678     servercommon:ServerFrame.obj
 0002:00002688       ??_C@_0P@KJOLPHNJ@CONEECTION_NUM?$AA@ 0044a688     servercommon:ServerFrame.obj
 0002:00002698       ??_C@_0M@JDFMPMAA@AUTO_LISTEN?$AA@ 0044a698     servercommon:ServerFrame.obj
 0002:000026a4       ??_C@_0BB@JHOMHAMA@CLIENT_IOHANDLER?$AA@ 0044a6a4     servercommon:ServerFrame.obj
 0002:000026b8       ??_C@_0CH@PKICADOO@desc?$FLnHandler?$FN?4dwMaxPacketSize?5?$DO@ 0044a6b8     servercommon:ServerFrame.obj
 0002:000026e0       ??_C@_0BB@NFHHNNCG@SERVER_IOHANDLER?$AA@ 0044a6e0     servercommon:ServerFrame.obj
 0002:000026f4       ??_C@_0BG@OFCBKKPH@IOCP?5Initialize?4?4?4?4?4?4?$AA@ 0044a6f4     servercommon:ServerFrame.obj
 0002:0000270c       ??_C@_05PDJBBECF@pause?$AA@ 0044a70c     servercommon:ServerFrame.obj
 0002:00002718       ??_C@_0EC@PAPGPOCI@?7?$FLATTRIBUTES?$FN?5RECONNECT_DELAY_TI@ 0044a718     servercommon:ServerFrame.obj
 0002:0000275c       ??_C@_0DO@HIGKOJJB@?7?$FLATTRIBUTES?$FN?5Check?5value?5?3?5SERV@ 0044a75c     servercommon:ServerFrame.obj
 0002:0000279c       ??_C@_0CD@PMNAEOOJ@?7?$FLATTRIBUTES?$FN?5Is?5exact?5tab?5name?$DP@ 0044a79c     servercommon:ServerFrame.obj
 0002:000027c0       ??_C@_0BM@EOMPOOP@Please?5Check?5xxxServer?4ini?6?$AA@ 0044a7c0     servercommon:ServerFrame.obj
 0002:000027dc       ??_C@_0BF@FOMHOBCB@RECONNECT_DELAY_TIME?$AA@ 0044a7dc     servercommon:ServerFrame.obj
 0002:000027f4       ??_C@_0BA@LOHPHMMO@IO_HANDLER_MASK?$AA@ 0044a7f4     servercommon:ServerFrame.obj
 0002:00002804       ??_C@_0BJ@DKELMEGC@GET_SERVERINFO_FROM_FILE?$AA@ 0044a804     servercommon:ServerFrame.obj
 0002:00002820       ??_C@_0M@GFBPKOLC@SERVER_MODE?$AA@ 0044a820     servercommon:ServerFrame.obj
 0002:00002830       ??_7CSunLog@@6B@           0044a830     servercommon:SunLog.obj
 0002:00002834       ??_C@_0DC@FHHLKBL@FAILED?5LOGGING?5IO?7Handle?5?$FL?$CFu?$FN?3PT@ 0044a834     servercommon:SunLog.obj
 0002:00002868       ??_C@_04LIFAFMCE@?$FL?$CFs?$FN?$AA@ 0044a868     servercommon:SunLog.obj
 0002:00002870       ??_C@_0BO@GIGHDGCH@?$FL?$CF04d?$CF02d?$CF02d_?$CF02d?3?$CF02d?3?$CF02d?$FN?$AA@ 0044a870     servercommon:SunLog.obj
 0002:00002890       ??_C@_0BC@NGBHFLFM@g_pSUNLOG?5?$DN?$DN?5NULL?$AA@ 0044a890     servercommon:SunLog.obj
 0002:000028a4       ??_C@_0N@NPGOEKBI@?4?2SunLog?4cpp?$AA@ 0044a8a4     servercommon:SunLog.obj
 0002:000028b4       ??_C@_0BC@PNADHPDI@g_pSUNLOG?5?$CB?$DN?5NULL?$AA@ 0044a8b4     servercommon:SunLog.obj
 0002:000028c8       ??_C@_0DP@FLOGFMII@CSunLog?5Initialization?5Failed?$CB?5C@ 0044a8c8     servercommon:SunLog.obj
 0002:00002908       ??_C@_0EC@MFEJJFJG@CSunLog?5Initialization?5Failed?$CB?5C@ 0044a908     servercommon:SunLog.obj
 0002:0000294c       ??_C@_0BI@OELKKAKL@?$CB?$CCCan?8t?5Create?5LogFile?$CC?$AA@ 0044a94c     servercommon:SunLog.obj
 0002:00002964       ??_C@_0CC@PMMACCB@CreateDirectory?5Fail?0?5path?5?$DN?5?$CFs?5@ 0044a964     servercommon:SunLog.obj
 0002:00002988       ??_C@_06OJHGLDPL@?$CInull?$CJ?$AA@ 0044a988     servercommon:SunLog.obj
 0002:00002990       ??_C@_0L@DPGIJBEM@CONNECTION?$AA@ 0044a990     servercommon:SunLog.obj
 0002:0000299c       ??_C@_09KJOLCADJ@WAREHOUSE?$AA@ 0044a99c     servercommon:SunLog.obj
 0002:000029a8       ??_C@_05ECMECJBC@TRADE?$AA@ 0044a9a8     servercommon:SunLog.obj
 0002:000029b0       ??_C@_04BLNHNEEM@ITEM?$AA@ 0044a9b0     servercommon:SunLog.obj
 0002:000029b8       ??_C@_07PPFPLHID@MISSION?$AA@ 0044a9b8     servercommon:SunLog.obj
 0002:000029c0       ??_C@_07KMKOMEFF@ABUSING?$AA@ 0044a9c0     servercommon:SunLog.obj
 0002:000029c8       ??_C@_0L@BJPOGJHN@DATARELOAD?$AA@ 0044a9c8     servercommon:SunLog.obj
 0002:00002bd0       ??_C@_0BA@BMAICKCL@CATE_CONNECTION?$AA@ 0044abd0     servercommon:SunLog.Interfaces.obj
 0002:00002dd8       ??_C@_0BL@EAFGPIBE@?$FLSessionLog?$FN?5Server?$FL?$CFs?$FN?5?$CFs?$AA@ 0044add8     servercommon:ServerSession.obj
 0002:00002dfc       ??_7ServerSession@@6B@     0044adfc     servercommon:ServerSession.obj
 0002:00002e3c       ??_C@_0CM@FIHMJAHN@f?3?2sun?2src_2008?2server?2common?2Se@ 0044ae3c     servercommon:ServerSession.obj
 0002:00002e68       ??_C@_0CC@GEOBJHAI@?$FLOnRedirect?$FN?$FL?$CFu?$FN?5?$CFs?$FL?$CFs?$FN?5Redirect@ 0044ae68     servercommon:ServerSession.obj
 0002:00002e8c       ??_C@_0CG@FOFKCLC@?$FLOnAccept?$FN?$FL?$CFu?$FN?5?$CFs?$FL?$CFs?$FN?5Accept?5Suc@ 0044ae8c     servercommon:ServerSession.obj
 0002:00002eb4       ??_C@_0CE@KHGKEFIB@?$FLOnConnect?$FN?$FL?$CFu?$FN?5?$CFs?5Connect?5Succe@ 0044aeb4     servercommon:ServerSession.obj
 0002:00002ed8       ??_C@_0CG@BKKKJDBD@?$FLOnDisconnect?$FN?$FL?$CFu?$FN?5?$CFs?$FL?$CFs?$FN?5Discon@ 0044aed8     servercommon:ServerSession.obj
 0002:00002f00       ??_C@_0O@CHEFGFA@CLIENT_SERVER?$AA@ 0044af00     servercommon:ServerGlobal.obj
 0002:00002f10       ??_C@_0P@LDKCKHGE@BILLING_SERVER?$AA@ 0044af10     servercommon:ServerGlobal.obj
 0002:00002f20       ??_C@_0BD@KIJAJGDN@LOGIN_FRONT_SERVER?$AA@ 0044af20     servercommon:ServerGlobal.obj
 0002:00002f34       ??_C@_0M@GAHHABPD@AUTH_SERVER?$AA@ 0044af34     servercommon:ServerGlobal.obj
 0002:00002f40       ??_C@_0M@LLJBFOCP@GAME_SERVER?$AA@ 0044af40     servercommon:ServerGlobal.obj
 0002:00002f4c       ??_C@_0M@JGJJBFJP@TEMP_SERVER?$AA@ 0044af4c     servercommon:ServerGlobal.obj
 0002:00002f58       ??_C@_09JCFBLPGF@OP_SERVER?$AA@ 0044af58     servercommon:ServerGlobal.obj
 0002:00002f64       ??_C@_0M@CNGAGBCK@SHOP_SERVER?$AA@ 0044af64     servercommon:ServerGlobal.obj
 0002:00002f70       ??_C@_0BB@FBDKEGMI@SOLARAUTH_SERVER?$AA@ 0044af70     servercommon:ServerGlobal.obj
 0002:00002f84       ??_C@_0O@FBIMMKDE@PORTAL_SERVER?$AA@ 0044af84     servercommon:ServerGlobal.obj
 0002:00002f94       ??_C@_0BC@KEPCBLGG@AUTH_AGENT_SERVER?$AA@ 0044af94     servercommon:ServerGlobal.obj
 0002:00002fa8       ??_C@_0BC@NHFJCGAO@TOURNAMENT_SERVER?$AA@ 0044afa8     servercommon:ServerGlobal.obj
 0002:00002fbc       ??_C@_0BA@CILMAOHE@ACCOUNT_DBPROXY?$AA@ 0044afbc     servercommon:ServerGlobal.obj
 0002:00002fcc       ??_C@_0N@KNJHKEGK@GUILD_SERVER?$AA@ 0044afcc     servercommon:ServerGlobal.obj
 0002:00002fdc       ??_C@_0O@IMGOPPEF@MASTER_SERVER?$AA@ 0044afdc     servercommon:ServerGlobal.obj
 0002:00002fec       ??_C@_0N@HCGIEEKC@WORLD_SERVER?$AA@ 0044afec     servercommon:ServerGlobal.obj
 0002:00002ffc       ??_C@_0N@KJKICONP@GAME_DBPROXY?$AA@ 0044affc     servercommon:ServerGlobal.obj
 0002:0000300c       ??_C@_0O@JKNGKGEO@BATTLE_SERVER?$AA@ 0044b00c     servercommon:ServerGlobal.obj
 0002:0000301c       ??_C@_0N@HDAJEPFF@FIELD_SERVER?$AA@ 0044b01c     servercommon:ServerGlobal.obj
 0002:0000302c       ??_C@_0N@EPHOAIFP@AGENT_SERVER?$AA@ 0044b02c     servercommon:ServerGlobal.obj
 0002:0000303c       ??_C@_0P@HOJNDAM@UNKNOWN_SERVER?$AA@ 0044b03c     servercommon:ServerGlobal.obj
 0002:00003050       ??_C@_0ED@OEGFFIKE@?$CFs?9?$CFs?9?$CFs?9?$CIVer?3?$CFu?9?$CFu?9?$CFu?$CJ?0Build?3?$CI?$CF@ 0044b050     servercommon:ServerGlobal.obj
 0002:00003094       ??_C@_05KOLFGEDA@DEBUG?$AA@ 0044b094     servercommon:ServerGlobal.obj
 0002:0000309c       ??_C@_08EMDHMFNE@TESTLIVE?$AA@ 0044b09c     servercommon:ServerGlobal.obj
 0002:000030a8       ??_C@_04KHPNEDFP@LIVE?$AA@ 0044b0a8     servercommon:ServerGlobal.obj
 0002:000030b0       ??_C@_0M@BINNFMP@INTRAOFFICE?$AA@ 0044b0b0     servercommon:ServerGlobal.obj
 0002:000030bc       ??_C@_03FAHNFKHA@DEV?$AA@  0044b0bc     servercommon:ServerGlobal.obj
 0002:000030c0       ??_C@_07NFANNNEC@UNKNOWN?$AA@ 0044b0c0     servercommon:ServerGlobal.obj
 0002:000030c8       ??_C@_07LDDIIHCM@RELEASE?$AA@ 0044b0c8     servercommon:ServerGlobal.obj
 0002:000030d0       ??_C@_0BN@NCJAHCEF@Current?5Work?5Directory?5?$DN?5?$CFs?6?$AA@ 0044b0d0     servercommon:ServerGlobal.obj
 0002:000038d0       ?COMPRESS_LEVEL@CompressUtil@nsPacket@@0HB 0044b8d0     programcommon_s:PacketControl_Compress.obj
 0002:000038d4       ??_C@_0BL@KPPLHGGD@?$CB?$CCUnexpected?5Request?5Size?$CC?$AA@ 0044b8d4     programcommon_s:PacketControl_Compress.obj
 0002:000038f0       ??_C@_0M@OFBFOKGB@len?5?$DN?$DN?55816?$AA@ 0044b8f0     programcommon_s:PacketControl_Compress.obj
 0002:000038fc       ??_C@_0N@EEOBDGPC@len?5?$DN?$DN?565536?$AA@ 0044b8fc     programcommon_s:PacketControl_Compress.obj
 0002:0000390c       ??_C@_0CL@OLKLMEPA@?4?2PacketControl?2PacketControl_Co@ 0044b90c     programcommon_s:PacketControl_Compress.obj
 0002:00003938       ??_C@_0BD@NIJKBACD@token?9?$DOptr_?5?$DN?$DN?5hdr?$AA@ 0044b938     utility_s:MemoryPoolFactory.obj
 0002:0000394c       ??_C@_0DB@FAGBJGFF@SharedMemoryPool?3?3CheckValidAllo@ 0044b94c     utility_s:MemoryPoolFactory.obj
 0002:00003980       ??_C@_0CM@LDMGFLPM@util?3?3LList?3?3IsEmpty?$CI?$CGalloc_list@ 0044b980     utility_s:MemoryPoolFactory.obj
 0002:000039ac       ??_C@_0BI@FBDKBNLO@?4?2MemoryPoolFactory?4cpp?$AA@ 0044b9ac     utility_s:MemoryPoolFactory.obj
 0002:000039c4       ??_C@_0DK@MGGCBPEB@?$HMMsg?$DNmismatched?5token?5block?5node@ 0044b9c4     utility_s:MemoryPoolFactory.obj
 0002:00003a00       ??_C@_0CO@GMKMCAPJ@statistics_?4number_of_total_bloc@ 0044ba00     utility_s:MemoryPoolFactory.obj
 0002:00003a30       ??_C@_0DI@JHEPMMNF@?$HMMsg?$DNmismatched?5allocated?5nodes?5@ 0044ba30     utility_s:MemoryPoolFactory.obj
 0002:00003a68       ??_C@_0CN@HGAMJAEI@statistics_?4number_of_alloc_node@ 0044ba68     utility_s:MemoryPoolFactory.obj
 0002:00003a98       ??_C@_0DD@HJMCCMHH@?$HMMsg?$DNmismatched?5free?5nodes?5?$CI?$CFu?3?$CF@ 0044ba98     utility_s:MemoryPoolFactory.obj
 0002:00003acc       ??_C@_0CM@LPLMDKBM@statistics_?4number_of_free_nodes@ 0044bacc     utility_s:MemoryPoolFactory.obj
 0002:00003af8       ??_C@_0CM@KCJALPIM@AssertionMessage?3?5?$CFs?5?$FLfile?3?5?$CFs?5?3@ 0044baf8     utility_s:ErrorControl.obj
 0002:00003b24       ??_C@_0DI@DFNCIKAF@SolarSimpleConsole?5?3?5SetConsoleM@ 0044bb24     utility_s:SolarSimpleConsole.obj
 0002:00003b5c       ??_C@_01KDCPPGHE@r?$AA@    0044bb5c     utility_s:SolarSimpleConsole.obj
 0002:00003b60       ??_C@_0DI@PCLCJNOM@SolarSimpleConsole?5?3?5GetConsoleM@ 0044bb60     utility_s:SolarSimpleConsole.obj
 0002:00003b98       ??_C@_0CB@HCLJIIKE@suspicious?5buffer?5overrun?5object@ 0044bb98     utility_s:SharedMemoryPool.obj
 0002:00003bc0       ??_C@_0NG@JHPOPDJH@?$HMMemoryCheckReport?$HMMsg?$DNtoken?5val@ 0044bbc0     utility_s:SharedMemoryPool.obj
 0002:00003c98       ??_C@_0PM@LFAEEBMG@?$HMMemoryCheckReport?$HMMsg?$DNtoken?5val@ 0044bc98     utility_s:SharedMemoryPool.obj
 0002:00003d94       ??_C@_0CE@DKGBCJEC@?$CB?$CCrequested?5null?5pointer?5releasi@ 0044bd94     utility_s:SharedMemoryPool.obj
 0002:00003db8       ??_C@_0CC@KJKBJNFJ@?$CB?$CCcan?8t?5entered?5with?5this?5result@ 0044bdb8     utility_s:SharedMemoryPool.obj
 0002:00003ddc       ??_C@_0BE@OAFIDKHA@?$CB?$CCunexpected?5error?$CC?$AA@ 0044bddc     utility_s:SharedMemoryPool.obj
 0002:00003df0       ??_C@_0BH@FMMCGCOL@?4?2SharedMemoryPool?4cpp?$AA@ 0044bdf0     utility_s:SharedMemoryPool.obj
 0002:00003e08       ??_C@_0JG@GKEJJFLL@?$HMMemoryCheckReport?$HMMsg?$DNunexpecte@ 0044be08     utility_s:SharedMemoryPool.obj
 0002:00003ea0       ??_C@_0CM@PBLDPHDH@?$FL?$CFs?3?$CFd?$FN?5reference_counter_?5overf@ 0044bea0     utility_s:SharedMemoryPool.obj
 0002:00003ecc       ??_C@_0CG@GPMIELII@?$FL?$CFs?3?$CFd?$FN?5malloc?5fail?5?3?5?$CFs?0?5?$CFd?0?5si@ 0044becc     utility_s:SharedMemoryPool.obj
 0002:00003ef4       ??_C@_0CK@NMEFPPLP@util?3?3memory?3?3SharedMemoryTable?3@ 0044bef4     utility_s:SharedMemoryPool.obj
 0002:00003f20       ??_C@_0BP@MCKAMPGP@RandomNumberGenerator?3?3_Update?$AA@ 0044bf20     utility_s:RandomNumberGenerator.obj
 0002:00003f40       ??_C@_0CB@LFLLNMBA@simplex_network_delay_ticks?5?$DO?$DN?50@ 0044bf40     utility_s:SolarDateTime.obj
 0002:00003f68       ??_C@_0HP@DCDJOLHB@send_info?4time_stamp_client_1st?5@ 0044bf68     utility_s:SolarDateTime.obj
 0002:00003fe8       ??_C@_0BE@CBNNGPCB@?4?2SolarDateTime?4cpp?$AA@ 0044bfe8     utility_s:SolarDateTime.obj
 0002:00003ffc       ??_C@_0BA@JFNIOLAK@string?5too?5long?$AA@ 0044bffc     libcpmt:string.obj
 0002:0000400c       ??_C@_0BI@CFPLBAOH@invalid?5string?5position?$AA@ 0044c00c     libcpmt:string.obj
 0002:00004024       ?_BADOFF@std@@3JB          0044c024     libcpmt:ios.obj
 0002:00004028       ??_C@_13BPINEIPE@?$AAr?$AA?$AA@ 0044c028     libcpmt:fiopen.obj
 0002:00004068       ??_C@_13CIFDLIMG@?$AAw?$AA?$AA@ 0044c068     libcpmt:fiopen.obj
 0002:0000406c       ??_C@_13FNCBLAIF@?$AAa?$AA?$AA@ 0044c06c     libcpmt:fiopen.obj
 0002:00004070       ??_C@_15JJPIMNBO@?$AAr?$AAb?$AA?$AA@ 0044c070     libcpmt:fiopen.obj
 0002:00004078       ??_C@_15MJDFFMKN@?$AAw?$AAb?$AA?$AA@ 0044c078     libcpmt:fiopen.obj
 0002:00004080       ??_C@_15BMLKLNCL@?$AAa?$AAb?$AA?$AA@ 0044c080     libcpmt:fiopen.obj
 0002:00004088       ??_C@_15HPOENKKJ@?$AAr?$AA?$CL?$AA?$AA@ 0044c088     libcpmt:fiopen.obj
 0002:00004090       ??_C@_15CPCJELBK@?$AAw?$AA?$CL?$AA?$AA@ 0044c090     libcpmt:fiopen.obj
 0002:00004098       ??_C@_15PKKGKKJM@?$AAa?$AA?$CL?$AA?$AA@ 0044c098     libcpmt:fiopen.obj
 0002:000040a0       ??_C@_17IIOMHMAG@?$AAr?$AA?$CL?$AAb?$AA?$AA@ 0044c0a0     libcpmt:fiopen.obj
 0002:000040a8       ??_C@_17MAAMHCGC@?$AAw?$AA?$CL?$AAb?$AA?$AA@ 0044c0a8     libcpmt:fiopen.obj
 0002:000040b0       ??_C@_17HKNIEKMO@?$AAa?$AA?$CL?$AAb?$AA?$AA@ 0044c0b0     libcpmt:fiopen.obj
 0002:000040bc       ??_7_Locimp@locale@std@@6B@ 0044c0bc     libcpmt:locale0.obj
 0002:000040c0       ??_C@_01NBENCBCI@?$CK?$AA@ 0044c0c0     libcpmt:locale0.obj
 0002:000040c4       ??_C@_01GFHCPBMG@C?$AA@    0044c0c4     libcpmt:locale0.obj
 0002:000040cc       ??_7error_category@system@boost@@6B@ 0044c0cc     libboost_system-vc90-mt-s-1_60:error_code.obj
 0002:000040e8       ??_7system_error_category@?A0xa00a0bbd@system@boost@@6B@ 0044c0e8     libboost_system-vc90-mt-s-1_60:error_code.obj
 0002:00004100       ??_C@_07DCLBNMLN@generic?$AA@ 0044c100     libboost_system-vc90-mt-s-1_60:error_code.obj
 0002:00004108       ??_C@_06FHFOAHML@system?$AA@ 0044c108     libboost_system-vc90-mt-s-1_60:error_code.obj
 0002:00004114       ??_7generic_error_category@?A0xa00a0bbd@system@boost@@6B@ 0044c114     libboost_system-vc90-mt-s-1_60:error_code.obj
 0002:0000412c       ??_C@_0O@NIPGCINC@Unknown?5error?$AA@ 0044c12c     libboost_system-vc90-mt-s-1_60:error_code.obj
 0002:0000413c       ??_C@_0BF@CJFPCCEG@incompatible?5version?$AA@ 0044c13c     zlib:zutil.obj
 0002:00004154       ??_C@_0N@DFPGLBGC@buffer?5error?$AA@ 0044c154     zlib:zutil.obj
 0002:00004164       ??_C@_0BE@OGGJBMCE@insufficient?5memory?$AA@ 0044c164     zlib:zutil.obj
 0002:00004178       ??_C@_0L@HAHMBNLP@data?5error?$AA@ 0044c178     zlib:zutil.obj
 0002:00004184       ??_C@_0N@MKKNPMJD@stream?5error?$AA@ 0044c184     zlib:zutil.obj
 0002:00004194       ??_C@_0L@KIJFAKBJ@file?5error?$AA@ 0044c194     zlib:zutil.obj
 0002:000041a0       ??_C@_0L@FNAOCBOG@stream?5end?$AA@ 0044c1a0     zlib:zutil.obj
 0002:000041ac       ??_C@_0BA@MOKMMFOD@need?5dictionary?$AA@ 0044c1ac     zlib:zutil.obj
 0002:000041bc       ??_C@_05DOIEBMOI@1?41?44?$AA@ 0044c1bc     zlib:zutil.obj
 0002:000041c8       _deflate_copyright         0044c1c8     zlib:deflate.obj
 0002:000048c0       __dist_code                0044c8c0     zlib:trees.obj
 0002:00004ac0       __length_code              0044cac0     zlib:trees.obj
 0002:00004cb0       ??_C@_06FIMJICNC@QUIT?$AN?6?$AA@ 0044ccb0     CrashHandler:SMTPClient.obj
 0002:00004cb8       ??_C@_04LLEBNMDN@?$CFs?$AN?6?$AA@ 0044ccb8     CrashHandler:SMTPClient.obj
 0002:00004cc0       ??_C@_0N@PBIADBBH@AUTH?5LOGIN?$AN?6?$AA@ 0044ccc0     CrashHandler:SMTPClient.obj
 0002:00004cd0       ??_C@_0P@HGJOCHPA@MAIL?5FROM?3?$CFs?$AN?6?$AA@ 0044ccd0     CrashHandler:SMTPClient.obj
 0002:00004ce0       ??_C@_0P@ECEKDCOC@RCPT?5TO?3?$DM?$CFs?$DO?$AN?6?$AA@ 0044cce0     CrashHandler:SMTPClient.obj
 0002:00004cf0       ??_C@_0CG@PPKDFOHA@Content?9Transfer?9Encoding?3?5Base6@ 0044ccf0     CrashHandler:SMTPClient.obj
 0002:00004d18       ??_C@_0CL@DEBECPCO@Content?9Type?3?5text?1plain?$DL?5charse@ 0044cd18     CrashHandler:SMTPClient.obj
 0002:00004d44       __real@3fc00000            0044cd44     CrashHandler:SMTPClient.obj
 0002:00004d48       ??_C@_06PFFHLKOK@?9?9?$CFs?$AN?6?$AA@ 0044cd48     CrashHandler:SMTPClient.obj
 0002:00004d50       ??_C@_0DB@PLGKMGEG@Content?9Type?3?5multipart?1mixed?$DL?5b@ 0044cd50     CrashHandler:SMTPClient.obj
 0002:00004d84       ??_C@_0BE@JBNMBGDA@Mime?9Version?3?51?40?$AN?6?$AA@ 0044cd84     CrashHandler:SMTPClient.obj
 0002:00004d98       ??_C@_0O@FHPOFNAI@Subject?3?5?$CFs?$AN?6?$AA@ 0044cd98     CrashHandler:SMTPClient.obj
 0002:00004da8       ??_C@_03DMHINEKI@?$DO?$AN?6?$AA@ 0044cda8     CrashHandler:SMTPClient.obj
 0002:00004dac       ??_C@_01ICJEACDI@?$DL?$AA@ 0044cdac     CrashHandler:SMTPClient.obj
 0002:00004db0       ??_C@_05BGGINDPL@To?3?5?$DM?$AA@ 0044cdb0     CrashHandler:SMTPClient.obj
 0002:00004db8       ??_C@_0CG@GDHKOCAP@X?9Mailer?3SSUL?5SendMail?5v1?40?5?$FLKor@ 0044cdb8     CrashHandler:SMTPClient.obj
 0002:00004de0       ??_C@_0P@FPGADCNC@From?3?5?$CFs?$DM?$CFs?$DO?$AN?6?$AA@ 0044cde0     CrashHandler:SMTPClient.obj
 0002:00004df0       ??_C@_06KNPIFKI@DATA?$AN?6?$AA@ 0044cdf0     CrashHandler:SMTPClient.obj
 0002:00004df8       ??_C@_0DH@NLMIGGAF@Content?9Description?3?5Created?5fro@ 0044cdf8     CrashHandler:SMTPClient.obj
 0002:00004e30       ??_C@_0DB@KHABMJDE@Content?9Disposition?3?5attachment?$DL@ 0044ce30     CrashHandler:SMTPClient.obj
 0002:00004e64       ??_C@_0CE@PGEIOFJM@Content?9Transfer?9Encoding?3?5Base6@ 0044ce64     CrashHandler:SMTPClient.obj
 0002:00004e88       ??_C@_0BO@IDJMKFDP@Content?9Type?3?5?$CFs?$DL?5file?$DN?$CC?$CFs?$CC?$AN?6?$AA@ 0044ce88     CrashHandler:SMTPClient.obj
 0002:00004ea8       ??_C@_08OOLNIKKF@?$AN?6?9?9?$CFs?$AN?6?$AA@ 0044cea8     CrashHandler:SMTPClient.obj
 0002:00004eb4       ??_C@_05NNFHCGPF@?$CFs?4?$CFs?$AA@ 0044ceb4     CrashHandler:SMTPClient.obj
 0002:00004ebc       ??_C@_05BMGBEOOC@?$CFs?2?$CFs?$AA@ 0044cebc     CrashHandler:SMTPClient.obj
 0002:00004ec4       ??_C@_04PMGDIHKD@?4?2?$CFs?$AA@ 0044cec4     CrashHandler:SMTPClient.obj
 0002:00004ecc       ??_C@_01LFCBOECM@?4?$AA@   0044cecc     CrashHandler:SMTPClient.obj
 0002:00004ed0       ??_C@_05KMJPGPH@?$AN?6?4?$AN?6?$AA@ 0044ced0     CrashHandler:SMTPClient.obj
 0002:00004ed8       ??_C@_0L@NAAOAPHF@?$AN?6?9?9?$CFs?9?9?$AN?6?$AA@ 0044ced8     CrashHandler:SMTPClient.obj
 0002:00004ee4       ??_C@_09EMFMJFEO@HELO?5?$CFs?$AN?6?$AA@ 0044cee4     CrashHandler:SMTPClient.obj
 0002:00004ef0       ??_C@_09EIONPJKJ@EHLO?5?$CFs?$AN?6?$AA@ 0044cef0     CrashHandler:SMTPClient.obj
 0002:00004efc       ??_C@_0P@MGPMFBBC@Stack?5overflow?$AA@ 0044cefc     CrashHandler:CrashHandler.obj
 0002:00004f0c       ??_C@_0BH@KPGNPNII@Privileged?5instruction?$AA@ 0044cf0c     CrashHandler:CrashHandler.obj
 0002:00004f24       ??_C@_0BB@IPOJFFKA@Integer?5overflow?$AA@ 0044cf24     CrashHandler:CrashHandler.obj
 0002:00004f38       ??_C@_0BH@NHLLGLIN@Integer?5divide?5by?5zero?$AA@ 0044cf38     CrashHandler:CrashHandler.obj
 0002:00004f50       ??_C@_0P@HEFFBKAK@Float?5underlow?$AA@ 0044cf50     CrashHandler:CrashHandler.obj
 0002:00004f60       ??_C@_0BC@CFKBGEGC@Float?5stack?5check?$AA@ 0044cf60     CrashHandler:CrashHandler.obj
 0002:00004f74       ??_C@_0P@MPCBPAKO@Float?5overflow?$AA@ 0044cf74     CrashHandler:CrashHandler.obj
 0002:00004f84       ??_C@_0BI@NCCJNINI@Float?5invalid?5operation?$AA@ 0044cf84     CrashHandler:CrashHandler.obj
 0002:00004f9c       ??_C@_0BF@BGPMFELN@Float?5inexact?5result?$AA@ 0044cf9c     CrashHandler:CrashHandler.obj
 0002:00004fb4       ??_C@_0BF@JGBFFBDC@Float?5divide?5by?5zero?$AA@ 0044cfb4     CrashHandler:CrashHandler.obj
 0002:00004fcc       ??_C@_0BJ@HGNBDCNI@Noncontinuable?5exception?$AA@ 0044cfcc     CrashHandler:CrashHandler.obj
 0002:00004fe8       ??_C@_0BE@JJMBEGLL@Invalid?5disposition?$AA@ 0044cfe8     CrashHandler:CrashHandler.obj
 0002:00004ffc       ??_C@_0BH@BHMNNGEN@Float?5denormal?5operand?$AA@ 0044cffc     CrashHandler:CrashHandler.obj
 0002:00005014       ??_C@_0BG@PAGJAHHI@Array?5bounds?5exceeded?$AA@ 0044d014     CrashHandler:CrashHandler.obj
 0002:0000502c       ??_C@_0BE@MLNNHANJ@Illegal?5instruction?$AA@ 0044d02c     CrashHandler:CrashHandler.obj
 0002:00005040       ??_C@_0BB@KFJCFCM@Access?5violation?$AA@ 0044d040     CrashHandler:CrashHandler.obj
 0002:00005054       ??_C@_0O@MGKDBHDE@In?5page?5error?$AA@ 0044d054     CrashHandler:CrashHandler.obj
 0002:00005064       ??_C@_0M@HBBAMPBG@Single?5step?$AA@ 0044d064     CrashHandler:CrashHandler.obj
 0002:00005070       ??_C@_0BH@OHAHMANF@Data?5type?5misalignment?$AA@ 0044d070     CrashHandler:CrashHandler.obj
 0002:00005088       ??_C@_0M@JPKCCLGD@Break?5point?$AA@ 0044d088     CrashHandler:CrashHandler.obj
 0002:00005094       ??_C@_0CF@PCCIEPNM@?9SymFromAddr?$CI?$CJ?5returned?5error?5?3?5@ 0044d094     CrashHandler:CrashHandler.obj
 0002:000050bc       ??_C@_0BO@MMILEEOA@0x?$CF08x?5Address?5Lookup?5Error?$AN?6?$AA@ 0044d0bc     CrashHandler:CrashHandler.obj
 0002:000050dc       ??_C@_0BL@CNPNOGHL@?$CINo?5line?5information?4?4?4?$CJ?$AN?6?$AA@ 0044d0dc     CrashHandler:CrashHandler.obj
 0002:000050f8       ??_C@_0BJ@CNFFOCGC@?$CFs?$CI?$CJ?5?$CL?5offset?5?3?50x?$CF04x?$AN?6?$AA@ 0044d0f8     CrashHandler:CrashHandler.obj
 0002:00005114       ??_C@_0O@MFGOBNCD@?9?$CFs?5?$CFd?5line?$AN?6?$AA@ 0044d114     CrashHandler:CrashHandler.obj
 0002:00005124       ??_C@_0BM@PGMEOEON@?$CFs?$CI?$CJ?5?$CL?5?$CFd?5line?5?$FLaddr?$DN?$CF?$CDx?$FN?$AN?6?$AA@ 0044d124     CrashHandler:CrashHandler.obj
 0002:00005140       ??_C@_02PCIJFNDE@?$AN?6?$AA@ 0044d140     CrashHandler:CrashHandler.obj
 0002:00005144       ??_C@_0BI@LPLGKJOH@ebp?3?5?$CF?$CD08x?5esp?3?5?$CF?$CD08x?$AN?6?$AA@ 0044d144     CrashHandler:CrashHandler.obj
 0002:0000515c       ??_C@_0BI@IPBADDMD@esi?3?5?$CF?$CD08x?5edi?3?5?$CF?$CD08x?$AN?6?$AA@ 0044d15c     CrashHandler:CrashHandler.obj
 0002:00005174       ??_C@_0BI@FPMFIAAF@ecx?3?5?$CF?$CD08x?5edx?3?5?$CF?$CD08x?$AN?6?$AA@ 0044d174     CrashHandler:CrashHandler.obj
 0002:0000518c       ??_C@_0BI@FNGOPGAM@eax?3?5?$CF?$CD08x?5ebx?3?5?$CF?$CD08x?$AN?6?$AA@ 0044d18c     CrashHandler:CrashHandler.obj
 0002:000051a4       ??_C@_0L@KOMCHADB@Type?5?3?5?$CFs?6?$AA@ 0044d1a4     CrashHandler:CrashHandler.obj
 0002:000051b0       ??_C@_0CN@KOIMNJEJ@Process?5Handle?5?3?5?$CF?$CDx?7?7?5Thread?5Ha@ 0044d1b0     CrashHandler:CrashHandler.obj
 0002:000051e0       ??_C@_0BL@HEHLOBIO@?$CF4d?4?$CF2d?4?$CF2d?5?5?$CFd?3?$CFd?3?$CFd?4?$CFd?6?6?$AA@ 0044d1e0     CrashHandler:CrashHandler.obj
 0002:000051fc       ??_C@_0BH@FFLDLAJP@?$DN?$DN?5Webzen_1_Next_?$CFd?5?$DN?$DN?$AA@ 0044d1fc     CrashHandler:Mime.obj
 0002:00005214       ??_C@_08JPPPIBM@image?1?$CFs?$AA@ 0044d214     CrashHandler:Mime.obj
 0002:00005220       ??_C@_09KABDMIOB@text?1html?$AA@ 0044d220     CrashHandler:Mime.obj
 0002:0000522c       ??_C@_0L@NDKAOLEK@video?1mpeg?$AA@ 0044d22c     CrashHandler:Mime.obj
 0002:00005238       ??_C@_0BF@MFKIDJNI@audio?1x?9pn?9realaudio?$AA@ 0044d238     CrashHandler:Mime.obj
 0002:00005250       ??_C@_0L@DOFAEOCL@audio?1mpeg?$AA@ 0044d250     CrashHandler:Mime.obj
 0002:0000525c       ??_C@_0BO@NIIHMDLG@application?1vnd?4ms?9powerpoint?$AA@ 0044d25c     CrashHandler:Mime.obj
 0002:0000527c       ??_C@_03KHNNJJKB@PPT?$AA@  0044d27c     CrashHandler:Mime.obj
 0002:00005280       ??_C@_0BD@DMPJCPHP@application?1msword?$AA@ 0044d280     CrashHandler:Mime.obj
 0002:00005294       ??_C@_03GKFPDJLC@DOC?$AA@  0044d294     CrashHandler:Mime.obj
 0002:00005298       ??_C@_0BJ@HMNONEID@application?1vnd?4ms?9excel?$AA@ 0044d298     CrashHandler:Mime.obj
 0002:000052b4       ??_C@_03DIBEHNJN@XLS?$AA@  0044d2b4     CrashHandler:Mime.obj
 0002:000052b8       ??_C@_0BF@BNPBOMBG@application?1x?9gunzip?$AA@ 0044d2b8     CrashHandler:Mime.obj
 0002:000052d0       ??_C@_02DFDPAIHG@GZ?$AA@   0044d2d0     CrashHandler:Mime.obj
 0002:000052d4       ??_C@_0BA@HBOMMMBO@application?1rtf?$AA@ 0044d2d4     CrashHandler:Mime.obj
 0002:000052e4       ??_C@_03HCCJIJCF@RTF?$AA@  0044d2e4     CrashHandler:Mime.obj
 0002:000052e8       ??_C@_0BA@MHMDKHOF@application?1pdf?$AA@ 0044d2e8     CrashHandler:Mime.obj
 0002:000052f8       ??_C@_03MEAGOCNO@PDF?$AA@  0044d2f8     CrashHandler:Mime.obj
 0002:000052fc       ??_C@_0BN@FEIOCMMH@application?1x?9zip?9compressed?$AA@ 0044d2fc     CrashHandler:Mime.obj
 0002:0000531c       ??_C@_03LPPLCEDO@ZIP?$AA@  0044d31c     CrashHandler:Mime.obj
 0002:00005320       ??_C@_03DGAJNKMC@MP2?$AA@  0044d320     CrashHandler:Mime.obj
 0002:00005324       ??_C@_03CPBCOLID@MP3?$AA@  0044d324     CrashHandler:Mime.obj
 0002:00005328       ??_C@_0BA@EEIMNHCN@audio?1quicktime?$AA@ 0044d328     CrashHandler:Mime.obj
 0002:00005338       ??_C@_03CAOCJACM@MOV?$AA@  0044d338     CrashHandler:Mime.obj
 0002:0000533c       ??_C@_0M@DBGILIME@audio?1basic?$AA@ 0044d33c     CrashHandler:Mime.obj
 0002:00005348       ??_C@_03OJBCKKGE@SND?$AA@  0044d348     CrashHandler:Mime.obj
 0002:0000534c       ??_C@_0BA@LDCJKOCE@audio?1x?9msvideo?$AA@ 0044d34c     CrashHandler:Mime.obj
 0002:0000535c       ??_C@_03LEJJLJPF@AVI?$AA@  0044d35c     CrashHandler:Mime.obj
 0002:00005360       ??_C@_02IGOEKCHH@RA?$AA@   0044d360     CrashHandler:Mime.obj
 0002:00005364       ??_C@_03ILDADBHF@RAM?$AA@  0044d364     CrashHandler:Mime.obj
 0002:00005368       ??_C@_02CKFBONHL@RM?$AA@   0044d368     CrashHandler:Mime.obj
 0002:0000536c       ??_C@_0M@LIOCAMIK@audio?1x?9wav?$AA@ 0044d36c     CrashHandler:Mime.obj
 0002:00005378       ??_C@_03BFNIAKNN@WAV?$AA@  0044d378     CrashHandler:Mime.obj
 0002:0000537c       ??_C@_03FGHHDFPD@MPE?$AA@  0044d37c     CrashHandler:Mime.obj
 0002:00005380       ??_C@_04JLNKANFB@MPEG?$AA@ 0044d380     CrashHandler:Mime.obj
 0002:00005388       ??_C@_03GEEBFHHB@MPG?$AA@  0044d388     CrashHandler:Mime.obj
 0002:0000538c       ??_C@_04DBLPJNAF@HTML?$AA@ 0044d38c     CrashHandler:Mime.obj
 0002:00005394       ??_C@_03KOHJOHBF@HTM?$AA@  0044d394     CrashHandler:Mime.obj
 0002:00005398       ??_C@_0L@NPNLKGOJ@text?1plain?$AA@ 0044d398     CrashHandler:Mime.obj
 0002:000053a4       ??_C@_03CGKMFPEO@TXT?$AA@  0044d3a4     CrashHandler:Mime.obj
 0002:000053a8       ??_C@_04MAGGGPKP@TIFF?$AA@ 0044d3a8     CrashHandler:Mime.obj
 0002:000053b0       ??_C@_03EDLMOGNK@TIF?$AA@  0044d3b0     CrashHandler:Mime.obj
 0002:000053b4       ??_C@_03CNFPPDJC@BMP?$AA@  0044d3b4     CrashHandler:Mime.obj
 0002:000053b8       ??_C@_04CJPKNBEB@JPEG?$AA@ 0044d3b8     CrashHandler:Mime.obj
 0002:000053c0       ??_C@_03PJJGGPMI@JPG?$AA@  0044d3c0     CrashHandler:Mime.obj
 0002:000053c4       ??_C@_03BBABOKL@GIF?$AA@   0044d3c4     CrashHandler:Mime.obj
 0002:000053c8       ??_C@_0BJ@JDCJMJCJ@application?1octet?9stream?$AA@ 0044d3c8     CrashHandler:Mime.obj
 0002:000053e4       ??_C@_01LOCGONAA@?$AA?$AA@ 0044d3e4     CrashHandler:Base64.obj
 0002:000053e8       ??_C@_01NEMOKFLO@?$DN?$AA@ 0044d3e8     CrashHandler:Base64.obj
 0002:000053ec       ??_C@_0BC@MNIKNFKD@MiniDumpWriteDump?$AA@ 0044d3ec     CrashHandler:MiniDump.obj
 0002:00005400       ??_C@_0M@IBNEFJCG@DBGHELP?4DLL?$AA@ 0044d400     CrashHandler:MiniDump.obj
 0002:00005410       ??_7NetworkObject@@6B@     0044d410     Network:NetworkObject.obj
 0002:00005428       ??_C@_0CA@DGEKPAGN@Session?$FL?$CFd?$FN?5RecvBuffer?5Size?$FL?$CFd?$FN?$AA@ 0044d428     Network:IOCPServer.obj
 0002:00005448       ??_C@_0CA@GDOLANHK@Session?$FL?$CFd?$FN?5SendBuffer?5Size?$FL?$CFd?$FN?$AA@ 0044d448     Network:IOCPServer.obj
 0002:0000546c       ??_7IOCPServer@@6B@        0044d46c     Network:IOCPServer.obj
 0002:00005474       ??_7Session@@6B@           0044d474     Network:Session.obj
 0002:00005478       ??_C@_0DM@IEAPKIOL@?$FLBuffer?5Full?5On?5Send?$FN?$HMC?3P?$DN?$FL?$CF03u?3@ 0044d478     Network:Session.obj
 0002:000054b8       ??_C@_0HG@BDHDDFJN@the?5received?5packet?5header?5is?5in@ 0044d4b8     Network:Session.obj
 0002:00005530       ??_C@_0BL@IIMAALFC@?$FLPreRecv?$FN?5RecvBuffer?5Full?$CB?$AA@ 0044d530     Network:Session.obj
 0002:0000554c       ??_C@_0BN@CKKCKCI@Idle?5Session?5is?5disconnected?$AA@ 0044d54c     Network:IoHandler.obj
 0002:0000556c       ??_C@_0CK@PDFDLGOD@?$FLProcessConnectSuccessList?$FN?5PreR@ 0044d56c     Network:IoHandler.obj
 0002:00005598       ??_C@_0CL@MOMMCAEI@?$FLProcessAcceptedSessionList?$FN?5Pre@ 0044d598     Network:IoHandler.obj
 0002:000055c4       ??_C@_0CN@PEMONLEM@connection?5full?$CB?5no?5available?5ac@ 0044d5c4     Network:IoHandler.obj
 0002:000055f8       ??_7WxRingBuffer@module@@6B@ 0044d5f8     Network:WxRingBuffer.obj
 0002:00005804       ??_7type_info@@6B@         0044d804     LIBCMT:typinfo.obj
 0002:0000582c       ??_7exception@std@@6B@     0044d82c     LIBCMT:stdexcpt.obj
 0002:00005834       ??_C@_0BC@EOODALEL@Unknown?5exception?$AA@ 0044d834     LIBCMT:stdexcpt.obj
 0002:0000584c       ??_7bad_cast@std@@6B@      0044d84c     LIBCMT:stdexcpt.obj
 0002:00005854       __FPinit                   0044d854     LIBCMT:_fpinit_.obj
 0002:00005858       __FPmtinit                 0044d858     LIBCMT:_fpinit_.obj
 0002:0000585c       __FPmtterm                 0044d85c     LIBCMT:_fpinit_.obj
 0002:00005ba0       ??_C@_07INNMNHPJ@cmd?4exe?$AA@ 0044dba0     LIBCMT:system.obj
 0002:00005ba8       ??_C@_02HNHPBPFE@?1c?$AA@  0044dba8     LIBCMT:system.obj
 0002:00005bac       ??_C@_07CFPBBAOO@COMSPEC?$AA@ 0044dbac     LIBCMT:system.obj
 0002:00005bb4       ??_C@_01EEMJAFIK@?6?$AA@   0044dbb4     LIBCMT:perror.obj
 0002:00005bb8       ??_C@_02LMMGGCAJ@?3?5?$AA@ 0044dbb8     LIBCMT:perror.obj
 0002:00005bbc       ??_C@_07LCBHPJJN@LC_TIME?$AA@ 0044dbbc     LIBCMT:setlocal.obj
 0002:00005bc4       ??_C@_0L@DLHIECNL@LC_NUMERIC?$AA@ 0044dbc4     LIBCMT:setlocal.obj
 0002:00005bd0       ??_C@_0M@MIENIKLA@LC_MONETARY?$AA@ 0044dbd0     LIBCMT:setlocal.obj
 0002:00005bdc       ??_C@_08EADHIDAD@LC_CTYPE?$AA@ 0044dbdc     LIBCMT:setlocal.obj
 0002:00005be8       ??_C@_0L@KFJHEKIK@LC_COLLATE?$AA@ 0044dbe8     LIBCMT:setlocal.obj
 0002:00005bf4       ??_C@_06NEFDFEKB@LC_ALL?$AA@ 0044dbf4     LIBCMT:setlocal.obj
 0002:00005c00       ___lc_category             0044dc00     LIBCMT:setlocal.obj
 0002:00005cc8       ??_C@_03EGDHDPFD@_?4?0?$AA@ 0044dcc8     LIBCMT:setlocal.obj
 0002:00005ccc       ??_C@_01IDAFKMJL@_?$AA@    0044dccc     LIBCMT:setlocal.obj
 0002:00005cd0       ??_C@_02BALPLPBG@?$DN?$DL?$AA@ 0044dcd0     LIBCMT:setlocal.obj
 0002:00005cd4       ??_C@_13NOLLCAOD@?$AA?$AA?$AA?$AA@ 0044dcd4     LIBCMT:a_map.obj
 0002:00005cd8       ___newctype                0044dcd8     LIBCMT:ctype.obj
 0002:00005fd8       __wctype                   0044dfd8     LIBCMT:ctype.obj
 0002:000061e0       ___newclmap                0044e1e0     LIBCMT:ctype.obj
 0002:00006360       ___newcumap                0044e360     LIBCMT:ctype.obj
 0002:000064e0       ??_C@_0EA@FCLIIPNN@Visual?5C?$CL?$CL?5CRT?3?5Not?5enough?5memor@ 0044e4e0     LIBCMT:strerror.obj
 0002:00006520       __pDestructExceptionObject 0044e520     LIBCMT:frame.obj
 0002:00006528       ??_7bad_exception@std@@6B@ 0044e528     LIBCMT:frame.obj
 0002:00006530       ??_C@_0O@DPKOEFFH@bad?5exception?$AA@ 0044e530     LIBCMT:frame.obj
 0002:00006540       ??_C@_0O@NLDKAIKN@EncodePointer?$AA@ 0044e540     LIBCMT:tidtable.obj
 0002:00006550       ??_C@_1BK@DBDEIDLH@?$AAK?$AAE?$AAR?$AAN?$AAE?$AAL?$AA3?$AA2?$AA?4?$AAD?$AAL?$AAL?$AA?$AA@ 0044e550     LIBCMT:tidtable.obj
 0002:0000656c       ??_C@_0O@KBPMFGHI@DecodePointer?$AA@ 0044e56c     LIBCMT:tidtable.obj
 0002:0000657c       ??_C@_07PEJMOBNF@FlsFree?$AA@ 0044e57c     LIBCMT:tidtable.obj
 0002:00006584       ??_C@_0M@JCPCPOEF@FlsSetValue?$AA@ 0044e584     LIBCMT:tidtable.obj
 0002:00006590       ??_C@_0M@GDNOONDI@FlsGetValue?$AA@ 0044e590     LIBCMT:tidtable.obj
 0002:0000659c       ??_C@_08KNHFBNJ@FlsAlloc?$AA@ 0044e59c     LIBCMT:tidtable.obj
 0002:000065b0       ??_C@_1O@CEDCILHN@?$AA?$CI?$AAn?$AAu?$AAl?$AAl?$AA?$CJ?$AA?$AA@ 0044e5b0     LIBCMT:output.obj
 0002:000065c0       ___lookuptable             0044e5c0     LIBCMT:output.obj
 0002:0000661c       ??_C@_0P@MIGLKIOC@CorExitProcess?$AA@ 0044e61c     LIBCMT:crt0dat.obj
 0002:0000662c       ??_C@_1BI@BGOHAHKC@?$AAm?$AAs?$AAc?$AAo?$AAr?$AAe?$AAe?$AA?4?$AAd?$AAl?$AAl?$AA?$AA@ 0044e62c     LIBCMT:crt0dat.obj
 0002:00006644       ??_C@_0P@GGKDKEEG@runtime?5error?5?$AA@ 0044e644     LIBCMT:crt0msg.obj
 0002:00006654       ??_C@_0O@MJNIPGOH@TLOSS?5error?$AN?6?$AA@ 0044e654     LIBCMT:crt0msg.obj
 0002:00006664       ??_C@_0N@BONNPDHF@SING?5error?$AN?6?$AA@ 0044e664     LIBCMT:crt0msg.obj
 0002:00006674       ??_C@_0P@MBDAJNE@DOMAIN?5error?$AN?6?$AA@ 0044e674     LIBCMT:crt0msg.obj
 0002:00006688       ??_C@_0JL@DFDOOABL@R6034?$AN?6An?5application?5has?5made?5a@ 0044e688     LIBCMT:crt0msg.obj
 0002:00006728       ??_C@_0PH@EPAFIJ@R6033?$AN?6?9?5Attempt?5to?5use?5MSIL?5cod@ 0044e728     LIBCMT:crt0msg.obj
 0002:00006820       ??_C@_0DD@BKEEABMM@R6032?$AN?6?9?5not?5enough?5space?5for?5lo@ 0044e820     LIBCMT:crt0msg.obj
 0002:00006858       ??_C@_0GD@OFKILIED@R6031?$AN?6?9?5Attempt?5to?5initialize?5t@ 0044e858     LIBCMT:crt0msg.obj
 0002:000068bc       ??_C@_0BP@LPMHJOKI@R6030?$AN?6?9?5CRT?5not?5initialized?$AN?6?$AA@ 0044e8bc     LIBCMT:crt0msg.obj
 0002:000068dc       ??_C@_0CF@KJDAIALP@R6028?$AN?6?9?5unable?5to?5initialize?5he@ 0044e8dc     LIBCMT:crt0msg.obj
 0002:00006904       ??_C@_0DF@GAKBPDFP@R6027?$AN?6?9?5not?5enough?5space?5for?5lo@ 0044e904     LIBCMT:crt0msg.obj
 0002:0000693c       ??_C@_0DF@IBLNNAIG@R6026?$AN?6?9?5not?5enough?5space?5for?5st@ 0044e93c     LIBCMT:crt0msg.obj
 0002:00006974       ??_C@_0CG@IOHKGFNJ@R6025?$AN?6?9?5pure?5virtual?5function?5c@ 0044e974     LIBCMT:crt0msg.obj
 0002:0000699c       ??_C@_0DF@JIJJFJDC@R6024?$AN?6?9?5not?5enough?5space?5for?5_o@ 0044e99c     LIBCMT:crt0msg.obj
 0002:000069d4       ??_C@_0CJ@EGEJHFME@R6019?$AN?6?9?5unable?5to?5open?5console?5@ 0044e9d4     LIBCMT:crt0msg.obj
 0002:00006a00       ??_C@_0CB@GNHNIELH@R6018?$AN?6?9?5unexpected?5heap?5error?$AN?6@ 0044ea00     LIBCMT:crt0msg.obj
 0002:00006a24       ??_C@_0CN@FOLDKNG@R6017?$AN?6?9?5unexpected?5multithread?5@ 0044ea24     LIBCMT:crt0msg.obj
 0002:00006a54       ??_C@_0CM@FAHFJNHO@R6016?$AN?6?9?5not?5enough?5space?5for?5th@ 0044ea54     LIBCMT:crt0msg.obj
 0002:00006a80       ??_C@_0JG@LBKMGKLD@?$AN?6This?5application?5has?5requested@ 0044ea80     LIBCMT:crt0msg.obj
 0002:00006b18       ??_C@_0CM@FLCNIPKK@R6009?$AN?6?9?5not?5enough?5space?5for?5en@ 0044eb18     LIBCMT:crt0msg.obj
 0002:00006b44       ??_C@_0CK@KMMJOAPP@R6008?$AN?6?9?5not?5enough?5space?5for?5ar@ 0044eb44     LIBCMT:crt0msg.obj
 0002:00006b70       ??_C@_0CN@LEKKICBM@R6002?$AN?6?9?5floating?5point?5support?5@ 0044eb70     LIBCMT:crt0msg.obj
 0002:00006ba0       ??_C@_0CF@GOGNBNAK@Microsoft?5Visual?5C?$CL?$CL?5Runtime?5Lib@ 0044eba0     LIBCMT:crt0msg.obj
 0002:00006bc8       ??_C@_02PHMGELLB@?6?6?$AA@ 0044ebc8     LIBCMT:crt0msg.obj
 0002:00006bcc       ??_C@_03KHICJKCI@?4?4?4?$AA@ 0044ebcc     LIBCMT:crt0msg.obj
 0002:00006bd0       ??_C@_0BH@DNAGHKFM@?$DMprogram?5name?5unknown?$DO?$AA@ 0044ebd0     LIBCMT:crt0msg.obj
 0002:00006be8       ??_C@_0BK@OFGJDLJJ@Runtime?5Error?$CB?6?6Program?3?5?$AA@ 0044ebe8     LIBCMT:crt0msg.obj
 0002:00006c24       ??_C@_05KLBDPFGC@e?$CL000?$AA@ 0044ec24     LIBCMT:cvt.obj
 0002:00006c30       __real@4150017ec0000000    0044ec30     LIBCMT:_testfdiv_.obj
 0002:00006c38       __real@4147ffff80000000    0044ec38     LIBCMT:_testfdiv_.obj
 0002:00006c40       ??_C@_0BK@NHEOCAHP@IsProcessorFeaturePresent?$AA@ 0044ec40     LIBCMT:_testfdiv_.obj
 0002:00006c5c       ??_C@_08CPNIBGIE@KERNEL32?$AA@ 0044ec5c     LIBCMT:_testfdiv_.obj
 0002:00006c68       __XcptActTab               0044ec68     LIBCMT:winxfltr.obj
 0002:00006ce0       ??_C@_06GDENEHCP@CONIN$?$AA@ 0044ece0     LIBCMT:initcon.obj
 0002:00006ce8       ??_C@_07GPDNMNG@CONOUT$?$AA@ 0044ece8     LIBCMT:initcon.obj
 0002:00006cf0       ??_C@_01KICIPPFI@?2?$AA@   0044ecf0     LIBCMT:spawnvpe.obj
 0002:00006cf4       ??_C@_04HBHDLLBA@PATH?$AA@ 0044ecf4     LIBCMT:spawnvpe.obj
 0002:00006cfc       ??_C@_04PNGHFIJN@?4com?$AA@ 0044ecfc     LIBCMT:spawnve.obj
 0002:00006d04       ??_C@_04JLMDILM@?4exe?$AA@ 0044ed04     LIBCMT:spawnve.obj
 0002:00006d0c       ??_C@_04NEEFLLOK@?4bat?$AA@ 0044ed0c     LIBCMT:spawnve.obj
 0002:00006d14       ??_C@_04CPCBDHLK@?4cmd?$AA@ 0044ed14     LIBCMT:spawnve.obj
 0002:00006d1c       ??_C@_02CEGDFPFP@?4?2?$AA@ 0044ed1c     LIBCMT:spawnve.obj
 0002:00006d20       ??_C@_0BG@KLEAJEFJ@Illegal?5byte?5sequence?$AA@ 0044ed20     LIBCMT:syserr.obj
 0002:00006d38       ??_C@_0BE@ICMCHPHH@Directory?5not?5empty?$AA@ 0044ed38     LIBCMT:syserr.obj
 0002:00006d4c       ??_C@_0BJ@IHEHINLI@Function?5not?5implemented?$AA@ 0044ed4c     LIBCMT:syserr.obj
 0002:00006d68       ??_C@_0BD@CLHBCGPB@No?5locks?5available?$AA@ 0044ed68     LIBCMT:syserr.obj
 0002:00006d7c       ??_C@_0BC@BEDIHIDK@Filename?5too?5long?$AA@ 0044ed7c     LIBCMT:syserr.obj
 0002:00006d90       ??_C@_0BK@JAEBMJJM@Resource?5deadlock?5avoided?$AA@ 0044ed90     LIBCMT:syserr.obj
 0002:00006dac       ??_C@_0BB@FCBJFCAJ@Result?5too?5large?$AA@ 0044edac     LIBCMT:syserr.obj
 0002:00006dc0       ??_C@_0N@MMJPGLJK@Domain?5error?$AA@ 0044edc0     LIBCMT:syserr.obj
 0002:00006dd0       ??_C@_0M@LHEPIIOM@Broken?5pipe?$AA@ 0044edd0     LIBCMT:syserr.obj
 0002:00006ddc       ??_C@_0P@PKCJJLLM@Too?5many?5links?$AA@ 0044eddc     LIBCMT:syserr.obj
 0002:00006dec       ??_C@_0BG@DDBFNKBH@Read?9only?5file?5system?$AA@ 0044edec     LIBCMT:syserr.obj
 0002:00006e04       ??_C@_0N@FEHLOILP@Invalid?5seek?$AA@ 0044ee04     LIBCMT:syserr.obj
 0002:00006e14       ??_C@_0BI@FEALHKLD@No?5space?5left?5on?5device?$AA@ 0044ee14     LIBCMT:syserr.obj
 0002:00006e2c       ??_C@_0P@LFMMIPAE@File?5too?5large?$AA@ 0044ee2c     LIBCMT:syserr.obj
 0002:00006e3c       ??_C@_0CE@ONOKNLPF@Inappropriate?5I?1O?5control?5operat@ 0044ee3c     LIBCMT:syserr.obj
 0002:00006e60       ??_C@_0BE@INBJMKGG@Too?5many?5open?5files?$AA@ 0044ee60     LIBCMT:syserr.obj
 0002:00006e74       ??_C@_0BO@IIFBODJE@Too?5many?5open?5files?5in?5system?$AA@ 0044ee74     LIBCMT:syserr.obj
 0002:00006e94       ??_C@_0BB@HMGGCEBG@Invalid?5argument?$AA@ 0044ee94     LIBCMT:syserr.obj
 0002:00006ea8       ??_C@_0P@NDHGCGKE@Is?5a?5directory?$AA@ 0044eea8     LIBCMT:syserr.obj
 0002:00006eb8       ??_C@_0BA@CJBACOOL@Not?5a?5directory?$AA@ 0044eeb8     LIBCMT:syserr.obj
 0002:00006ec8       ??_C@_0P@NLEIANHE@No?5such?5device?$AA@ 0044eec8     LIBCMT:syserr.obj
 0002:00006ed8       ??_C@_0O@OAMDNOCP@Improper?5link?$AA@ 0044eed8     LIBCMT:syserr.obj
 0002:00006ee8       ??_C@_0M@NAAJNNGH@File?5exists?$AA@ 0044eee8     LIBCMT:syserr.obj
 0002:00006ef4       ??_C@_0BA@BIBLIOEK@Resource?5device?$AA@ 0044eef4     LIBCMT:syserr.obj
 0002:00006f04       ??_C@_0M@LOEHLCJD@Bad?5address?$AA@ 0044ef04     LIBCMT:syserr.obj
 0002:00006f10       ??_C@_0BC@HFNFNKAI@Permission?5denied?$AA@ 0044ef10     LIBCMT:syserr.obj
 0002:00006f24       ??_C@_0BB@IMDKMPFB@Not?5enough?5space?$AA@ 0044ef24     LIBCMT:syserr.obj
 0002:00006f38       ??_C@_0CB@EPFKGNAK@Resource?5temporarily?5unavailable@ 0044ef38     LIBCMT:syserr.obj
 0002:00006f5c       ??_C@_0BD@LOHELEP@No?5child?5processes?$AA@ 0044ef5c     LIBCMT:syserr.obj
 0002:00006f70       ??_C@_0BE@NFGDDCEF@Bad?5file?5descriptor?$AA@ 0044ef70     LIBCMT:syserr.obj
 0002:00006f84       ??_C@_0BC@HKPNECK@Exec?5format?5error?$AA@ 0044ef84     LIBCMT:syserr.obj
 0002:00006f98       ??_C@_0BC@MFFGCDFL@Arg?5list?5too?5long?$AA@ 0044ef98     LIBCMT:syserr.obj
 0002:00006fac       ??_C@_0BK@DPKMCKJ@No?5such?5device?5or?5address?$AA@ 0044efac     LIBCMT:syserr.obj
 0002:00006fc8       ??_C@_0BD@KKNFOBBD@Input?1output?5error?$AA@ 0044efc8     LIBCMT:syserr.obj
 0002:00006fdc       ??_C@_0BK@FJBOAFDK@Interrupted?5function?5call?$AA@ 0044efdc     LIBCMT:syserr.obj
 0002:00006ff8       ??_C@_0BA@FKIAIBGA@No?5such?5process?$AA@ 0044eff8     LIBCMT:syserr.obj
 0002:00007008       ??_C@_0BK@FMDHKPNF@No?5such?5file?5or?5directory?$AA@ 0044f008     LIBCMT:syserr.obj
 0002:00007024       ??_C@_0BI@BJFCGOHL@Operation?5not?5permitted?$AA@ 0044f024     LIBCMT:syserr.obj
 0002:0000703c       ??_C@_08INEPGKHH@No?5error?$AA@ 0044f03c     LIBCMT:syserr.obj
 0002:00007048       ??_C@_02CLFPBFFP@TZ?$AA@   0044f048     LIBCMT:tzset.obj
 0002:0000704c       ___dnames                  0044f04c     LIBCMT:timeset.obj
 0002:00007064       ___mnames                  0044f064     LIBCMT:timeset.obj
 0002:000070c4       ??_C@_08JCCMCCIL@HH?3mm?3ss?$AA@ 0044f0c4     LIBCMT:strftime.obj
 0002:000070d0       ??_C@_0BE@CKGJFCPC@dddd?0?5MMMM?5dd?0?5yyyy?$AA@ 0044f0d0     LIBCMT:strftime.obj
 0002:000070e4       ??_C@_08BPBNCDIB@MM?1dd?1yy?$AA@ 0044f0e4     LIBCMT:strftime.obj
 0002:000070f0       ??_C@_02CJNFDJBF@PM?$AA@   0044f0f0     LIBCMT:strftime.obj
 0002:000070f4       ??_C@_02DEDBPAFC@AM?$AA@   0044f0f4     LIBCMT:strftime.obj
 0002:000070f8       ??_C@_08EDHMEBNP@December?$AA@ 0044f0f8     LIBCMT:strftime.obj
 0002:00007104       ??_C@_08HCHEGEOA@November?$AA@ 0044f104     LIBCMT:strftime.obj
 0002:00007110       ??_C@_07JJNFCEND@October?$AA@ 0044f110     LIBCMT:strftime.obj
 0002:00007118       ??_C@_09BHHEALKD@September?$AA@ 0044f118     LIBCMT:strftime.obj
 0002:00007124       ??_C@_06LBBHFDDG@August?$AA@ 0044f124     LIBCMT:strftime.obj
 0002:0000712c       ??_C@_04MIEPOIFP@July?$AA@ 0044f12c     LIBCMT:strftime.obj
 0002:00007134       ??_C@_04CNLMGBGM@June?$AA@ 0044f134     LIBCMT:strftime.obj
 0002:0000713c       ??_C@_05DMJDNLEJ@April?$AA@ 0044f13c     LIBCMT:strftime.obj
 0002:00007144       ??_C@_05HPCKOFNC@March?$AA@ 0044f144     LIBCMT:strftime.obj
 0002:0000714c       ??_C@_08GNJGEPFN@February?$AA@ 0044f14c     LIBCMT:strftime.obj
 0002:00007158       ??_C@_07CGJPFGJA@January?$AA@ 0044f158     LIBCMT:strftime.obj
 0002:00007160       ??_C@_03MKABNOCG@Dec?$AA@  0044f160     LIBCMT:strftime.obj
 0002:00007164       ??_C@_03JPJOFNIA@Nov?$AA@  0044f164     LIBCMT:strftime.obj
 0002:00007168       ??_C@_03BMAOKBAD@Oct?$AA@  0044f168     LIBCMT:strftime.obj
 0002:0000716c       ??_C@_03GGCAPAJC@Sep?$AA@  0044f16c     LIBCMT:strftime.obj
 0002:00007170       ??_C@_03IFJFEIGA@Aug?$AA@  0044f170     LIBCMT:strftime.obj
 0002:00007174       ??_C@_03LBGABGKK@Jul?$AA@  0044f174     LIBCMT:strftime.obj
 0002:00007178       ??_C@_03IDFGHECI@Jun?$AA@  0044f178     LIBCMT:strftime.obj
 0002:0000717c       ??_C@_03CNMDKL@May?$AA@    0044f17c     LIBCMT:strftime.obj
 0002:00007180       ??_C@_03LEOLGMJP@Apr?$AA@  0044f180     LIBCMT:strftime.obj
 0002:00007184       ??_C@_03ODNJBKGA@Mar?$AA@  0044f184     LIBCMT:strftime.obj
 0002:00007188       ??_C@_03HJBDCHOM@Feb?$AA@  0044f188     LIBCMT:strftime.obj
 0002:0000718c       ??_C@_03JIHJHPIE@Jan?$AA@  0044f18c     LIBCMT:strftime.obj
 0002:00007190       ??_C@_08INBOOONO@Saturday?$AA@ 0044f190     LIBCMT:strftime.obj
 0002:0000719c       ??_C@_06JECMNKMI@Friday?$AA@ 0044f19c     LIBCMT:strftime.obj
 0002:000071a4       ??_C@_08HACCIKIA@Thursday?$AA@ 0044f1a4     LIBCMT:strftime.obj
 0002:000071b0       ??_C@_09DLIGFAKA@Wednesday?$AA@ 0044f1b0     LIBCMT:strftime.obj
 0002:000071bc       ??_C@_07BAAGCFCM@Tuesday?$AA@ 0044f1bc     LIBCMT:strftime.obj
 0002:000071c4       ??_C@_06JLEDEDGH@Monday?$AA@ 0044f1c4     LIBCMT:strftime.obj
 0002:000071cc       ??_C@_06OOPIFAJ@Sunday?$AA@ 0044f1cc     LIBCMT:strftime.obj
 0002:000071d4       ??_C@_03FEFJNEK@Sat?$AA@   0044f1d4     LIBCMT:strftime.obj
 0002:000071d8       ??_C@_03IDIOELNC@Fri?$AA@  0044f1d8     LIBCMT:strftime.obj
 0002:000071dc       ??_C@_03IOFIKPDN@Thu?$AA@  0044f1dc     LIBCMT:strftime.obj
 0002:000071e0       ??_C@_03MHOMLAJA@Wed?$AA@  0044f1e0     LIBCMT:strftime.obj
 0002:000071e4       ??_C@_03NAGEINEP@Tue?$AA@  0044f1e4     LIBCMT:strftime.obj
 0002:000071e8       ??_C@_03PDAGKDH@Mon?$AA@   0044f1e8     LIBCMT:strftime.obj
 0002:000071ec       ??_C@_03KOEHGMDN@Sun?$AA@  0044f1ec     LIBCMT:strftime.obj
 0002:000071f0       ??_C@_0O@FMJNFNKE@united?9states?$AA@ 0044f1f0     LIBCMT:getqloc.obj
 0002:00007200       ??_C@_0P@NDHFFKCA@united?9kingdom?$AA@ 0044f200     LIBCMT:getqloc.obj
 0002:00007210       ??_C@_0BC@HHDADLGF@trinidad?5?$CG?5tobago?$AA@ 0044f210     LIBCMT:getqloc.obj
 0002:00007224       ??_C@_0M@IOAEBDAC@south?9korea?$AA@ 0044f224     LIBCMT:getqloc.obj
 0002:00007230       ??_C@_0N@FIELFKIJ@south?9africa?$AA@ 0044f230     LIBCMT:getqloc.obj
 0002:00007240       ??_C@_0M@OPNDHCMC@south?5korea?$AA@ 0044f240     LIBCMT:getqloc.obj
 0002:0000724c       ??_C@_0N@MDEOEPFI@south?5africa?$AA@ 0044f24c     LIBCMT:getqloc.obj
 0002:0000725c       ??_C@_06FKAPCJLB@slovak?$AA@ 0044f25c     LIBCMT:getqloc.obj
 0002:00007264       ??_C@_0M@EFJANOAL@puerto?9rico?$AA@ 0044f264     LIBCMT:getqloc.obj
 0002:00007270       ??_C@_08PGOJKDAI@pr?9china?$AA@ 0044f270     LIBCMT:getqloc.obj
 0002:0000727c       ??_C@_08JHDOMCMI@pr?5china?$AA@ 0044f27c     LIBCMT:getqloc.obj
 0002:00007288       ??_C@_02JHCHFBLL@nz?$AA@   0044f288     LIBCMT:getqloc.obj
 0002:0000728c       ??_C@_0M@LINHDHKP@new?9zealand?$AA@ 0044f28c     LIBCMT:getqloc.obj
 0002:00007298       ??_C@_09IIIPPBDB@hong?9kong?$AA@ 0044f298     LIBCMT:getqloc.obj
 0002:000072a4       ??_C@_07HJLCKBG@holland?$AA@ 0044f2a4     LIBCMT:getqloc.obj
 0002:000072ac       ??_C@_0O@LEHGMHAG@great?5britain?$AA@ 0044f2ac     LIBCMT:getqloc.obj
 0002:000072bc       ??_C@_07FACOMELA@england?$AA@ 0044f2bc     LIBCMT:getqloc.obj
 0002:000072c4       ??_C@_05JIHCEICB@czech?$AA@ 0044f2c4     LIBCMT:getqloc.obj
 0002:000072cc       ??_C@_05BBJOBLGB@china?$AA@ 0044f2cc     LIBCMT:getqloc.obj
 0002:000072d4       ??_C@_07GPKPHICP@britain?$AA@ 0044f2d4     LIBCMT:getqloc.obj
 0002:000072dc       ??_C@_07MHIPBHMG@america?$AA@ 0044f2dc     LIBCMT:getqloc.obj
 0002:000072e4       ??_C@_03KIALPMKC@usa?$AA@  0044f2e4     LIBCMT:getqloc.obj
 0002:000072e8       ??_C@_02FGJGKGGD@us?$AA@   0044f2e8     LIBCMT:getqloc.obj
 0002:000072ec       ??_C@_02NEINDODK@uk?$AA@   0044f2ec     LIBCMT:getqloc.obj
 0002:000072f0       ??_C@_05JMPCFJFJ@swiss?$AA@ 0044f2f0     LIBCMT:getqloc.obj
 0002:000072f8       ??_C@_0BA@HLOCPIOD@swedish?9finland?$AA@ 0044f2f8     LIBCMT:getqloc.obj
 0002:00007308       ??_C@_0BC@PKCNIABK@spanish?9venezuela?$AA@ 0044f308     LIBCMT:getqloc.obj
 0002:0000731c       ??_C@_0BA@GBHHMIJI@spanish?9uruguay?$AA@ 0044f31c     LIBCMT:getqloc.obj
 0002:0000732c       ??_C@_0BE@BHDOHPMC@spanish?9puerto?5rico?$AA@ 0044f32c     LIBCMT:getqloc.obj
 0002:00007340       ??_C@_0N@KMOIDGGN@spanish?9peru?$AA@ 0044f340     LIBCMT:getqloc.obj
 0002:00007350       ??_C@_0BB@HMHLPGPH@spanish?9paraguay?$AA@ 0044f350     LIBCMT:getqloc.obj
 0002:00007364       ??_C@_0P@MCPKNGFD@spanish?9panama?$AA@ 0044f364     LIBCMT:getqloc.obj
 0002:00007374       ??_C@_0BC@IHOHGAIL@spanish?9nicaragua?$AA@ 0044f374     LIBCMT:getqloc.obj
 0002:00007388       ??_C@_0P@KLMJDNFJ@spanish?9modern?$AA@ 0044f388     LIBCMT:getqloc.obj
 0002:00007398       ??_C@_0BA@BPAPGBCM@spanish?9mexican?$AA@ 0044f398     LIBCMT:getqloc.obj
 0002:000073a8       ??_C@_0BB@PDECHHHE@spanish?9honduras?$AA@ 0044f3a8     LIBCMT:getqloc.obj
 0002:000073bc       ??_C@_0BC@KLHKFGDB@spanish?9guatemala?$AA@ 0044f3bc     LIBCMT:getqloc.obj
 0002:000073d0       ??_C@_0BE@MFOOKJAI@spanish?9el?5salvador?$AA@ 0044f3d0     LIBCMT:getqloc.obj
 0002:000073e4       ??_C@_0BA@FCOKFPFC@spanish?9ecuador?$AA@ 0044f3e4     LIBCMT:getqloc.obj
 0002:000073f4       ??_C@_0BL@PLMGIMOO@spanish?9dominican?5republic?$AA@ 0044f3f4     LIBCMT:getqloc.obj
 0002:00007410       ??_C@_0BD@HLGDNMHB@spanish?9costa?5rica?$AA@ 0044f410     LIBCMT:getqloc.obj
 0002:00007424       ??_C@_0BB@PKCBKCPE@spanish?9colombia?$AA@ 0044f424     LIBCMT:getqloc.obj
 0002:00007438       ??_C@_0O@MCBIJGNE@spanish?9chile?$AA@ 0044f438     LIBCMT:getqloc.obj
 0002:00007448       ??_C@_0BA@BEFEIGJJ@spanish?9bolivia?$AA@ 0044f448     LIBCMT:getqloc.obj
 0002:00007458       ??_C@_0BC@EMECMPD@spanish?9argentina?$AA@ 0044f458     LIBCMT:getqloc.obj
 0002:0000746c       ??_C@_0BF@EALFLENP@portuguese?9brazilian?$AA@ 0044f46c     LIBCMT:getqloc.obj
 0002:00007484       ??_C@_0BC@HBLEBLNN@norwegian?9nynorsk?$AA@ 0044f484     LIBCMT:getqloc.obj
 0002:00007498       ??_C@_0BB@HMACDDCK@norwegian?9bokmal?$AA@ 0044f498     LIBCMT:getqloc.obj
 0002:000074ac       ??_C@_09BAFFPPHE@norwegian?$AA@ 0044f4ac     LIBCMT:getqloc.obj
 0002:000074b8       ??_C@_0O@EAJFJDFG@italian?9swiss?$AA@ 0044f4b8     LIBCMT:getqloc.obj
 0002:000074c8       ??_C@_0O@CNOMPGD@irish?9english?$AA@ 0044f4c8     LIBCMT:getqloc.obj
 0002:000074d8       ??_C@_0N@EDHBGCKG@german?9swiss?$AA@ 0044f4d8     LIBCMT:getqloc.obj
 0002:000074e8       ??_C@_0BC@JACMHNBP@german?9luxembourg?$AA@ 0044f4e8     LIBCMT:getqloc.obj
 0002:000074fc       ??_C@_0BE@HBGMGFEG@german?9lichtenstein?$AA@ 0044f4fc     LIBCMT:getqloc.obj
 0002:00007510       ??_C@_0BA@HKKBIBKL@german?9austrian?$AA@ 0044f510     LIBCMT:getqloc.obj
 0002:00007520       ??_C@_0N@GCAEPEBK@french?9swiss?$AA@ 0044f520     LIBCMT:getqloc.obj
 0002:00007530       ??_C@_0BC@DJFJJCK@french?9luxembourg?$AA@ 0044f530     LIBCMT:getqloc.obj
 0002:00007544       ??_C@_0BA@NNCEDFIC@french?9canadian?$AA@ 0044f544     LIBCMT:getqloc.obj
 0002:00007554       ??_C@_0P@CMPOCLM@french?9belgian?$AA@ 0044f554     LIBCMT:getqloc.obj
 0002:00007564       ??_C@_0M@GHHDJOK@english?9usa?$AA@ 0044f564     LIBCMT:getqloc.obj
 0002:00007570       ??_C@_0L@PLDJKEIL@english?9us?$AA@ 0044f570     LIBCMT:getqloc.obj
 0002:0000757c       ??_C@_0L@HJCCDMNC@english?9uk?$AA@ 0044f57c     LIBCMT:getqloc.obj
 0002:00007588       ??_C@_0BK@CKLIAGJB@english?9trinidad?5y?5tobago?$AA@ 0044f588     LIBCMT:getqloc.obj
 0002:000075a4       ??_C@_0BF@JMJMGNNF@english?9south?5africa?$AA@ 0044f5a4     LIBCMT:getqloc.obj
 0002:000075bc       ??_C@_0L@DKIIFDFD@english?9nz?$AA@ 0044f5bc     LIBCMT:getqloc.obj
 0002:000075c8       ??_C@_0BA@ONHGJCLH@english?9jamaica?$AA@ 0044f5c8     LIBCMT:getqloc.obj
 0002:000075d8       ??_C@_0M@HJBGHOPO@english?9ire?$AA@ 0044f5d8     LIBCMT:getqloc.obj
 0002:000075e4       ??_C@_0BC@LFEKMIFB@english?9caribbean?$AA@ 0044f5e4     LIBCMT:getqloc.obj
 0002:000075f8       ??_C@_0M@OLDPFKHI@english?9can?$AA@ 0044f5f8     LIBCMT:getqloc.obj
 0002:00007604       ??_C@_0P@OMDEHBMP@english?9belize?$AA@ 0044f604     LIBCMT:getqloc.obj
 0002:00007614       ??_C@_0M@KFHFPFED@english?9aus?$AA@ 0044f614     LIBCMT:getqloc.obj
 0002:00007620       ??_C@_0BB@MNMBKDFE@english?9american?$AA@ 0044f620     LIBCMT:getqloc.obj
 0002:00007634       ??_C@_0O@KIDLNNBA@dutch?9belgian?$AA@ 0044f634     LIBCMT:getqloc.obj
 0002:00007644       ??_C@_0BE@JBKABBMH@chinese?9traditional?$AA@ 0044f644     LIBCMT:getqloc.obj
 0002:00007658       ??_C@_0BC@MJJMPKCG@chinese?9singapore?$AA@ 0044f658     LIBCMT:getqloc.obj
 0002:0000766c       ??_C@_0BD@FDKADDCP@chinese?9simplified?$AA@ 0044f66c     LIBCMT:getqloc.obj
 0002:00007680       ??_C@_0BB@DBEFDDME@chinese?9hongkong?$AA@ 0044f680     LIBCMT:getqloc.obj
 0002:00007694       ??_C@_07DHNMFMCI@chinese?$AA@ 0044f694     LIBCMT:getqloc.obj
 0002:0000769c       ??_C@_03FNDDCHI@chi?$AA@   0044f69c     LIBCMT:getqloc.obj
 0002:000076a0       ??_C@_03BMMIADDJ@chh?$AA@  0044f6a0     LIBCMT:getqloc.obj
 0002:000076a4       ??_C@_08OAIPJDGI@canadian?$AA@ 0044f6a4     LIBCMT:getqloc.obj
 0002:000076b0       ??_C@_07HBPMNPNJ@belgian?$AA@ 0044f6b0     LIBCMT:getqloc.obj
 0002:000076b8       ??_C@_0L@OEKOPBEL@australian?$AA@ 0044f6b8     LIBCMT:getqloc.obj
 0002:000076c4       ??_C@_0BB@MEIMBEDG@american?9english?$AA@ 0044f6c4     LIBCMT:getqloc.obj
 0002:000076d8       ??_C@_0BB@DFMDPDGB@american?5english?$AA@ 0044f6d8     LIBCMT:getqloc.obj
 0002:000076ec       ??_C@_08IJLOKOLL@american?$AA@ 0044f6ec     LIBCMT:getqloc.obj
 0002:000076f8       ___rg_language             0044f6f8     LIBCMT:getqloc.obj
 0002:00007900       ___rg_country              0044f900     LIBCMT:getqloc.obj
 0002:000079b8       ___rglangidNotDefault      0044f9b8     LIBCMT:getqloc.obj
 0002:000079cc       ??_C@_01GBGANLPD@0?$AA@    0044f9cc     LIBCMT:getqloc.obj
 0002:000079d0       ??_C@_03NFKLAGEF@OCP?$AA@  0044f9d0     LIBCMT:getqloc.obj
 0002:000079d4       ??_C@_03DFHEHBHG@ACP?$AA@  0044f9d4     LIBCMT:getqloc.obj
 0002:000079d8       ??_C@_0BC@NFIEMBLL@Norwegian?9Nynorsk?$AA@ 0044f9d8     LIBCMT:getqloc.obj
 0002:000079ec       ??_C@_0BK@CFCOFLF@?5Complete?5Object?5Locator?8?$AA@ 0044f9ec     LIBCMT:undname.obj
 0002:00007a08       ??_C@_0BN@MECKDCOJ@?5Class?5Hierarchy?5Descriptor?8?$AA@ 0044fa08     LIBCMT:undname.obj
 0002:00007a28       ??_C@_0BD@LGICGFMM@?5Base?5Class?5Array?8?$AA@ 0044fa28     LIBCMT:undname.obj
 0002:00007a3c       ??_C@_0BM@LDKODKLH@?5Base?5Class?5Descriptor?5at?5?$CI?$AA@ 0044fa3c     LIBCMT:undname.obj
 0002:00007a58       ??_C@_0BC@DAFEJGAK@?5Type?5Descriptor?8?$AA@ 0044fa58     LIBCMT:undname.obj
 0002:00007a6c       ??_C@_0BM@PMGGMLDN@?$GAlocal?5static?5thread?5guard?8?$AA@ 0044fa6c     LIBCMT:undname.obj
 0002:00007a88       ??_C@_0CL@FGIJHLCE@?$GAmanaged?5vector?5copy?5constructor@ 0044fa88     LIBCMT:undname.obj
 0002:00007ab4       ??_C@_0CJ@GJELGAMM@?$GAvector?5vbase?5copy?5constructor?5i@ 0044fab4     LIBCMT:undname.obj
 0002:00007ae0       ??_C@_0CD@CGAJBKEJ@?$GAvector?5copy?5constructor?5iterato@ 0044fae0     LIBCMT:undname.obj
 0002:00007b04       ??_C@_0CB@PDBIFEP@?$GAdynamic?5atexit?5destructor?5for?5?8@ 0044fb04     LIBCMT:undname.obj
 0002:00007b28       ??_C@_0BL@CLIPGLGB@?$GAdynamic?5initializer?5for?5?8?$AA@ 0044fb28     LIBCMT:undname.obj
 0002:00007b44       ??_C@_0CM@FCBBDIGB@?$GAeh?5vector?5vbase?5copy?5constructo@ 0044fb44     LIBCMT:undname.obj
 0002:00007b70       ??_C@_0CG@HLDDJMAG@?$GAeh?5vector?5copy?5constructor?5iter@ 0044fb70     LIBCMT:undname.obj
 0002:00007b98       ??_C@_0CF@IMGKMJNO@?$GAmanaged?5vector?5destructor?5itera@ 0044fb98     LIBCMT:undname.obj
 0002:00007bc0       ??_C@_0CG@CFDHKGGD@?$GAmanaged?5vector?5constructor?5iter@ 0044fbc0     LIBCMT:undname.obj
 0002:00007be8       ??_C@_0BN@CKNJLHMB@?$GAplacement?5delete?$FL?$FN?5closure?8?$AA@ 0044fbe8     LIBCMT:undname.obj
 0002:00007c08       ??_C@_0BL@CNOONJFP@?$GAplacement?5delete?5closure?8?$AA@ 0044fc08     LIBCMT:undname.obj
 0002:00007c24       ??_C@_0P@HJKNJFNN@?$GAomni?5callsig?8?$AA@ 0044fc24     LIBCMT:undname.obj
 0002:00007c34       ??_C@_09LBNFPBCA@?5delete?$FL?$FN?$AA@ 0044fc34     LIBCMT:undname.obj
 0002:00007c40       ??_C@_06FHBGPFGH@?5new?$FL?$FN?$AA@ 0044fc40     LIBCMT:undname.obj
 0002:00007c48       ??_C@_0CE@IIHCMGGL@?$GAlocal?5vftable?5constructor?5closu@ 0044fc48     LIBCMT:undname.obj
 0002:00007c6c       ??_C@_0BA@KKLDJDLB@?$GAlocal?5vftable?8?$AA@ 0044fc6c     LIBCMT:undname.obj
 0002:00007c7c       ??_C@_05KHLCHHI@?$GARTTI?$AA@ 0044fc7c     LIBCMT:undname.obj
 0002:00007c84       ??_C@_03KLGMFNMG@?$GAEH?$AA@ 0044fc84     LIBCMT:undname.obj
 0002:00007c88       ??_C@_0BA@KBCDOMBN@?$GAudt?5returning?8?$AA@ 0044fc88     LIBCMT:undname.obj
 0002:00007c98       ??_C@_0BL@LLKPOHJI@?$GAcopy?5constructor?5closure?8?$AA@ 0044fc98     LIBCMT:undname.obj
 0002:00007cb4       ??_C@_0CH@OOJPLCPH@?$GAeh?5vector?5vbase?5constructor?5ite@ 0044fcb4     LIBCMT:undname.obj
 0002:00007cdc       ??_C@_0CA@GCEOPDGL@?$GAeh?5vector?5destructor?5iterator?8?$AA@ 0044fcdc     LIBCMT:undname.obj
 0002:00007cfc       ??_C@_0CB@JONCMFFK@?$GAeh?5vector?5constructor?5iterator?8@ 0044fcfc     LIBCMT:undname.obj
 0002:00007d20       ??_C@_0BL@NILFHHPC@?$GAvirtual?5displacement?5map?8?$AA@ 0044fd20     LIBCMT:undname.obj
 0002:00007d3c       ??_C@_0CE@IKBNEHA@?$GAvector?5vbase?5constructor?5iterat@ 0044fd3c     LIBCMT:undname.obj
 0002:00007d60       ??_C@_0BN@LFPFMEDL@?$GAvector?5destructor?5iterator?8?$AA@ 0044fd60     LIBCMT:undname.obj
 0002:00007d80       ??_C@_0BO@PFGOCPJJ@?$GAvector?5constructor?5iterator?8?$AA@ 0044fd80     LIBCMT:undname.obj
 0002:00007da0       ??_C@_0BN@IMDCHIKM@?$GAscalar?5deleting?5destructor?8?$AA@ 0044fda0     LIBCMT:undname.obj
 0002:00007dc0       ??_C@_0BO@OBMKPJIG@?$GAdefault?5constructor?5closure?8?$AA@ 0044fdc0     LIBCMT:undname.obj
 0002:00007de0       ??_C@_0BN@DEGPLNFK@?$GAvector?5deleting?5destructor?8?$AA@ 0044fde0     LIBCMT:undname.obj
 0002:00007e00       ??_C@_0BD@JDLKDPAB@?$GAvbase?5destructor?8?$AA@ 0044fe00     LIBCMT:undname.obj
 0002:00007e14       ??_C@_08OBABFOLI@?$GAstring?8?$AA@ 0044fe14     LIBCMT:undname.obj
 0002:00007e20       ??_C@_0BF@KDPPACIK@?$GAlocal?5static?5guard?8?$AA@ 0044fe20     LIBCMT:undname.obj
 0002:00007e38       ??_C@_08LLFFHHDJ@?$GAtypeof?8?$AA@ 0044fe38     LIBCMT:undname.obj
 0002:00007e44       ??_C@_07FEEIOKP@?$GAvcall?8?$AA@ 0044fe44     LIBCMT:undname.obj
 0002:00007e4c       ??_C@_09BLBHBJP@?$GAvbtable?8?$AA@ 0044fe4c     LIBCMT:undname.obj
 0002:00007e58       ??_C@_09IFPLHPGF@?$GAvftable?8?$AA@ 0044fe58     LIBCMT:undname.obj
 0002:00007e64       ??_C@_02MHEGNOJ@?$FO?$DN?$AA@ 0044fe64     LIBCMT:undname.obj
 0002:00007e68       ??_C@_02DHLNPPGH@?$HM?$DN?$AA@ 0044fe68     LIBCMT:undname.obj
 0002:00007e6c       ??_C@_02FGJGFEAB@?$CG?$DN?$AA@ 0044fe6c     LIBCMT:undname.obj
 0002:00007e70       ??_C@_03CDNPDDLA@?$DM?$DM?$DN?$AA@ 0044fe70     LIBCMT:undname.obj
 0002:00007e74       ??_C@_03IKFCCPFF@?$DO?$DO?$DN?$AA@ 0044fe74     LIBCMT:undname.obj
 0002:00007e78       ??_C@_02FENAOKFI@?$CF?$DN?$AA@ 0044fe78     LIBCMT:undname.obj
 0002:00007e7c       ??_C@_02FJEHGPIO@?1?$DN?$AA@ 0044fe7c     LIBCMT:undname.obj
 0002:00007e80       ??_C@_02FKMDLLOA@?9?$DN?$AA@ 0044fe80     LIBCMT:undname.obj
 0002:00007e84       ??_C@_02FOEOMHFC@?$CL?$DN?$AA@ 0044fe84     LIBCMT:undname.obj
 0002:00007e88       ??_C@_02FPIMKNGF@?$CK?$DN?$AA@ 0044fe88     LIBCMT:undname.obj
 0002:00007e8c       ??_C@_02NONPIBCD@?$HM?$HM?$AA@ 0044fe8c     LIBCMT:undname.obj
 0002:00007e90       ??_C@_02PPKAJPJL@?$CG?$CG?$AA@ 0044fe90     LIBCMT:undname.obj
 0002:00007e94       ??_C@_01DNKMNLPK@?$HM?$AA@ 0044fe94     LIBCMT:undname.obj
 0002:00007e98       ??_C@_01JKBOJNNK@?$FO?$AA@ 0044fe98     LIBCMT:undname.obj
 0002:00007e9c       ??_C@_01PJKLJHI@?$HO?$AA@  0044fe9c     LIBCMT:undname.obj
 0002:00007ea0       ??_C@_02HCKGKOFO@?$CI?$CJ?$AA@ 0044fea0     LIBCMT:undname.obj
 0002:00007ea4       ??_C@_01IHBHIGKO@?0?$AA@   0044fea4     LIBCMT:undname.obj
 0002:00007ea8       ??_C@_02EEKDKGMJ@?$DO?$DN?$AA@ 0044fea8     LIBCMT:undname.obj
 0002:00007eac       ??_C@_01PPODPGHN@?$DO?$AA@ 0044feac     LIBCMT:undname.obj
 0002:00007eb0       ??_C@_02EHCHHCKH@?$DM?$DN?$AA@ 0044feb0     LIBCMT:undname.obj
 0002:00007eb4       ??_C@_01MNNFJEPP@?$DM?$AA@ 0044feb4     LIBCMT:undname.obj
 0002:00007eb8       ??_C@_01FGNFDNOH@?$CF?$AA@ 0044feb8     LIBCMT:undname.obj
 0002:00007ebc       ??_C@_01KMDKNFGN@?1?$AA@   0044febc     LIBCMT:undname.obj
 0002:00007ec0       ??_C@_03MNHNFDLC@?9?$DO?$CK?$AA@ 0044fec0     LIBCMT:undname.obj
 0002:00007ec4       ??_C@_01HNPIGOCE@?$CG?$AA@ 0044fec4     LIBCMT:undname.obj
 0002:00007ec8       ??_C@_01MIFGBAGJ@?$CL?$AA@ 0044fec8     LIBCMT:undname.obj
 0002:00007ecc       ??_C@_01JOAMLHOP@?9?$AA@   0044fecc     LIBCMT:undname.obj
 0002:00007ed0       ??_C@_02BAABKJLB@?9?9?$AA@ 0044fed0     LIBCMT:undname.obj
 0002:00007ed4       ??_C@_02ECNGHCIF@?$CL?$CL?$AA@ 0044fed4     LIBCMT:undname.obj
 0002:00007ed8       ??_C@_02HBOOOICD@?9?$DO?$AA@ 0044fed8     LIBCMT:undname.obj
 0002:00007edc       ??_C@_08LHJFAFGD@operator?$AA@ 0044fedc     LIBCMT:undname.obj
 0002:00007ee8       ??_C@_02GPECMEKF@?$FL?$FN?$AA@ 0044fee8     LIBCMT:undname.obj
 0002:00007eec       ??_C@_02FDNJECIE@?$CB?$DN?$AA@ 0044feec     LIBCMT:undname.obj
 0002:00007ef0       ??_C@_02EGOFBIJA@?$DN?$DN?$AA@ 0044fef0     LIBCMT:undname.obj
 0002:00007ef4       ??_C@_01DCLJPIOD@?$CB?$AA@ 0044fef4     LIBCMT:undname.obj
 0002:00007ef8       ??_C@_02FODMEDOG@?$DM?$DM?$AA@ 0044fef8     LIBCMT:undname.obj
 0002:00007efc       ??_C@_02GPIOPFAK@?$DO?$DO?$AA@ 0044fefc     LIBCMT:undname.obj
 0002:00007f00       ??_C@_07FPCDHGMM@?5delete?$AA@ 0044ff00     LIBCMT:undname.obj
 0002:00007f08       ??_C@_04NIHEBCM@?5new?$AA@ 0044ff08     LIBCMT:undname.obj
 0002:00007f10       ??_C@_0M@GFIIJFMG@__unaligned?$AA@ 0044ff10     LIBCMT:undname.obj
 0002:00007f1c       ??_C@_0L@PILCLIHE@__restrict?$AA@ 0044ff1c     LIBCMT:undname.obj
 0002:00007f28       ??_C@_07JOMMBBKO@__ptr64?$AA@ 0044ff28     LIBCMT:undname.obj
 0002:00007f30       ??_C@_09HIJEGCPM@__clrcall?$AA@ 0044ff30     LIBCMT:undname.obj
 0002:00007f3c       ??_C@_0L@JMKHOMEK@__fastcall?$AA@ 0044ff3c     LIBCMT:undname.obj
 0002:00007f48       ??_C@_0L@NPHFGOKO@__thiscall?$AA@ 0044ff48     LIBCMT:undname.obj
 0002:00007f54       ??_C@_09IFJBGAPI@__stdcall?$AA@ 0044ff54     LIBCMT:undname.obj
 0002:00007f60       ??_C@_08GHMPAG@__pascal?$AA@ 0044ff60     LIBCMT:undname.obj
 0002:00007f6c       ??_C@_07KOLFKCDI@__cdecl?$AA@ 0044ff6c     LIBCMT:undname.obj
 0002:00007f74       ??_C@_08EHJDFFNH@__based?$CI?$AA@ 0044ff74     LIBCMT:undname.obj
 0002:00008100       ___lookuptable_s           00450100     LIBCMT:outputs.obj
 0002:0000815c       ??_C@_0BI@DFKBFLJE@GetProcessWindowStation?$AA@ 0045015c     LIBCMT:crtmbox.obj
 0002:00008174       ??_C@_0BK@CIDNPOGP@GetUserObjectInformationA?$AA@ 00450174     LIBCMT:crtmbox.obj
 0002:00008190       ??_C@_0BD@HHGDFDBJ@GetLastActivePopup?$AA@ 00450190     LIBCMT:crtmbox.obj
 0002:000081a4       ??_C@_0BA@HNOPNCHB@GetActiveWindow?$AA@ 004501a4     LIBCMT:crtmbox.obj
 0002:000081b4       ??_C@_0M@CHKKJDAI@MessageBoxA?$AA@ 004501b4     LIBCMT:crtmbox.obj
 0002:000081c0       ??_C@_0L@NDEGIDAG@USER32?4DLL?$AA@ 004501c0     LIBCMT:crtmbox.obj
 0002:000081cc       ??_C@_0L@NKOGAPMJ@SystemRoot?$AA@ 004501cc     LIBCMT:cenvarg.obj
 0002:000081d8       ??_C@_06IMKFLFPG@1?$CDQNAN?$AA@ 004501d8     LIBCMT:_x10fout_.obj
 0002:000081e0       ??_C@_05DNEBIAHO@1?$CDINF?$AA@ 004501e0     LIBCMT:_x10fout_.obj
 0002:000081e8       ??_C@_05PHHOCPM@1?$CDIND?$AA@ 004501e8     LIBCMT:_x10fout_.obj
 0002:000081f0       ??_C@_06PGGFOGJG@1?$CDSNAN?$AA@ 004501f0     LIBCMT:_x10fout_.obj
 0002:000081f8       __load_config_used         004501f8     LIBCMT:loadcfg.obj
 0002:00008294       ??_R4LoginFrontFrame@@6B@  00450294     LoginFrontFrame.obj
 0002:000082a8       ??_R3LoginFrontFrame@@8    004502a8     LoginFrontFrame.obj
 0002:000082b8       ??_R2LoginFrontFrame@@8    004502b8     LoginFrontFrame.obj
 0002:000082c8       ??_R1A@?0A@EA@LoginFrontFrame@@8 004502c8     LoginFrontFrame.obj
 0002:000082e4       ??_R1A@?0A@EA@ServerFrame@@8 004502e4     LoginFrontFrame.obj
 0002:00008300       ??_R3ServerFrame@@8        00450300     LoginFrontFrame.obj
 0002:00008310       ??_R2ServerFrame@@8        00450310     LoginFrontFrame.obj
 0002:00008318       ??_R1BII@?0A@EA@?$Singleton@VLoginFrontFrame@@$00@util@@8 00450318     LoginFrontFrame.obj
 0002:00008334       ??_R3?$Singleton@VLoginFrontFrame@@$00@util@@8 00450334     LoginFrontFrame.obj
 0002:00008344       ??_R2?$Singleton@VLoginFrontFrame@@$00@util@@8 00450344     LoginFrontFrame.obj
 0002:0000834c       ??_R1A@?0A@EA@?$Singleton@VLoginFrontFrame@@$00@util@@8 0045034c     LoginFrontFrame.obj
 0002:00008368       ??_R4?$CMemoryPoolFactory@VClientSession@@@util@@6B@ 00450368     LoginFrontFrame.obj
 0002:0000837c       ??_R3?$CMemoryPoolFactory@VClientSession@@@util@@8 0045037c     LoginFrontFrame.obj
 0002:0000838c       ??_R2?$CMemoryPoolFactory@VClientSession@@@util@@8 0045038c     LoginFrontFrame.obj
 0002:00008398       ??_R1A@?0A@EA@?$CMemoryPoolFactory@VClientSession@@@util@@8 00450398     LoginFrontFrame.obj
 0002:000083b4       ??_R1A@?0A@EA@IVMemoryPool@util@@8 004503b4     LoginFrontFrame.obj
 0002:000083d0       ??_R3IVMemoryPool@util@@8  004503d0     LoginFrontFrame.obj
 0002:000083e0       ??_R2IVMemoryPool@util@@8  004503e0     LoginFrontFrame.obj
 0002:000083e8       ??_R4?$CMemoryPoolFactory@VAuthServerSession@@@util@@6B@ 004503e8     LoginFrontFrame.obj
 0002:000083fc       ??_R3?$CMemoryPoolFactory@VAuthServerSession@@@util@@8 004503fc     LoginFrontFrame.obj
 0002:0000840c       ??_R2?$CMemoryPoolFactory@VAuthServerSession@@@util@@8 0045040c     LoginFrontFrame.obj
 0002:00008418       ??_R1A@?0A@EA@?$CMemoryPoolFactory@VAuthServerSession@@@util@@8 00450418     LoginFrontFrame.obj
 0002:00008434       ??_R4IVMemoryPool@util@@6B@ 00450434     LoginFrontFrame.obj
 0002:00008448       ??_R4?$NotUseChunkImpl@VClientSession@@@internal@util@@6B@ 00450448     LoginFrontFrame.obj
 0002:0000845c       ??_R3?$NotUseChunkImpl@VClientSession@@@internal@util@@8 0045045c     LoginFrontFrame.obj
 0002:0000846c       ??_R2?$NotUseChunkImpl@VClientSession@@@internal@util@@8 0045046c     LoginFrontFrame.obj
 0002:00008478       ??_R1A@?0A@EA@?$NotUseChunkImpl@VClientSession@@@internal@util@@8 00450478     LoginFrontFrame.obj
 0002:00008494       ??_R1A@?0A@EA@IMemoryPoolFactoryImpl@internal@util@@8 00450494     LoginFrontFrame.obj
 0002:000084b0       ??_R3IMemoryPoolFactoryImpl@internal@util@@8 004504b0     LoginFrontFrame.obj
 0002:000084c0       ??_R2IMemoryPoolFactoryImpl@internal@util@@8 004504c0     LoginFrontFrame.obj
 0002:000084c8       ??_R4?$VariableSizeChunkImpl@VClientSession@@@internal@util@@6B@ 004504c8     LoginFrontFrame.obj
 0002:000084dc       ??_R3?$VariableSizeChunkImpl@VClientSession@@@internal@util@@8 004504dc     LoginFrontFrame.obj
 0002:000084ec       ??_R2?$VariableSizeChunkImpl@VClientSession@@@internal@util@@8 004504ec     LoginFrontFrame.obj
 0002:000084f8       ??_R1A@?0A@EA@?$VariableSizeChunkImpl@VClientSession@@@internal@util@@8 004504f8     LoginFrontFrame.obj
 0002:00008514       ??_R4?$FixedSizeChunkImpl@VClientSession@@@internal@util@@6B@ 00450514     LoginFrontFrame.obj
 0002:00008528       ??_R3?$FixedSizeChunkImpl@VClientSession@@@internal@util@@8 00450528     LoginFrontFrame.obj
 0002:00008538       ??_R2?$FixedSizeChunkImpl@VClientSession@@@internal@util@@8 00450538     LoginFrontFrame.obj
 0002:00008544       ??_R1A@?0A@EA@?$FixedSizeChunkImpl@VClientSession@@@internal@util@@8 00450544     LoginFrontFrame.obj
 0002:00008560       ??_R4?$NotUseChunkImpl@VAuthServerSession@@@internal@util@@6B@ 00450560     LoginFrontFrame.obj
 0002:00008574       ??_R3?$NotUseChunkImpl@VAuthServerSession@@@internal@util@@8 00450574     LoginFrontFrame.obj
 0002:00008584       ??_R2?$NotUseChunkImpl@VAuthServerSession@@@internal@util@@8 00450584     LoginFrontFrame.obj
 0002:00008590       ??_R1A@?0A@EA@?$NotUseChunkImpl@VAuthServerSession@@@internal@util@@8 00450590     LoginFrontFrame.obj
 0002:000085ac       ??_R4?$VariableSizeChunkImpl@VAuthServerSession@@@internal@util@@6B@ 004505ac     LoginFrontFrame.obj
 0002:000085c0       ??_R3?$VariableSizeChunkImpl@VAuthServerSession@@@internal@util@@8 004505c0     LoginFrontFrame.obj
 0002:000085d0       ??_R2?$VariableSizeChunkImpl@VAuthServerSession@@@internal@util@@8 004505d0     LoginFrontFrame.obj
 0002:000085dc       ??_R1A@?0A@EA@?$VariableSizeChunkImpl@VAuthServerSession@@@internal@util@@8 004505dc     LoginFrontFrame.obj
 0002:000085f8       ??_R4?$FixedSizeChunkImpl@VAuthServerSession@@@internal@util@@6B@ 004505f8     LoginFrontFrame.obj
 0002:0000860c       ??_R3?$FixedSizeChunkImpl@VAuthServerSession@@@internal@util@@8 0045060c     LoginFrontFrame.obj
 0002:0000861c       ??_R2?$FixedSizeChunkImpl@VAuthServerSession@@@internal@util@@8 0045061c     LoginFrontFrame.obj
 0002:00008628       ??_R1A@?0A@EA@?$FixedSizeChunkImpl@VAuthServerSession@@@internal@util@@8 00450628     LoginFrontFrame.obj
 0002:00008644       ??_R4IMemoryPoolFactoryImpl@internal@util@@6B@ 00450644     LoginFrontFrame.obj
 0002:00008658       ??_R4bad_alloc@std@@6B@    00450658     LoginFrontFrame.obj
 0002:0000866c       ??_R3bad_alloc@std@@8      0045066c     LoginFrontFrame.obj
 0002:0000867c       ??_R2bad_alloc@std@@8      0045067c     LoginFrontFrame.obj
 0002:00008688       ??_R1A@?0A@EA@bad_alloc@std@@8 00450688     LoginFrontFrame.obj
 0002:000086a4       ??_R1A@?0A@EA@exception@std@@8 004506a4     LoginFrontFrame.obj
 0002:000086c0       ??_R3exception@std@@8      004506c0     LoginFrontFrame.obj
 0002:000086d0       ??_R2exception@std@@8      004506d0     LoginFrontFrame.obj
 0002:000086d8       ??_R4length_error@std@@6B@ 004506d8     ClientManager.obj
 0002:000086ec       ??_R3length_error@std@@8   004506ec     ClientManager.obj
 0002:000086fc       ??_R2length_error@std@@8   004506fc     ClientManager.obj
 0002:0000870c       ??_R1A@?0A@EA@length_error@std@@8 0045070c     ClientManager.obj
 0002:00008728       ??_R1A@?0A@EA@logic_error@std@@8 00450728     ClientManager.obj
 0002:00008744       ??_R3logic_error@std@@8    00450744     ClientManager.obj
 0002:00008754       ??_R2logic_error@std@@8    00450754     ClientManager.obj
 0002:00008760       ??_R4logic_error@std@@6B@  00450760     ClientManager.obj
 0002:00008774       ??_R4out_of_range@std@@6B@ 00450774     ClientManager.obj
 0002:00008788       ??_R3out_of_range@std@@8   00450788     ClientManager.obj
 0002:00008798       ??_R2out_of_range@std@@8   00450798     ClientManager.obj
 0002:000087a8       ??_R1A@?0A@EA@out_of_range@std@@8 004507a8     ClientManager.obj
 0002:000087c4       ??_R4AuthServerSession@@6B@ 004507c4     AuthServerSession.obj
 0002:000087d8       ??_R3AuthServerSession@@8  004507d8     AuthServerSession.obj
 0002:000087e8       ??_R2AuthServerSession@@8  004507e8     AuthServerSession.obj
 0002:000087f8       ??_R1A@?0A@EA@AuthServerSession@@8 004507f8     AuthServerSession.obj
 0002:00008814       ??_R1A@?0A@EA@ServerSession@@8 00450814     AuthServerSession.obj
 0002:00008830       ??_R3ServerSession@@8      00450830     AuthServerSession.obj
 0002:00008840       ??_R2ServerSession@@8      00450840     AuthServerSession.obj
 0002:0000884c       ??_R1A@?0A@EA@NetworkObject@@8 0045084c     AuthServerSession.obj
 0002:00008868       ??_R3NetworkObject@@8      00450868     AuthServerSession.obj
 0002:00008878       ??_R2NetworkObject@@8      00450878     AuthServerSession.obj
 0002:00008880       ??_R4ClientSession@@6B@    00450880     ClientSession.obj
 0002:00008894       ??_R3ClientSession@@8      00450894     ClientSession.obj
 0002:000088a4       ??_R2ClientSession@@8      004508a4     ClientSession.obj
 0002:000088b4       ??_R1A@?0A@EA@ClientSession@@8 004508b4     ClientSession.obj
 0002:000088d0       ??_R4AuthStepAuthTokenInLoginFront@@6B@ 004508d0     ClientSession.obj
 0002:000088e4       ??_R3AuthStepAuthTokenInLoginFront@@8 004508e4     ClientSession.obj
 0002:000088f4       ??_R2AuthStepAuthTokenInLoginFront@@8 004508f4     ClientSession.obj
 0002:00008904       ??_R1A@?0A@EA@AuthStepAuthTokenInLoginFront@@8 00450904     ClientSession.obj
 0002:00008920       ??_R1A@?0A@EA@AuthStepAuthToken@@8 00450920     ClientSession.obj
 0002:0000893c       ??_R3AuthStepAuthToken@@8  0045093c     ClientSession.obj
 0002:0000894c       ??_R2AuthStepAuthToken@@8  0045094c     ClientSession.obj
 0002:00008958       ??_R1A@?0A@EA@CSAuthFlow@nsPacket@@8 00450958     ClientSession.obj
 0002:00008974       ??_R3CSAuthFlow@nsPacket@@8 00450974     ClientSession.obj
 0002:00008984       ??_R2CSAuthFlow@nsPacket@@8 00450984     ClientSession.obj
 0002:0000898c       ??_R4AuthStepAuthToken@@6B@ 0045098c     ClientSession.obj
 0002:000089a0       ??_R4CSAuthFlow@nsPacket@@6B@ 004509a0     ClientSession.obj
 0002:000089b4       ??_R4Csvlib@@6B@           004509b4     authcommon:csvlib.obj
 0002:000089c8       ??_R3Csvlib@@8             004509c8     authcommon:csvlib.obj
 0002:000089d8       ??_R2Csvlib@@8             004509d8     authcommon:csvlib.obj
 0002:000089e0       ??_R1A@?0A@EA@Csvlib@@8    004509e0     authcommon:csvlib.obj
 0002:000089fc       ??_R4?$basic_ifstream@DU?$char_traits@D@std@@@std@@6B@ 004509fc     authcommon:csvlib.obj
 0002:00008a10       ??_R3?$basic_ifstream@DU?$char_traits@D@std@@@std@@8 00450a10     authcommon:csvlib.obj
 0002:00008a20       ??_R2?$basic_ifstream@DU?$char_traits@D@std@@@std@@8 00450a20     authcommon:csvlib.obj
 0002:00008a38       ??_R1A@?0A@EA@?$basic_ifstream@DU?$char_traits@D@std@@@std@@8 00450a38     authcommon:csvlib.obj
 0002:00008a54       ??_R1A@?0A@EA@?$basic_istream@DU?$char_traits@D@std@@@std@@8 00450a54     authcommon:csvlib.obj
 0002:00008a70       ??_R3?$basic_istream@DU?$char_traits@D@std@@@std@@8 00450a70     authcommon:csvlib.obj
 0002:00008a80       ??_R2?$basic_istream@DU?$char_traits@D@std@@@std@@8 00450a80     authcommon:csvlib.obj
 0002:00008a94       ??_R1A@A@3FA@?$basic_ios@DU?$char_traits@D@std@@@std@@8 00450a94     authcommon:csvlib.obj
 0002:00008ab0       ??_R3?$basic_ios@DU?$char_traits@D@std@@@std@@8 00450ab0     authcommon:csvlib.obj
 0002:00008ac0       ??_R2?$basic_ios@DU?$char_traits@D@std@@@std@@8 00450ac0     authcommon:csvlib.obj
 0002:00008ad0       ??_R1A@?0A@EA@?$basic_ios@DU?$char_traits@D@std@@@std@@8 00450ad0     authcommon:csvlib.obj
 0002:00008aec       ??_R1A@?0A@EA@ios_base@std@@8 00450aec     authcommon:csvlib.obj
 0002:00008b08       ??_R3ios_base@std@@8       00450b08     authcommon:csvlib.obj
 0002:00008b18       ??_R2ios_base@std@@8       00450b18     authcommon:csvlib.obj
 0002:00008b24       ??_R13?0A@EA@?$_Iosb@H@std@@8 00450b24     authcommon:csvlib.obj
 0002:00008b40       ??_R3?$_Iosb@H@std@@8      00450b40     authcommon:csvlib.obj
 0002:00008b50       ??_R2?$_Iosb@H@std@@8      00450b50     authcommon:csvlib.obj
 0002:00008b58       ??_R1A@?0A@EA@?$_Iosb@H@std@@8 00450b58     authcommon:csvlib.obj
 0002:00008b74       ??_R1A@A@3EA@ios_base@std@@8 00450b74     authcommon:csvlib.obj
 0002:00008b90       ??_R13A@3EA@?$_Iosb@H@std@@8 00450b90     authcommon:csvlib.obj
 0002:00008bac       ??_R4?$basic_filebuf@DU?$char_traits@D@std@@@std@@6B@ 00450bac     authcommon:csvlib.obj
 0002:00008bc0       ??_R3?$basic_filebuf@DU?$char_traits@D@std@@@std@@8 00450bc0     authcommon:csvlib.obj
 0002:00008bd0       ??_R2?$basic_filebuf@DU?$char_traits@D@std@@@std@@8 00450bd0     authcommon:csvlib.obj
 0002:00008bdc       ??_R1A@?0A@EA@?$basic_filebuf@DU?$char_traits@D@std@@@std@@8 00450bdc     authcommon:csvlib.obj
 0002:00008bf8       ??_R1A@?0A@EA@?$basic_streambuf@DU?$char_traits@D@std@@@std@@8 00450bf8     authcommon:csvlib.obj
 0002:00008c14       ??_R3?$basic_streambuf@DU?$char_traits@D@std@@@std@@8 00450c14     authcommon:csvlib.obj
 0002:00008c24       ??_R2?$basic_streambuf@DU?$char_traits@D@std@@@std@@8 00450c24     authcommon:csvlib.obj
 0002:00008c2c       ??_R4?$basic_ios@DU?$char_traits@D@std@@@std@@6B@ 00450c2c     authcommon:csvlib.obj
 0002:00008c40       ??_R4?$basic_istream@DU?$char_traits@D@std@@@std@@6B@ 00450c40     authcommon:csvlib.obj
 0002:00008c54       ??_R4?$basic_streambuf@DU?$char_traits@D@std@@@std@@6B@ 00450c54     authcommon:csvlib.obj
 0002:00008c68       ??_R4?$codecvt@DDH@std@@6B@ 00450c68     authcommon:csvlib.obj
 0002:00008c7c       ??_R3?$codecvt@DDH@std@@8  00450c7c     authcommon:csvlib.obj
 0002:00008c8c       ??_R2?$codecvt@DDH@std@@8  00450c8c     authcommon:csvlib.obj
 0002:00008c9c       ??_R1A@?0A@EA@?$codecvt@DDH@std@@8 00450c9c     authcommon:csvlib.obj
 0002:00008cb8       ??_R1A@?0A@EA@codecvt_base@std@@8 00450cb8     authcommon:csvlib.obj
 0002:00008cd4       ??_R3codecvt_base@std@@8   00450cd4     authcommon:csvlib.obj
 0002:00008ce4       ??_R2codecvt_base@std@@8   00450ce4     authcommon:csvlib.obj
 0002:00008cf0       ??_R1A@?0A@EA@facet@locale@std@@8 00450cf0     authcommon:csvlib.obj
 0002:00008d0c       ??_R3facet@locale@std@@8   00450d0c     authcommon:csvlib.obj
 0002:00008d1c       ??_R2facet@locale@std@@8   00450d1c     authcommon:csvlib.obj
 0002:00008d24       ??_R4codecvt_base@std@@6B@ 00450d24     authcommon:csvlib.obj
 0002:00008d38       ??_R4facet@locale@std@@6B@ 00450d38     authcommon:csvlib.obj
 0002:00008d4c       ??_R4ios_base@std@@6B@     00450d4c     authcommon:csvlib.obj
 0002:00008d60       ??_R4runtime_error@std@@6B@ 00450d60     authcommon:csvlib.obj
 0002:00008d74       ??_R3runtime_error@std@@8  00450d74     authcommon:csvlib.obj
 0002:00008d84       ??_R2runtime_error@std@@8  00450d84     authcommon:csvlib.obj
 0002:00008d90       ??_R1A@?0A@EA@runtime_error@std@@8 00450d90     authcommon:csvlib.obj
 0002:00008dac       ??_R4failure@ios_base@std@@6B@ 00450dac     authcommon:csvlib.obj
 0002:00008dc0       ??_R3failure@ios_base@std@@8 00450dc0     authcommon:csvlib.obj
 0002:00008dd0       ??_R2failure@ios_base@std@@8 00450dd0     authcommon:csvlib.obj
 0002:00008de0       ??_R1A@?0A@EA@failure@ios_base@std@@8 00450de0     authcommon:csvlib.obj
 0002:00008dfc       ??_R4?$ctype@D@std@@6B@    00450dfc     authcommon:csvlib.obj
 0002:00008e10       ??_R3?$ctype@D@std@@8      00450e10     authcommon:csvlib.obj
 0002:00008e20       ??_R2?$ctype@D@std@@8      00450e20     authcommon:csvlib.obj
 0002:00008e30       ??_R1A@?0A@EA@?$ctype@D@std@@8 00450e30     authcommon:csvlib.obj
 0002:00008e4c       ??_R1A@?0A@EA@ctype_base@std@@8 00450e4c     authcommon:csvlib.obj
 0002:00008e68       ??_R3ctype_base@std@@8     00450e68     authcommon:csvlib.obj
 0002:00008e78       ??_R2ctype_base@std@@8     00450e78     authcommon:csvlib.obj
 0002:00008e84       ??_R4ctype_base@std@@6B@   00450e84     authcommon:csvlib.obj
 0002:00008e98       ??_R4ServerFrame@@6B@      00450e98     servercommon:ServerFrame.obj
 0002:00008eac       ??_R4CSunLog@@6B@          00450eac     servercommon:SunLog.obj
 0002:00008ec0       ??_R3CSunLog@@8            00450ec0     servercommon:SunLog.obj
 0002:00008ed0       ??_R2CSunLog@@8            00450ed0     servercommon:SunLog.obj
 0002:00008ed8       ??_R1A@?0A@EA@CSunLog@@8   00450ed8     servercommon:SunLog.obj
 0002:00008ef4       ??_R4ServerSession@@6B@    00450ef4     servercommon:ServerSession.obj
 0002:00008f08       ??_R4_Locimp@locale@std@@6B@ 00450f08     libcpmt:locale0.obj
 0002:00008f1c       ??_R3_Locimp@locale@std@@8 00450f1c     libcpmt:locale0.obj
 0002:00008f2c       ??_R2_Locimp@locale@std@@8 00450f2c     libcpmt:locale0.obj
 0002:00008f38       ??_R1A@?0A@EA@_Locimp@locale@std@@8 00450f38     libcpmt:locale0.obj
 0002:00008f54       ??_R4error_category@system@boost@@6B@ 00450f54     libboost_system-vc90-mt-s-1_60:error_code.obj
 0002:00008f68       ??_R3error_category@system@boost@@8 00450f68     libboost_system-vc90-mt-s-1_60:error_code.obj
 0002:00008f78       ??_R2error_category@system@boost@@8 00450f78     libboost_system-vc90-mt-s-1_60:error_code.obj
 0002:00008f84       ??_R1A@?0A@EA@error_category@system@boost@@8 00450f84     libboost_system-vc90-mt-s-1_60:error_code.obj
 0002:00008fa0       ??_R13?0A@EA@noncopyable@noncopyable_@boost@@8 00450fa0     libboost_system-vc90-mt-s-1_60:error_code.obj
 0002:00008fbc       ??_R3noncopyable@noncopyable_@boost@@8 00450fbc     libboost_system-vc90-mt-s-1_60:error_code.obj
 0002:00008fcc       ??_R2noncopyable@noncopyable_@boost@@8 00450fcc     libboost_system-vc90-mt-s-1_60:error_code.obj
 0002:00008fd4       ??_R1A@?0A@EA@noncopyable@noncopyable_@boost@@8 00450fd4     libboost_system-vc90-mt-s-1_60:error_code.obj
 0002:00008ff0       ??_R4system_error_category@?A0xa00a0bbd@system@boost@@6B@ 00450ff0     libboost_system-vc90-mt-s-1_60:error_code.obj
 0002:00009004       ??_R3system_error_category@?A0xa00a0bbd@system@boost@@8 00451004     libboost_system-vc90-mt-s-1_60:error_code.obj
 0002:00009014       ??_R2system_error_category@?A0xa00a0bbd@system@boost@@8 00451014     libboost_system-vc90-mt-s-1_60:error_code.obj
 0002:00009024       ??_R1A@?0A@EA@system_error_category@?A0xa00a0bbd@system@boost@@8 00451024     libboost_system-vc90-mt-s-1_60:error_code.obj
 0002:00009040       ??_R4generic_error_category@?A0xa00a0bbd@system@boost@@6B@ 00451040     libboost_system-vc90-mt-s-1_60:error_code.obj
 0002:00009054       ??_R3generic_error_category@?A0xa00a0bbd@system@boost@@8 00451054     libboost_system-vc90-mt-s-1_60:error_code.obj
 0002:00009064       ??_R2generic_error_category@?A0xa00a0bbd@system@boost@@8 00451064     libboost_system-vc90-mt-s-1_60:error_code.obj
 0002:00009074       ??_R1A@?0A@EA@generic_error_category@?A0xa00a0bbd@system@boost@@8 00451074     libboost_system-vc90-mt-s-1_60:error_code.obj
 0002:00009090       ??_R4NetworkObject@@6B@    00451090     Network:NetworkObject.obj
 0002:000090a4       ??_R4IOCPServer@@6B@       004510a4     Network:IOCPServer.obj
 0002:000090b8       ??_R3IOCPServer@@8         004510b8     Network:IOCPServer.obj
 0002:000090c8       ??_R2IOCPServer@@8         004510c8     Network:IOCPServer.obj
 0002:000090d0       ??_R1A@?0A@EA@IOCPServer@@8 004510d0     Network:IOCPServer.obj
 0002:000090ec       ??_R4Session@@6B@          004510ec     Network:Session.obj
 0002:00009100       ??_R3Session@@8            00451100     Network:Session.obj
 0002:00009110       ??_R2Session@@8            00451110     Network:Session.obj
 0002:00009118       ??_R1A@?0A@EA@Session@@8   00451118     Network:Session.obj
 0002:00009134       ??_R4WxRingBuffer@module@@6B@ 00451134     Network:WxRingBuffer.obj
 0002:00009148       ??_R3WxRingBuffer@module@@8 00451148     Network:WxRingBuffer.obj
 0002:00009158       ??_R2WxRingBuffer@module@@8 00451158     Network:WxRingBuffer.obj
 0002:00009160       ??_R1A@?0A@EA@WxRingBuffer@module@@8 00451160     Network:WxRingBuffer.obj
 0002:0000917c       ??_R4type_info@@6B@        0045117c     LIBCMT:typinfo.obj
 0002:00009190       ??_R3type_info@@8          00451190     LIBCMT:typinfo.obj
 0002:000091a0       ??_R2type_info@@8          004511a0     LIBCMT:typinfo.obj
 0002:000091a8       ??_R1A@?0A@EA@type_info@@8 004511a8     LIBCMT:typinfo.obj
 0002:000091c4       ??_R4exception@std@@6B@    004511c4     LIBCMT:stdexcpt.obj
 0002:000091d8       ??_R4bad_cast@std@@6B@     004511d8     LIBCMT:stdexcpt.obj
 0002:000091ec       ??_R3bad_cast@std@@8       004511ec     LIBCMT:stdexcpt.obj
 0002:000091fc       ??_R2bad_cast@std@@8       004511fc     LIBCMT:stdexcpt.obj
 0002:00009208       ??_R1A@?0A@EA@bad_cast@std@@8 00451208     LIBCMT:stdexcpt.obj
 0002:00009224       ??_R4bad_exception@std@@6B@ 00451224     LIBCMT:frame.obj
 0002:00009238       ??_R3bad_exception@std@@8  00451238     LIBCMT:frame.obj
 0002:00009248       ??_R2bad_exception@std@@8  00451248     LIBCMT:frame.obj
 0002:00009254       ??_R1A@?0A@EA@bad_exception@std@@8 00451254     LIBCMT:frame.obj
 0002:00009270       ___safe_se_handler_table   00451270     <linker-defined>
 0002:00009464       ___rtc_iaa                 00451464     LIBCMT:_initsect_.obj
 0002:00009468       ___rtc_izz                 00451468     LIBCMT:_initsect_.obj
 0002:0000946c       ___rtc_taa                 0045146c     LIBCMT:_initsect_.obj
 0002:00009470       ___rtc_tzz                 00451470     LIBCMT:_initsect_.obj
 0002:00009754       __TI2?AVbad_alloc@std@@    00451754     LoginFrontFrame.obj
 0002:00009764       __CTA2?AVbad_alloc@std@@   00451764     LoginFrontFrame.obj
 0002:00009770       __CT??_R0?AVbad_alloc@std@@@8??0bad_alloc@std@@QAE@ABV01@@Z12 00451770     LoginFrontFrame.obj
 0002:0000978c       __CT??_R0?AVexception@std@@@8??0exception@std@@QAE@ABV01@@Z12 0045178c     LoginFrontFrame.obj
 0002:00009934       __TI3?AVlength_error@std@@ 00451934     ClientManager.obj
 0002:00009970       __CTA3?AVlength_error@std@@ 00451970     ClientManager.obj
 0002:00009980       __CT??_R0?AVlength_error@std@@@8??0length_error@std@@QAE@ABV01@@Z40 00451980     ClientManager.obj
 0002:0000999c       __CT??_R0?AVlogic_error@std@@@8??0logic_error@std@@QAE@ABV01@@Z40 0045199c     ClientManager.obj
 0002:000099e4       __TI3?AVout_of_range@std@@ 004519e4     ClientManager.obj
 0002:00009a20       __CTA3?AVout_of_range@std@@ 00451a20     ClientManager.obj
 0002:00009a30       __CT??_R0?AVout_of_range@std@@@8??0out_of_range@std@@QAE@ABV01@@Z40 00451a30     ClientManager.obj
 0002:0000a57c       __TI2?AVbad_cast@std@@     0045257c     authcommon:csvlib.obj
 0002:0000a58c       __CTA2?AVbad_cast@std@@    0045258c     authcommon:csvlib.obj
 0002:0000a598       __CT??_R0?AVbad_cast@std@@@8??0bad_cast@std@@QAE@ABV01@@Z12 00452598     authcommon:csvlib.obj
 0002:0000a73c       __TI3?AVfailure@ios_base@std@@ 0045273c     authcommon:csvlib.obj
 0002:0000a788       __CTA3?AVfailure@ios_base@std@@ 00452788     authcommon:csvlib.obj
 0002:0000a798       __CT??_R0?AVfailure@ios_base@std@@@8??0failure@ios_base@std@@QAE@ABV012@@Z40 00452798     authcommon:csvlib.obj
 0002:0000a7b4       __CT??_R0?AVruntime_error@std@@@8??0runtime_error@std@@QAE@ABV01@@Z40 004527b4     authcommon:csvlib.obj
 0002:0000b53c       __TI2?AVbad_exception@std@@ 0045353c     LIBCMT:frame.obj
 0002:0000b54c       __CTA2?AVbad_exception@std@@ 0045354c     LIBCMT:frame.obj
 0002:0000b558       __CT??_R0?AVbad_exception@std@@@8??0bad_exception@std@@QAE@ABV01@@Z12 00453558     LIBCMT:frame.obj
 0002:0000ba1c       __IMPORT_DESCRIPTOR_KERNEL32 00453a1c     kernel32:KERNEL32.dll
 0002:0000ba30       __IMPORT_DESCRIPTOR_WS2_32 00453a30     ws2_32:WS2_32.dll
 0002:0000ba44       __IMPORT_DESCRIPTOR_SolarLog 00453a44     SolarLog:SolarLog.dll
 0002:0000ba58       __IMPORT_DESCRIPTOR_dbghelp 00453a58     dbghelp:dbghelp.dll
 0002:0000ba6c       __IMPORT_DESCRIPTOR_ole32  00453a6c     ole32:ole32.dll
 0002:0000ba80       __NULL_IMPORT_DESCRIPTOR   00453a80     kernel32:KERNEL32.dll
 0003:00000004       ??_R0?AVLoginFrontFrame@@@8 00455004     LoginFrontFrame.obj
 0003:00000024       ??_R0?AVServerFrame@@@8    00455024     LoginFrontFrame.obj
 0003:00000040       ??_R0?AV?$Singleton@VLoginFrontFrame@@$00@util@@@8 00455040     LoginFrontFrame.obj
 0003:00000078       ??_R0?AV?$CMemoryPoolFactory@VClientSession@@@util@@@8 00455078     LoginFrontFrame.obj
 0003:000000b4       ??_R0?AUIVMemoryPool@util@@@8 004550b4     LoginFrontFrame.obj
 0003:000000d4       ??_R0?AV?$CMemoryPoolFactory@VAuthServerSession@@@util@@@8 004550d4     LoginFrontFrame.obj
 0003:00000114       ??_R0?AV?$NotUseChunkImpl@VClientSession@@@internal@util@@@8 00455114     LoginFrontFrame.obj
 0003:00000154       ??_R0?AVIMemoryPoolFactoryImpl@internal@util@@@8 00455154     LoginFrontFrame.obj
 0003:00000188       ??_R0?AV?$VariableSizeChunkImpl@VClientSession@@@internal@util@@@8 00455188     LoginFrontFrame.obj
 0003:000001d0       ??_R0?AV?$FixedSizeChunkImpl@VClientSession@@@internal@util@@@8 004551d0     LoginFrontFrame.obj
 0003:00000218       ??_R0?AV?$NotUseChunkImpl@VAuthServerSession@@@internal@util@@@8 00455218     LoginFrontFrame.obj
 0003:00000260       ??_R0?AV?$VariableSizeChunkImpl@VAuthServerSession@@@internal@util@@@8 00455260     LoginFrontFrame.obj
 0003:000002b0       ??_R0?AV?$FixedSizeChunkImpl@VAuthServerSession@@@internal@util@@@8 004552b0     LoginFrontFrame.obj
 0003:000002f8       ??_R0?AVbad_alloc@std@@@8  004552f8     LoginFrontFrame.obj
 0003:00000314       ??_R0?AVexception@std@@@8  00455314     LoginFrontFrame.obj
 0003:00000340       ??_R0?AVlength_error@std@@@8 00455340     ClientManager.obj
 0003:00000360       ??_R0?AVlogic_error@std@@@8 00455360     ClientManager.obj
 0003:00000380       ??_R0?AVout_of_range@std@@@8 00455380     ClientManager.obj
 0003:000003a4       ??_R0?AVAuthServerSession@@@8 004553a4     AuthServerSession.obj
 0003:000003c4       ??_R0?AVServerSession@@@8  004553c4     AuthServerSession.obj
 0003:000003e0       ??_R0?AVNetworkObject@@@8  004553e0     AuthServerSession.obj
 0003:00000400       ??_R0?AVClientSession@@@8  00455400     ClientSession.obj
 0003:0000041c       ??_R0?AVAuthStepAuthTokenInLoginFront@@@8 0045541c     ClientSession.obj
 0003:00000448       ??_R0?AVAuthStepAuthToken@@@8 00455448     ClientSession.obj
 0003:00000468       ??_R0?AUCSAuthFlow@nsPacket@@@8 00455468     ClientSession.obj
 0003:0000048c       ??_R0?AVCsvlib@@@8         0045548c     authcommon:csvlib.obj
 0003:000004a4       ??_R0?AV?$basic_ifstream@DU?$char_traits@D@std@@@std@@@8 004554a4     authcommon:csvlib.obj
 0003:000004e0       ??_R0?AV?$basic_istream@DU?$char_traits@D@std@@@std@@@8 004554e0     authcommon:csvlib.obj
 0003:0000051c       ??_R0?AV?$basic_ios@DU?$char_traits@D@std@@@std@@@8 0045551c     authcommon:csvlib.obj
 0003:00000554       ??_R0?AVios_base@std@@@8   00455554     authcommon:csvlib.obj
 0003:00000570       ??_R0?AV?$_Iosb@H@std@@@8  00455570     authcommon:csvlib.obj
 0003:0000058c       ??_R0?AV?$basic_filebuf@DU?$char_traits@D@std@@@std@@@8 0045558c     authcommon:csvlib.obj
 0003:000005c8       ??_R0?AV?$basic_streambuf@DU?$char_traits@D@std@@@std@@@8 004555c8     authcommon:csvlib.obj
 0003:00000604       ??_R0?AVbad_cast@std@@@8   00455604     authcommon:csvlib.obj
 0003:00000620       ??_R0?AV?$codecvt@DDH@std@@@8 00455620     authcommon:csvlib.obj
 0003:00000640       ??_R0?AVcodecvt_base@std@@@8 00455640     authcommon:csvlib.obj
 0003:00000660       ??_R0?AVfacet@locale@std@@@8 00455660     authcommon:csvlib.obj
 0003:00000680       ??_R0?AVfailure@ios_base@std@@@8 00455680     authcommon:csvlib.obj
 0003:000006a4       ??_R0?AVruntime_error@std@@@8 004556a4     authcommon:csvlib.obj
 0003:000006c4       ??_R0?AV?$ctype@D@std@@@8  004556c4     authcommon:csvlib.obj
 0003:000006e0       ??_R0?AUctype_base@std@@@8 004556e0     authcommon:csvlib.obj
 0003:00000704       ?handleMutex@@3PAXA        00455704     extreme:eXtreme.obj
 0003:00000708       ??_R0?AVCSunLog@@@8        00455708     servercommon:SunLog.obj
 0003:00000858       ?ms_AssertionHandler@FlowControl@@0P6AXPAD0K@ZA 00455858     utility_s:ErrorControl.obj
 0003:00000868       ?_Sync@ios_base@std@@0_NA  00455868     libcpmt:ios.obj
 0003:000008b4       ??_R0?AV_Locimp@locale@std@@@8 004558b4     libcpmt:locale0.obj
 0003:000008e8       ?_PJP_CPP_Copyright@@3PADA 004558e8     libcpmt:iosptrs.obj
 0003:00000948       ??_R0?AVerror_category@system@boost@@@8 00455948     libboost_system-vc90-mt-s-1_60:error_code.obj
 0003:00000974       ??_R0?AVnoncopyable@noncopyable_@boost@@@8 00455974     libboost_system-vc90-mt-s-1_60:error_code.obj
 0003:000009a4       ??_R0?AVsystem_error_category@?A0xa00a0bbd@system@boost@@@8 004559a4     libboost_system-vc90-mt-s-1_60:error_code.obj
 0003:000009e4       ??_R0?AVgeneric_error_category@?A0xa00a0bbd@system@boost@@@8 004559e4     libboost_system-vc90-mt-s-1_60:error_code.obj
 0003:00000a24       _z_errmsg                  00455a24     zlib:zutil.obj
 0003:00000ad4       ??_R0?AVIOCPServer@@@8     00455ad4     Network:IOCPServer.obj
 0003:00000af0       ??_R0?AVSession@@@8        00455af0     Network:Session.obj
 0003:00000b08       ??_R0?AVWxRingBuffer@module@@@8 00455b08     Network:WxRingBuffer.obj
 0003:00000b2c       ___security_cookie         00455b2c     LIBCMT:gs_cookie.obj
 0003:00000b30       ___security_cookie_complement 00455b30     LIBCMT:gs_cookie.obj
 0003:00000b38       ??_R0?AVtype_info@@@8      00455b38     LIBCMT:typinfo.obj
 0003:00000b60       __fltused                  00455b60     LIBCMT:_fpinit_.obj
 0003:00000b64       __ldused                   00455b64     LIBCMT:_fpinit_.obj
 0003:00000b70       ___app_type                00455b70     LIBCMT:crt0.obj
 0003:00000b90       __iob                      00455b90     LIBCMT:_file.obj
 0003:00000e10       ___abort_behavior          00455e10     LIBCMT:abort.obj
 0003:00000e18       __pctype                   00455e18     LIBCMT:ctype.obj
 0003:00000e1c       __pwctype                  00455e1c     LIBCMT:ctype.obj
 0003:00000e20       __NLG_Destination          00455e20     LIBCMT:exsup.obj
 0003:00000e34       ??_R0?AVbad_exception@std@@@8 00455e34     LIBCMT:frame.obj
 0003:00000e54       ___flsindex                00455e54     LIBCMT:tidtable.obj
 0003:00000e58       ___getvalueindex           00455e58     LIBCMT:tidtable.obj
 0003:00000e70       ___nullstring              00455e70     LIBCMT:output.obj
 0003:00000e74       ___wnullstring             00455e74     LIBCMT:output.obj
 0003:00000fe8       __aexit_rtn                00455fe8     LIBCMT:crt0dat.obj
 0003:000011c8       __amblksiz                 004561c8     LIBCMT:heapinit.obj
 0003:000011d0       ___badioinfo               004561d0     LIBCMT:ioinit.obj
 0003:00001210       __cfltcvt_tab              00456210     LIBCMT:cmiscdat.obj
 0003:00001238       ___initialmbcinfo          00456238     LIBCMT:mbctype.obj
 0003:00001458       __mbctype                  00456458     LIBCMT:mbctype.obj
 0003:00001560       __mbcasemap                00456560     LIBCMT:mbctype.obj
 0003:00001660       ___ptmbcinfo               00456660     LIBCMT:mbctype.obj
 0003:00001758       ___globallocalestatus      00456758     LIBCMT:glstatus.obj
 0003:00001760       ___clocalestr              00456760     LIBCMT:nlsdata2.obj
 0003:00001768       ___initiallocinfo          00456768     LIBCMT:nlsdata2.obj
 0003:00001840       ___ptlocinfo               00456840     LIBCMT:nlsdata2.obj
 0003:00001844       ___lc_clike                00456844     LIBCMT:nlsdata2.obj
 0003:00001848       ___initiallocalestructinfo 00456848     LIBCMT:nlsdata2.obj
 0003:00001850       __First_FPE_Indx           00456850     LIBCMT:winxfltr.obj
 0003:00001854       __Num_FPE                  00456854     LIBCMT:winxfltr.obj
 0003:00001858       __XcptActTabSize           00456858     LIBCMT:winxfltr.obj
 0003:0000185c       __XcptActTabCount          0045685c     LIBCMT:winxfltr.obj
 0003:00001860       __coninpfh                 00456860     LIBCMT:initcon.obj
 0003:00001864       __confh                    00456864     LIBCMT:initcon.obj
 0003:00001880       __sys_errlist              00456880     LIBCMT:syserr.obj
 0003:00001930       __sys_nerr                 00456930     LIBCMT:syserr.obj
 0003:00001950       __timezone                 00456950     LIBCMT:timeset.obj
 0003:00001954       __daylight                 00456954     LIBCMT:timeset.obj
 0003:00001958       __dstbias                  00456958     LIBCMT:timeset.obj
 0003:000019e0       __tzname                   004569e0     LIBCMT:timeset.obj
 0003:000019f0       __lpdays                   004569f0     LIBCMT:days.obj
 0003:00001a24       __days                     00456a24     LIBCMT:days.obj
 0003:00001a58       ___lc_time_c               00456a58     LIBCMT:strftime.obj
 0003:00001b10       ___lc_time_curr            00456b10     LIBCMT:strftime.obj
 0003:00001b14       ___lconv_static_decimal    00456b14     LIBCMT:lconv.obj
 0003:00001b18       ___lconv_c                 00456b18     LIBCMT:lconv.obj
 0003:00001b48       ___lconv                   00456b48     LIBCMT:lconv.obj
 0003:00001b4c       ___mb_cur_max              00456b4c     LIBCMT:nlsdata1.obj
 0003:00001b50       ___decimal_point           00456b50     LIBCMT:nlsdata1.obj
 0003:00001b54       ___decimal_point_length    00456b54     LIBCMT:nlsdata1.obj
 0003:00001b68       __lookuptrailbytes         00456b68     LIBCMT:read.obj
 0003:00001c68       __p_overlay                00456c68     LIBCMT:dospawn.obj
 0003:00001ca0       __pow10pos                 00456ca0     LIBCMT:_constpow_.obj
 0003:00001e00       __pow10neg                 00456e00     LIBCMT:_constpow_.obj
 0003:00002020       ?instance_@?$Singleton@VLoginFrontFrame@@$00@util@@0PAVLoginFrontFrame@@A 00457020     LoginFrontFrame.obj
 0003:00002024       ?instance_@?$Singleton@VClientManager@@$00@util@@0PAVClientManager@@A 00457024     LoginFrontFrame.obj
 0003:00002028       ?instance_@?$Singleton@VServerDataManager@@$00@util@@0PAVServerDataManager@@A 00457028     LoginFrontFrame.obj
 0003:00002088       ?g_Console@@3VSolarSimpleConsole@@A 00457088     main.obj
 0003:000020fc       ?custom_pool_static@AuthServerSession@@0PAV?$CMemoryPoolFactory@VAuthServerSession@@@util@@A 004570fc     AuthServerSession.obj
 0003:00002118       ?custom_pool_static@ClientSession@@0PAV?$CMemoryPoolFactory@VClientSession@@@util@@A 00457118     ClientSession.obj
 0003:00002138       ?_Stinit@?1??_Init@?$basic_filebuf@DU?$char_traits@D@std@@@std@@IAEXPAU_iobuf@@W4_Initfl@23@@Z@4HA 00457138     authcommon:csvlib.obj
 0003:0000213c       ?_Psave@?$_Facetptr@V?$codecvt@DDH@std@@@std@@2PBVfacet@locale@2@B 0045713c     authcommon:csvlib.obj
 0003:00002140       ?_Psave@?$_Facetptr@V?$ctype@D@std@@@std@@2PBVfacet@locale@2@B 00457140     authcommon:csvlib.obj
 0003:00002144       ?id@?$codecvt@DDH@std@@2V0locale@2@A 00457144     authcommon:csvlib.obj
 0003:00002148       ?lpfnHandler@@3P6AXKPAD@ZA 00457148     extreme:eXtreme.obj
 0003:0000215c       ?g_dwSUNLOG_INIT@CSunLog@@2KA 0045715c     servercommon:SunLog.obj
 0003:00002160       ?g_pSUNLOG@CSunLog@@2PAVCSunLogInfo@1@A 00457160     servercommon:SunLog.obj
 0003:00002164       ?g_pSunLog@@3PAVCSunLog@@A 00457164     servercommon:SunLog.Interfaces.obj
 0003:00002168       ?g_pSecureLog@@3PAVSecureLog@@A 00457168     servercommon:SunLog.Interfaces.obj
 0003:00002170       ?ms_PacketStream@PacketControl@Server@nsPacket@@0PAEA 00457170     servercommon:PacketControlS2S.obj
 0003:0002a180       ?ms_COMPRESS_TRANS@CompressUtil@nsPacket@@0W4eTRANS_STATE@12@A 0047f180     programcommon_s:PacketControl_Compress.obj
 0003:0007a5b8       ?ms_pInstance@RandomNumberGenerator@@0PAV1@A 004cf5b8     utility_s:RandomNumberGenerator.obj
 0003:0007a5c0       ?time_sync_static_@TimeSync@util@@0PAV12@A 004cf5c0     utility_s:SolarDateTime.obj
 0003:0007a5fc       ?log_handler_static_@SafeMemoryPoolFactoryShared@util@@0P6AXPBDPAXI@ZA 004cf5fc     utility_s:SafeMemoryPoolFactory.obj
 0003:0007a600       ?nothrow@std@@3Unothrow_t@1@B 004cf600     libcpmt:nothrow.obj
 0003:0007a608       ?_Fpz@std@@3_JA            004cf608     libcpmt:ios.obj
 0003:0007a610       ?_Index@ios_base@std@@0HA  004cf610     libcpmt:ios.obj
 0003:0007a6b4       ?_Clocptr@_Locimp@locale@std@@0PAV123@A 004cf6b4     libcpmt:locale0.obj
 0003:0007a6b8       ?_Id_cnt@id@locale@std@@0HA 004cf6b8     libcpmt:locale0.obj
 0003:0007a6bc       ?id@?$ctype@D@std@@2V0locale@2@A 004cf6bc     libcpmt:locale0.obj
 0003:0007a6c0       ?id@?$codecvt@GDH@std@@2V0locale@2@A 004cf6c0     libcpmt:locale0.obj
 0003:0007a6c4       ?id@?$ctype@_W@std@@2V0locale@2@A 004cf6c4     libcpmt:locale0.obj
 0003:0007a6c8       ?id@?$codecvt@_WDH@std@@2V0locale@2@A 004cf6c8     libcpmt:locale0.obj
 0003:0007a6d0       ?id@?$ctype@G@std@@2V0locale@2@A 004cf6d0     libcpmt:locale0.obj
 0003:0007a6d8       ?_Ptr_cin@std@@3PAV?$basic_istream@DU?$char_traits@D@std@@@1@A 004cf6d8     libcpmt:iosptrs.obj
 0003:0007a6dc       ?_Ptr_cout@std@@3PAV?$basic_ostream@DU?$char_traits@D@std@@@1@A 004cf6dc     libcpmt:iosptrs.obj
 0003:0007a6e0       ?_Ptr_cerr@std@@3PAV?$basic_ostream@DU?$char_traits@D@std@@@1@A 004cf6e0     libcpmt:iosptrs.obj
 0003:0007a6e4       ?_Ptr_clog@std@@3PAV?$basic_ostream@DU?$char_traits@D@std@@@1@A 004cf6e4     libcpmt:iosptrs.obj
 0003:0007a6e8       ?_Ptr_wcin@std@@3PAV?$basic_istream@_WU?$char_traits@_W@std@@@1@A 004cf6e8     libcpmt:iosptrs.obj
 0003:0007a6ec       ?_Ptr_wcout@std@@3PAV?$basic_ostream@_WU?$char_traits@_W@std@@@1@A 004cf6ec     libcpmt:iosptrs.obj
 0003:0007a6f0       ?_Ptr_wcerr@std@@3PAV?$basic_ostream@_WU?$char_traits@_W@std@@@1@A 004cf6f0     libcpmt:iosptrs.obj
 0003:0007a6f4       ?_Ptr_wclog@std@@3PAV?$basic_ostream@_WU?$char_traits@_W@std@@@1@A 004cf6f4     libcpmt:iosptrs.obj
 0003:0007a758       ?throws@system@boost@@3Verror_code@12@A 004cf758     libboost_system-vc90-mt-s-1_60:error_code.obj
 0003:0007a770       _g_compress_trans          004cf770     zlib:zutil.obj
 0003:0007a774       ?m_procResult@CrashHandler@@0P6AXPBD0@ZA 004cf774     CrashHandler:CrashHandler.obj
 0003:0007a778       ?m_cbDmpName@CrashHandler@@0P6APBDXZA 004cf778     CrashHandler:CrashHandler.obj
 0003:0007a77c       ?m_stackWalk@CrashHandler@@0_NA 004cf77c     CrashHandler:CrashHandler.obj
 0003:0007a780       ?m_prevFilter@CrashHandler@@0P6GJPAU_EXCEPTION_POINTERS@@@ZA 004cf780     CrashHandler:CrashHandler.obj
 0003:0007a788       ?lpfnAccepteEx_static_@MsWinsockUtil@@2P6GHIIPAXKKKPAKPAU_OVERLAPPED@@@ZA 004cf788     Network:MsWinsockUtil.obj
 0003:0007a78c       ?lpfnTransmitFile_static_@MsWinsockUtil@@2P6GHIPAXKKPAU_OVERLAPPED@@PAU_TRANSMIT_FILE_BUFFERS@@K@ZA 004cf78c     Network:MsWinsockUtil.obj
 0003:0007a790       ?lpfnGetAcceptExSockAddrs_static_@MsWinsockUtil@@2P6GXPAXKKKPAPAUsockaddr@@PAH12@ZA 004cf790     Network:MsWinsockUtil.obj
 0003:0007a794       ?lpfnDisconnectEx_static_@MsWinsockUtil@@2P6GHIPAU_OVERLAPPED@@KK@ZA 004cf794     Network:MsWinsockUtil.obj
 0003:0007a85c       ___pInvalidArgHandler      004cf85c     LIBCMT:invarg.obj
 0003:0007a860       ___fastflag                004cf860     LIBCMT:_fpinit_.obj
 0003:0007a864       __adjust_fdiv              004cf864     LIBCMT:_fpinit_.obj
 0003:0007a868       __aenvptr                  004cf868     LIBCMT:crt0.obj
 0003:0007a86c       __wenvptr                  004cf86c     LIBCMT:crt0.obj
 0003:0007a870       ___error_mode              004cf870     LIBCMT:crt0.obj
 0003:0007a874       __cflush                   004cf874     LIBCMT:_file.obj
 0003:0007a878       ___locale_changed          004cf878     LIBCMT:setlocal.obj
 0003:0007a880       __maxwait                  004cf880     LIBCMT:crtheap.obj
 0003:0007a884       _gpFlsAlloc                004cf884     LIBCMT:tidtable.obj
 0003:0007a888       _gpFlsGetValue             004cf888     LIBCMT:tidtable.obj
 0003:0007a88c       _gpFlsSetValue             004cf88c     LIBCMT:tidtable.obj
 0003:0007a890       _gpFlsFree                 004cf890     LIBCMT:tidtable.obj
 0003:0007a894       ?__pInconsistency@@3P6AXXZA 004cf894     LIBCMT:hooks.obj
 0003:0007abc4       __stdbuf                   004cfbc4     LIBCMT:_sftbuf.obj
 0003:0007abcc       __umaskval                 004cfbcc     LIBCMT:crt0dat.obj
 0003:0007abd0       ___argc                    004cfbd0     LIBCMT:crt0dat.obj
 0003:0007abd4       ___argv                    004cfbd4     LIBCMT:crt0dat.obj
 0003:0007abd8       ___wargv                   004cfbd8     LIBCMT:crt0dat.obj
 0003:0007abdc       __environ                  004cfbdc     LIBCMT:crt0dat.obj
 0003:0007abe0       ___initenv                 004cfbe0     LIBCMT:crt0dat.obj
 0003:0007abe4       __wenviron                 004cfbe4     LIBCMT:crt0dat.obj
 0003:0007abe8       ___winitenv                004cfbe8     LIBCMT:crt0dat.obj
 0003:0007abec       __pgmptr                   004cfbec     LIBCMT:crt0dat.obj
 0003:0007abf0       __wpgmptr                  004cfbf0     LIBCMT:crt0dat.obj
 0003:0007abf4       __exitflag                 004cfbf4     LIBCMT:crt0dat.obj
 0003:0007abf8       __C_Termination_Done       004cfbf8     LIBCMT:crt0dat.obj
 0003:0007abfc       __C_Exit_Done              004cfbfc     LIBCMT:crt0dat.obj
 0003:0007ac00       ?_pnhHeap@@3P6AHI@ZA       004cfc00     LIBCMT:handler.obj
 0003:0007af24       ___pPurecall               004cff24     LIBCMT:inithelp.obj
 0003:0007b078       ___sbh_pHeaderDefer        004d0078     LIBCMT:sbheap.obj
 0003:0007b07c       __crtheap                  004d007c     LIBCMT:heapinit.obj
 0003:0007b080       __newmode                  004d0080     LIBCMT:_newmode.obj
 0003:0007b088       ___mbulinfo                004d0088     LIBCMT:mbctype.obj
 0003:0007b094       ___mbcodepage              004d0094     LIBCMT:mbctype.obj
 0003:0007b098       ___ismbcodepage            004d0098     LIBCMT:mbctype.obj
 0003:0007b09c       ___mblcid                  004d009c     LIBCMT:mbctype.obj
 0003:0007b0a0       ___lc_handle               004d00a0     LIBCMT:nlsdata2.obj
 0003:0007b0b8       ___lc_codepage             004d00b8     LIBCMT:nlsdata2.obj
 0003:0007b0bc       ___lc_collate_cp           004d00bc     LIBCMT:nlsdata2.obj
 0003:0007b1cc       __commode                  004d01cc     LIBCMT:ncommode.obj
 0003:0007b2a4       ___lconv_static_null       004d02a4     LIBCMT:lconv.obj
 0003:0007b2c0       ?pArgList@UnDecorator@@0PAVReplicator@@A 004d02c0     LIBCMT:undname.obj
 0003:0007b2c4       ?pZNameList@UnDecorator@@0PAVReplicator@@A 004d02c4     LIBCMT:undname.obj
 0003:0007b2c8       ?pTemplateArgList@UnDecorator@@0PAVReplicator@@A 004d02c8     LIBCMT:undname.obj
 0003:0007b2cc       ?gName@UnDecorator@@0PBDB  004d02cc     LIBCMT:undname.obj
 0003:0007b2d0       ?name@UnDecorator@@0PBDB   004d02d0     LIBCMT:undname.obj
 0003:0007b2d4       ?outputString@UnDecorator@@0PADA 004d02d4     LIBCMT:undname.obj
 0003:0007b2d8       ?maxStringLength@UnDecorator@@0HA 004d02d8     LIBCMT:undname.obj
 0003:0007b2dc       ?disableFlags@UnDecorator@@0KA 004d02dc     LIBCMT:undname.obj
 0003:0007b2e0       ?m_pGetParameter@UnDecorator@@0P6APADJ@ZA 004d02e0     LIBCMT:undname.obj
 0003:0007b2e4       ?fExplicitTemplateParams@UnDecorator@@0_NA 004d02e4     LIBCMT:undname.obj
 0003:0007b2e5       ?fGetTemplateArgumentList@UnDecorator@@0_NA 004d02e5     LIBCMT:undname.obj
 0003:0007b304       __outputformat             004d0304     LIBCMT:outputformat.obj
 0003:0007b30c       __fmode                    004d030c     LIBCMT:txtmode.obj
 0003:0007b310       ___sse2_available          004d0310     <common>
 0003:0007b314       __nhandle                  004d0314     <common>
 0003:0007b320       ___pioinfo                 004d0320     <common>
 0003:0007b420       __debugger_hook_dummy      004d0420     <common>
 0003:0007b424       ___active_heap             004d0424     <common>
 0003:0007b428       ___sbh_cntHeaderList       004d0428     <common>
 0003:0007b42c       ___sbh_pHeaderList         004d042c     <common>
 0003:0007b430       ___sbh_threshold           004d0430     <common>
 0003:0007b434       ___sbh_pHeaderScan         004d0434     <common>
 0003:0007b438       ___sbh_sizeHeaderList      004d0438     <common>
 0003:0007b43c       ___sbh_indGroupDefer       004d043c     <common>
 0003:0007b440       ___env_initialized         004d0440     <common>
 0003:0007b444       ___onexitend               004d0444     <common>
 0003:0007b448       ___onexitbegin             004d0448     <common>
 0003:0007b44c       ___mbctype_initialized     004d044c     <common>
 0003:0007b450       ___dyn_tls_init_callback   004d0450     <common>
 0003:0007b454       ___piob                    004d0454     <common>
 0003:0007b460       __bufin                    004d0460     <common>
 0003:0007c460       __nstream                  004d1460     <common>
 0003:0007c464       __acmdln                   004d1464     <common>

 entry point at        0001:0002b540

 Static symbols

 0001:00003568       __catch$?_Copy@?$basic_string@DU?$char_traits@D@std@@V?$allocator@D@2@@std@@IAEXII@Z$0 00404568 f i LoginFrontFrame.obj
 0001:0000358f       __catch$?_Copy@?$basic_string@DU?$char_traits@D@std@@V?$allocator@D@2@@std@@IAEXII@Z$1 0040458f f i LoginFrontFrame.obj
 0001:0000806e       __catch$?_Buynode@?$_Tree@V?$_Tmap_traits@KPAVServerData@@U?$less@K@std@@V?$CustomAllocator@PAVServerData@@@util@@$0A@@std@@@std@@IAEPAU_Node@?$_Tree_nod@V?$_Tmap_traits@KPAVServerData@@U?$less@K@std@@V?$CustomAllocator@PAVServerData@@@util@@$0A@@std@@@2@PAU342@00ABU?$pair@$$CBKPAVServerData@@@2@D@Z$0 0040906e f i ClientManager.obj
 0001:0000806e       __catch$?_Buynode@?$_Tree@V?$_Tmap_traits@KPAUGROUP_DATA@@U?$less@K@std@@V?$CustomAllocator@PAUGROUP_DATA@@@util@@$0A@@std@@@std@@IAEPAU_Node@?$_Tree_nod@V?$_Tmap_traits@KPAUGROUP_DATA@@U?$less@K@std@@V?$CustomAllocator@PAUGROUP_DATA@@@util@@$0A@@std@@@2@PAU342@00ABU?$pair@$$CBKPAUGROUP_DATA@@@2@D@Z$0 0040906e f i ClientManager.obj
 0001:0000806e       __catch$?_Buynode@?$_Tree@V?$_Tmap_traits@KKU?$less@K@std@@V?$CustomAllocator@K@util@@$0A@@std@@@std@@IAEPAU_Node@?$_Tree_nod@V?$_Tmap_traits@KKU?$less@K@std@@V?$CustomAllocator@K@util@@$0A@@std@@@2@PAU342@00ABU?$pair@$$CBKK@2@D@Z$0 0040906e f i ClientManager.obj
 0001:0000856e       __catch$?_Buynode@?$list@U?$pair@$$CBKPAVClientSession@@@std@@V?$CustomAllocator@U?$pair@$$CBKPAVClientSession@@@std@@@util@@@std@@IAEPAU_Node@?$_List_nod@U?$pair@$$CBKPAVClientSession@@@std@@V?$CustomAllocator@U?$pair@$$CBKPAVClientSession@@@std@@@util@@@2@XZ$0 0040956e f i ClientManager.obj
 0001:00008699       __catch$?_Buynode@?$list@U?$pair@$$CBKPAVClientSession@@@std@@V?$CustomAllocator@U?$pair@$$CBKPAVClientSession@@@std@@@util@@@std@@IAEPAU_Node@?$_List_nod@U?$pair@$$CBKPAVClientSession@@@std@@V?$CustomAllocator@U?$pair@$$CBKPAVClientSession@@@std@@@util@@@2@PAU342@0ABU?$pair@$$CBKPAVClientSession@@@2@@Z$0 00409699 f i ClientManager.obj
 0001:00008dee       __catch$?_Insert_n@?$vector@U_List_position@?$_Hash@V?$_Hmap_traits@KPAVClientSession@@V?$hash_compare@KU?$less@K@std@@@stdext@@V?$CustomAllocator@PAVClientSession@@@util@@$0A@@stdext@@@stdext@@V?$CustomAllocator@U_List_position@?$_Hash@V?$_Hmap_traits@KPAVClientSession@@V?$hash_compare@KU?$less@K@std@@@stdext@@V?$CustomAllocator@PAVClientSession@@@util@@$0A@@stdext@@@stdext@@@util@@@std@@IAEXV?$_Vector_const_iterator@U_List_position@?$_Hash@V?$_Hmap_traits@KPAVClientSession@@V?$hash_compare@KU?$less@K@std@@@stdext@@V?$CustomAllocator@PAVClientSession@@@util@@$0A@@stdext@@@stdext@@V?$CustomAllocator@U_List_position@?$_Hash@V?$_Hmap_traits@KPAVClientSession@@V?$hash_compare@KU?$less@K@std@@@stdext@@V?$CustomAllocator@PAVClientSession@@@util@@$0A@@stdext@@@stdext@@@util@@@2@IABU_List_position@?$_Hash@V?$_Hmap_traits@KPAVClientSession@@V?$hash_compare@KU?$less@K@std@@@stdext@@V?$CustomAllocator@PAVClientSession@@@util@@$0A@@stdext@@@stdext@@@Z$0 00409dee f i ClientManager.obj
 0001:00008f4b       __catch$?_Insert_n@?$vector@U_List_position@?$_Hash@V?$_Hmap_traits@KPAVClientSession@@V?$hash_compare@KU?$less@K@std@@@stdext@@V?$CustomAllocator@PAVClientSession@@@util@@$0A@@stdext@@@stdext@@V?$CustomAllocator@U_List_position@?$_Hash@V?$_Hmap_traits@KPAVClientSession@@V?$hash_compare@KU?$less@K@std@@@stdext@@V?$CustomAllocator@PAVClientSession@@@util@@$0A@@stdext@@@stdext@@@util@@@std@@IAEXV?$_Vector_const_iterator@U_List_position@?$_Hash@V?$_Hmap_traits@KPAVClientSession@@V?$hash_compare@KU?$less@K@std@@@stdext@@V?$CustomAllocator@PAVClientSession@@@util@@$0A@@stdext@@@stdext@@V?$CustomAllocator@U_List_position@?$_Hash@V?$_Hmap_traits@KPAVClientSession@@V?$hash_compare@KU?$less@K@std@@@stdext@@V?$CustomAllocator@PAVClientSession@@@util@@$0A@@stdext@@@stdext@@@util@@@2@IABU_List_position@?$_Hash@V?$_Hmap_traits@KPAVClientSession@@V?$hash_compare@KU?$less@K@std@@@stdext@@V?$CustomAllocator@PAVClientSession@@@util@@$0A@@stdext@@@stdext@@@Z$2 00409f4b f i ClientManager.obj
 0001:00009676       __catch$??$_Insert@V?$_Const_iterator@$00@?$list@U?$pair@$$CBKPAVClientSession@@@std@@V?$CustomAllocator@U?$pair@$$CBKPAVClientSession@@@std@@@util@@@std@@@?$list@U?$pair@$$CBKPAVClientSession@@@std@@V?$CustomAllocator@U?$pair@$$CBKPAVClientSession@@@std@@@util@@@std@@QAEXV?$_Const_iterator@$00@01@00Uforward_iterator_tag@1@@Z$0 0040a676 f i ClientManager.obj
 0001:000098d5       __catch$??$_Uninit_fill_n@PAU_List_position@?$_Hash@V?$_Hmap_traits@KPAVClientSession@@V?$hash_compare@KU?$less@K@std@@@stdext@@V?$CustomAllocator@PAVClientSession@@@util@@$0A@@stdext@@@stdext@@IU123@V?$CustomAllocator@U_List_position@?$_Hash@V?$_Hmap_traits@KPAVClientSession@@V?$hash_compare@KU?$less@K@std@@@stdext@@V?$CustomAllocator@PAVClientSession@@@util@@$0A@@stdext@@@stdext@@@util@@@std@@YAXPAU_List_position@?$_Hash@V?$_Hmap_traits@KPAVClientSession@@V?$hash_compare@KU?$less@K@std@@@stdext@@V?$CustomAllocator@PAVClientSession@@@util@@$0A@@stdext@@@stdext@@IABU123@AAV?$CustomAllocator@U_List_position@?$_Hash@V?$_Hmap_traits@KPAVClientSession@@V?$hash_compare@KU?$less@K@std@@@stdext@@V?$CustomAllocator@PAVClientSession@@@util@@$0A@@stdext@@@stdext@@@util@@U_Nonscalar_ptr_iterator_tag@0@U_Range_checked_iterator_tag@0@@Z$0 0040a8d5 f i ClientManager.obj
 0001:00009b57       __catch$??$_Uninit_copy@PAU_List_position@?$_Hash@V?$_Hmap_traits@KPAVClientSession@@V?$hash_compare@KU?$less@K@std@@@stdext@@V?$CustomAllocator@PAVClientSession@@@util@@$0A@@stdext@@@stdext@@PAU123@V?$CustomAllocator@U_List_position@?$_Hash@V?$_Hmap_traits@KPAVClientSession@@V?$hash_compare@KU?$less@K@std@@@stdext@@V?$CustomAllocator@PAVClientSession@@@util@@$0A@@stdext@@@stdext@@@util@@@std@@YAPAU_List_position@?$_Hash@V?$_Hmap_traits@KPAVClientSession@@V?$hash_compare@KU?$less@K@std@@@stdext@@V?$CustomAllocator@PAVClientSession@@@util@@$0A@@stdext@@@stdext@@PAU123@00AAV?$CustomAllocator@U_List_position@?$_Hash@V?$_Hmap_traits@KPAVClientSession@@V?$hash_compare@KU?$less@K@std@@@stdext@@V?$CustomAllocator@PAVClientSession@@@util@@$0A@@stdext@@@stdext@@@util@@U_Nonscalar_ptr_iterator_tag@0@U_Range_checked_iterator_tag@0@@Z$0 0040ab57 f i ClientManager.obj
 0001:0000e3ee       __catch$?_Buynode@?$_Tree@V?$_Tmap_traits@KPAUGROUP_DATA@@U?$less@K@std@@V?$CustomAllocator@PAUGROUP_DATA@@@util@@$0A@@std@@@std@@IAEPAU_Node@?$_Tree_nod@V?$_Tmap_traits@KPAUGROUP_DATA@@U?$less@K@std@@V?$CustomAllocator@PAUGROUP_DATA@@@util@@$0A@@std@@@2@XZ$0 0040f3ee f i authcommon:ServerDataManager.obj
 0001:0000e3ee       __catch$?_Buynode@?$_Tree@V?$_Tmap_traits@KPAVServerData@@U?$less@K@std@@V?$CustomAllocator@PAVServerData@@@util@@$0A@@std@@@std@@IAEPAU_Node@?$_Tree_nod@V?$_Tmap_traits@KPAVServerData@@U?$less@K@std@@V?$CustomAllocator@PAVServerData@@@util@@$0A@@std@@@2@XZ$0 0040f3ee f i authcommon:ServerDataManager.obj
 0001:0000e3ee       __catch$?_Buynode@?$_Tree@V?$_Tmap_traits@KKU?$less@K@std@@V?$CustomAllocator@K@util@@$0A@@std@@@std@@IAEPAU_Node@?$_Tree_nod@V?$_Tmap_traits@KKU?$less@K@std@@V?$CustomAllocator@K@util@@$0A@@std@@@2@XZ$0 0040f3ee f i authcommon:ServerDataManager.obj
 0001:00010eb3       __catch$?getline@?$basic_istream@DU?$char_traits@D@std@@@std@@QAEAAV12@PADHD@Z$0 00411eb3 f i authcommon:csvlib.obj
 0001:00012a0c       __catch$?_Buynode@?$_Tree@V?$_Tmap_traits@V?$basic_string@DU?$char_traits@D@std@@V?$allocator@D@2@@std@@EU?$less@V?$basic_string@DU?$char_traits@D@std@@V?$allocator@D@2@@std@@@2@V?$allocator@U?$pair@$$CBV?$basic_string@DU?$char_traits@D@std@@V?$allocator@D@2@@std@@E@std@@@2@$0A@@std@@@std@@IAEPAU_Node@?$_Tree_nod@V?$_Tmap_traits@V?$basic_string@DU?$char_traits@D@std@@V?$allocator@D@2@@std@@EU?$less@V?$basic_string@DU?$char_traits@D@std@@V?$allocator@D@2@@std@@@2@V?$allocator@U?$pair@$$CBV?$basic_string@DU?$char_traits@D@std@@V?$allocator@D@2@@std@@E@std@@@2@$0A@@std@@@2@PAU342@00ABU?$pair@$$CBV?$basic_string@DU?$char_traits@D@std@@V?$allocator@D@2@@std@@E@2@D@Z$0 00413a0c f i authcommon:csvlib.obj
 0001:00012d06       __catch$?_Insert_n@?$vector@V?$basic_string@DU?$char_traits@D@std@@V?$allocator@D@2@@std@@V?$allocator@V?$basic_string@DU?$char_traits@D@std@@V?$allocator@D@2@@std@@@2@@std@@IAEXV?$_Vector_const_iterator@V?$basic_string@DU?$char_traits@D@std@@V?$allocator@D@2@@std@@V?$allocator@V?$basic_string@DU?$char_traits@D@std@@V?$allocator@D@2@@std@@@2@@2@IABV?$basic_string@DU?$char_traits@D@std@@V?$allocator@D@2@@2@@Z$0 00413d06 f i authcommon:csvlib.obj
 0001:00012e76       __catch$?_Insert_n@?$vector@V?$basic_string@DU?$char_traits@D@std@@V?$allocator@D@2@@std@@V?$allocator@V?$basic_string@DU?$char_traits@D@std@@V?$allocator@D@2@@std@@@2@@std@@IAEXV?$_Vector_const_iterator@V?$basic_string@DU?$char_traits@D@std@@V?$allocator@D@2@@std@@V?$allocator@V?$basic_string@DU?$char_traits@D@std@@V?$allocator@D@2@@std@@@2@@2@IABV?$basic_string@DU?$char_traits@D@std@@V?$allocator@D@2@@2@@Z$2 00413e76 f i authcommon:csvlib.obj
