 MasterServer

 Timestamp is 6160c477 (Sat Oct 09 07:21:43 2021)

 Preferred load address is 00400000

 Start         Length     Name                   Class
 0001:00000000 0004510eH .text                   CODE
 0001:00045110 000019beH .text$x                 CODE
 0001:00046ad0 0000016bH .text$yc                CODE
 0001:00046c40 00000122H .text$yd                CODE
 0002:00000000 00000230H .idata$5                DATA
 0002:00000230 00000004H .CRT$XCA                DATA
 0002:00000234 00000004H .CRT$XCC                DATA
 0002:00000238 0000003cH .CRT$XCU                DATA
 0002:00000274 00000004H .CRT$XCZ                DATA
 0002:00000278 00000004H .CRT$XIA                DATA
 0002:0000027c 00000014H .CRT$XIC                DATA
 0002:00000290 00000004H .CRT$XIY                DATA
 0002:00000294 00000004H .CRT$XIZ                DATA
 0002:00000298 00000004H .CRT$XPA                DATA
 0002:0000029c 00000004H .CRT$XPX                DATA
 0002:000002a0 00000004H .CRT$XPXA               DATA
 0002:000002a4 00000004H .CRT$XPY                DATA
 0002:000002a8 00000004H .CRT$XPZ                DATA
 0002:000002ac 00000004H .CRT$XTA                DATA
 0002:000002b0 00000004H .CRT$XTZ                DATA
 0002:000002c0 000096a8H .rdata                  DATA
 0002:00009968 00000048H .rdata$debug            DATA
 0002:000099b0 00001a74H .rdata$r                DATA
 0002:0000b430 0000022cH .rdata$sxdata           DATA
 0002:0000b65c 00000004H .rtc$IAA                DATA
 0002:0000b660 00000004H .rtc$IZZ                DATA
 0002:0000b664 00000004H .rtc$TAA                DATA
 0002:0000b668 00000004H .rtc$TZZ                DATA
 0002:0000b670 00002374H .xdata$x                DATA
 0002:0000d9e4 00000064H .idata$2                DATA
 0002:0000da48 00000014H .idata$3                DATA
 0002:0000da5c 00000230H .idata$4                DATA
 0002:0000dc8c 00000980H .idata$6                DATA
 0002:0000e60c 00000000H .edata                  DATA
 0003:00000000 00003bfcH .data                   DATA
 0003:00003c00 00082748H .bss                    DATA

  Address         Publics by Value              Rva+Base       Lib:Object

 0000:00000000       __except_list              00000000     <absolute>
 0000:0000008b       ___safe_se_handler_count   0000008b     <absolute>
 0000:00000000       ___ImageBase               00400000     <linker-defined>
 0001:00000000       ??_H@YGXPAXIHP6EPAX0@Z@Z   00401000 f i AbuseStatistics.obj
 0001:00000040       ?Init@AbusePointInfo@@QAEXXZ 00401040 f   AbuseUser.obj
 0001:00000050       ?IncViolationCount@AbusePointInfo@@QAEHXZ 00401050 f   AbuseUser.obj
 0001:000000c0       ?GetTotAbusingPoint@AbuseUser@@QAEGXZ 004010c0 f   AbuseUser.obj
 0001:00000130       ?IsBlock@AbuseUser@@QAEHXZ 00401130 f   AbuseUser.obj
 0001:00000140       ??0AbuseUser@@QAE@XZ       00401140 f   AbuseUser.obj
 0001:00000190       ?Init@AbuseUser@@QAEXKPAD@Z 00401190 f   AbuseUser.obj
 0001:00000200       ?Update@AbuseUser@@QAEXXZ  00401200 f   AbuseUser.obj
 0001:00000230       ?UpdateAbuseInfo@AbuseUser@@QAEHW4eABUSE_SUB_TYPE@@AAUtagSERVER_KEY@@KKPAD@Z 00401230 f   AbuseUser.obj
 0001:00000290       ?NotifyViolation@AbuseUser@@QAEXW4eABUSE_SUB_TYPE@@PAD@Z 00401290 f   AbuseUser.obj
 0001:00000330       ?ForcedDisconnect@AbuseUser@@QAEXH@Z 00401330 f   AbuseUser.obj
 0001:00000400       ?TemporaryBlock@AbuseUser@@QAEXXZ 00401400 f   AbuseUser.obj
 0001:00000460       ?Instance@?$Singleton@VAbusingOptionParser@@$00@util@@SAPAVAbusingOptionParser@@XZ 00401460 f i AbuseUser.obj
 0001:000004e0       ?Instance@?$Singleton@VAbuseUserManager@@$00@util@@SAPAVAbuseUserManager@@XZ 004014e0 f i AbuseUser.obj
 0001:00000560       ??1bad_alloc@std@@UAE@XZ   00401560 f i AbuseUserManager.obj
 0001:00000570       ??_Gbad_alloc@std@@UAEPAXI@Z 00401570 f i AbuseUserManager.obj
 0001:00000570       ??_Ebad_alloc@std@@UAEPAXI@Z 00401570 f i AbuseUserManager.obj
 0001:000005a0       ??4tagOLDSERVER_KEY@@QAE?BKABUtagSERVER_KEY@@@Z 004015a0 f i AbuseUserManager.obj
 0001:000005e0       ??0MSG_MO_RTTG_ABUSING_NTF@@QAE@XZ 004015e0 f i AbuseUserManager.obj
 0001:00000600       ?_Max@?$_Tree@V?$_Tset_traits@KU?$less@K@std@@V?$CustomAllocator@K@util@@$0A@@std@@@std@@KAPAU_Node@?$_Tree_nod@V?$_Tset_traits@KU?$less@K@std@@V?$CustomAllocator@K@util@@$0A@@std@@@2@PAU342@@Z 00401600 f i AbuseUserManager.obj
 0001:00000620       ?_Min@?$_Tree@V?$_Tset_traits@KU?$less@K@std@@V?$CustomAllocator@K@util@@$0A@@std@@@std@@KAPAU_Node@?$_Tree_nod@V?$_Tset_traits@KU?$less@K@std@@V?$CustomAllocator@K@util@@$0A@@std@@@2@PAU342@@Z 00401620 f i AbuseUserManager.obj
 0001:00000640       ?_Inc@const_iterator@?$_Tree@V?$_Tset_traits@KU?$less@K@std@@V?$CustomAllocator@K@util@@$0A@@std@@@std@@QAEXXZ 00401640 f i AbuseUserManager.obj
 0001:000006b0       ??$_Allocate@D@std@@YAPADIPAD@Z 004016b0 f i AbuseUserManager.obj
 0001:00000710       ??0bad_alloc@std@@QAE@ABV01@@Z 00401710 f i AbuseUserManager.obj
 0001:00000730       ?Init@AbuseUserManager@@QAEHXZ 00401730 f   AbuseUserManager.obj
 0001:00000770       ?WriteFileLog@AbuseUserManager@@QAEXW4eABUSE_TYPE@@W4eABUSE_SUB_TYPE@@AAUtagSERVER_KEY@@PAD333@Z 00401770 f   AbuseUserManager.obj
 0001:00000800       ?NotifyViolation@AbuseUserManager@@QAEXW4eABUSE_SUB_TYPE@@PADAAUtagSERVER_KEY@@KKK11@Z 00401800 f   AbuseUserManager.obj
 0001:00000a50       ?DisplayAbuseInfo@AbuseUserManager@@QAEXXZ 00401a50 f   AbuseUserManager.obj
 0001:00000bd0       ?GetUserCountForIP@AbuseUserManager@@QAEKK@Z 00401bd0 f   AbuseUserManager.obj
 0001:00000c40       ?IsIPBlock@AbuseUserManager@@QAEHK@Z 00401c40 f   AbuseUserManager.obj
 0001:00000c60       ?FindUser@AbuseUserManager@@QAEPAVAbuseUser@@K@Z 00401c60 f   AbuseUserManager.obj
 0001:00000cd0       ?EnterServer@AbuseUserManager@@QAEXKPADK@Z 00401cd0 f   AbuseUserManager.obj
 0001:00000d60       ?RemoveUser@AbuseUserManager@@QAEXK@Z 00401d60 f   AbuseUserManager.obj
 0001:00000da0       ?Release@AbuseUserManager@@QAEHXZ 00401da0 f   AbuseUserManager.obj
 0001:00000dd0       ?Update@AbuseUserManager@@QAEHXZ 00401dd0 f   AbuseUserManager.obj
 0001:00000f30       ??1AbuseUserManager@@QAE@XZ 00401f30 f   AbuseUserManager.obj
 0001:00000ff0       ??0AbuseUserManager@@QAE@XZ 00401ff0 f   AbuseUserManager.obj
 0001:00001080       ?OnMsg@AbuseUserManager@@QAEXPAUsSIG_SECURE_LOG_NOTIFY@@@Z 00402080 f   AbuseUserManager.obj
 0001:000012c0       ?_Hashval@?$_Hash@V?$_Hmap_traits@W4eSCRIPT_CODE@@PAUsSCRIPT_DATA_INFO_NODE_INTERNAL@@V?$hash_compare@W4eSCRIPT_CODE@@U?$less@W4eSCRIPT_CODE@@@std@@@stdext@@V?$CustomAllocator@PAUsSCRIPT_DATA_INFO_NODE_INTERNAL@@@util@@$0A@@stdext@@@stdext@@IBEIABW4eSCRIPT_CODE@@@Z 004022c0 f i servercommon:ScriptDataManager.obj
 0001:000012c0       ?_Hashval@?$_Hash@V?$_Hmap_traits@KV?$chunk_set@KU?$less@K@std@@@util@@V?$hash_compare@KU?$less@K@std@@@stdext@@V?$CustomAllocator@V?$chunk_set@KU?$less@K@std@@@util@@@2@$0A@@stdext@@@stdext@@IBEIABK@Z 004022c0 f i AbuseUserManager.obj
 0001:000012c0       ?_Hashval@?$_Hash@V?$_Hmap_traits@KPAVBASE_FUNC@util@@V?$hash_compare@KU?$less@K@std@@@stdext@@V?$allocator@U?$pair@$$CBKPAVBASE_FUNC@util@@@std@@@std@@$0A@@stdext@@@stdext@@IBEIABK@Z 004022c0 f i PacketHandler.obj
 0001:000012c0       ?_Hashval@?$_Hash@V?$_Hmap_traits@KPAVServerSession@@V?$hash_compare@KU?$less@K@std@@@stdext@@V?$CustomAllocator@PAVServerSession@@@util@@$0A@@stdext@@@stdext@@IBEIABK@Z 004022c0 f i TempServerSessionEx.obj
 0001:000012c0       ?_Hashval@?$_Hash@V?$_Hmap_traits@KPAVAbuseUser@@V?$hash_compare@KU?$less@K@std@@@stdext@@V?$CustomAllocator@PAVAbuseUser@@@util@@$0A@@stdext@@@stdext@@IBEIABK@Z 004022c0 f i AbuseUserManager.obj
 0001:00001320       ?_Lrotate@?$_Tree@V?$_Tset_traits@KU?$less@K@std@@V?$CustomAllocator@K@util@@$0A@@std@@@std@@IAEXPAU_Node@?$_Tree_nod@V?$_Tset_traits@KU?$less@K@std@@V?$CustomAllocator@K@util@@$0A@@std@@@2@@Z 00402320 f i AbuseUserManager.obj
 0001:00001370       ?_Rrotate@?$_Tree@V?$_Tset_traits@KU?$less@K@std@@V?$CustomAllocator@K@util@@$0A@@std@@@std@@IAEXPAU_Node@?$_Tree_nod@V?$_Tset_traits@KU?$less@K@std@@V?$CustomAllocator@K@util@@$0A@@std@@@2@@Z 00402370 f i AbuseUserManager.obj
 0001:000013d0       ?_Buynode@?$_Tree@V?$_Tset_traits@KU?$less@K@std@@V?$CustomAllocator@K@util@@$0A@@std@@@std@@IAEPAU_Node@?$_Tree_nod@V?$_Tset_traits@KU?$less@K@std@@V?$CustomAllocator@K@util@@$0A@@std@@@2@PAU342@00ABKD@Z 004023d0 f i AbuseUserManager.obj
 0001:00001410       ?_Dec@const_iterator@?$_Tree@V?$_Tset_traits@KU?$less@K@std@@V?$CustomAllocator@K@util@@$0A@@std@@@std@@QAEXXZ 00402410 f i AbuseUserManager.obj
 0001:000014a0       ?_Buynode@?$list@U?$pair@$$CBKV?$chunk_set@KU?$less@K@std@@@util@@@std@@V?$CustomAllocator@U?$pair@$$CBKV?$chunk_set@KU?$less@K@std@@@util@@@std@@@util@@@std@@IAEPAU_Node@?$_List_nod@U?$pair@$$CBKV?$chunk_set@KU?$less@K@std@@@util@@@std@@V?$CustomAllocator@U?$pair@$$CBKV?$chunk_set@KU?$less@K@std@@@util@@@std@@@util@@@2@XZ 004024a0 f i AbuseUserManager.obj
 0001:000014c0       ?_Buynode@?$_Tree@V?$_Tset_traits@KU?$less@K@std@@V?$CustomAllocator@K@util@@$0A@@std@@@std@@IAEPAU_Node@?$_Tree_nod@V?$_Tset_traits@KU?$less@K@std@@V?$CustomAllocator@K@util@@$0A@@std@@@2@XZ 004024c0 f i AbuseUserManager.obj
 0001:00001500       ?_Buynode@?$list@U?$pair@$$CBW4eSCRIPT_CODE@@PAUsSCRIPT_DATA_INFO_NODE_INTERNAL@@@std@@V?$CustomAllocator@U?$pair@$$CBW4eSCRIPT_CODE@@PAUsSCRIPT_DATA_INFO_NODE_INTERNAL@@@std@@@util@@@std@@IAEPAU_Node@?$_List_nod@U?$pair@$$CBW4eSCRIPT_CODE@@PAUsSCRIPT_DATA_INFO_NODE_INTERNAL@@@std@@V?$CustomAllocator@U?$pair@$$CBW4eSCRIPT_CODE@@PAUsSCRIPT_DATA_INFO_NODE_INTERNAL@@@std@@@util@@@2@PAU342@0ABU?$pair@$$CBW4eSCRIPT_CODE@@PAUsSCRIPT_DATA_INFO_NODE_INTERNAL@@@2@@Z 00402500 f i servercommon:ScriptDataManager.obj
 0001:00001500       ?_Buynode@?$list@U?$pair@$$CBKPAVServerSession@@@std@@V?$CustomAllocator@U?$pair@$$CBKPAVServerSession@@@std@@@util@@@std@@IAEPAU_Node@?$_List_nod@U?$pair@$$CBKPAVServerSession@@@std@@V?$CustomAllocator@U?$pair@$$CBKPAVServerSession@@@std@@@util@@@2@PAU342@0ABU?$pair@$$CBKPAVServerSession@@@2@@Z 00402500 f i servercommon:ServerFrame.obj
 0001:00001500       ?_Buynode@?$list@U?$pair@$$CBKPAVAbuseUser@@@std@@V?$CustomAllocator@U?$pair@$$CBKPAVAbuseUser@@@std@@@util@@@std@@IAEPAU_Node@?$_List_nod@U?$pair@$$CBKPAVAbuseUser@@@std@@V?$CustomAllocator@U?$pair@$$CBKPAVAbuseUser@@@std@@@util@@@2@PAU342@0ABU?$pair@$$CBKPAVAbuseUser@@@2@@Z 00402500 f i AbuseUserManager.obj
 0001:00001540       ?_Erase@?$_Tree@V?$_Tset_traits@KU?$less@K@std@@V?$CustomAllocator@K@util@@$0A@@std@@@std@@IAEXPAU_Node@?$_Tree_nod@V?$_Tset_traits@KU?$less@K@std@@V?$CustomAllocator@K@util@@$0A@@std@@@2@@Z 00402540 f i AbuseUserManager.obj
 0001:00001580       ?Create@?$VariableSizeChunkImpl@VAbuseUser@@@internal@util@@CAXPAX@Z 00402580 f i AbuseUserManager.obj
 0001:000015d0       ?SendHeartbeatPacket@OpServerSession@@MAEXXZ 004025d0 f i ServerSessionManager.obj
 0001:000015d0       ??1SolarSimpleConsole@@QAE@XZ 004025d0 f i utility_s:SolarSimpleConsole.obj
 0001:000015d0       ??1MSG_MO_RTTG_USERMONEY_ANS@@QAE@XZ 004025d0 f i Handler_MO.obj
 0001:000015d0       ?Destroy@?$VariableSizeChunkImpl@VAbuseUser@@@internal@util@@CAXPAX@Z 004025d0 f i AbuseUserManager.obj
 0001:000015d0       ?Connect@ServerSession@@UAEXXZ 004025d0 f i ServerSessionManager.obj
 0001:000015d0       ?Release@IMemoryPoolFactoryImpl@internal@util@@UAEXXZ 004025d0 f i AbuseUserManager.obj
 0001:000015d0       ??1MSG_MO_RTTG_ALL_SERVER_STATUS_NTF@@QAE@XZ 004025d0 f i OpServerSession.obj
 0001:000015d0       ??3@YAXPAX0@Z              004025d0 f i AbuseUserManager.obj
 0001:000015d0       ??1MSG_MO_RTTG_GAMESTATISTICS_ANS@@QAE@XZ 004025d0 f i Handler_MO.obj
 0001:000015d0       ??1SolarFileReader@util@@QAE@XZ 004025d0 f i utility_s:SolarFileReader.obj
 0001:000015d0       ??1MSG_MO_RTTG_ABUSING_NTF@@QAE@XZ 004025d0 f i AbuseUserManager.obj
 0001:000015d0       ??1MSG_MO_RTTG_USERCOUNT_NTF@@QAE@XZ 004025d0 f i Handler_AM.obj
 0001:000015d0       ??1SolarDump@@QAE@XZ       004025d0 f i utility_s:SolarDump.obj
 0001:000015e0       ??1IMemoryPoolFactoryImpl@internal@util@@UAE@XZ 004025e0 f i AbuseUserManager.obj
 0001:000015f0       ?Initialize@IMemoryPoolFactoryImpl@internal@util@@UAE_NIIPBD@Z 004025f0 f i AbuseUserManager.obj
 0001:00001600       ?Init@IParser@@UAEXK@Z     00402600 f i MasterScriptParserManager.obj
 0001:00001600       ?SetTypeName@IMemoryPoolFactoryImpl@internal@util@@UAEXPBD@Z 00402600 f i AbuseUserManager.obj
 0001:00001600       ?CloseFile@CPackFile@@QAEXPAX@Z 00402600 f i utility_s:FilePackerManager.obj
 0001:00001600       ?OnMsg@IWorkNode@@UAEXPAUsSIG_MSG@@@Z 00402600 f i MasterServerInfo.obj
 0001:00001600       ?OnAccept@NetworkObject@@MAEXK@Z 00402600 f i servercommon:ServerSession.obj
 0001:00001610       ?GetNumberOfBands@IMemoryPoolFactoryImpl@internal@util@@UBEHXZ 00402610 f i AbuseUserManager.obj
 0001:00001610       ?IsComplete@PROCESS_TIMER_PROCESS@@UAEHXZ 00402610 f i MasterServerInfo.obj
 0001:00001610       ?GetPoolBasicSize@IMemoryPoolFactoryImpl@internal@util@@UBEHXZ 00402610 f i AbuseUserManager.obj
 0001:00001610       ?GetPoolExtendSize@IMemoryPoolFactoryImpl@internal@util@@UBEHXZ 00402610 f i AbuseUserManager.obj
 0001:00001610       ?GetServerType@ServerSession@@UAE?AW4eSERVER_TYPE@@XZ 00402610 f i servercommon:ServerSession.obj
 0001:00001610       ?GetAvailableNumberOfTypes@IMemoryPoolFactoryImpl@internal@util@@UBEHXZ 00402610 f i AbuseUserManager.obj
 0001:00001620       ?Release@?$CMemoryPoolFactory@VAgentServerSession@@@util@@UAEXXZ 00402620 f i ServerSessionManager.obj
 0001:00001620       ?Release@?$CMemoryPoolFactory@VGameDBProxySession@@@util@@UAEXXZ 00402620 f i ServerSessionManager.obj
 0001:00001620       ?Release@?$CMemoryPoolFactory@VGuildServerSession@@@util@@UAEXXZ 00402620 f i ServerSessionManager.obj
 0001:00001620       ?Release@?$CMemoryPoolFactory@VBattleServerSession@@@util@@UAEXXZ 00402620 f i ServerSessionManager.obj
 0001:00001620       ?Release@?$CMemoryPoolFactory@VWorldServerSession@@@util@@UAEXXZ 00402620 f i ServerSessionManager.obj
 0001:00001620       ?Release@?$CMemoryPoolFactory@VAbuseUser@@@util@@UAEXXZ 00402620 f i AbuseUserManager.obj
 0001:00001620       ?Release@?$CMemoryPoolFactory@VSolarAuthServerSession@@@util@@UAEXXZ 00402620 f i ServerSessionManager.obj
 0001:00001620       ?Release@?$CMemoryPoolFactory@VAccountDBProxySession@@@util@@UAEXXZ 00402620 f i ServerSessionManager.obj
 0001:00001620       ?Release@?$CMemoryPoolFactory@VTempServerSessionEx@@@util@@UAEXXZ 00402620 f i ServerSessionManager.obj
 0001:00001620       ?Release@?$CMemoryPoolFactory@VFieldServerSession@@@util@@UAEXXZ 00402620 f i ServerSessionManager.obj
 0001:00001620       ?Release@?$CMemoryPoolFactory@VOpServerSession@@@util@@UAEXXZ 00402620 f i ServerSessionManager.obj
 0001:00001630       ?Alloc@?$NotUseChunkImpl@VAbuseUser@@@internal@util@@UAEPAXXZ 00402630 f i AbuseUserManager.obj
 0001:000016a0       ?Free@?$NotUseChunkImpl@VAbuseUser@@@internal@util@@UAEXQAX@Z 004026a0 f i AbuseUserManager.obj
 0001:000016c0       ??0?$VariableSizeChunkImpl@VAbuseUser@@@internal@util@@QAE@XZ 004026c0 f i AbuseUserManager.obj
 0001:00001720       ?Release@?$VariableSizeChunkImpl@VGuildServerSession@@@internal@util@@UAEXXZ 00402720 f i ServerSessionManager.obj
 0001:00001720       ?Release@?$VariableSizeChunkImpl@VOpServerSession@@@internal@util@@UAEXXZ 00402720 f i ServerSessionManager.obj
 0001:00001720       ?Release@?$VariableSizeChunkImpl@VGameDBProxySession@@@internal@util@@UAEXXZ 00402720 f i ServerSessionManager.obj
 0001:00001720       ?Release@?$VariableSizeChunkImpl@VBattleServerSession@@@internal@util@@UAEXXZ 00402720 f i ServerSessionManager.obj
 0001:00001720       ?Release@?$VariableSizeChunkImpl@VTempServerSessionEx@@@internal@util@@UAEXXZ 00402720 f i ServerSessionManager.obj
 0001:00001720       ?Release@?$VariableSizeChunkImpl@VFieldServerSession@@@internal@util@@UAEXXZ 00402720 f i ServerSessionManager.obj
 0001:00001720       ?Release@?$VariableSizeChunkImpl@VAgentServerSession@@@internal@util@@UAEXXZ 00402720 f i ServerSessionManager.obj
 0001:00001720       ?Release@?$VariableSizeChunkImpl@VSolarAuthServerSession@@@internal@util@@UAEXXZ 00402720 f i ServerSessionManager.obj
 0001:00001720       ?Release@?$VariableSizeChunkImpl@VAccountDBProxySession@@@internal@util@@UAEXXZ 00402720 f i ServerSessionManager.obj
 0001:00001720       ?Release@?$VariableSizeChunkImpl@VWorldServerSession@@@internal@util@@UAEXXZ 00402720 f i ServerSessionManager.obj
 0001:00001720       ?Release@?$VariableSizeChunkImpl@VAbuseUser@@@internal@util@@UAEXXZ 00402720 f i AbuseUserManager.obj
 0001:00001730       ??1?$VariableSizeChunkImpl@VAbuseUser@@@internal@util@@UAE@XZ 00402730 f i AbuseUserManager.obj
 0001:000017a0       ??_G?$VariableSizeChunkImpl@VAbuseUser@@@internal@util@@UAEPAXI@Z 004027a0 f i AbuseUserManager.obj
 0001:000017a0       ??_E?$VariableSizeChunkImpl@VAbuseUser@@@internal@util@@UAEPAXI@Z 004027a0 f i AbuseUserManager.obj
 0001:000017c0       ??1?$CMemoryPoolFactory@VAbuseUser@@@util@@UAE@XZ 004027c0 f i AbuseUserManager.obj
 0001:00001830       ??C?$_Iterator@$00@?$list@U?$pair@$$CBKPAVAbuseUser@@@std@@V?$CustomAllocator@U?$pair@$$CBKPAVAbuseUser@@@std@@@util@@@std@@QBEPAU?$pair@$$CBKPAVAbuseUser@@@2@XZ 00402830 f i AbuseUserManager.obj
 0001:00001830       ??C?$_Iterator@$00@?$list@U?$pair@$$CBW4eSCRIPT_CODE@@PAUsSCRIPT_DATA_INFO_NODE_INTERNAL@@@std@@V?$CustomAllocator@U?$pair@$$CBW4eSCRIPT_CODE@@PAUsSCRIPT_DATA_INFO_NODE_INTERNAL@@@std@@@util@@@std@@QBEPAU?$pair@$$CBW4eSCRIPT_CODE@@PAUsSCRIPT_DATA_INFO_NODE_INTERNAL@@@2@XZ 00402830 f i servercommon:ScriptDataManager.obj
 0001:00001860       ??E?$_Iterator@$00@?$list@U?$pair@$$CBKPAVAbuseUser@@@std@@V?$CustomAllocator@U?$pair@$$CBKPAVAbuseUser@@@std@@@util@@@std@@QAEAAV012@XZ 00402860 f i AbuseUserManager.obj
 0001:000018a0       ??_G?$CMemoryPoolFactory@VAbuseUser@@@util@@UAEPAXI@Z 004028a0 f i AbuseUserManager.obj
 0001:000018a0       ??_E?$CMemoryPoolFactory@VAbuseUser@@@util@@UAEPAXI@Z 004028a0 f i AbuseUserManager.obj
 0001:000018c0       ?_Copy@?$_Tree@V?$_Tset_traits@KU?$less@K@std@@V?$CustomAllocator@K@util@@$0A@@std@@@std@@IAEPAU_Node@?$_Tree_nod@V?$_Tset_traits@KU?$less@K@std@@V?$CustomAllocator@K@util@@$0A@@std@@@2@PAU342@0@Z 004028c0 f i AbuseUserManager.obj
 0001:00001980       ??$_Distance2@V?$_Iterator@$00@?$list@U?$pair@$$CBKPAVServerSession@@@std@@V?$CustomAllocator@U?$pair@$$CBKPAVServerSession@@@std@@@util@@@std@@I@std@@YAXV?$_Iterator@$00@?$list@U?$pair@$$CBKPAVServerSession@@@std@@V?$CustomAllocator@U?$pair@$$CBKPAVServerSession@@@std@@@util@@@0@0AAIUbidirectional_iterator_tag@0@@Z 00402980 f i TempServerSessionEx.obj
 0001:00001980       ??$_Distance2@V?$_Iterator@$00@?$list@U?$pair@$$CBKPAVAbuseUser@@@std@@V?$CustomAllocator@U?$pair@$$CBKPAVAbuseUser@@@std@@@util@@@std@@I@std@@YAXV?$_Iterator@$00@?$list@U?$pair@$$CBKPAVAbuseUser@@@std@@V?$CustomAllocator@U?$pair@$$CBKPAVAbuseUser@@@std@@@util@@@0@0AAIUbidirectional_iterator_tag@0@@Z 00402980 f i AbuseUserManager.obj
 0001:000019f0       ?erase@?$basic_string@DU?$char_traits@D@std@@V?$allocator@D@2@@std@@QAEAAV12@II@Z 004029f0 f i AbuseUserManager.obj
 0001:00001a80       ?_Copy@?$basic_string@DU?$char_traits@D@std@@V?$allocator@D@2@@std@@IAEXII@Z 00402a80 f i AbuseUserManager.obj
 0001:00001bc0       ?_Copy@?$_Tree@V?$_Tset_traits@KU?$less@K@std@@V?$CustomAllocator@K@util@@$0A@@std@@@std@@IAEXABV12@@Z 00402bc0 f i AbuseUserManager.obj
 0001:00001c40       ?purge_memory@?$pool@Udefault_user_allocator_new_delete@boost@@@boost@@QAE_NXZ 00402c40 f i AbuseUserManager.obj
 0001:00001c80       ??$_Unchecked_move_backward@PAU_List_position@?$_Hash@V?$_Hmap_traits@KPAVServerSession@@V?$hash_compare@KU?$less@K@std@@@stdext@@V?$CustomAllocator@PAVServerSession@@@util@@$0A@@stdext@@@stdext@@PAU123@@stdext@@YAPAU_List_position@?$_Hash@V?$_Hmap_traits@KPAVServerSession@@V?$hash_compare@KU?$less@K@std@@@stdext@@V?$CustomAllocator@PAVServerSession@@@util@@$0A@@stdext@@@0@PAU120@00@Z 00402c80 f i TempServerSessionEx.obj
 0001:00001c80       ??$_Unchecked_move_backward@PAU?$pair@W4eSCRIPT_CODE@@PAUsSCRIPT_DATA_INFO_NODE_INTERNAL@@@std@@PAU12@@stdext@@YAPAU?$pair@W4eSCRIPT_CODE@@PAUsSCRIPT_DATA_INFO_NODE_INTERNAL@@@std@@PAU12@00@Z 00402c80 f i servercommon:ScriptDataManager.obj
 0001:00001c80       ??$_Unchecked_move_backward@PAU_List_position@?$_Hash@V?$_Hmap_traits@W4eSCRIPT_CODE@@PAUsSCRIPT_DATA_INFO_NODE_INTERNAL@@V?$hash_compare@W4eSCRIPT_CODE@@U?$less@W4eSCRIPT_CODE@@@std@@@stdext@@V?$CustomAllocator@PAUsSCRIPT_DATA_INFO_NODE_INTERNAL@@@util@@$0A@@stdext@@@stdext@@PAU123@@stdext@@YAPAU_List_position@?$_Hash@V?$_Hmap_traits@W4eSCRIPT_CODE@@PAUsSCRIPT_DATA_INFO_NODE_INTERNAL@@V?$hash_compare@W4eSCRIPT_CODE@@U?$less@W4eSCRIPT_CODE@@@std@@@stdext@@V?$CustomAllocator@PAUsSCRIPT_DATA_INFO_NODE_INTERNAL@@@util@@$0A@@stdext@@@0@PAU120@00@Z 00402c80 f i servercommon:ScriptDataManager.obj
 0001:00001c80       ??$_Unchecked_move_backward@PAU_List_position@?$_Hash@V?$_Hmap_traits@KV?$chunk_set@KU?$less@K@std@@@util@@V?$hash_compare@KU?$less@K@std@@@stdext@@V?$CustomAllocator@V?$chunk_set@KU?$less@K@std@@@util@@@2@$0A@@stdext@@@stdext@@PAU123@@stdext@@YAPAU_List_position@?$_Hash@V?$_Hmap_traits@KV?$chunk_set@KU?$less@K@std@@@util@@V?$hash_compare@KU?$less@K@std@@@stdext@@V?$CustomAllocator@V?$chunk_set@KU?$less@K@std@@@util@@@2@$0A@@stdext@@@0@PAU120@00@Z 00402c80 f i AbuseUserManager.obj
 0001:00001c80       ??$_Unchecked_move_backward@PAU_List_position@?$_Hash@V?$_Hmap_traits@KPAVAbuseUser@@V?$hash_compare@KU?$less@K@std@@@stdext@@V?$CustomAllocator@PAVAbuseUser@@@util@@$0A@@stdext@@@stdext@@PAU123@@stdext@@YAPAU_List_position@?$_Hash@V?$_Hmap_traits@KPAVAbuseUser@@V?$hash_compare@KU?$less@K@std@@@stdext@@V?$CustomAllocator@PAVAbuseUser@@@util@@$0A@@stdext@@@0@PAU120@00@Z 00402c80 f i AbuseUserManager.obj
 0001:00001c80       ??$_Unchecked_move_backward@PAU_List_position@?$_Hash@V?$_Hmap_traits@KPAVBASE_FUNC@util@@V?$hash_compare@KU?$less@K@std@@@stdext@@V?$allocator@U?$pair@$$CBKPAVBASE_FUNC@util@@@std@@@std@@$0A@@stdext@@@stdext@@PAU123@@stdext@@YAPAU_List_position@?$_Hash@V?$_Hmap_traits@KPAVBASE_FUNC@util@@V?$hash_compare@KU?$less@K@std@@@stdext@@V?$allocator@U?$pair@$$CBKPAVBASE_FUNC@util@@@std@@@std@@$0A@@stdext@@@0@PAU120@00@Z 00402c80 f i PacketHandler.obj
 0001:00001cc0       ?what@logic_error@std@@UBEPBDXZ 00402cc0 f i AbuseUserManager.obj
 0001:00001cd0       ??_Glength_error@std@@UAEPAXI@Z 00402cd0 f i AbuseUserManager.obj
 0001:00001cd0       ??_Eout_of_range@std@@UAEPAXI@Z 00402cd0 f i AbuseUserManager.obj
 0001:00001cd0       ??_Elength_error@std@@UAEPAXI@Z 00402cd0 f i AbuseUserManager.obj
 0001:00001cd0       ??_Glogic_error@std@@UAEPAXI@Z 00402cd0 f i AbuseUserManager.obj
 0001:00001cd0       ??_Gout_of_range@std@@UAEPAXI@Z 00402cd0 f i AbuseUserManager.obj
 0001:00001cd0       ??_Elogic_error@std@@UAEPAXI@Z 00402cd0 f i AbuseUserManager.obj
 0001:00001d20       ?assign@?$basic_string@DU?$char_traits@D@std@@V?$allocator@D@2@@std@@QAEAAV12@ABV12@II@Z 00402d20 f i AbuseUserManager.obj
 0001:00001e00       ?assign@?$basic_string@DU?$char_traits@D@std@@V?$allocator@D@2@@std@@QAEAAV12@PBDI@Z 00402e00 f i AbuseUserManager.obj
 0001:00001ee0       ?equal_range@?$_Hash@V?$_Hmap_traits@KPAVServerSession@@V?$hash_compare@KU?$less@K@std@@@stdext@@V?$CustomAllocator@PAVServerSession@@@util@@$0A@@stdext@@@stdext@@QAE?AU?$pair@V?$_Iterator@$00@?$list@U?$pair@$$CBKPAVServerSession@@@std@@V?$CustomAllocator@U?$pair@$$CBKPAVServerSession@@@std@@@util@@@std@@V123@@std@@ABK@Z 00402ee0 f i TempServerSessionEx.obj
 0001:00001ee0       ?equal_range@?$_Hash@V?$_Hmap_traits@KPAVAbuseUser@@V?$hash_compare@KU?$less@K@std@@@stdext@@V?$CustomAllocator@PAVAbuseUser@@@util@@$0A@@stdext@@@stdext@@QAE?AU?$pair@V?$_Iterator@$00@?$list@U?$pair@$$CBKPAVAbuseUser@@@std@@V?$CustomAllocator@U?$pair@$$CBKPAVAbuseUser@@@std@@@util@@@std@@V123@@std@@ABK@Z 00402ee0 f i AbuseUserManager.obj
 0001:00002050       ?lower_bound@?$_Hash@V?$_Hmap_traits@KV?$chunk_set@KU?$less@K@std@@@util@@V?$hash_compare@KU?$less@K@std@@@stdext@@V?$CustomAllocator@V?$chunk_set@KU?$less@K@std@@@util@@@2@$0A@@stdext@@@stdext@@QAE?AV?$_Iterator@$00@?$list@U?$pair@$$CBKV?$chunk_set@KU?$less@K@std@@@util@@@std@@V?$CustomAllocator@U?$pair@$$CBKV?$chunk_set@KU?$less@K@std@@@util@@@std@@@util@@@std@@ABK@Z 00403050 f i AbuseUserManager.obj
 0001:00002050       ?lower_bound@?$_Hash@V?$_Hmap_traits@KPAVBASE_FUNC@util@@V?$hash_compare@KU?$less@K@std@@@stdext@@V?$allocator@U?$pair@$$CBKPAVBASE_FUNC@util@@@std@@@std@@$0A@@stdext@@@stdext@@QAE?AV?$_Iterator@$00@?$list@U?$pair@$$CBKPAVBASE_FUNC@util@@@std@@V?$allocator@U?$pair@$$CBKPAVBASE_FUNC@util@@@std@@@2@@std@@ABK@Z 00403050 f i PacketHandler.obj
 0001:00002050       ?lower_bound@?$_Hash@V?$_Hmap_traits@KPAVServerSession@@V?$hash_compare@KU?$less@K@std@@@stdext@@V?$CustomAllocator@PAVServerSession@@@util@@$0A@@stdext@@@stdext@@QAE?AV?$_Iterator@$00@?$list@U?$pair@$$CBKPAVServerSession@@@std@@V?$CustomAllocator@U?$pair@$$CBKPAVServerSession@@@std@@@util@@@std@@ABK@Z 00403050 f i servercommon:ServerFrame.obj
 0001:00002050       ?lower_bound@?$_Hash@V?$_Hmap_traits@KPAVAbuseUser@@V?$hash_compare@KU?$less@K@std@@@stdext@@V?$CustomAllocator@PAVAbuseUser@@@util@@$0A@@stdext@@@stdext@@QAE?AV?$_Iterator@$00@?$list@U?$pair@$$CBKPAVAbuseUser@@@std@@V?$CustomAllocator@U?$pair@$$CBKPAVAbuseUser@@@std@@@util@@@std@@ABK@Z 00403050 f i AbuseUserManager.obj
 0001:000021a0       ?erase@?$_Hash@V?$_Hmap_traits@KPAVServerSession@@V?$hash_compare@KU?$less@K@std@@@stdext@@V?$CustomAllocator@PAVServerSession@@@util@@$0A@@stdext@@@stdext@@QAE?AV?$_Iterator@$00@?$list@U?$pair@$$CBKPAVServerSession@@@std@@V?$CustomAllocator@U?$pair@$$CBKPAVServerSession@@@std@@@util@@@std@@V?$_Const_iterator@$00@45@@Z 004031a0 f i TempServerSessionEx.obj
 0001:000021a0       ?erase@?$_Hash@V?$_Hmap_traits@KPAVAbuseUser@@V?$hash_compare@KU?$less@K@std@@@stdext@@V?$CustomAllocator@PAVAbuseUser@@@util@@$0A@@stdext@@@stdext@@QAE?AV?$_Iterator@$00@?$list@U?$pair@$$CBKPAVAbuseUser@@@std@@V?$CustomAllocator@U?$pair@$$CBKPAVAbuseUser@@@std@@@util@@@std@@V?$_Const_iterator@$00@45@@Z 004031a0 f i AbuseUserManager.obj
 0001:000022a0       ?add_block@?$simple_segregated_storage@I@boost@@QAEXQAXII@Z 004032a0 f i AbuseUserManager.obj
 0001:000022f0       ?Free@?$FixedSizeChunkImpl@VAbuseUser@@@internal@util@@UAEXQAX@Z 004032f0 f i AbuseUserManager.obj
 0001:00002310       ?malloc_need_resize@?$pool@Udefault_user_allocator_new_delete@boost@@@boost@@AAEPAXXZ 00403310 f i AbuseUserManager.obj
 0001:00002420       ?release_memory@?$pool@Udefault_user_allocator_new_delete@boost@@@boost@@QAE_NXZ 00403420 f i AbuseUserManager.obj
 0001:00002560       ?Alloc@?$FixedSizeChunkImpl@VAbuseUser@@@internal@util@@UAEPAXXZ 00403560 f i AbuseUserManager.obj
 0001:000025d0       ??_G?$FixedSizeChunkImpl@VAbuseUser@@@internal@util@@UAEPAXI@Z 004035d0 f i AbuseUserManager.obj
 0001:000025d0       ??_E?$FixedSizeChunkImpl@VAbuseUser@@@internal@util@@UAEPAXI@Z 004035d0 f i AbuseUserManager.obj
 0001:00002600       ??0?$list@U?$pair@$$CBKV?$chunk_set@KU?$less@K@std@@@util@@@std@@V?$CustomAllocator@U?$pair@$$CBKV?$chunk_set@KU?$less@K@std@@@util@@@std@@@util@@@std@@QAE@ABV?$CustomAllocator@U?$pair@$$CBKV?$chunk_set@KU?$less@K@std@@@util@@@std@@@util@@@Z 00403600 f i AbuseUserManager.obj
 0001:00002670       ??0logic_error@std@@QAE@ABV?$basic_string@DU?$char_traits@D@std@@V?$allocator@D@2@@1@@Z 00403670 f i AbuseUserManager.obj
 0001:000026e0       ??0length_error@std@@QAE@ABV?$basic_string@DU?$char_traits@D@std@@V?$allocator@D@2@@1@@Z 004036e0 f i AbuseUserManager.obj
 0001:00002700       ??1length_error@std@@UAE@XZ 00403700 f i AbuseUserManager.obj
 0001:00002700       ??1out_of_range@std@@UAE@XZ 00403700 f i AbuseUserManager.obj
 0001:00002740       ??0out_of_range@std@@QAE@ABV?$basic_string@DU?$char_traits@D@std@@V?$allocator@D@2@@1@@Z 00403740 f i AbuseUserManager.obj
 0001:00002760       ?CreateImpl@?$CMemoryPoolFactory@VAbuseUser@@@util@@QAEXH@Z 00403760 f i AbuseUserManager.obj
 0001:00002880       ??0?$_Tree@V?$_Tset_traits@KU?$less@K@std@@V?$CustomAllocator@K@util@@$0A@@std@@@std@@QAE@ABU?$less@K@1@ABV?$CustomAllocator@K@util@@@Z 00403880 f i AbuseUserManager.obj
 0001:00002910       ??0?$basic_string@DU?$char_traits@D@std@@V?$allocator@D@2@@std@@QAE@PBD@Z 00403910 f i AbuseUserManager.obj
 0001:00002950       ?Initialize@?$CMemoryPoolFactory@VAbuseUser@@@util@@UAE_NIIPBDPAX@Z 00403950 f i AbuseUserManager.obj
 0001:00002980       ?_Insert@?$_Tree@V?$_Tset_traits@KU?$less@K@std@@V?$CustomAllocator@K@util@@$0A@@std@@@std@@IAE?AViterator@12@_NPAU_Node@?$_Tree_nod@V?$_Tset_traits@KU?$less@K@std@@V?$CustomAllocator@K@util@@$0A@@std@@@2@ABK@Z 00403980 f i AbuseUserManager.obj
 0001:00002b80       ??0logic_error@std@@QAE@ABV01@@Z 00403b80 f i AbuseUserManager.obj
 0001:00002c00       ??0length_error@std@@QAE@ABV01@@Z 00403c00 f i AbuseUserManager.obj
 0001:00002c20       ?erase@?$_Tree@V?$_Tset_traits@KU?$less@K@std@@V?$CustomAllocator@K@util@@$0A@@std@@@std@@QAE?AViterator@12@Vconst_iterator@12@@Z 00403c20 f i AbuseUserManager.obj
 0001:00002ef0       ??0out_of_range@std@@QAE@ABV01@@Z 00403ef0 f i AbuseUserManager.obj
 0001:00002f10       ?_Incsize@?$list@U?$pair@$$CBKV?$chunk_set@KU?$less@K@std@@@util@@@std@@V?$CustomAllocator@U?$pair@$$CBKV?$chunk_set@KU?$less@K@std@@@util@@@std@@@util@@@std@@IAEXI@Z 00403f10 f i AbuseUserManager.obj
 0001:00002fb0       ?insert@?$_Tree@V?$_Tset_traits@KU?$less@K@std@@V?$CustomAllocator@K@util@@$0A@@std@@@std@@QAE?AU?$pair@Viterator@?$_Tree@V?$_Tset_traits@KU?$less@K@std@@V?$CustomAllocator@K@util@@$0A@@std@@@std@@_N@2@ABK@Z 00403fb0 f i AbuseUserManager.obj
 0001:000030a0       ?erase@?$_Tree@V?$_Tset_traits@KU?$less@K@std@@V?$CustomAllocator@K@util@@$0A@@std@@@std@@QAE?AViterator@12@Vconst_iterator@12@0@Z 004040a0 f i AbuseUserManager.obj
 0001:00003180       ?_Tidy@?$_Tree@V?$_Tset_traits@KU?$less@K@std@@V?$CustomAllocator@K@util@@$0A@@std@@@std@@IAEXXZ 00404180 f i AbuseUserManager.obj
 0001:000031c0       ??0?$vector@U_List_position@?$_Hash@V?$_Hmap_traits@KPAVServerSession@@V?$hash_compare@KU?$less@K@std@@@stdext@@V?$CustomAllocator@PAVServerSession@@@util@@$0A@@stdext@@@stdext@@V?$CustomAllocator@U_List_position@?$_Hash@V?$_Hmap_traits@KPAVServerSession@@V?$hash_compare@KU?$less@K@std@@@stdext@@V?$CustomAllocator@PAVServerSession@@@util@@$0A@@stdext@@@stdext@@@util@@@std@@QAE@ABV?$CustomAllocator@U_List_position@?$_Hash@V?$_Hmap_traits@KPAVServerSession@@V?$hash_compare@KU?$less@K@std@@@stdext@@V?$CustomAllocator@PAVServerSession@@@util@@$0A@@stdext@@@stdext@@@util@@@Z 004041c0 f i servercommon:ServerFrame.obj
 0001:000031c0       ??0?$vector@U_List_position@?$_Hash@V?$_Hmap_traits@KPAVAbuseUser@@V?$hash_compare@KU?$less@K@std@@@stdext@@V?$CustomAllocator@PAVAbuseUser@@@util@@$0A@@stdext@@@stdext@@V?$CustomAllocator@U_List_position@?$_Hash@V?$_Hmap_traits@KPAVAbuseUser@@V?$hash_compare@KU?$less@K@std@@@stdext@@V?$CustomAllocator@PAVAbuseUser@@@util@@$0A@@stdext@@@stdext@@@util@@@std@@QAE@ABV?$CustomAllocator@U_List_position@?$_Hash@V?$_Hmap_traits@KPAVAbuseUser@@V?$hash_compare@KU?$less@K@std@@@stdext@@V?$CustomAllocator@PAVAbuseUser@@@util@@$0A@@stdext@@@stdext@@@util@@@Z 004041c0 f i AbuseUserManager.obj
 0001:000031c0       ??0?$vector@U_List_position@?$_Hash@V?$_Hmap_traits@KV?$chunk_set@KU?$less@K@std@@@util@@V?$hash_compare@KU?$less@K@std@@@stdext@@V?$CustomAllocator@V?$chunk_set@KU?$less@K@std@@@util@@@2@$0A@@stdext@@@stdext@@V?$CustomAllocator@U_List_position@?$_Hash@V?$_Hmap_traits@KV?$chunk_set@KU?$less@K@std@@@util@@V?$hash_compare@KU?$less@K@std@@@stdext@@V?$CustomAllocator@V?$chunk_set@KU?$less@K@std@@@util@@@2@$0A@@stdext@@@stdext@@@util@@@std@@QAE@ABV?$CustomAllocator@U_List_position@?$_Hash@V?$_Hmap_traits@KV?$chunk_set@KU?$less@K@std@@@util@@V?$hash_compare@KU?$less@K@std@@@stdext@@V?$CustomAllocator@V?$chunk_set@KU?$less@K@std@@@util@@@2@$0A@@stdext@@@stdext@@@util@@@Z 004041c0 f i AbuseUserManager.obj
 0001:000031c0       ??0?$vector@U_List_position@?$_Hash@V?$_Hmap_traits@W4eSCRIPT_CODE@@PAUsSCRIPT_DATA_INFO_NODE_INTERNAL@@V?$hash_compare@W4eSCRIPT_CODE@@U?$less@W4eSCRIPT_CODE@@@std@@@stdext@@V?$CustomAllocator@PAUsSCRIPT_DATA_INFO_NODE_INTERNAL@@@util@@$0A@@stdext@@@stdext@@V?$CustomAllocator@U_List_position@?$_Hash@V?$_Hmap_traits@W4eSCRIPT_CODE@@PAUsSCRIPT_DATA_INFO_NODE_INTERNAL@@V?$hash_compare@W4eSCRIPT_CODE@@U?$less@W4eSCRIPT_CODE@@@std@@@stdext@@V?$CustomAllocator@PAUsSCRIPT_DATA_INFO_NODE_INTERNAL@@@util@@$0A@@stdext@@@stdext@@@util@@@std@@QAE@ABV?$CustomAllocator@U_List_position@?$_Hash@V?$_Hmap_traits@W4eSCRIPT_CODE@@PAUsSCRIPT_DATA_INFO_NODE_INTERNAL@@V?$hash_compare@W4eSCRIPT_CODE@@U?$less@W4eSCRIPT_CODE@@@std@@@stdext@@V?$CustomAllocator@PAUsSCRIPT_DATA_INFO_NODE_INTERNAL@@@util@@$0A@@stdext@@@stdext@@@util@@@Z 004041c0 f i servercommon:ScriptDataManager.obj
 0001:000031c0       ??0?$vector@U?$pair@W4eSCRIPT_CODE@@PAUsSCRIPT_DATA_INFO_NODE_INTERNAL@@@std@@V?$CustomAllocator@U?$pair@W4eSCRIPT_CODE@@PAUsSCRIPT_DATA_INFO_NODE_INTERNAL@@@std@@@util@@@std@@QAE@ABV?$CustomAllocator@U?$pair@W4eSCRIPT_CODE@@PAUsSCRIPT_DATA_INFO_NODE_INTERNAL@@@std@@@util@@@Z 004041c0 f i servercommon:ScriptDataManager.obj
 0001:00003220       ??1?$_Tree@V?$_Tset_traits@KU?$less@K@std@@V?$CustomAllocator@K@util@@$0A@@std@@@std@@QAE@XZ 00404220 f i AbuseUserManager.obj
 0001:000032a0       ??0?$_Tree@V?$_Tset_traits@KU?$less@K@std@@V?$CustomAllocator@K@util@@$0A@@std@@@std@@QAE@ABV01@@Z 004042a0 f i AbuseUserManager.obj
 0001:00003350       ??1?$chunk_set@KU?$less@K@std@@@util@@QAE@XZ 00404350 f i AbuseUserManager.obj
 0001:00003360       ??1?$pair@$$CBKV?$chunk_set@KU?$less@K@std@@@util@@@std@@QAE@XZ 00404360 f i AbuseUserManager.obj
 0001:00003370       ??0?$_Hash@V?$_Hmap_traits@W4eSCRIPT_CODE@@PAUsSCRIPT_DATA_INFO_NODE_INTERNAL@@V?$hash_compare@W4eSCRIPT_CODE@@U?$less@W4eSCRIPT_CODE@@@std@@@stdext@@V?$CustomAllocator@PAUsSCRIPT_DATA_INFO_NODE_INTERNAL@@@util@@$0A@@stdext@@@stdext@@QAE@ABV?$hash_compare@W4eSCRIPT_CODE@@U?$less@W4eSCRIPT_CODE@@@std@@@1@ABV?$CustomAllocator@U?$pair@$$CBW4eSCRIPT_CODE@@PAUsSCRIPT_DATA_INFO_NODE_INTERNAL@@@std@@@util@@@Z 00404370 f i servercommon:ScriptDataManager.obj
 0001:00003370       ??0?$_Hash@V?$_Hmap_traits@KPAVServerSession@@V?$hash_compare@KU?$less@K@std@@@stdext@@V?$CustomAllocator@PAVServerSession@@@util@@$0A@@stdext@@@stdext@@QAE@ABV?$hash_compare@KU?$less@K@std@@@1@ABV?$CustomAllocator@U?$pair@$$CBKPAVServerSession@@@std@@@util@@@Z 00404370 f i servercommon:ServerFrame.obj
 0001:00003370       ??0?$_Hash@V?$_Hmap_traits@KPAVAbuseUser@@V?$hash_compare@KU?$less@K@std@@@stdext@@V?$CustomAllocator@PAVAbuseUser@@@util@@$0A@@stdext@@@stdext@@QAE@ABV?$hash_compare@KU?$less@K@std@@@1@ABV?$CustomAllocator@U?$pair@$$CBKPAVAbuseUser@@@std@@@util@@@Z 00404370 f i AbuseUserManager.obj
 0001:00003430       ?erase@?$_Hash@V?$_Hmap_traits@KPAVServerSession@@V?$hash_compare@KU?$less@K@std@@@stdext@@V?$CustomAllocator@PAVServerSession@@@util@@$0A@@stdext@@@stdext@@QAE?AV?$_Iterator@$00@?$list@U?$pair@$$CBKPAVServerSession@@@std@@V?$CustomAllocator@U?$pair@$$CBKPAVServerSession@@@std@@@util@@@std@@V?$_Const_iterator@$00@45@0@Z 00404430 f i TempServerSessionEx.obj
 0001:00003430       ?erase@?$_Hash@V?$_Hmap_traits@KPAVAbuseUser@@V?$hash_compare@KU?$less@K@std@@@stdext@@V?$CustomAllocator@PAVAbuseUser@@@util@@$0A@@stdext@@@stdext@@QAE?AV?$_Iterator@$00@?$list@U?$pair@$$CBKPAVAbuseUser@@@std@@V?$CustomAllocator@U?$pair@$$CBKPAVAbuseUser@@@std@@@util@@@std@@V?$_Const_iterator@$00@45@0@Z 00404430 f i AbuseUserManager.obj
 0001:00003530       ?construct@?$CustomAllocator@U?$pair@$$CBKV?$chunk_set@KU?$less@K@std@@@util@@@std@@@util@@QAEXPAU?$pair@$$CBKV?$chunk_set@KU?$less@K@std@@@util@@@std@@ABU34@@Z 00404530 f i AbuseUserManager.obj
 0001:00003590       ??A?$hash_map@KPAVAbuseUser@@V?$hash_compare@KU?$less@K@std@@@stdext@@V?$CustomAllocator@PAVAbuseUser@@@util@@@stdext@@QAEAAPAVAbuseUser@@ABK@Z 00404590 f i AbuseUserManager.obj
 0001:00003620       ?erase@?$_Hash@V?$_Hmap_traits@KPAVServerSession@@V?$hash_compare@KU?$less@K@std@@@stdext@@V?$CustomAllocator@PAVServerSession@@@util@@$0A@@stdext@@@stdext@@QAEIABK@Z 00404620 f i TempServerSessionEx.obj
 0001:00003620       ?erase@?$_Hash@V?$_Hmap_traits@KPAVAbuseUser@@V?$hash_compare@KU?$less@K@std@@@stdext@@V?$CustomAllocator@PAVAbuseUser@@@util@@$0A@@stdext@@@stdext@@QAEIABK@Z 00404620 f i AbuseUserManager.obj
 0001:00003690       ?clear@?$list@U?$pair@$$CBKV?$chunk_set@KU?$less@K@std@@@util@@@std@@V?$CustomAllocator@U?$pair@$$CBKV?$chunk_set@KU?$less@K@std@@@util@@@std@@@util@@@std@@QAEXXZ 00404690 f i AbuseUserManager.obj
 0001:000036d0       ?erase@?$list@U?$pair@$$CBKV?$chunk_set@KU?$less@K@std@@@util@@@std@@V?$CustomAllocator@U?$pair@$$CBKV?$chunk_set@KU?$less@K@std@@@util@@@std@@@util@@@std@@QAE?AV?$_Iterator@$00@12@V?$_Const_iterator@$00@12@@Z 004046d0 f i AbuseUserManager.obj
 0001:00003760       ?_Buynode@?$list@U?$pair@$$CBKV?$chunk_set@KU?$less@K@std@@@util@@@std@@V?$CustomAllocator@U?$pair@$$CBKV?$chunk_set@KU?$less@K@std@@@util@@@std@@@util@@@std@@IAEPAU_Node@?$_List_nod@U?$pair@$$CBKV?$chunk_set@KU?$less@K@std@@@util@@@std@@V?$CustomAllocator@U?$pair@$$CBKV?$chunk_set@KU?$less@K@std@@@util@@@std@@@util@@@2@PAU342@0ABU?$pair@$$CBKV?$chunk_set@KU?$less@K@std@@@util@@@2@@Z 00404760 f i AbuseUserManager.obj
 0001:00003800       ?clear@?$_Hash@V?$_Hmap_traits@KV?$chunk_set@KU?$less@K@std@@@util@@V?$hash_compare@KU?$less@K@std@@@stdext@@V?$CustomAllocator@V?$chunk_set@KU?$less@K@std@@@util@@@2@$0A@@stdext@@@stdext@@QAEXXZ 00404800 f i AbuseUserManager.obj
 0001:00003850       ??1?$list@U?$pair@$$CBKV?$chunk_set@KU?$less@K@std@@@util@@@std@@V?$CustomAllocator@U?$pair@$$CBKV?$chunk_set@KU?$less@K@std@@@util@@@std@@@util@@@std@@QAE@XZ 00404850 f i AbuseUserManager.obj
 0001:000038c0       ??0?$_Hash@V?$_Hmap_traits@KV?$chunk_set@KU?$less@K@std@@@util@@V?$hash_compare@KU?$less@K@std@@@stdext@@V?$CustomAllocator@V?$chunk_set@KU?$less@K@std@@@util@@@2@$0A@@stdext@@@stdext@@QAE@ABV?$hash_compare@KU?$less@K@std@@@1@ABV?$CustomAllocator@U?$pair@$$CBKV?$chunk_set@KU?$less@K@std@@@util@@@std@@@util@@@Z 004048c0 f i AbuseUserManager.obj
 0001:00003980       ?insert@?$list@U?$pair@$$CBKV?$chunk_set@KU?$less@K@std@@@util@@@std@@V?$CustomAllocator@U?$pair@$$CBKV?$chunk_set@KU?$less@K@std@@@util@@@std@@@util@@@std@@QAE?AV?$_Iterator@$00@12@V?$_Const_iterator@$00@12@ABU?$pair@$$CBKV?$chunk_set@KU?$less@K@std@@@util@@@2@@Z 00404980 f i AbuseUserManager.obj
 0001:00003a10       ?_Splice@?$list@U?$pair@$$CBKV?$chunk_set@KU?$less@K@std@@@util@@@std@@V?$CustomAllocator@U?$pair@$$CBKV?$chunk_set@KU?$less@K@std@@@util@@@std@@@util@@@std@@QAEXV?$_Const_iterator@$00@12@AAV12@00I_N@Z 00404a10 f i AbuseUserManager.obj
 0001:00003a80       ??1?$chunk_hash_map@KV?$chunk_set@KU?$less@K@std@@@util@@V?$hash_compare@KU?$less@K@std@@@stdext@@@util@@QAE@XZ 00404a80 f i AbuseUserManager.obj
 0001:00003ac0       ?splice@?$list@U?$pair@$$CBKV?$chunk_set@KU?$less@K@std@@@util@@@std@@V?$CustomAllocator@U?$pair@$$CBKV?$chunk_set@KU?$less@K@std@@@util@@@std@@@util@@@std@@QAEXV?$_Const_iterator@$00@12@AAV12@0@Z 00404ac0 f i AbuseUserManager.obj
 0001:00003b80       ?_Insert@?$_Hash@V?$_Hmap_traits@KV?$chunk_set@KU?$less@K@std@@@util@@V?$hash_compare@KU?$less@K@std@@@stdext@@V?$CustomAllocator@V?$chunk_set@KU?$less@K@std@@@util@@@2@$0A@@stdext@@@stdext@@IAE?AU?$pair@V?$_Iterator@$00@?$list@U?$pair@$$CBKV?$chunk_set@KU?$less@K@std@@@util@@@std@@V?$CustomAllocator@U?$pair@$$CBKV?$chunk_set@KU?$less@K@std@@@util@@@std@@@util@@@std@@_N@std@@ABU?$pair@$$CBKV?$chunk_set@KU?$less@K@std@@@util@@@4@V?$_Iterator@$00@?$list@U?$pair@$$CBKV?$chunk_set@KU?$less@K@std@@@util@@@std@@V?$CustomAllocator@U?$pair@$$CBKV?$chunk_set@KU?$less@K@std@@@util@@@std@@@util@@@4@@Z 00404b80 f i AbuseUserManager.obj
 0001:00003f00       ?_Reinsert@?$_Hash@V?$_Hmap_traits@KV?$chunk_set@KU?$less@K@std@@@util@@V?$hash_compare@KU?$less@K@std@@@stdext@@V?$CustomAllocator@V?$chunk_set@KU?$less@K@std@@@util@@@2@$0A@@stdext@@@stdext@@IAEXXZ 00404f00 f i AbuseUserManager.obj
 0001:00003f90       ??A?$hash_map@KV?$chunk_set@KU?$less@K@std@@@util@@V?$hash_compare@KU?$less@K@std@@@stdext@@V?$CustomAllocator@V?$chunk_set@KU?$less@K@std@@@util@@@2@@stdext@@QAEAAV?$chunk_set@KU?$less@K@std@@@util@@ABK@Z 00404f90 f i AbuseUserManager.obj
 0001:000040a0       ?_CalcCompressingSafeBufferSize@CompressStreamIO@@CAKK@Z 004050a0 f i CompressStreamIO.obj
 0001:000040f0       ?ResourceFree@CompressStreamIO@@SAHABUsSTREAM_INFO@1@@Z 004050f0 f   CompressStreamIO.obj
 0001:00004110       ?ResourceAlloc@CompressStreamIO@@SAHPBDAAUsSTREAM_INFO@1@@Z 00405110 f   CompressStreamIO.obj
 0001:00004270       ?Compress@CompressStreamIO@@SAHABUsSTREAM_INFO@1@AAU21@@Z 00405270 f   CompressStreamIO.obj
 0001:00004370       ?Uncompress@CompressStreamIO@@SAHABUsSTREAM_INFO@1@AAU21@@Z 00405370 f   CompressStreamIO.obj
 0001:00004460       ?OnMsg@PROCESS_TIMER_PROCESS@@UAEXPAUsSIG_MSG@@@Z 00405460 f   MasterServerInfo.obj
 0001:00004470       ?SendGM_OPERATION_STATISTICS_REQ@MasterServerInfo@@QAEHPAVMasterServerEx@@@Z 00405470 f   MasterServerInfo.obj
 0001:000044e0       ?Update@MasterServerInfo@@QAEXXZ 004054e0 f   MasterServerInfo.obj
 0001:00004510       ?SendGM_OPERATION_FUNCRESTRICT_CMD@MasterServerInfo@@QAEHPAVMasterServerEx@@@Z 00405510 f   MasterServerInfo.obj
 0001:00004570       ?ProcessWait@PROCESS_EXIT_PROCESS@@SAXPAV1@PAV?$map@PAVServerSessionEx@@HU?$less@PAVServerSessionEx@@@std@@V?$allocator@U?$pair@QAVServerSessionEx@@H@std@@@3@@std@@@Z 00405570 f   MasterServerInfo.obj
 0001:00004590       ?Processed@PROCESS_EXIT_PROCESS@@SAXPAV1@PAV?$map@PAVServerSessionEx@@HU?$less@PAVServerSessionEx@@@std@@V?$allocator@U?$pair@QAVServerSessionEx@@H@std@@@3@@std@@@Z 00405590 f   MasterServerInfo.obj
 0001:000045d0       ?SendMX_FUNCRESTRICT_RELOAD_REQ@MasterServerInfo@@QAEHPAVMasterServerEx@@@Z 004055d0 f   MasterServerInfo.obj
 0001:00004620       ?ProcessStart@PROCESS_EXIT_PROCESS@@SAXPAV1@PAV?$map@PAVServerSessionEx@@HU?$less@PAVServerSessionEx@@@std@@V?$allocator@U?$pair@QAVServerSessionEx@@H@std@@@3@@std@@@Z 00405620 f   MasterServerInfo.obj
 0001:000046b0       ?OnMsg@PROCESS_EXIT_PROCESS@@UAEXPAUsSIG_MSG@@@Z 004056b0 f   MasterServerInfo.obj
 0001:00004720       ?MakeServerExitList@MasterServerInfo@@QAEHUtagSERVER_KEY@@AAPAV?$map@PAVServerSessionEx@@HU?$less@PAVServerSessionEx@@@std@@V?$allocator@U?$pair@QAVServerSessionEx@@H@std@@@3@@std@@11@Z 00405720 f   MasterServerInfo.obj
 0001:00004960       ?RegisterServerExitProcess@MasterServerInfo@@QAEHAAPAV?$map@PAVServerSessionEx@@HU?$less@PAVServerSessionEx@@@std@@V?$allocator@U?$pair@QAVServerSessionEx@@H@std@@@3@@std@@00@Z 00405960 f   MasterServerInfo.obj
 0001:000049e0       ?StartTimerProcess@MasterServerInfo@@QAEXK@Z 004059e0 f   MasterServerInfo.obj
 0001:00004a50       ?_Max@?$_Tree@V?$_Tmap_traits@KU?$pair@V?$Delegator@VIWorkNode@@@@H@std@@U?$less@K@2@V?$CustomAllocator@U?$pair@V?$Delegator@VIWorkNode@@@@H@std@@@util@@$0A@@std@@@std@@KAPAU_Node@?$_Tree_nod@V?$_Tmap_traits@KU?$pair@V?$Delegator@VIWorkNode@@@@H@std@@U?$less@K@2@V?$CustomAllocator@U?$pair@V?$Delegator@VIWorkNode@@@@H@std@@@util@@$0A@@std@@@2@PAU342@@Z 00405a50 f i servercommon:WorkLoadManager.obj
 0001:00004a50       ?_Max@?$_Tree@V?$_Tmap_traits@KU?$pair@KK@std@@U?$less@K@2@V?$CustomAllocator@U?$pair@KK@std@@@util@@$0A@@std@@@std@@KAPAU_Node@?$_Tree_nod@V?$_Tmap_traits@KU?$pair@KK@std@@U?$less@K@2@V?$CustomAllocator@U?$pair@KK@std@@@util@@$0A@@std@@@2@PAU342@@Z 00405a50 f i MasterServerInfo.obj
 0001:00004a70       ?_Min@?$_Tree@V?$_Tmap_traits@KU?$pair@V?$Delegator@VIWorkNode@@@@H@std@@U?$less@K@2@V?$CustomAllocator@U?$pair@V?$Delegator@VIWorkNode@@@@H@std@@@util@@$0A@@std@@@std@@KAPAU_Node@?$_Tree_nod@V?$_Tmap_traits@KU?$pair@V?$Delegator@VIWorkNode@@@@H@std@@U?$less@K@2@V?$CustomAllocator@U?$pair@V?$Delegator@VIWorkNode@@@@H@std@@@util@@$0A@@std@@@2@PAU342@@Z 00405a70 f i servercommon:WorkLoadManager.obj
 0001:00004a70       ?_Min@?$_Tree@V?$_Tmap_traits@KU?$pair@KK@std@@U?$less@K@2@V?$CustomAllocator@U?$pair@KK@std@@@util@@$0A@@std@@@std@@KAPAU_Node@?$_Tree_nod@V?$_Tmap_traits@KU?$pair@KK@std@@U?$less@K@2@V?$CustomAllocator@U?$pair@KK@std@@@util@@$0A@@std@@@2@PAU342@@Z 00405a70 f i MasterServerInfo.obj
 0001:00004a90       ?DoProcess@PROCESS_EXIT_PROCESS@@UAEHXZ 00405a90 f i MasterServerInfo.obj
 0001:00004ab0       ?IsComplete@PROCESS_EXIT_PROCESS@@UAEHXZ 00405ab0 f i MasterServerInfo.obj
 0001:00004ad0       ??_GPROCESS_EXIT_PROCESS@@UAEPAXI@Z 00405ad0 f i MasterServerInfo.obj
 0001:00004ad0       ??_EPROCESS_EXIT_PROCESS@@UAEPAXI@Z 00405ad0 f i MasterServerInfo.obj
 0001:00004ad0       ??_GIWorkNode@@UAEPAXI@Z   00405ad0 f i MasterServerInfo.obj
 0001:00004ad0       ??_GPROCESS_TIMER_PROCESS@@UAEPAXI@Z 00405ad0 f i MasterServerInfo.obj
 0001:00004ad0       ??_EPROCESS_TIMER_PROCESS@@UAEPAXI@Z 00405ad0 f i MasterServerInfo.obj
 0001:00004ad0       ??_EIWorkNode@@UAEPAXI@Z   00405ad0 f i MasterServerInfo.obj
 0001:00004af0       ?DoInit@PROCESS_TIMER_PROCESS@@UAEHXZ 00405af0 f i MasterServerInfo.obj
 0001:00004b10       ?DoProcess@PROCESS_TIMER_PROCESS@@UAEHXZ 00405b10 f i MasterServerInfo.obj
 0001:00004c00       ?_Lrotate@?$_Tree@V?$_Tmap_traits@PAVServerSessionEx@@HU?$less@PAVServerSessionEx@@@std@@V?$allocator@U?$pair@QAVServerSessionEx@@H@std@@@3@$0A@@std@@@std@@IAEXPAU_Node@?$_Tree_nod@V?$_Tmap_traits@PAVServerSessionEx@@HU?$less@PAVServerSessionEx@@@std@@V?$allocator@U?$pair@QAVServerSessionEx@@H@std@@@3@$0A@@std@@@2@@Z 00405c00 f i MasterServerInfo.obj
 0001:00004c00       ?_Lrotate@?$_Tree@V?$_Tmap_traits@EPAUABUSING_OPTION_INFO@@U?$less@E@std@@V?$CustomAllocator@PAUABUSING_OPTION_INFO@@@util@@$0A@@std@@@std@@IAEXPAU_Node@?$_Tree_nod@V?$_Tmap_traits@EPAUABUSING_OPTION_INFO@@U?$less@E@std@@V?$CustomAllocator@PAUABUSING_OPTION_INFO@@@util@@$0A@@std@@@2@@Z 00405c00 f i servercommon:AbusingOptionParser.obj
 0001:00004c50       ?_Eqrange@?$_Tree@V?$_Tmap_traits@PAVServerSessionEx@@HU?$less@PAVServerSessionEx@@@std@@V?$allocator@U?$pair@QAVServerSessionEx@@H@std@@@3@$0A@@std@@@std@@IAE?AU?$pair@Viterator@?$_Tree@V?$_Tmap_traits@PAVServerSessionEx@@HU?$less@PAVServerSessionEx@@@std@@V?$allocator@U?$pair@QAVServerSessionEx@@H@std@@@3@$0A@@std@@@std@@V123@@2@ABQAVServerSessionEx@@@Z 00405c50 f i MasterServerInfo.obj
 0001:00004ce0       ?_Buynode@?$_Tree@V?$_Tmap_traits@PAVServerSessionEx@@HU?$less@PAVServerSessionEx@@@std@@V?$allocator@U?$pair@QAVServerSessionEx@@H@std@@@3@$0A@@std@@@std@@IAEPAU_Node@?$_Tree_nod@V?$_Tmap_traits@PAVServerSessionEx@@HU?$less@PAVServerSessionEx@@@std@@V?$allocator@U?$pair@QAVServerSessionEx@@H@std@@@3@$0A@@std@@@2@PAU342@00ABU?$pair@QAVServerSessionEx@@H@2@D@Z 00405ce0 f i MasterServerInfo.obj
 0001:00004d20       ?_Erase@?$_Tree@V?$_Tmap_traits@PAVServerSessionEx@@HU?$less@PAVServerSessionEx@@@std@@V?$allocator@U?$pair@QAVServerSessionEx@@H@std@@@3@$0A@@std@@@std@@IAEXPAU_Node@?$_Tree_nod@V?$_Tmap_traits@PAVServerSessionEx@@HU?$less@PAVServerSessionEx@@@std@@V?$allocator@U?$pair@QAVServerSessionEx@@H@std@@@3@$0A@@std@@@2@@Z 00405d20 f i MasterServerInfo.obj
 0001:00004d60       ?_Buynode@?$_Tree@V?$_Tmap_traits@PAVServerSessionEx@@HU?$less@PAVServerSessionEx@@@std@@V?$allocator@U?$pair@QAVServerSessionEx@@H@std@@@3@$0A@@std@@@std@@IAEPAU_Node@?$_Tree_nod@V?$_Tmap_traits@PAVServerSessionEx@@HU?$less@PAVServerSessionEx@@@std@@V?$allocator@U?$pair@QAVServerSessionEx@@H@std@@@3@$0A@@std@@@2@XZ 00405d60 f i MasterServerInfo.obj
 0001:00004da0       ??$_Distance2@Viterator@?$_Tree@V?$_Tmap_traits@PAVServerSessionEx@@HU?$less@PAVServerSessionEx@@@std@@V?$allocator@U?$pair@QAVServerSessionEx@@H@std@@@3@$0A@@std@@@std@@I@std@@YAXViterator@?$_Tree@V?$_Tmap_traits@PAVServerSessionEx@@HU?$less@PAVServerSessionEx@@@std@@V?$allocator@U?$pair@QAVServerSessionEx@@H@std@@@3@$0A@@std@@@0@0AAIUbidirectional_iterator_tag@0@@Z 00405da0 f i MasterServerInfo.obj
 0001:00004de0       ?DoInit@PROCESS_EXIT_PROCESS@@UAEHXZ 00405de0 f i MasterServerInfo.obj
 0001:00004e60       ??0?$_Tree@V?$_Tmap_traits@PAVServerSessionEx@@HU?$less@PAVServerSessionEx@@@std@@V?$allocator@U?$pair@QAVServerSessionEx@@H@std@@@3@$0A@@std@@@std@@QAE@ABU?$less@PAVServerSessionEx@@@1@ABV?$allocator@U?$pair@QAVServerSessionEx@@H@std@@@1@@Z 00405e60 f i MasterServerInfo.obj
 0001:00004ef0       ?_Insert@?$_Tree@V?$_Tmap_traits@PAVServerSessionEx@@HU?$less@PAVServerSessionEx@@@std@@V?$allocator@U?$pair@QAVServerSessionEx@@H@std@@@3@$0A@@std@@@std@@IAE?AViterator@12@_NPAU_Node@?$_Tree_nod@V?$_Tmap_traits@PAVServerSessionEx@@HU?$less@PAVServerSessionEx@@@std@@V?$allocator@U?$pair@QAVServerSessionEx@@H@std@@@3@$0A@@std@@@2@ABU?$pair@QAVServerSessionEx@@H@2@@Z 00405ef0 f i MasterServerInfo.obj
 0001:000050f0       ?erase@?$_Tree@V?$_Tmap_traits@PAVServerSessionEx@@HU?$less@PAVServerSessionEx@@@std@@V?$allocator@U?$pair@QAVServerSessionEx@@H@std@@@3@$0A@@std@@@std@@QAE?AViterator@12@Vconst_iterator@12@@Z 004060f0 f i MasterServerInfo.obj
 0001:000053c0       ?_Insert@?$_Tree@V?$_Tmap_traits@KU?$pair@KK@std@@U?$less@K@2@V?$CustomAllocator@U?$pair@KK@std@@@util@@$0A@@std@@@std@@IAE?AViterator@12@_NPAU_Node@?$_Tree_nod@V?$_Tmap_traits@KU?$pair@KK@std@@U?$less@K@2@V?$CustomAllocator@U?$pair@KK@std@@@util@@$0A@@std@@@2@ABU?$pair@$$CBKU?$pair@KK@std@@@2@@Z 004063c0 f i MasterServerInfo.obj
 0001:000053c0       ?_Insert@?$_Tree@V?$_Tmap_traits@KU?$pair@V?$Delegator@VIWorkNode@@@@H@std@@U?$less@K@2@V?$CustomAllocator@U?$pair@V?$Delegator@VIWorkNode@@@@H@std@@@util@@$0A@@std@@@std@@IAE?AViterator@12@_NPAU_Node@?$_Tree_nod@V?$_Tmap_traits@KU?$pair@V?$Delegator@VIWorkNode@@@@H@std@@U?$less@K@2@V?$CustomAllocator@U?$pair@V?$Delegator@VIWorkNode@@@@H@std@@@util@@$0A@@std@@@2@ABU?$pair@$$CBKU?$pair@V?$Delegator@VIWorkNode@@@@H@std@@@2@@Z 004063c0 f i servercommon:WorkLoadManager.obj
 0001:000055c0       ?insert@?$_Tree@V?$_Tmap_traits@PAVServerSessionEx@@HU?$less@PAVServerSessionEx@@@std@@V?$allocator@U?$pair@QAVServerSessionEx@@H@std@@@3@$0A@@std@@@std@@QAE?AU?$pair@Viterator@?$_Tree@V?$_Tmap_traits@PAVServerSessionEx@@HU?$less@PAVServerSessionEx@@@std@@V?$allocator@U?$pair@QAVServerSessionEx@@H@std@@@3@$0A@@std@@@std@@_N@2@ABU?$pair@QAVServerSessionEx@@H@2@@Z 004065c0 f i MasterServerInfo.obj
 0001:000056b0       ?erase@?$_Tree@V?$_Tmap_traits@PAVServerSessionEx@@HU?$less@PAVServerSessionEx@@@std@@V?$allocator@U?$pair@QAVServerSessionEx@@H@std@@@3@$0A@@std@@@std@@QAE?AViterator@12@Vconst_iterator@12@0@Z 004066b0 f i MasterServerInfo.obj
 0001:00005790       ?insert@?$_Tree@V?$_Tmap_traits@KU?$pair@KK@std@@U?$less@K@2@V?$CustomAllocator@U?$pair@KK@std@@@util@@$0A@@std@@@std@@QAE?AU?$pair@Viterator@?$_Tree@V?$_Tmap_traits@KU?$pair@KK@std@@U?$less@K@2@V?$CustomAllocator@U?$pair@KK@std@@@util@@$0A@@std@@@std@@_N@2@ABU?$pair@$$CBKU?$pair@KK@std@@@2@@Z 00406790 f i MasterServerInfo.obj
 0001:00005790       ?insert@?$_Tree@V?$_Tmap_traits@KU?$pair@V?$Delegator@VIWorkNode@@@@H@std@@U?$less@K@2@V?$CustomAllocator@U?$pair@V?$Delegator@VIWorkNode@@@@H@std@@@util@@$0A@@std@@@std@@QAE?AU?$pair@Viterator@?$_Tree@V?$_Tmap_traits@KU?$pair@V?$Delegator@VIWorkNode@@@@H@std@@U?$less@K@2@V?$CustomAllocator@U?$pair@V?$Delegator@VIWorkNode@@@@H@std@@@util@@$0A@@std@@@std@@_N@2@ABU?$pair@$$CBKU?$pair@V?$Delegator@VIWorkNode@@@@H@std@@@2@@Z 00406790 f i servercommon:WorkLoadManager.obj
 0001:00005880       ??1?$_Tree@V?$_Tmap_traits@PAVServerSessionEx@@HU?$less@PAVServerSessionEx@@@std@@V?$allocator@U?$pair@QAVServerSessionEx@@H@std@@@3@$0A@@std@@@std@@QAE@XZ 00406880 f i MasterServerInfo.obj
 0001:00005900       ?insert@?$_Tree@V?$_Tmap_traits@PAVServerSessionEx@@HU?$less@PAVServerSessionEx@@@std@@V?$allocator@U?$pair@QAVServerSessionEx@@H@std@@@3@$0A@@std@@@std@@QAE?AViterator@12@Vconst_iterator@12@ABU?$pair@QAVServerSessionEx@@H@2@@Z 00406900 f i MasterServerInfo.obj
 0001:00005ad0       ?erase@?$_Tree@V?$_Tmap_traits@PAVServerSessionEx@@HU?$less@PAVServerSessionEx@@@std@@V?$allocator@U?$pair@QAVServerSessionEx@@H@std@@@3@$0A@@std@@@std@@QAEIABQAVServerSessionEx@@@Z 00406ad0 f i MasterServerInfo.obj
 0001:00005b40       ?RegisterWork@?$WorkLoadContainer@K@@QAEHKK@Z 00406b40 f i MasterServerInfo.obj
 0001:00005bd0       ?DoRelease@PROCESS_EXIT_PROCESS@@UAEHXZ 00406bd0 f i MasterServerInfo.obj
 0001:00005c90       ?Make_GM_OPERATION_FUNCRESTRICT_CMD@MakePacket@sRESTRICT_MGR@@SAXPAU2@PAUMSG_GM_OPERATION_FUNCRESTRICT_CMD@@@Z 00406c90 f   MasterServerInfoStruct.obj
 0001:00005d80       ?Parse_MX_FUNCRESTRICT_RELOAD_ANS@MakePacket@sRESTRICT_MGR@@SAXPAU2@PAUMSG_MX_FUNCRESTRICT_RELOAD_ANS@@HH@Z 00406d80 f   MasterServerInfoStruct.obj
 0001:00005e80       ?Read_FUNCRESTRICT_FROM_FILE@MakePacket@sRESTRICT_MGR@@SAXPAU2@H@Z 00406e80 f   MasterServerInfoStruct.obj
 0001:00006450       ?Clear@ServerInfoManager@@SAXXZ 00407450 f   ServerInfoManager.obj
 0001:00006460       ?GetServerKey@ServerInfoManager@@SA?AUtagSERVER_KEY@@W4eSERVER_TYPE@@PAD@Z 00407460 f   ServerInfoManager.obj
 0001:00006500       ?GetServerInfo@ServerInfoManager@@SAPAUtagSERVER_INFO@@UtagSERVER_KEY@@@Z 00407500 f   ServerInfoManager.obj
 0001:00006520       ?_GetServerInfo@ServerInfoManager@@CAXEEPAUtagSERVER_INFO@@W4eSERVER_TYPE@@@Z 00407520 f   ServerInfoManager.obj
 0001:00006630       ?GetGameDBProxyInfo@ServerInfoManager@@SAXEEPAUtagSERVER_INFO@@@Z 00407630 f   ServerInfoManager.obj
 0001:00006650       ?GetAgentServerInfo@ServerInfoManager@@SAXEEPAUtagSERVER_INFO@@@Z 00407650 f   ServerInfoManager.obj
 0001:00006670       ?GetWorldServerInfo@ServerInfoManager@@SAXEEPAUtagSERVER_INFO@@@Z 00407670 f   ServerInfoManager.obj
 0001:00006690       ?GetGuildServerInfo@ServerInfoManager@@SAXEEPAUtagSERVER_INFO@@@Z 00407690 f   ServerInfoManager.obj
 0001:000066b0       ?GetPortalServerInfo@ServerInfoManager@@SAXEEPAUtagSERVER_INFO@@@Z 004076b0 f   ServerInfoManager.obj
 0001:000066d0       ?GetAuthAgentServerInfo@ServerInfoManager@@SAXPAUtagSERVER_INFO@@@Z 004076d0 f   ServerInfoManager.obj
 0001:000066f0       ?GetShopServerInfo@ServerInfoManager@@SAXPAUtagSERVER_INFO@@@Z 004076f0 f   ServerInfoManager.obj
 0001:00006710       ?DestroyInstance@ServerInfoManager@@SAXXZ 00407710 f   ServerInfoManager.obj
 0001:00006750       ?CreateInstance@ServerInfoManager@@SAXXZ 00407750 f   ServerInfoManager.obj
 0001:00006800       ?AddServerInfo@ServerInfoManager@@SAXPAUtagSERVER_INFO@@KH@Z 00407800 f   ServerInfoManager.obj
 0001:000068f0       ?GetPtrList@?$ServerTree@UsSERVER_INFO@@@@QAEXKPAU?$sPTR_LIST@UsSERVER_INFO@@@@@Z 004078f0 f i ServerInfoManager.obj
 0001:00006940       ?_FindEmptyNode@?$ServerTree@UsSERVER_INFO@@@@AAEPAUsSERVER_INFO@@XZ 00407940 f i ServerInfoManager.obj
 0001:000069c0       ?GetServerNodeList@?$ServerTree@UsSERVER_INFO@@@@QAEPAV?$vector@PAUsSERVER_INFO@@V?$allocator@PAUsSERVER_INFO@@@std@@@std@@EE@Z 004079c0 f i ServerInfoManager.obj
 0001:00006a20       ??0sSERVER_INFO@@QAE@XZ    00407a20 f i ServerInfoManager.obj
 0001:00006a30       ??$_Umove@PAPAV?$vector@PAV?$vector@PAUsSERVER_INFO@@V?$allocator@PAUsSERVER_INFO@@@std@@@std@@V?$allocator@PAV?$vector@PAUsSERVER_INFO@@V?$allocator@PAUsSERVER_INFO@@@std@@@std@@@2@@std@@@?$vector@PAV?$vector@PAV?$vector@PAUsSERVER_INFO@@V?$allocator@PAUsSERVER_INFO@@@std@@@std@@V?$allocator@PAV?$vector@PAUsSERVER_INFO@@V?$allocator@PAUsSERVER_INFO@@@std@@@std@@@2@@std@@V?$allocator@PAV?$vector@PAV?$vector@PAUsSERVER_INFO@@V?$allocator@PAUsSERVER_INFO@@@std@@@std@@V?$allocator@PAV?$vector@PAUsSERVER_INFO@@V?$allocator@PAUsSERVER_INFO@@@std@@@std@@@2@@std@@@2@@std@@IAEPAPAV?$vector@PAV?$vector@PAUsSERVER_INFO@@V?$allocator@PAUsSERVER_INFO@@@std@@@std@@V?$allocator@PAV?$vector@PAUsSERVER_INFO@@V?$allocator@PAUsSERVER_INFO@@@std@@@std@@@2@@1@PAPAV21@00@Z 00407a30 f i ServerInfoManager.obj
 0001:00006a30       ??$_Umove@PAPAV?$vector@PAUsSERVER_INFO@@V?$allocator@PAUsSERVER_INFO@@@std@@@std@@@?$vector@PAV?$vector@PAUsSERVER_INFO@@V?$allocator@PAUsSERVER_INFO@@@std@@@std@@V?$allocator@PAV?$vector@PAUsSERVER_INFO@@V?$allocator@PAUsSERVER_INFO@@@std@@@std@@@2@@std@@IAEPAPAV?$vector@PAUsSERVER_INFO@@V?$allocator@PAUsSERVER_INFO@@@std@@@1@PAPAV21@00@Z 00407a30 f i ServerInfoManager.obj
 0001:00006a30       ??$_Umove@PAPAUsSERVER_NODE@@@?$vector@PAUsSERVER_NODE@@V?$allocator@PAUsSERVER_NODE@@@std@@@std@@IAEPAPAUsSERVER_NODE@@PAPAU2@00@Z 00407a30 f i ServerSessionManager.obj
 0001:00006a30       ??$_Umove@PAPAV?$vector@PAV?$vector@PAUsSERVER_NODE@@V?$allocator@PAUsSERVER_NODE@@@std@@@std@@V?$allocator@PAV?$vector@PAUsSERVER_NODE@@V?$allocator@PAUsSERVER_NODE@@@std@@@std@@@2@@std@@@?$vector@PAV?$vector@PAV?$vector@PAUsSERVER_NODE@@V?$allocator@PAUsSERVER_NODE@@@std@@@std@@V?$allocator@PAV?$vector@PAUsSERVER_NODE@@V?$allocator@PAUsSERVER_NODE@@@std@@@std@@@2@@std@@V?$allocator@PAV?$vector@PAV?$vector@PAUsSERVER_NODE@@V?$allocator@PAUsSERVER_NODE@@@std@@@std@@V?$allocator@PAV?$vector@PAUsSERVER_NODE@@V?$allocator@PAUsSERVER_NODE@@@std@@@std@@@2@@std@@@2@@std@@IAEPAPAV?$vector@PAV?$vector@PAUsSERVER_NODE@@V?$allocator@PAUsSERVER_NODE@@@std@@@std@@V?$allocator@PAV?$vector@PAUsSERVER_NODE@@V?$allocator@PAUsSERVER_NODE@@@std@@@std@@@2@@1@PAPAV21@00@Z 00407a30 f i ServerSessionManager.obj
 0001:00006a30       ??$_Umove@PAPAUsSERVER_INFO@@@?$vector@PAUsSERVER_INFO@@V?$allocator@PAUsSERVER_INFO@@@std@@@std@@IAEPAPAUsSERVER_INFO@@PAPAU2@00@Z 00407a30 f i ServerInfoManager.obj
 0001:00006a30       ??$_Umove@PAPAV?$vector@PAUsSERVER_NODE@@V?$allocator@PAUsSERVER_NODE@@@std@@@std@@@?$vector@PAV?$vector@PAUsSERVER_NODE@@V?$allocator@PAUsSERVER_NODE@@@std@@@std@@V?$allocator@PAV?$vector@PAUsSERVER_NODE@@V?$allocator@PAUsSERVER_NODE@@@std@@@std@@@2@@std@@IAEPAPAV?$vector@PAUsSERVER_NODE@@V?$allocator@PAUsSERVER_NODE@@@std@@@1@PAPAV21@00@Z 00407a30 f i ServerSessionManager.obj
 0001:00006a70       ?RemoveServer@?$ServerTree@UsSERVER_INFO@@@@QAEXUtagSERVER_KEY@@@Z 00407a70 f i ServerInfoManager.obj
 0001:00006bd0       ?_Ufill@?$vector@PAV?$vector@PAV?$vector@PAUsSERVER_INFO@@V?$allocator@PAUsSERVER_INFO@@@std@@@std@@V?$allocator@PAV?$vector@PAUsSERVER_INFO@@V?$allocator@PAUsSERVER_INFO@@@std@@@std@@@2@@std@@V?$allocator@PAV?$vector@PAV?$vector@PAUsSERVER_INFO@@V?$allocator@PAUsSERVER_INFO@@@std@@@std@@V?$allocator@PAV?$vector@PAUsSERVER_INFO@@V?$allocator@PAUsSERVER_INFO@@@std@@@std@@@2@@std@@@2@@std@@IAEPAPAV?$vector@PAV?$vector@PAUsSERVER_INFO@@V?$allocator@PAUsSERVER_INFO@@@std@@@std@@V?$allocator@PAV?$vector@PAUsSERVER_INFO@@V?$allocator@PAUsSERVER_INFO@@@std@@@std@@@2@@2@PAPAV32@IABQAV32@@Z 00407bd0 f i ServerInfoManager.obj
 0001:00006bd0       ?_Ufill@?$vector@PAV?$vector@PAUsSERVER_NODE@@V?$allocator@PAUsSERVER_NODE@@@std@@@std@@V?$allocator@PAV?$vector@PAUsSERVER_NODE@@V?$allocator@PAUsSERVER_NODE@@@std@@@std@@@2@@std@@IAEPAPAV?$vector@PAUsSERVER_NODE@@V?$allocator@PAUsSERVER_NODE@@@std@@@2@PAPAV32@IABQAV32@@Z 00407bd0 f i ServerSessionManager.obj
 0001:00006bd0       ?_Ufill@?$vector@PAV?$vector@PAV?$vector@PAUsSERVER_NODE@@V?$allocator@PAUsSERVER_NODE@@@std@@@std@@V?$allocator@PAV?$vector@PAUsSERVER_NODE@@V?$allocator@PAUsSERVER_NODE@@@std@@@std@@@2@@std@@V?$allocator@PAV?$vector@PAV?$vector@PAUsSERVER_NODE@@V?$allocator@PAUsSERVER_NODE@@@std@@@std@@V?$allocator@PAV?$vector@PAUsSERVER_NODE@@V?$allocator@PAUsSERVER_NODE@@@std@@@std@@@2@@std@@@2@@std@@IAEPAPAV?$vector@PAV?$vector@PAUsSERVER_NODE@@V?$allocator@PAUsSERVER_NODE@@@std@@@std@@V?$allocator@PAV?$vector@PAUsSERVER_NODE@@V?$allocator@PAUsSERVER_NODE@@@std@@@std@@@2@@2@PAPAV32@IABQAV32@@Z 00407bd0 f i ServerSessionManager.obj
 0001:00006bd0       ?_Ufill@?$vector@PAV?$vector@PAUsSERVER_INFO@@V?$allocator@PAUsSERVER_INFO@@@std@@@std@@V?$allocator@PAV?$vector@PAUsSERVER_INFO@@V?$allocator@PAUsSERVER_INFO@@@std@@@std@@@2@@std@@IAEPAPAV?$vector@PAUsSERVER_INFO@@V?$allocator@PAUsSERVER_INFO@@@std@@@2@PAPAV32@IABQAV32@@Z 00407bd0 f i ServerInfoManager.obj
 0001:00006bd0       ?_Ufill@?$vector@PAUsSERVER_NODE@@V?$allocator@PAUsSERVER_NODE@@@std@@@std@@IAEPAPAUsSERVER_NODE@@PAPAU3@IABQAU3@@Z 00407bd0 f i ServerSessionManager.obj
 0001:00006bd0       ?_Ufill@?$vector@PAUsSERVER_INFO@@V?$allocator@PAUsSERVER_INFO@@@std@@@std@@IAEPAPAUsSERVER_INFO@@PAPAU3@IABQAU3@@Z 00407bd0 f i ServerInfoManager.obj
 0001:00006c00       ?erase@?$vector@PAV?$vector@PAV?$vector@PAUsSERVER_NODE@@V?$allocator@PAUsSERVER_NODE@@@std@@@std@@V?$allocator@PAV?$vector@PAUsSERVER_NODE@@V?$allocator@PAUsSERVER_NODE@@@std@@@std@@@2@@std@@V?$allocator@PAV?$vector@PAV?$vector@PAUsSERVER_NODE@@V?$allocator@PAUsSERVER_NODE@@@std@@@std@@V?$allocator@PAV?$vector@PAUsSERVER_NODE@@V?$allocator@PAUsSERVER_NODE@@@std@@@std@@@2@@std@@@2@@std@@QAE?AV?$_Vector_iterator@PAV?$vector@PAV?$vector@PAUsSERVER_NODE@@V?$allocator@PAUsSERVER_NODE@@@std@@@std@@V?$allocator@PAV?$vector@PAUsSERVER_NODE@@V?$allocator@PAUsSERVER_NODE@@@std@@@std@@@2@@std@@V?$allocator@PAV?$vector@PAV?$vector@PAUsSERVER_NODE@@V?$allocator@PAUsSERVER_NODE@@@std@@@std@@V?$allocator@PAV?$vector@PAUsSERVER_NODE@@V?$allocator@PAUsSERVER_NODE@@@std@@@std@@@2@@std@@@2@@2@V?$_Vector_const_iterator@PAV?$vector@PAV?$vector@PAUsSERVER_NODE@@V?$allocator@PAUsSERVER_NODE@@@std@@@std@@V?$allocator@PAV?$vector@PAUsSERVER_NODE@@V?$allocator@PAUsSERVER_NODE@@@std@@@std@@@2@@std@@V?$allocator@PAV?$vector@PAV?$vector@PAUsSERVER_NODE@@V?$allocator@PAUsSERVER_NODE@@@std@@@std@@V?$allocator@PAV?$vector@PAUsSERVER_NODE@@V?$allocator@PAUsSERVER_NODE@@@std@@@std@@@2@@std@@@2@@2@0@Z 00407c00 f i ServerSessionManager.obj
 0001:00006c00       ?erase@?$vector@PAV?$vector@PAV?$vector@PAUsSERVER_INFO@@V?$allocator@PAUsSERVER_INFO@@@std@@@std@@V?$allocator@PAV?$vector@PAUsSERVER_INFO@@V?$allocator@PAUsSERVER_INFO@@@std@@@std@@@2@@std@@V?$allocator@PAV?$vector@PAV?$vector@PAUsSERVER_INFO@@V?$allocator@PAUsSERVER_INFO@@@std@@@std@@V?$allocator@PAV?$vector@PAUsSERVER_INFO@@V?$allocator@PAUsSERVER_INFO@@@std@@@std@@@2@@std@@@2@@std@@QAE?AV?$_Vector_iterator@PAV?$vector@PAV?$vector@PAUsSERVER_INFO@@V?$allocator@PAUsSERVER_INFO@@@std@@@std@@V?$allocator@PAV?$vector@PAUsSERVER_INFO@@V?$allocator@PAUsSERVER_INFO@@@std@@@std@@@2@@std@@V?$allocator@PAV?$vector@PAV?$vector@PAUsSERVER_INFO@@V?$allocator@PAUsSERVER_INFO@@@std@@@std@@V?$allocator@PAV?$vector@PAUsSERVER_INFO@@V?$allocator@PAUsSERVER_INFO@@@std@@@std@@@2@@std@@@2@@2@V?$_Vector_const_iterator@PAV?$vector@PAV?$vector@PAUsSERVER_INFO@@V?$allocator@PAUsSERVER_INFO@@@std@@@std@@V?$allocator@PAV?$vector@PAUsSERVER_INFO@@V?$allocator@PAUsSERVER_INFO@@@std@@@std@@@2@@std@@V?$allocator@PAV?$vector@PAV?$vector@PAUsSERVER_INFO@@V?$allocator@PAUsSERVER_INFO@@@std@@@std@@V?$allocator@PAV?$vector@PAUsSERVER_INFO@@V?$allocator@PAUsSERVER_INFO@@@std@@@std@@@2@@std@@@2@@2@0@Z 00407c00 f i ServerInfoManager.obj
 0001:00006c00       ?erase@?$vector@PAV?$vector@PAUsSERVER_NODE@@V?$allocator@PAUsSERVER_NODE@@@std@@@std@@V?$allocator@PAV?$vector@PAUsSERVER_NODE@@V?$allocator@PAUsSERVER_NODE@@@std@@@std@@@2@@std@@QAE?AV?$_Vector_iterator@PAV?$vector@PAUsSERVER_NODE@@V?$allocator@PAUsSERVER_NODE@@@std@@@std@@V?$allocator@PAV?$vector@PAUsSERVER_NODE@@V?$allocator@PAUsSERVER_NODE@@@std@@@std@@@2@@2@V?$_Vector_const_iterator@PAV?$vector@PAUsSERVER_NODE@@V?$allocator@PAUsSERVER_NODE@@@std@@@std@@V?$allocator@PAV?$vector@PAUsSERVER_NODE@@V?$allocator@PAUsSERVER_NODE@@@std@@@std@@@2@@2@0@Z 00407c00 f i ServerSessionManager.obj
 0001:00006c00       ?erase@?$vector@PAV?$vector@PAUsSERVER_INFO@@V?$allocator@PAUsSERVER_INFO@@@std@@@std@@V?$allocator@PAV?$vector@PAUsSERVER_INFO@@V?$allocator@PAUsSERVER_INFO@@@std@@@std@@@2@@std@@QAE?AV?$_Vector_iterator@PAV?$vector@PAUsSERVER_INFO@@V?$allocator@PAUsSERVER_INFO@@@std@@@std@@V?$allocator@PAV?$vector@PAUsSERVER_INFO@@V?$allocator@PAUsSERVER_INFO@@@std@@@std@@@2@@2@V?$_Vector_const_iterator@PAV?$vector@PAUsSERVER_INFO@@V?$allocator@PAUsSERVER_INFO@@@std@@@std@@V?$allocator@PAV?$vector@PAUsSERVER_INFO@@V?$allocator@PAUsSERVER_INFO@@@std@@@std@@@2@@2@0@Z 00407c00 f i ServerInfoManager.obj
 0001:00006c90       ?_Xlen@?$vector@U_List_position@?$_Hash@V?$_Hmap_traits@KPAVAbuseUser@@V?$hash_compare@KU?$less@K@std@@@stdext@@V?$CustomAllocator@PAVAbuseUser@@@util@@$0A@@stdext@@@stdext@@V?$CustomAllocator@U_List_position@?$_Hash@V?$_Hmap_traits@KPAVAbuseUser@@V?$hash_compare@KU?$less@K@std@@@stdext@@V?$CustomAllocator@PAVAbuseUser@@@util@@$0A@@stdext@@@stdext@@@util@@@std@@KAXXZ 00407c90 f i AbuseUserManager.obj
 0001:00006c90       ?_Xlen@?$vector@U_List_position@?$_Hash@V?$_Hmap_traits@KV?$chunk_set@KU?$less@K@std@@@util@@V?$hash_compare@KU?$less@K@std@@@stdext@@V?$CustomAllocator@V?$chunk_set@KU?$less@K@std@@@util@@@2@$0A@@stdext@@@stdext@@V?$CustomAllocator@U_List_position@?$_Hash@V?$_Hmap_traits@KV?$chunk_set@KU?$less@K@std@@@util@@V?$hash_compare@KU?$less@K@std@@@stdext@@V?$CustomAllocator@V?$chunk_set@KU?$less@K@std@@@util@@@2@$0A@@stdext@@@stdext@@@util@@@std@@KAXXZ 00407c90 f i AbuseUserManager.obj
 0001:00006c90       ?_Xlen@?$vector@PAV?$vector@PAUsSERVER_NODE@@V?$allocator@PAUsSERVER_NODE@@@std@@@std@@V?$allocator@PAV?$vector@PAUsSERVER_NODE@@V?$allocator@PAUsSERVER_NODE@@@std@@@std@@@2@@std@@KAXXZ 00407c90 f i ServerSessionManager.obj
 0001:00006c90       ?_Xlen@?$vector@PAV?$vector@PAUsSERVER_INFO@@V?$allocator@PAUsSERVER_INFO@@@std@@@std@@V?$allocator@PAV?$vector@PAUsSERVER_INFO@@V?$allocator@PAUsSERVER_INFO@@@std@@@std@@@2@@std@@KAXXZ 00407c90 f i ServerInfoManager.obj
 0001:00006c90       ?_Xlen@?$vector@PAUsSERVER_NODE@@V?$allocator@PAUsSERVER_NODE@@@std@@@std@@KAXXZ 00407c90 f i ServerSessionManager.obj
 0001:00006c90       ?_Xlen@?$vector@PAV?$vector@PAV?$vector@PAUsSERVER_INFO@@V?$allocator@PAUsSERVER_INFO@@@std@@@std@@V?$allocator@PAV?$vector@PAUsSERVER_INFO@@V?$allocator@PAUsSERVER_INFO@@@std@@@std@@@2@@std@@V?$allocator@PAV?$vector@PAV?$vector@PAUsSERVER_INFO@@V?$allocator@PAUsSERVER_INFO@@@std@@@std@@V?$allocator@PAV?$vector@PAUsSERVER_INFO@@V?$allocator@PAUsSERVER_INFO@@@std@@@std@@@2@@std@@@2@@std@@KAXXZ 00407c90 f i ServerInfoManager.obj
 0001:00006c90       ?_Xlen@?$vector@U?$pair@W4eSCRIPT_CODE@@PAUsSCRIPT_DATA_INFO_NODE_INTERNAL@@@std@@V?$CustomAllocator@U?$pair@W4eSCRIPT_CODE@@PAUsSCRIPT_DATA_INFO_NODE_INTERNAL@@@std@@@util@@@std@@KAXXZ 00407c90 f i servercommon:ScriptDataManager.obj
 0001:00006c90       ?_Xlen@?$vector@PAUsSERVER_INFO@@V?$allocator@PAUsSERVER_INFO@@@std@@@std@@KAXXZ 00407c90 f i ServerInfoManager.obj
 0001:00006c90       ?_Xlen@?$vector@U_List_position@?$_Hash@V?$_Hmap_traits@KPAVServerSession@@V?$hash_compare@KU?$less@K@std@@@stdext@@V?$CustomAllocator@PAVServerSession@@@util@@$0A@@stdext@@@stdext@@V?$CustomAllocator@U_List_position@?$_Hash@V?$_Hmap_traits@KPAVServerSession@@V?$hash_compare@KU?$less@K@std@@@stdext@@V?$CustomAllocator@PAVServerSession@@@util@@$0A@@stdext@@@stdext@@@util@@@std@@KAXXZ 00407c90 f i TempServerSessionEx.obj
 0001:00006c90       ?_Xlen@?$vector@U_List_position@?$_Hash@V?$_Hmap_traits@W4eSCRIPT_CODE@@PAUsSCRIPT_DATA_INFO_NODE_INTERNAL@@V?$hash_compare@W4eSCRIPT_CODE@@U?$less@W4eSCRIPT_CODE@@@std@@@stdext@@V?$CustomAllocator@PAUsSCRIPT_DATA_INFO_NODE_INTERNAL@@@util@@$0A@@stdext@@@stdext@@V?$CustomAllocator@U_List_position@?$_Hash@V?$_Hmap_traits@W4eSCRIPT_CODE@@PAUsSCRIPT_DATA_INFO_NODE_INTERNAL@@V?$hash_compare@W4eSCRIPT_CODE@@U?$less@W4eSCRIPT_CODE@@@std@@@stdext@@V?$CustomAllocator@PAUsSCRIPT_DATA_INFO_NODE_INTERNAL@@@util@@$0A@@stdext@@@stdext@@@util@@@std@@KAXXZ 00407c90 f i servercommon:ScriptDataManager.obj
 0001:00006c90       ?_Xlen@?$vector@U_List_position@?$_Hash@V?$_Hmap_traits@KPAVBASE_FUNC@util@@V?$hash_compare@KU?$less@K@std@@@stdext@@V?$allocator@U?$pair@$$CBKPAVBASE_FUNC@util@@@std@@@std@@$0A@@stdext@@@stdext@@V?$allocator@U_List_position@?$_Hash@V?$_Hmap_traits@KPAVBASE_FUNC@util@@V?$hash_compare@KU?$less@K@std@@@stdext@@V?$allocator@U?$pair@$$CBKPAVBASE_FUNC@util@@@std@@@std@@$0A@@stdext@@@stdext@@@std@@@std@@KAXXZ 00407c90 f i PacketHandler.obj
 0001:00006c90       ?_Xlen@?$vector@PAV?$vector@PAV?$vector@PAUsSERVER_NODE@@V?$allocator@PAUsSERVER_NODE@@@std@@@std@@V?$allocator@PAV?$vector@PAUsSERVER_NODE@@V?$allocator@PAUsSERVER_NODE@@@std@@@std@@@2@@std@@V?$allocator@PAV?$vector@PAV?$vector@PAUsSERVER_NODE@@V?$allocator@PAUsSERVER_NODE@@@std@@@std@@V?$allocator@PAV?$vector@PAUsSERVER_NODE@@V?$allocator@PAUsSERVER_NODE@@@std@@@std@@@2@@std@@@2@@std@@KAXXZ 00407c90 f i ServerSessionManager.obj
 0001:00006d10       ?_Insert_n@?$vector@PAUsSERVER_NODE@@V?$allocator@PAUsSERVER_NODE@@@std@@@std@@IAEXV?$_Vector_const_iterator@PAUsSERVER_NODE@@V?$allocator@PAUsSERVER_NODE@@@std@@@2@IABQAUsSERVER_NODE@@@Z 00407d10 f i ServerSessionManager.obj
 0001:00006d10       ?_Insert_n@?$vector@PAV?$vector@PAV?$vector@PAUsSERVER_NODE@@V?$allocator@PAUsSERVER_NODE@@@std@@@std@@V?$allocator@PAV?$vector@PAUsSERVER_NODE@@V?$allocator@PAUsSERVER_NODE@@@std@@@std@@@2@@std@@V?$allocator@PAV?$vector@PAV?$vector@PAUsSERVER_NODE@@V?$allocator@PAUsSERVER_NODE@@@std@@@std@@V?$allocator@PAV?$vector@PAUsSERVER_NODE@@V?$allocator@PAUsSERVER_NODE@@@std@@@std@@@2@@std@@@2@@std@@IAEXV?$_Vector_const_iterator@PAV?$vector@PAV?$vector@PAUsSERVER_NODE@@V?$allocator@PAUsSERVER_NODE@@@std@@@std@@V?$allocator@PAV?$vector@PAUsSERVER_NODE@@V?$allocator@PAUsSERVER_NODE@@@std@@@std@@@2@@std@@V?$allocator@PAV?$vector@PAV?$vector@PAUsSERVER_NODE@@V?$allocator@PAUsSERVER_NODE@@@std@@@std@@V?$allocator@PAV?$vector@PAUsSERVER_NODE@@V?$allocator@PAUsSERVER_NODE@@@std@@@std@@@2@@std@@@2@@2@IABQAV?$vector@PAV?$vector@PAUsSERVER_NODE@@V?$allocator@PAUsSERVER_NODE@@@std@@@std@@V?$allocator@PAV?$vector@PAUsSERVER_NODE@@V?$allocator@PAUsSERVER_NODE@@@std@@@std@@@2@@2@@Z 00407d10 f i ServerSessionManager.obj
 0001:00006d10       ?_Insert_n@?$vector@PAV?$vector@PAUsSERVER_NODE@@V?$allocator@PAUsSERVER_NODE@@@std@@@std@@V?$allocator@PAV?$vector@PAUsSERVER_NODE@@V?$allocator@PAUsSERVER_NODE@@@std@@@std@@@2@@std@@IAEXV?$_Vector_const_iterator@PAV?$vector@PAUsSERVER_NODE@@V?$allocator@PAUsSERVER_NODE@@@std@@@std@@V?$allocator@PAV?$vector@PAUsSERVER_NODE@@V?$allocator@PAUsSERVER_NODE@@@std@@@std@@@2@@2@IABQAV?$vector@PAUsSERVER_NODE@@V?$allocator@PAUsSERVER_NODE@@@std@@@2@@Z 00407d10 f i ServerSessionManager.obj
 0001:00006d10       ?_Insert_n@?$vector@PAUsSERVER_INFO@@V?$allocator@PAUsSERVER_INFO@@@std@@@std@@IAEXV?$_Vector_const_iterator@PAUsSERVER_INFO@@V?$allocator@PAUsSERVER_INFO@@@std@@@2@IABQAUsSERVER_INFO@@@Z 00407d10 f i ServerInfoManager.obj
 0001:00006d10       ?_Insert_n@?$vector@PAV?$vector@PAV?$vector@PAUsSERVER_INFO@@V?$allocator@PAUsSERVER_INFO@@@std@@@std@@V?$allocator@PAV?$vector@PAUsSERVER_INFO@@V?$allocator@PAUsSERVER_INFO@@@std@@@std@@@2@@std@@V?$allocator@PAV?$vector@PAV?$vector@PAUsSERVER_INFO@@V?$allocator@PAUsSERVER_INFO@@@std@@@std@@V?$allocator@PAV?$vector@PAUsSERVER_INFO@@V?$allocator@PAUsSERVER_INFO@@@std@@@std@@@2@@std@@@2@@std@@IAEXV?$_Vector_const_iterator@PAV?$vector@PAV?$vector@PAUsSERVER_INFO@@V?$allocator@PAUsSERVER_INFO@@@std@@@std@@V?$allocator@PAV?$vector@PAUsSERVER_INFO@@V?$allocator@PAUsSERVER_INFO@@@std@@@std@@@2@@std@@V?$allocator@PAV?$vector@PAV?$vector@PAUsSERVER_INFO@@V?$allocator@PAUsSERVER_INFO@@@std@@@std@@V?$allocator@PAV?$vector@PAUsSERVER_INFO@@V?$allocator@PAUsSERVER_INFO@@@std@@@std@@@2@@std@@@2@@2@IABQAV?$vector@PAV?$vector@PAUsSERVER_INFO@@V?$allocator@PAUsSERVER_INFO@@@std@@@std@@V?$allocator@PAV?$vector@PAUsSERVER_INFO@@V?$allocator@PAUsSERVER_INFO@@@std@@@std@@@2@@2@@Z 00407d10 f i ServerInfoManager.obj
 0001:00006d10       ?_Insert_n@?$vector@PAV?$vector@PAUsSERVER_INFO@@V?$allocator@PAUsSERVER_INFO@@@std@@@std@@V?$allocator@PAV?$vector@PAUsSERVER_INFO@@V?$allocator@PAUsSERVER_INFO@@@std@@@std@@@2@@std@@IAEXV?$_Vector_const_iterator@PAV?$vector@PAUsSERVER_INFO@@V?$allocator@PAUsSERVER_INFO@@@std@@@std@@V?$allocator@PAV?$vector@PAUsSERVER_INFO@@V?$allocator@PAUsSERVER_INFO@@@std@@@std@@@2@@2@IABQAV?$vector@PAUsSERVER_INFO@@V?$allocator@PAUsSERVER_INFO@@@std@@@2@@Z 00407d10 f i ServerInfoManager.obj
 0001:00006ec0       ??0?$vector@PAV?$vector@PAV?$vector@PAUsSERVER_NODE@@V?$allocator@PAUsSERVER_NODE@@@std@@@std@@V?$allocator@PAV?$vector@PAUsSERVER_NODE@@V?$allocator@PAUsSERVER_NODE@@@std@@@std@@@2@@std@@V?$allocator@PAV?$vector@PAV?$vector@PAUsSERVER_NODE@@V?$allocator@PAUsSERVER_NODE@@@std@@@std@@V?$allocator@PAV?$vector@PAUsSERVER_NODE@@V?$allocator@PAUsSERVER_NODE@@@std@@@std@@@2@@std@@@2@@std@@QAE@XZ 00407ec0 f i ServerSessionManager.obj
 0001:00006ec0       ??0?$vector@PAV?$vector@PAUsSERVER_INFO@@V?$allocator@PAUsSERVER_INFO@@@std@@@std@@V?$allocator@PAV?$vector@PAUsSERVER_INFO@@V?$allocator@PAUsSERVER_INFO@@@std@@@std@@@2@@std@@QAE@XZ 00407ec0 f i ServerInfoManager.obj
 0001:00006ec0       ??0?$vector@PAUsSERVER_NODE@@V?$allocator@PAUsSERVER_NODE@@@std@@@std@@QAE@XZ 00407ec0 f i ServerSessionManager.obj
 0001:00006ec0       ??0?$vector@PAV?$vector@PAUsSERVER_NODE@@V?$allocator@PAUsSERVER_NODE@@@std@@@std@@V?$allocator@PAV?$vector@PAUsSERVER_NODE@@V?$allocator@PAUsSERVER_NODE@@@std@@@std@@@2@@std@@QAE@XZ 00407ec0 f i ServerSessionManager.obj
 0001:00006ec0       ??0?$vector@PAV?$vector@PAV?$vector@PAUsSERVER_INFO@@V?$allocator@PAUsSERVER_INFO@@@std@@@std@@V?$allocator@PAV?$vector@PAUsSERVER_INFO@@V?$allocator@PAUsSERVER_INFO@@@std@@@std@@@2@@std@@V?$allocator@PAV?$vector@PAV?$vector@PAUsSERVER_INFO@@V?$allocator@PAUsSERVER_INFO@@@std@@@std@@V?$allocator@PAV?$vector@PAUsSERVER_INFO@@V?$allocator@PAUsSERVER_INFO@@@std@@@std@@@2@@std@@@2@@std@@QAE@XZ 00407ec0 f i ServerInfoManager.obj
 0001:00006ec0       ??0?$vector@PAUsSERVER_INFO@@V?$allocator@PAUsSERVER_INFO@@@std@@@std@@QAE@XZ 00407ec0 f i ServerInfoManager.obj
 0001:00006f20       ?resize@?$vector@PAV?$vector@PAUsSERVER_NODE@@V?$allocator@PAUsSERVER_NODE@@@std@@@std@@V?$allocator@PAV?$vector@PAUsSERVER_NODE@@V?$allocator@PAUsSERVER_NODE@@@std@@@std@@@2@@std@@QAEXIPAV?$vector@PAUsSERVER_NODE@@V?$allocator@PAUsSERVER_NODE@@@std@@@2@@Z 00407f20 f i ServerSessionManager.obj
 0001:00006f20       ?resize@?$vector@PAV?$vector@PAUsSERVER_INFO@@V?$allocator@PAUsSERVER_INFO@@@std@@@std@@V?$allocator@PAV?$vector@PAUsSERVER_INFO@@V?$allocator@PAUsSERVER_INFO@@@std@@@std@@@2@@std@@QAEXIPAV?$vector@PAUsSERVER_INFO@@V?$allocator@PAUsSERVER_INFO@@@std@@@2@@Z 00407f20 f i ServerInfoManager.obj
 0001:00006f20       ?resize@?$vector@PAV?$vector@PAV?$vector@PAUsSERVER_INFO@@V?$allocator@PAUsSERVER_INFO@@@std@@@std@@V?$allocator@PAV?$vector@PAUsSERVER_INFO@@V?$allocator@PAUsSERVER_INFO@@@std@@@std@@@2@@std@@V?$allocator@PAV?$vector@PAV?$vector@PAUsSERVER_INFO@@V?$allocator@PAUsSERVER_INFO@@@std@@@std@@V?$allocator@PAV?$vector@PAUsSERVER_INFO@@V?$allocator@PAUsSERVER_INFO@@@std@@@std@@@2@@std@@@2@@std@@QAEXIPAV?$vector@PAV?$vector@PAUsSERVER_INFO@@V?$allocator@PAUsSERVER_INFO@@@std@@@std@@V?$allocator@PAV?$vector@PAUsSERVER_INFO@@V?$allocator@PAUsSERVER_INFO@@@std@@@std@@@2@@2@@Z 00407f20 f i ServerInfoManager.obj
 0001:00006f20       ?resize@?$vector@PAV?$vector@PAV?$vector@PAUsSERVER_NODE@@V?$allocator@PAUsSERVER_NODE@@@std@@@std@@V?$allocator@PAV?$vector@PAUsSERVER_NODE@@V?$allocator@PAUsSERVER_NODE@@@std@@@std@@@2@@std@@V?$allocator@PAV?$vector@PAV?$vector@PAUsSERVER_NODE@@V?$allocator@PAUsSERVER_NODE@@@std@@@std@@V?$allocator@PAV?$vector@PAUsSERVER_NODE@@V?$allocator@PAUsSERVER_NODE@@@std@@@std@@@2@@std@@@2@@std@@QAEXIPAV?$vector@PAV?$vector@PAUsSERVER_NODE@@V?$allocator@PAUsSERVER_NODE@@@std@@@std@@V?$allocator@PAV?$vector@PAUsSERVER_NODE@@V?$allocator@PAUsSERVER_NODE@@@std@@@std@@@2@@2@@Z 00407f20 f i ServerSessionManager.obj
 0001:00006fd0       ?Initialize@?$ServerTree@UsSERVER_INFO@@@@AAEXXZ 00407fd0 f i ServerInfoManager.obj
 0001:000070a0       ?AddServer@?$ServerTree@UsSERVER_INFO@@@@QAEPAUsSERVER_INFO@@UtagSERVER_KEY@@PAU2@@Z 004080a0 f i ServerInfoManager.obj
 0001:00007210       ?MakePacket_SumMoneyCirculation_GatheringInfo@GameStatistics@@CAXPAVGameStatisticsData@@PAVMSG_MO_RTTG_USERMONEY_ANS@@@Z 00408210 f   Statistics.obj
 0001:00007410       ?MakePacket_StatisticsEtcInfo_GatheringInfo@GameStatistics@@CAXPAVGameStatisticsData@@PAVMSG_MO_RTTG_GAMESTATISTICS_ANS@@@Z 00408410 f   Statistics.obj
 0001:00007480       ?SendPacket_SumMoneyCirculation@GameStatistics@@SAXPAVMSG_MO_RTTG_USERMONEY_ANS@@@Z 00408480 f   Statistics.obj
 0001:000076d0       ?SendPacket_StatisticsEtcInfo@GameStatistics@@SAXPAVMSG_MO_RTTG_GAMESTATISTICS_ANS@@@Z 004086d0 f   Statistics.obj
 0001:000078e0       ?begin@?$vector@PAUsSERVER_NODE@@V?$allocator@PAUsSERVER_NODE@@@std@@@std@@QAE?AV?$_Vector_iterator@PAUsSERVER_NODE@@V?$allocator@PAUsSERVER_NODE@@@std@@@2@XZ 004088e0 f i Statistics.obj
 0001:000078e0       ?begin@?$vector@PAUsSERVER_INFO@@V?$allocator@PAUsSERVER_INFO@@@std@@@std@@QAE?AV?$_Vector_iterator@PAUsSERVER_INFO@@V?$allocator@PAUsSERVER_INFO@@@std@@@2@XZ 004088e0 f i ServerInfoManager.obj
 0001:00007910       ?end@?$vector@PAUsSERVER_INFO@@V?$allocator@PAUsSERVER_INFO@@@std@@@std@@QAE?AV?$_Vector_iterator@PAUsSERVER_INFO@@V?$allocator@PAUsSERVER_INFO@@@std@@@2@XZ 00408910 f i ServerInfoManager.obj
 0001:00007910       ?end@?$vector@PAUsSERVER_NODE@@V?$allocator@PAUsSERVER_NODE@@@std@@@std@@QAE?AV?$_Vector_iterator@PAUsSERVER_NODE@@V?$allocator@PAUsSERVER_NODE@@@std@@@2@XZ 00408910 f i Statistics.obj
 0001:00007940       ??0MSG_MO_RTTG_USERCOUNT_NTF@@QAE@XZ 00408940 f i Handler_AM.obj
 0001:00007950       ?OnAM_CONNECTION_GROUND_CMD@Handler_AM@@CAXPAVAgentServerSession@@PAUMSG_BASE@@G@Z 00408950 f   Handler_AM.obj
 0001:00007960       ?OnAM_ARMORKIT_FINDHACK_SYN@Handler_AM@@CAXPAVAgentServerSession@@PAUMSG_BASE@@G@Z 00408960 f   Handler_AM.obj
 0001:00007970       ?OnAM_OPERATION_CHAR_DISCONNECT_ACK@Handler_AM@@CAXPAVAgentServerSession@@PAUMSG_BASE@@G@Z 00408970 f   Handler_AM.obj
 0001:00007990       ?OnAM_CONNECTION_CCU_REPORT_NTF@Handler_AM@@CAXPAVAgentServerSession@@PAUMSG_BASE@@G@Z 00408990 f   Handler_AM.obj
 0001:00007b20       ?OnAM_CONNECTION_ENTERSERVER_CMD@Handler_AM@@CAXPAVAgentServerSession@@PAUMSG_BASE@@G@Z 00408b20 f   Handler_AM.obj
 0001:00007b40       ?GetHandlerInfo@Handler_AM@@CAPAUsPACKET_HANDLER_INFO@@XZ 00408b40 f   Handler_AM.obj
 0001:00007b50       ?RegisterHandler_ALL@Handler_AM@@SAXV?$Delegator@VPacketHandler@@@@@Z 00408b50 f   Handler_AM.obj
 0001:00007bc0       ?OnDM_CONNECTION_GROUND_CMD@Handler_DM@@CAXPAVGameDBProxySession@@PAUMSG_BASE@@G@Z 00408bc0 f   Handler_DM.obj
 0001:00007bd0       ?GetHandlerInfo@Handler_DM@@CAPAUsPACKET_HANDLER_INFO@@XZ 00408bd0 f   Handler_DM.obj
 0001:00007be0       ?RegisterHandler_ALL@Handler_DM@@SAXV?$Delegator@VPacketHandler@@@@@Z 00408be0 f   Handler_DM.obj
 0001:00007c50       ?ClearAllStatistics@GameStatisticsData@@QAEXXZ 00408c50 f i Handler_GM.obj
 0001:00007c80       ?SetMoney@GameStatisticsData@@QAEXAA_K00@Z 00408c80 f i Handler_GM.obj
 0001:00007d30       ?SetWarehouseMoney@GameStatisticsData@@QAEXAA_K00@Z 00408d30 f i Handler_GM.obj
 0001:00007de0       ?OnGM_CONNECTION_GROUND_CMD@Handler_GM@@CAXPAVGameServerSession@@PAUMSG_BASE@@G@Z 00408de0 f   Handler_GM.obj
 0001:00007df0       ?OnGM_USERMONEY_NTF@Handler_GM@@CAXPAVGameServerSession@@PAUMSG_BASE@@G@Z 00408df0 f   Handler_GM.obj
 0001:00007e60       ?OnGM_OPERATION_USERMONEY_ANS@Handler_GM@@CAXPAVGameServerSession@@PAUMSG_BASE@@G@Z 00408e60 f   Handler_GM.obj
 0001:00007fe0       ?OnGM_OPERATION_STATISTICS_ANS@Handler_GM@@CAXPAVGameServerSession@@PAUMSG_BASE@@G@Z 00408fe0 f   Handler_GM.obj
 0001:000080f0       ?GetHandlerInfo@Handler_GM@@CAPAUsPACKET_HANDLER_INFO@@XZ 004090f0 f   Handler_GM.obj
 0001:00008100       ?RegisterHandler_ALL@Handler_GM@@SAXV?$Delegator@VPacketHandler@@@@@Z 00409100 f   Handler_GM.obj
 0001:00008170       ?OnSERVERCOMMON_SERVERTYPE@Handler_ME@@CAXPAVTempServerSession@@PAUMSG_BASE@@G@Z 00409170 f   Handler_ME.obj
 0001:000082d0       ?GetHandlerInfo@Handler_ME@@CAPAUsPACKET_HANDLER_INFO@@XZ 004092d0 f   Handler_ME.obj
 0001:000082e0       ?RegisterHandler_ALL@Handler_ME@@SAXV?$Delegator@VPacketHandler@@@@@Z 004092e0 f   Handler_ME.obj
 0001:00008340       ??0MSG_MO_RTTG_USERMONEY_ANS@@QAE@XZ 00409340 f i Handler_MO.obj
 0001:00008350       ??0MSG_MO_RTTG_GAMESTATISTICS_ANS@@QAE@XZ 00409350 f i Handler_MO.obj
 0001:00008360       ??0MSG_MW_NOTICE_CMD@@QAE@XZ 00409360 f i Handler_MO.obj
 0001:00008370       ?OnMO_RTTG_CERTIFY_ANS@Handler_MO@@CAXPAVOpServerSession@@PAUMSG_BASE_INTERNAL@@G@Z 00409370 f   Handler_MO.obj
 0001:00008380       ?OnMO_RTTG_BATTLEZONEINFO_REQ@Handler_MO@@CAXPAVOpServerSession@@PAUMSG_BASE_INTERNAL@@G@Z 00409380 f   Handler_MO.obj
 0001:000083e0       ?OnMO_RTTG_USERMONEY_REQ@Handler_MO@@CAXPAVOpServerSession@@PAUMSG_BASE_INTERNAL@@G@Z 004093e0 f   Handler_MO.obj
 0001:00008460       ?OnMO_RTTG_USERDISCONNECT_REQ@Handler_MO@@CAXPAVOpServerSession@@PAUMSG_BASE_INTERNAL@@G@Z 00409460 f   Handler_MO.obj
 0001:00008500       ?OnMO_RTTG_FUNCRESTRICT_RELOAD_CMD@Handler_MO@@CAXPAVOpServerSession@@PAUMSG_BASE_INTERNAL@@G@Z 00409500 f   Handler_MO.obj
 0001:00008540       ?OnMO_RTTG_GAMESTATISTICS_REQ@Handler_MO@@CAXPAVOpServerSession@@PAUMSG_BASE_INTERNAL@@G@Z 00409540 f   Handler_MO.obj
 0001:000085e0       ?OnMO_RTTG_WAREHOUSEMONEY_REQ@Handler_MO@@CAXPAVOpServerSession@@PAUMSG_BASE_INTERNAL@@G@Z 004095e0 f   Handler_MO.obj
 0001:00008600       ?OnMO_RTTG_SERVERSHUTDOWN_REQ@Handler_MO@@CAXPAVOpServerSession@@PAUMSG_BASE_INTERNAL@@G@Z 00409600 f   Handler_MO.obj
 0001:00008730       ?OnMO_RTTG_CHANGE_GUILDNAME_REQ@Handler_MO@@CAXPAVOpServerSession@@PAUMSG_BASE_INTERNAL@@G@Z 00409730 f   Handler_MO.obj
 0001:00008940       ?OnMO_RTTG_SEND_MESSAGE_REQ@Handler_MO@@CAXPAVOpServerSession@@PAUMSG_BASE_INTERNAL@@G@Z 00409940 f   Handler_MO.obj
 0001:00008bf0       ?SendMMemo@Handler_MO@@SAXXZ 00409bf0 f   Handler_MO.obj
 0001:00008d00       ?SendGuildNameChange@Handler_MO@@SAXXZ 00409d00 f   Handler_MO.obj
 0001:00008da0       ?OnMO_RTTG_GAMENOTICE_REQ@Handler_MO@@CAXPAVOpServerSession@@PAUMSG_BASE_INTERNAL@@G@Z 00409da0 f   Handler_MO.obj
 0001:00009010       ?SendTest@Handler_MO@@SAXXZ 0040a010 f   Handler_MO.obj
 0001:00009020       ?GetHandlerInfo@Handler_MO@@CAPAUsPACKET_HANDLER_INFO@@XZ 0040a020 f   Handler_MO.obj
 0001:00009030       ?RegisterHandler_ALL@Handler_MO@@SAXV?$Delegator@VPacketHandler@@@@@Z 0040a030 f   Handler_MO.obj
 0001:00009080       ??0MSG_MO_RTTG_SEND_MESSAGE_ANS@@QAE@XZ 0040a080 f i Handler_MO.obj
 0001:000090d0       ??0sSERVER_NODE@@QAE@XZ    0040a0d0 f i Handler_MO.obj
 0001:000090e0       ??0MSG_MO_RTTG_BATTLEZONEINFO_ANS@@QAE@XZ 0040a0e0 f i Handler_MW.obj
 0001:000090f0       ?OnMW_CONNECTION_GROUND_CMD@Handler_MW@@CAXPAVWorldServerSession@@PAUMSG_BASE@@G@Z 0040a0f0 f   Handler_MW.obj
 0001:00009100       ?OnMW_USERCOUNT_SYN@Handler_MW@@CAXPAVWorldServerSession@@PAUMSG_BASE@@G@Z 0040a100 f   Handler_MW.obj
 0001:00009110       ?OnMW_USERMONEY_SYN@Handler_MW@@CAXPAVWorldServerSession@@PAUMSG_BASE@@G@Z 0040a110 f   Handler_MW.obj
 0001:00009120       ?OnMW_ARMORKIT_FINDHACK_SYN@Handler_MW@@CAXPAVWorldServerSession@@PAUMSG_BASE@@G@Z 0040a120 f   Handler_MW.obj
 0001:00009130       ?OnMW_BATTLEZONEINFO_ANS@Handler_MW@@CAXPAVWorldServerSession@@PAUMSG_BASE@@G@Z 0040a130 f   Handler_MW.obj
 0001:00009250       ?OnMW_MULTIMEMO_SEND_ACK@Handler_MW@@CAXPAVWorldServerSession@@PAUMSG_BASE@@G@Z 0040a250 f   Handler_MW.obj
 0001:00009300       ?GetHandlerInfo@Handler_MW@@CAPAUsPACKET_HANDLER_INFO@@XZ 0040a300 f   Handler_MW.obj
 0001:00009310       ?RegisterHandler_ALL@Handler_MW@@SAXV?$Delegator@VPacketHandler@@@@@Z 0040a310 f   Handler_MW.obj
 0001:00009380       ?OnMX_CONNECTION_GROUND_CMD@Handler_MX@@CAXPAVAccountDBProxySession@@PAUMSG_BASE@@G@Z 0040a380 f   Handler_MX.obj
 0001:00009390       ?OnMX_CONNECTION_REQ_SERVER_INFO_ACK@Handler_MX@@CAXPAVAccountDBProxySession@@PAUMSG_BASE@@G@Z 0040a390 f   Handler_MX.obj
 0001:000093d0       ?OnMX_CONNECTION_REQ_SERVER_INFO_CMD@Handler_MX@@CAXPAVAccountDBProxySession@@PAUMSG_BASE@@G@Z 0040a3d0 f   Handler_MX.obj
 0001:00009420       ?OnMX_FUNCRESTRICT_RELOAD_ANS@Handler_MX@@CAXPAVAccountDBProxySession@@PAUMSG_BASE@@G@Z 0040a420 f   Handler_MX.obj
 0001:00009460       ?OnMX_FUNCRESTRICT_RELOAD_NAK@Handler_MX@@CAXPAVAccountDBProxySession@@PAUMSG_BASE@@G@Z 0040a460 f   Handler_MX.obj
 0001:00009480       ?GetHandlerInfo@Handler_MX@@CAPAUsPACKET_HANDLER_INFO@@XZ 0040a480 f   Handler_MX.obj
 0001:00009490       ?RegisterHandler_ALL@Handler_MX@@SAXV?$Delegator@VPacketHandler@@@@@Z 0040a490 f   Handler_MX.obj
 0001:000094f0       ?OnDM_CONNECTION_GROUND_CMD@Handler_MZ@@CAXPAVGuildServerSession@@PAUMSG_BASE@@G@Z 0040a4f0 f   Handler_MZ.obj
 0001:00009500       ?OnMZ_GUILD_NAME_CHANGE_ACK@Handler_MZ@@CAXPAVGuildServerSession@@PAUMSG_BASE@@G@Z 0040a500 f   Handler_MZ.obj
 0001:000095a0       ?OnMZ_GUILD_NAME_CHANGE_NAK@Handler_MZ@@CAXPAVGuildServerSession@@PAUMSG_BASE@@G@Z 0040a5a0 f   Handler_MZ.obj
 0001:000096e0       ?GetHandlerInfo@Handler_MZ@@CAPAUsPACKET_HANDLER_INFO@@XZ 0040a6e0 f   Handler_MZ.obj
 0001:000096f0       ?RegisterHandler_ALL@Handler_MZ@@SAXV?$Delegator@VPacketHandler@@@@@Z 0040a6f0 f   Handler_MZ.obj
 0001:00009760       ?GetHandlerInfo@Handler_SM@@CAPAUsPACKET_HANDLER_INFO@@XZ 0040a760 f   Handler_SM.obj
 0001:00009770       ?RegisterHandler_ALL@Handler_SM@@SAXV?$Delegator@VPacketHandler@@@@@Z 0040a770 f   Handler_SM.obj
 0001:000097c0       ??_GFUNC_GENERIC@@UAEPAXI@Z 0040a7c0 f i PacketHandler.obj
 0001:000097c0       ??_EFUNC_GENERIC@@UAEPAXI@Z 0040a7c0 f i PacketHandler.obj
 0001:000097c0       ??_GBASE_FUNC@util@@UAEPAXI@Z 0040a7c0 f i PacketHandler.obj
 0001:000097c0       ??_EBASE_FUNC@util@@UAEPAXI@Z 0040a7c0 f i PacketHandler.obj
 0001:000097e0       ?RegisterPacketHandler@Services4Session@@QAEXXZ 0040a7e0 f   PacketHandler.obj
 0001:000097f0       ?_ParsePacket@PacketHandler@@AAEHW4eSERVER_TYPE@@PAVServerSession@@PAUMSG_BASE@@G@Z 0040a7f0 f   PacketHandler.obj
 0001:000098d0       ?_ParsePacket@PacketHandler@@AAEHW4eSERVER_TYPE@@PAVServerSession@@PAUMSG_BASE_INTERNAL@@G@Z 0040a8d0 f   PacketHandler.obj
 0001:000099b0       ??1PacketHandler@@QAE@XZ   0040a9b0 f   PacketHandler.obj
 0001:00009a40       ?ReleaseHandler@PacketHandler@@SAXXZ 0040aa40 f   PacketHandler.obj
 0001:00009a70       ?_Initialize@PacketHandler@@AAEXXZ 0040aa70 f   PacketHandler.obj
 0001:00009d30       ?_RegisterHandler@PacketHandler@@AAEHW4eSERVER_TYPE@@PAUsPACKET_HANDLER_INFO@@@Z 0040ad30 f   PacketHandler.obj
 0001:00009e40       ??0PacketHandler@@QAE@XZ   0040ae40 f   PacketHandler.obj
 0001:00009eb0       ?RegisterHandler@PacketHandler@@SAXXZ 0040aeb0 f   PacketHandler.obj
 0001:00009fa0       ??0?$Delegator@VFunctionMap@util@@@@QAE@XZ 0040afa0 f i PacketHandler.obj
 0001:00009fb0       ??1?$Delegator@UFUNC_GENERIC@@@@QAE@XZ 0040afb0 f i PacketHandler.obj
 0001:00009fb0       ??1?$pair@V?$Delegator@VIWorkNode@@@@H@std@@QAE@XZ 0040afb0 f i servercommon:WorkLoadManager.obj
 0001:00009fb0       ??1?$Delegator@VFunctionMap@util@@@@QAE@XZ 0040afb0 f i PacketHandler.obj
 0001:00009fb0       ??1?$Delegator@VIWorkNode@@@@QAE@XZ 0040afb0 f i servercommon:WorkLoadManager.obj
 0001:00009fb0       ??1?$Delegator@VPacketHandler@@@@QAE@XZ 0040afb0 f i Handler_AM.obj
 0001:00009fc0       ??$_Allocate@U_List_position@?$_Hash@V?$_Hmap_traits@KPAVBASE_FUNC@util@@V?$hash_compare@KU?$less@K@std@@@stdext@@V?$allocator@U?$pair@$$CBKPAVBASE_FUNC@util@@@std@@@std@@$0A@@stdext@@@stdext@@@std@@YAPAU_List_position@?$_Hash@V?$_Hmap_traits@KPAVBASE_FUNC@util@@V?$hash_compare@KU?$less@K@std@@@stdext@@V?$allocator@U?$pair@$$CBKPAVBASE_FUNC@util@@@std@@@std@@$0A@@stdext@@@stdext@@IPAU123@@Z 0040afc0 f i PacketHandler.obj
 0001:0000a020       ?_Tidy@?$list@U?$pair@$$CBKPAVBASE_FUNC@util@@@std@@V?$allocator@U?$pair@$$CBKPAVBASE_FUNC@util@@@std@@@2@@std@@IAEXXZ 0040b020 f i PacketHandler.obj
 0001:0000a070       ?_Buynode@?$list@U?$pair@$$CBKPAVBASE_FUNC@util@@@std@@V?$allocator@U?$pair@$$CBKPAVBASE_FUNC@util@@@std@@@2@@std@@IAEPAU_Node@?$_List_nod@U?$pair@$$CBKPAVBASE_FUNC@util@@@std@@V?$allocator@U?$pair@$$CBKPAVBASE_FUNC@util@@@std@@@2@@2@XZ 0040b070 f i PacketHandler.obj
 0001:0000a090       ?_Buynode@?$list@U?$pair@$$CBKPAVBASE_FUNC@util@@@std@@V?$allocator@U?$pair@$$CBKPAVBASE_FUNC@util@@@std@@@2@@std@@IAEPAU_Node@?$_List_nod@U?$pair@$$CBKPAVBASE_FUNC@util@@@std@@V?$allocator@U?$pair@$$CBKPAVBASE_FUNC@util@@@std@@@2@@2@PAU342@0ABU?$pair@$$CBKPAVBASE_FUNC@util@@@2@@Z 0040b090 f i PacketHandler.obj
 0001:0000a0d0       ?erase@?$list@U?$pair@$$CBKPAVBASE_FUNC@util@@@std@@V?$allocator@U?$pair@$$CBKPAVBASE_FUNC@util@@@std@@@2@@std@@QAE?AV?$_Iterator@$00@12@V?$_Const_iterator@$00@12@@Z 0040b0d0 f i PacketHandler.obj
 0001:0000a150       ??1?$_Vector_val@U_List_position@?$_Hash@V?$_Hmap_traits@KPAVBASE_FUNC@util@@V?$hash_compare@KU?$less@K@std@@@stdext@@V?$allocator@U?$pair@$$CBKPAVBASE_FUNC@util@@@std@@@std@@$0A@@stdext@@@stdext@@V?$allocator@U_List_position@?$_Hash@V?$_Hmap_traits@KPAVBASE_FUNC@util@@V?$hash_compare@KU?$less@K@std@@@stdext@@V?$allocator@U?$pair@$$CBKPAVBASE_FUNC@util@@@std@@@std@@$0A@@stdext@@@stdext@@@std@@@std@@QAE@XZ 0040b150 f i PacketHandler.obj
 0001:0000a150       ??1?$_Vector_val@PAV?$vector@PAUsSERVER_INFO@@V?$allocator@PAUsSERVER_INFO@@@std@@@std@@V?$allocator@PAV?$vector@PAUsSERVER_INFO@@V?$allocator@PAUsSERVER_INFO@@@std@@@std@@@2@@std@@QAE@XZ 0040b150 f i ServerInfoManager.obj
 0001:0000a150       ??1?$_Vector_val@PAV?$vector@PAUsSERVER_NODE@@V?$allocator@PAUsSERVER_NODE@@@std@@@std@@V?$allocator@PAV?$vector@PAUsSERVER_NODE@@V?$allocator@PAUsSERVER_NODE@@@std@@@std@@@2@@std@@QAE@XZ 0040b150 f i ServerSessionManager.obj
 0001:0000a150       ??1?$_List_val@U?$pair@$$CBKPAVBASE_FUNC@util@@@std@@V?$allocator@U?$pair@$$CBKPAVBASE_FUNC@util@@@std@@@2@@std@@QAE@XZ 0040b150 f i PacketHandler.obj
 0001:0000a150       ??1?$_Vector_val@PAV?$vector@PAV?$vector@PAUsSERVER_NODE@@V?$allocator@PAUsSERVER_NODE@@@std@@@std@@V?$allocator@PAV?$vector@PAUsSERVER_NODE@@V?$allocator@PAUsSERVER_NODE@@@std@@@std@@@2@@std@@V?$allocator@PAV?$vector@PAV?$vector@PAUsSERVER_NODE@@V?$allocator@PAUsSERVER_NODE@@@std@@@std@@V?$allocator@PAV?$vector@PAUsSERVER_NODE@@V?$allocator@PAUsSERVER_NODE@@@std@@@std@@@2@@std@@@2@@std@@QAE@XZ 0040b150 f i ServerSessionManager.obj
 0001:0000a150       ??1?$_Tree_val@V?$_Tmap_traits@V?$basic_string@DU?$char_traits@D@std@@V?$allocator@D@2@@std@@V12@U?$less@V?$basic_string@DU?$char_traits@D@std@@V?$allocator@D@2@@std@@@2@V?$allocator@U?$pair@$$CBV?$basic_string@DU?$char_traits@D@std@@V?$allocator@D@2@@std@@V12@@std@@@2@$0A@@std@@@std@@QAE@XZ 0040b150 f i utility_s:INIParser.obj
 0001:0000a150       ??1?$_Tree_val@V?$_Tmap_traits@PAVServerSessionEx@@HU?$less@PAVServerSessionEx@@@std@@V?$allocator@U?$pair@QAVServerSessionEx@@H@std@@@3@$0A@@std@@@std@@QAE@XZ 0040b150 f i MasterServerInfo.obj
 0001:0000a150       ??1?$_Tree_val@V?$_Tmap_traits@V?$basic_string@DU?$char_traits@D@std@@V?$allocator@D@2@@std@@PAV?$map@V?$basic_string@DU?$char_traits@D@std@@V?$allocator@D@2@@std@@V12@U?$less@V?$basic_string@DU?$char_traits@D@std@@V?$allocator@D@2@@std@@@2@V?$allocator@U?$pair@$$CBV?$basic_string@DU?$char_traits@D@std@@V?$allocator@D@2@@std@@V12@@std@@@2@@2@U?$less@V?$basic_string@DU?$char_traits@D@std@@V?$allocator@D@2@@std@@@2@V?$allocator@U?$pair@$$CBV?$basic_string@DU?$char_traits@D@std@@V?$allocator@D@2@@std@@PAV?$map@V?$basic_string@DU?$char_traits@D@std@@V?$allocator@D@2@@std@@V12@U?$less@V?$basic_string@DU?$char_traits@D@std@@V?$allocator@D@2@@std@@@2@V?$allocator@U?$pair@$$CBV?$basic_string@DU?$char_traits@D@std@@V?$allocator@D@2@@std@@V12@@std@@@2@@2@@std@@@2@$0A@@std@@@std@@QAE@XZ 0040b150 f i utility_s:INIParser.obj
 0001:0000a150       ??1?$_Vector_val@PAV?$vector@PAV?$vector@PAUsSERVER_INFO@@V?$allocator@PAUsSERVER_INFO@@@std@@@std@@V?$allocator@PAV?$vector@PAUsSERVER_INFO@@V?$allocator@PAUsSERVER_INFO@@@std@@@std@@@2@@std@@V?$allocator@PAV?$vector@PAV?$vector@PAUsSERVER_INFO@@V?$allocator@PAUsSERVER_INFO@@@std@@@std@@V?$allocator@PAV?$vector@PAUsSERVER_INFO@@V?$allocator@PAUsSERVER_INFO@@@std@@@std@@@2@@std@@@2@@std@@QAE@XZ 0040b150 f i ServerInfoManager.obj
 0001:0000a150       ??1?$_Vector_val@PAUsSERVER_INFO@@V?$allocator@PAUsSERVER_INFO@@@std@@@std@@QAE@XZ 0040b150 f i ServerInfoManager.obj
 0001:0000a150       ??1?$_Vector_val@PAUsSERVER_NODE@@V?$allocator@PAUsSERVER_NODE@@@std@@@std@@QAE@XZ 0040b150 f i ServerSessionManager.obj
 0001:0000a160       ?erase@?$_Hash@V?$_Hmap_traits@KPAVBASE_FUNC@util@@V?$hash_compare@KU?$less@K@std@@@stdext@@V?$allocator@U?$pair@$$CBKPAVBASE_FUNC@util@@@std@@@std@@$0A@@stdext@@@stdext@@QAE?AV?$_Iterator@$00@?$list@U?$pair@$$CBKPAVBASE_FUNC@util@@@std@@V?$allocator@U?$pair@$$CBKPAVBASE_FUNC@util@@@std@@@2@@std@@V?$_Const_iterator@$00@45@@Z 0040b160 f i PacketHandler.obj
 0001:0000a260       ??1?$list@U?$pair@$$CBKPAVBASE_FUNC@util@@@std@@V?$allocator@U?$pair@$$CBKPAVBASE_FUNC@util@@@std@@@2@@std@@QAE@XZ 0040b260 f i PacketHandler.obj
 0001:0000a280       ??0?$list@U?$pair@$$CBKPAVBASE_FUNC@util@@@std@@V?$allocator@U?$pair@$$CBKPAVBASE_FUNC@util@@@std@@@2@@std@@QAE@ABV?$allocator@U?$pair@$$CBKPAVBASE_FUNC@util@@@std@@@1@@Z 0040b280 f i PacketHandler.obj
 0001:0000a2f0       ??$_Umove@PAU_List_position@?$_Hash@V?$_Hmap_traits@KPAVBASE_FUNC@util@@V?$hash_compare@KU?$less@K@std@@@stdext@@V?$allocator@U?$pair@$$CBKPAVBASE_FUNC@util@@@std@@@std@@$0A@@stdext@@@stdext@@@?$vector@U_List_position@?$_Hash@V?$_Hmap_traits@KPAVBASE_FUNC@util@@V?$hash_compare@KU?$less@K@std@@@stdext@@V?$allocator@U?$pair@$$CBKPAVBASE_FUNC@util@@@std@@@std@@$0A@@stdext@@@stdext@@V?$allocator@U_List_position@?$_Hash@V?$_Hmap_traits@KPAVBASE_FUNC@util@@V?$hash_compare@KU?$less@K@std@@@stdext@@V?$allocator@U?$pair@$$CBKPAVBASE_FUNC@util@@@std@@@std@@$0A@@stdext@@@stdext@@@std@@@std@@IAEPAU_List_position@?$_Hash@V?$_Hmap_traits@KPAVBASE_FUNC@util@@V?$hash_compare@KU?$less@K@std@@@stdext@@V?$allocator@U?$pair@$$CBKPAVBASE_FUNC@util@@@std@@@std@@$0A@@stdext@@@stdext@@PAU234@00@Z 0040b2f0 f i PacketHandler.obj
 0001:0000a2f0       ??$_Umove@PAU_List_position@?$_Hash@V?$_Hmap_traits@KPAVServerSession@@V?$hash_compare@KU?$less@K@std@@@stdext@@V?$CustomAllocator@PAVServerSession@@@util@@$0A@@stdext@@@stdext@@@?$vector@U_List_position@?$_Hash@V?$_Hmap_traits@KPAVServerSession@@V?$hash_compare@KU?$less@K@std@@@stdext@@V?$CustomAllocator@PAVServerSession@@@util@@$0A@@stdext@@@stdext@@V?$CustomAllocator@U_List_position@?$_Hash@V?$_Hmap_traits@KPAVServerSession@@V?$hash_compare@KU?$less@K@std@@@stdext@@V?$CustomAllocator@PAVServerSession@@@util@@$0A@@stdext@@@stdext@@@util@@@std@@IAEPAU_List_position@?$_Hash@V?$_Hmap_traits@KPAVServerSession@@V?$hash_compare@KU?$less@K@std@@@stdext@@V?$CustomAllocator@PAVServerSession@@@util@@$0A@@stdext@@@stdext@@PAU234@00@Z 0040b2f0 f i TempServerSessionEx.obj
 0001:0000a2f0       ??$_Umove@PAU_List_position@?$_Hash@V?$_Hmap_traits@W4eSCRIPT_CODE@@PAUsSCRIPT_DATA_INFO_NODE_INTERNAL@@V?$hash_compare@W4eSCRIPT_CODE@@U?$less@W4eSCRIPT_CODE@@@std@@@stdext@@V?$CustomAllocator@PAUsSCRIPT_DATA_INFO_NODE_INTERNAL@@@util@@$0A@@stdext@@@stdext@@@?$vector@U_List_position@?$_Hash@V?$_Hmap_traits@W4eSCRIPT_CODE@@PAUsSCRIPT_DATA_INFO_NODE_INTERNAL@@V?$hash_compare@W4eSCRIPT_CODE@@U?$less@W4eSCRIPT_CODE@@@std@@@stdext@@V?$CustomAllocator@PAUsSCRIPT_DATA_INFO_NODE_INTERNAL@@@util@@$0A@@stdext@@@stdext@@V?$CustomAllocator@U_List_position@?$_Hash@V?$_Hmap_traits@W4eSCRIPT_CODE@@PAUsSCRIPT_DATA_INFO_NODE_INTERNAL@@V?$hash_compare@W4eSCRIPT_CODE@@U?$less@W4eSCRIPT_CODE@@@std@@@stdext@@V?$CustomAllocator@PAUsSCRIPT_DATA_INFO_NODE_INTERNAL@@@util@@$0A@@stdext@@@stdext@@@util@@@std@@IAEPAU_List_position@?$_Hash@V?$_Hmap_traits@W4eSCRIPT_CODE@@PAUsSCRIPT_DATA_INFO_NODE_INTERNAL@@V?$hash_compare@W4eSCRIPT_CODE@@U?$less@W4eSCRIPT_CODE@@@std@@@stdext@@V?$CustomAllocator@PAUsSCRIPT_DATA_INFO_NODE_INTERNAL@@@util@@$0A@@stdext@@@stdext@@PAU234@00@Z 0040b2f0 f i servercommon:ScriptDataManager.obj
 0001:0000a2f0       ??$_Umove@PAU_List_position@?$_Hash@V?$_Hmap_traits@KPAVAbuseUser@@V?$hash_compare@KU?$less@K@std@@@stdext@@V?$CustomAllocator@PAVAbuseUser@@@util@@$0A@@stdext@@@stdext@@@?$vector@U_List_position@?$_Hash@V?$_Hmap_traits@KPAVAbuseUser@@V?$hash_compare@KU?$less@K@std@@@stdext@@V?$CustomAllocator@PAVAbuseUser@@@util@@$0A@@stdext@@@stdext@@V?$CustomAllocator@U_List_position@?$_Hash@V?$_Hmap_traits@KPAVAbuseUser@@V?$hash_compare@KU?$less@K@std@@@stdext@@V?$CustomAllocator@PAVAbuseUser@@@util@@$0A@@stdext@@@stdext@@@util@@@std@@IAEPAU_List_position@?$_Hash@V?$_Hmap_traits@KPAVAbuseUser@@V?$hash_compare@KU?$less@K@std@@@stdext@@V?$CustomAllocator@PAVAbuseUser@@@util@@$0A@@stdext@@@stdext@@PAU234@00@Z 0040b2f0 f i AbuseUserManager.obj
 0001:0000a2f0       ??$_Umove@PAU?$pair@W4eSCRIPT_CODE@@PAUsSCRIPT_DATA_INFO_NODE_INTERNAL@@@std@@@?$vector@U?$pair@W4eSCRIPT_CODE@@PAUsSCRIPT_DATA_INFO_NODE_INTERNAL@@@std@@V?$CustomAllocator@U?$pair@W4eSCRIPT_CODE@@PAUsSCRIPT_DATA_INFO_NODE_INTERNAL@@@std@@@util@@@std@@IAEPAU?$pair@W4eSCRIPT_CODE@@PAUsSCRIPT_DATA_INFO_NODE_INTERNAL@@@1@PAU21@00@Z 0040b2f0 f i servercommon:ScriptDataManager.obj
 0001:0000a2f0       ??$_Umove@PAU_List_position@?$_Hash@V?$_Hmap_traits@KV?$chunk_set@KU?$less@K@std@@@util@@V?$hash_compare@KU?$less@K@std@@@stdext@@V?$CustomAllocator@V?$chunk_set@KU?$less@K@std@@@util@@@2@$0A@@stdext@@@stdext@@@?$vector@U_List_position@?$_Hash@V?$_Hmap_traits@KV?$chunk_set@KU?$less@K@std@@@util@@V?$hash_compare@KU?$less@K@std@@@stdext@@V?$CustomAllocator@V?$chunk_set@KU?$less@K@std@@@util@@@2@$0A@@stdext@@@stdext@@V?$CustomAllocator@U_List_position@?$_Hash@V?$_Hmap_traits@KV?$chunk_set@KU?$less@K@std@@@util@@V?$hash_compare@KU?$less@K@std@@@stdext@@V?$CustomAllocator@V?$chunk_set@KU?$less@K@std@@@util@@@2@$0A@@stdext@@@stdext@@@util@@@std@@IAEPAU_List_position@?$_Hash@V?$_Hmap_traits@KV?$chunk_set@KU?$less@K@std@@@util@@V?$hash_compare@KU?$less@K@std@@@stdext@@V?$CustomAllocator@V?$chunk_set@KU?$less@K@std@@@util@@@2@$0A@@stdext@@@stdext@@PAU234@00@Z 0040b2f0 f i AbuseUserManager.obj
 0001:0000a320       ?Find@FunctionMap@util@@QAEPAVBASE_FUNC@2@K@Z 0040b320 f i PacketHandler.obj
 0001:0000a3a0       ??1?$vector@U_List_position@?$_Hash@V?$_Hmap_traits@KPAVBASE_FUNC@util@@V?$hash_compare@KU?$less@K@std@@@stdext@@V?$allocator@U?$pair@$$CBKPAVBASE_FUNC@util@@@std@@@std@@$0A@@stdext@@@stdext@@V?$allocator@U_List_position@?$_Hash@V?$_Hmap_traits@KPAVBASE_FUNC@util@@V?$hash_compare@KU?$less@K@std@@@stdext@@V?$allocator@U?$pair@$$CBKPAVBASE_FUNC@util@@@std@@@std@@$0A@@stdext@@@stdext@@@std@@@std@@QAE@XZ 0040b3a0 f i PacketHandler.obj
 0001:0000a3e0       ?_Insert_n@?$vector@U_List_position@?$_Hash@V?$_Hmap_traits@KPAVBASE_FUNC@util@@V?$hash_compare@KU?$less@K@std@@@stdext@@V?$allocator@U?$pair@$$CBKPAVBASE_FUNC@util@@@std@@@std@@$0A@@stdext@@@stdext@@V?$allocator@U_List_position@?$_Hash@V?$_Hmap_traits@KPAVBASE_FUNC@util@@V?$hash_compare@KU?$less@K@std@@@stdext@@V?$allocator@U?$pair@$$CBKPAVBASE_FUNC@util@@@std@@@std@@$0A@@stdext@@@stdext@@@std@@@std@@IAEXV?$_Vector_const_iterator@U_List_position@?$_Hash@V?$_Hmap_traits@KPAVBASE_FUNC@util@@V?$hash_compare@KU?$less@K@std@@@stdext@@V?$allocator@U?$pair@$$CBKPAVBASE_FUNC@util@@@std@@@std@@$0A@@stdext@@@stdext@@V?$allocator@U_List_position@?$_Hash@V?$_Hmap_traits@KPAVBASE_FUNC@util@@V?$hash_compare@KU?$less@K@std@@@stdext@@V?$allocator@U?$pair@$$CBKPAVBASE_FUNC@util@@@std@@@std@@$0A@@stdext@@@stdext@@@std@@@2@IABU_List_position@?$_Hash@V?$_Hmap_traits@KPAVBASE_FUNC@util@@V?$hash_compare@KU?$less@K@std@@@stdext@@V?$allocator@U?$pair@$$CBKPAVBASE_FUNC@util@@@std@@@std@@$0A@@stdext@@@stdext@@@Z 0040b3e0 f i PacketHandler.obj
 0001:0000a630       ??1?$hash_map@KPAVBASE_FUNC@util@@V?$hash_compare@KU?$less@K@std@@@stdext@@V?$allocator@U?$pair@$$CBKPAVBASE_FUNC@util@@@std@@@std@@@stdext@@QAE@XZ 0040b630 f i PacketHandler.obj
 0001:0000a680       ??1FunctionMap@util@@QAE@XZ 0040b680 f i PacketHandler.obj
 0001:0000a770       ?insert@?$list@U?$pair@$$CBKPAVBASE_FUNC@util@@@std@@V?$allocator@U?$pair@$$CBKPAVBASE_FUNC@util@@@std@@@2@@std@@QAE?AV?$_Iterator@$00@12@V?$_Const_iterator@$00@12@ABU?$pair@$$CBKPAVBASE_FUNC@util@@@2@@Z 0040b770 f i PacketHandler.obj
 0001:0000a800       ??0?$vector@U_List_position@?$_Hash@V?$_Hmap_traits@KPAVBASE_FUNC@util@@V?$hash_compare@KU?$less@K@std@@@stdext@@V?$allocator@U?$pair@$$CBKPAVBASE_FUNC@util@@@std@@@std@@$0A@@stdext@@@stdext@@V?$allocator@U_List_position@?$_Hash@V?$_Hmap_traits@KPAVBASE_FUNC@util@@V?$hash_compare@KU?$less@K@std@@@stdext@@V?$allocator@U?$pair@$$CBKPAVBASE_FUNC@util@@@std@@@std@@$0A@@stdext@@@stdext@@@std@@@std@@QAE@ABV?$allocator@U_List_position@?$_Hash@V?$_Hmap_traits@KPAVBASE_FUNC@util@@V?$hash_compare@KU?$less@K@std@@@stdext@@V?$allocator@U?$pair@$$CBKPAVBASE_FUNC@util@@@std@@@std@@$0A@@stdext@@@stdext@@@1@@Z 0040b800 f i PacketHandler.obj
 0001:0000a860       ?_Assign_n@?$vector@U_List_position@?$_Hash@V?$_Hmap_traits@KPAVBASE_FUNC@util@@V?$hash_compare@KU?$less@K@std@@@stdext@@V?$allocator@U?$pair@$$CBKPAVBASE_FUNC@util@@@std@@@std@@$0A@@stdext@@@stdext@@V?$allocator@U_List_position@?$_Hash@V?$_Hmap_traits@KPAVBASE_FUNC@util@@V?$hash_compare@KU?$less@K@std@@@stdext@@V?$allocator@U?$pair@$$CBKPAVBASE_FUNC@util@@@std@@@std@@$0A@@stdext@@@stdext@@@std@@@std@@IAEXIABU_List_position@?$_Hash@V?$_Hmap_traits@KPAVBASE_FUNC@util@@V?$hash_compare@KU?$less@K@std@@@stdext@@V?$allocator@U?$pair@$$CBKPAVBASE_FUNC@util@@@std@@@std@@$0A@@stdext@@@stdext@@@Z 0040b860 f i PacketHandler.obj
 0001:0000a8e0       ??0?$_Hash@V?$_Hmap_traits@KPAVBASE_FUNC@util@@V?$hash_compare@KU?$less@K@std@@@stdext@@V?$allocator@U?$pair@$$CBKPAVBASE_FUNC@util@@@std@@@std@@$0A@@stdext@@@stdext@@QAE@ABV?$hash_compare@KU?$less@K@std@@@1@ABV?$allocator@U?$pair@$$CBKPAVBASE_FUNC@util@@@std@@@std@@@Z 0040b8e0 f i PacketHandler.obj
 0001:0000a9a0       ?_Insert@?$_Hash@V?$_Hmap_traits@KPAVBASE_FUNC@util@@V?$hash_compare@KU?$less@K@std@@@stdext@@V?$allocator@U?$pair@$$CBKPAVBASE_FUNC@util@@@std@@@std@@$0A@@stdext@@@stdext@@IAE?AU?$pair@V?$_Iterator@$00@?$list@U?$pair@$$CBKPAVBASE_FUNC@util@@@std@@V?$allocator@U?$pair@$$CBKPAVBASE_FUNC@util@@@std@@@2@@std@@_N@std@@ABU?$pair@$$CBKPAVBASE_FUNC@util@@@4@V?$_Iterator@$00@?$list@U?$pair@$$CBKPAVBASE_FUNC@util@@@std@@V?$allocator@U?$pair@$$CBKPAVBASE_FUNC@util@@@std@@@2@@4@@Z 0040b9a0 f i PacketHandler.obj
 0001:0000ad20       ?_Reinsert@?$_Hash@V?$_Hmap_traits@KPAVBASE_FUNC@util@@V?$hash_compare@KU?$less@K@std@@@stdext@@V?$allocator@U?$pair@$$CBKPAVBASE_FUNC@util@@@std@@@std@@$0A@@stdext@@@stdext@@IAEXXZ 0040bd20 f i PacketHandler.obj
 0001:0000adb0       ?Add@FunctionMap@util@@QAEHPAVBASE_FUNC@2@@Z 0040bdb0 f i PacketHandler.obj
 0001:0000ae60       ??0PacketHandlerShared@@QAE@XZ 0040be60 f   PacketHandler.Shared.obj
 0001:0000ae70       ??1PacketHandlerShared@@QAE@XZ 0040be70 f   PacketHandler.Shared.obj
 0001:0000ae80       ?GetDataHandlerInfo@PacketHandlerShared@@SAPAUsPACKET_HANDLER_INFO@@XZ 0040be80 f   PacketHandler.Shared.obj
 0001:0000ae90       ?OnSERVERCOMMON_SERVERSHUTDOWN_ANS@PacketHandlerShared@@CAXPAVServerSessionEx@@PAUMSG_BASE@@G@Z 0040be90 f   PacketHandler.Shared.obj
 0001:0000aea0       ?OnSERVERCOMMON_HEARTBEAT@PacketHandlerShared@@CAXPAVServerSessionEx@@PAUMSG_BASE@@G@Z 0040bea0 f   PacketHandler.Shared.obj
 0001:0000af50       ?OnSERVERCOMMON_SECURE_LOG_NTF@PacketHandlerShared@@CAXPAVServerSessionEx@@PAUMSG_BASE@@G@Z 0040bf50 f   PacketHandler.Shared.obj
 0001:0000afa0       ?GetHandlerInfo@PacketHandlerShared@@SAPAUsPACKET_HANDLER_INFO@@XZ 0040bfa0 f   PacketHandler.Shared.obj
 0001:0000afb0       ?StartScanMemoryLeak@MemoryLeakReporter@util@@SAHXZ 0040bfb0 f i main.obj
 0001:0000afd0       ?SharedMemoryAllocHook@MemoryLeakReporter@util@@CAXK@Z 0040bfd0 f i main.obj
 0001:0000afe0       ?SunEntryPoint@@YAHXZ      0040bfe0 f   main.obj
 0001:0000aff0       ?GetMainFrame@MasterServerEx@@SAPAV1@XZ 0040bff0 f   main.obj
 0001:0000b000       ?Handler_AllocServerSession_NoInit@MasterServerEx@@SAPAVNetworkObject@@W4eSERVER_TYPE@@@Z 0040c000 f   main.obj
 0001:0000b030       ?Handler_FreeServerSession_NoRelease@MasterServerEx@@SAXPAVNetworkObject@@@Z 0040c030 f   main.obj
 0001:0000b070       ?CreateServerSideAcceptedObject@MasterServerEx@@SAPAVNetworkObject@@XZ 0040c070 f   main.obj
 0001:0000b0b0       ?DestroyServerSideConnectedObject@MasterServerEx@@SAXPAVNetworkObject@@@Z 0040c0b0 f   main.obj
 0001:0000b0c0       ?Handler_AllocServerSession@MasterServerEx@@SAPAVServerSession@@W4eSERVER_TYPE@@@Z 0040c0c0 f   main.obj
 0001:0000b100       ?Handler_FreeServerSession@MasterServerEx@@SAXPAVServerSession@@@Z 0040c100 f   main.obj
 0001:0000b130       ?DestroyServerSideAcceptedObject@MasterServerEx@@SAXPAVNetworkObject@@@Z 0040c130 f   main.obj
 0001:0000b160       _WinMain@16                0040c160 f   main.obj
 0001:0000b2d0       ?RegisterSharedMemoryLeakReporter@MemoryLeakReporter@util@@SAHXZ 0040c2d0 f i main.obj
 0001:0000b2e0       ?Finalize@MasterServerEx@@QAEXXZ 0040c2e0 f   MasterServerEx.obj
 0001:0000b2f0       ?StartListen@MasterServerEx@@QAEXXZ 0040c2f0 f   MasterServerEx.obj
 0001:0000b300       ?AllocServerSession@MasterServerEx@@MAEPAVServerSession@@W4eSERVER_TYPE@@@Z 0040c300 f   MasterServerEx.obj
 0001:0000b330       ?FreeServerSession@MasterServerEx@@MAEXPAVServerSession@@@Z 0040c330 f   MasterServerEx.obj
 0001:0000b340       ?InitializeLogger@MasterServerEx@@AAEHXZ 0040c340 f   MasterServerEx.obj
 0001:0000b4e0       ?InitializeDataLoad@MasterServerEx@@AAEXXZ 0040c4e0 f   MasterServerEx.obj
 0001:0000b570       ?StartDataService@MasterServerEx@@SAXXZ 0040c570 f   MasterServerEx.obj
 0001:0000b580       ?ReloadFromFile_RestrictFunction@MasterServerEx@@AAEHXZ 0040c580 f   MasterServerEx.obj
 0001:0000b5e0       ?ReloadFromFile_StatisticsInterval@MasterServerEx@@AAEHXZ 0040c5e0 f   MasterServerEx.obj
 0001:0000b620       ?Update@MasterServerEx@@MAEHK@Z 0040c620 f   MasterServerEx.obj
 0001:0000b660       ?ReloadFromFile_LogicViolationControl@MasterServerEx@@AAEHXZ 0040c660 f   MasterServerEx.obj
 0001:0000b6b0       ?Init@MasterServerEx@@MAEHXZ 0040c6b0 f   MasterServerEx.obj
 0001:0000b7a0       ?Release@MasterServerEx@@MAEXXZ 0040c7a0 f   MasterServerEx.obj
 0001:0000b850       ?KeyEvent@MasterServerEx@@MAEHD@Z 0040c850 f   MasterServerEx.obj
 0001:0000b970       ?OnMsg@PROCESS_SERVER_AUTHENTICATION@@UAEXPAUsSIG_MSG@@@Z 0040c970 f   MasterServerEx.obj
 0001:0000bc00       ??0MasterServerEx@@QAE@XZ  0040cc00 f   MasterServerEx.obj
 0001:0000bcd0       ??1MasterServerEx@@UAE@XZ  0040ccd0 f   MasterServerEx.obj
 0001:0000bd80       ??8const_iterator@?$_Tree@V?$_Tmap_traits@PAVServerSessionEx@@HU?$less@PAVServerSessionEx@@@std@@V?$allocator@U?$pair@QAVServerSessionEx@@H@std@@@3@$0A@@std@@@std@@QBE_NABV012@@Z 0040cd80 f i MasterServerInfo.obj
 0001:0000bd80       ??8const_iterator@?$_Tree@V?$_Tmap_traits@KU?$pair@KK@std@@U?$less@K@2@V?$CustomAllocator@U?$pair@KK@std@@@util@@$0A@@std@@@std@@QBE_NABV012@@Z 0040cd80 f i MasterServerInfo.obj
 0001:0000bd80       ??8const_iterator@?$_Tree@V?$_Tmap_traits@_KUsTEMP_SERVER_LIFETIME@@U?$less@_K@std@@V?$allocator@U?$pair@$$CB_KUsTEMP_SERVER_LIFETIME@@@std@@@3@$0A@@std@@@std@@QBE_NABV012@@Z 0040cd80 f i MasterServerEx.obj
 0001:0000bd80       ??8const_iterator@?$_Tree@V?$_Tmap_traits@W4eSCRIPT_CODE@@UsCOMPRESS_INFO@ICompressConverter@@U?$less@W4eSCRIPT_CODE@@@std@@V?$CustomAllocator@UsCOMPRESS_INFO@ICompressConverter@@@util@@$0A@@std@@@std@@QBE_NABV012@@Z 0040cd80 f i MasterScriptParserManager.obj
 0001:0000bd80       ??8const_iterator@?$_Tree@V?$_Tmap_traits@KU?$pair@V?$Delegator@VIWorkNode@@@@H@std@@U?$less@K@2@V?$CustomAllocator@U?$pair@V?$Delegator@VIWorkNode@@@@H@std@@@util@@$0A@@std@@@std@@QBE_NABV012@@Z 0040cd80 f i servercommon:WorkLoadManager.obj
 0001:0000bdb0       ??9const_iterator@?$_Tree@V?$_Tmap_traits@_KUsTEMP_SERVER_LIFETIME@@U?$less@_K@std@@V?$allocator@U?$pair@$$CB_KUsTEMP_SERVER_LIFETIME@@@std@@@3@$0A@@std@@@std@@QBE_NABV012@@Z 0040cdb0 f i MasterServerEx.obj
 0001:0000bde0       ?_Max@?$_Tree@V?$_Tmap_traits@_KUsTEMP_SERVER_LIFETIME@@U?$less@_K@std@@V?$allocator@U?$pair@$$CB_KUsTEMP_SERVER_LIFETIME@@@std@@@3@$0A@@std@@@std@@KAPAU_Node@?$_Tree_nod@V?$_Tmap_traits@_KUsTEMP_SERVER_LIFETIME@@U?$less@_K@std@@V?$allocator@U?$pair@$$CB_KUsTEMP_SERVER_LIFETIME@@@std@@@3@$0A@@std@@@2@PAU342@@Z 0040cde0 f i MasterServerEx.obj
 0001:0000be00       ?_Min@?$_Tree@V?$_Tmap_traits@_KUsTEMP_SERVER_LIFETIME@@U?$less@_K@std@@V?$allocator@U?$pair@$$CB_KUsTEMP_SERVER_LIFETIME@@@std@@@3@$0A@@std@@@std@@KAPAU_Node@?$_Tree_nod@V?$_Tmap_traits@_KUsTEMP_SERVER_LIFETIME@@U?$less@_K@std@@V?$allocator@U?$pair@$$CB_KUsTEMP_SERVER_LIFETIME@@@std@@@3@$0A@@std@@@2@PAU342@@Z 0040ce00 f i MasterServerEx.obj
 0001:0000be20       ?_Rrotate@?$_Tree@V?$_Tmap_traits@_KUsTEMP_SERVER_LIFETIME@@U?$less@_K@std@@V?$allocator@U?$pair@$$CB_KUsTEMP_SERVER_LIFETIME@@@std@@@3@$0A@@std@@@std@@IAEXPAU_Node@?$_Tree_nod@V?$_Tmap_traits@_KUsTEMP_SERVER_LIFETIME@@U?$less@_K@std@@V?$allocator@U?$pair@$$CB_KUsTEMP_SERVER_LIFETIME@@@std@@@3@$0A@@std@@@2@@Z 0040ce20 f i MasterServerEx.obj
 0001:0000be80       ??R?$less@_K@std@@QBE_NAB_K0@Z 0040ce80 f i MasterServerEx.obj
 0001:0000beb0       ?_Dec@const_iterator@?$_Tree@V?$_Tmap_traits@_KUsTEMP_SERVER_LIFETIME@@U?$less@_K@std@@V?$allocator@U?$pair@$$CB_KUsTEMP_SERVER_LIFETIME@@@std@@@3@$0A@@std@@@std@@QAEXXZ 0040ceb0 f i MasterServerEx.obj
 0001:0000bf40       ?_Inc@const_iterator@?$_Tree@V?$_Tmap_traits@_KUsTEMP_SERVER_LIFETIME@@U?$less@_K@std@@V?$allocator@U?$pair@$$CB_KUsTEMP_SERVER_LIFETIME@@@std@@@3@$0A@@std@@@std@@QAEXXZ 0040cf40 f i MasterServerEx.obj
 0001:0000bfb0       ?_Lrotate@?$_Tree@V?$_Tmap_traits@_KUsTEMP_SERVER_LIFETIME@@U?$less@_K@std@@V?$allocator@U?$pair@$$CB_KUsTEMP_SERVER_LIFETIME@@@std@@@3@$0A@@std@@@std@@IAEXPAU_Node@?$_Tree_nod@V?$_Tmap_traits@_KUsTEMP_SERVER_LIFETIME@@U?$less@_K@std@@V?$allocator@U?$pair@$$CB_KUsTEMP_SERVER_LIFETIME@@@std@@@3@$0A@@std@@@2@@Z 0040cfb0 f i MasterServerEx.obj
 0001:0000c000       ?_Lbound@?$_Tree@V?$_Tmap_traits@_KUsTEMP_SERVER_LIFETIME@@U?$less@_K@std@@V?$allocator@U?$pair@$$CB_KUsTEMP_SERVER_LIFETIME@@@std@@@3@$0A@@std@@@std@@IBEPAU_Node@?$_Tree_nod@V?$_Tmap_traits@_KUsTEMP_SERVER_LIFETIME@@U?$less@_K@std@@V?$allocator@U?$pair@$$CB_KUsTEMP_SERVER_LIFETIME@@@std@@@3@$0A@@std@@@2@AB_K@Z 0040d000 f i MasterServerEx.obj
 0001:0000c040       ?_Erase@?$_Tree@V?$_Tmap_traits@KU?$pair@KK@std@@U?$less@K@2@V?$CustomAllocator@U?$pair@KK@std@@@util@@$0A@@std@@@std@@IAEXPAU_Node@?$_Tree_nod@V?$_Tmap_traits@KU?$pair@KK@std@@U?$less@K@2@V?$CustomAllocator@U?$pair@KK@std@@@util@@$0A@@std@@@2@@Z 0040d040 f i MasterServerEx.obj
 0001:0000c080       ??Citerator@?$_Tree@V?$_Tmap_traits@_KUsTEMP_SERVER_LIFETIME@@U?$less@_K@std@@V?$allocator@U?$pair@$$CB_KUsTEMP_SERVER_LIFETIME@@@std@@@3@$0A@@std@@@std@@QBEPAU?$pair@$$CB_KUsTEMP_SERVER_LIFETIME@@@2@XZ 0040d080 f i MasterServerEx.obj
 0001:0000c0b0       ?_Erase@?$_Tree@V?$_Tmap_traits@_KUsTEMP_SERVER_LIFETIME@@U?$less@_K@std@@V?$allocator@U?$pair@$$CB_KUsTEMP_SERVER_LIFETIME@@@std@@@3@$0A@@std@@@std@@IAEXPAU_Node@?$_Tree_nod@V?$_Tmap_traits@_KUsTEMP_SERVER_LIFETIME@@U?$less@_K@std@@V?$allocator@U?$pair@$$CB_KUsTEMP_SERVER_LIFETIME@@@std@@@3@$0A@@std@@@2@@Z 0040d0b0 f i MasterServerEx.obj
 0001:0000c0f0       ?_Eqrange@?$_Tree@V?$_Tmap_traits@_KUsTEMP_SERVER_LIFETIME@@U?$less@_K@std@@V?$allocator@U?$pair@$$CB_KUsTEMP_SERVER_LIFETIME@@@std@@@3@$0A@@std@@@std@@IAE?AU?$pair@Viterator@?$_Tree@V?$_Tmap_traits@_KUsTEMP_SERVER_LIFETIME@@U?$less@_K@std@@V?$allocator@U?$pair@$$CB_KUsTEMP_SERVER_LIFETIME@@@std@@@3@$0A@@std@@@std@@V123@@2@AB_K@Z 0040d0f0 f i MasterServerEx.obj
 0001:0000c1a0       ?_Buynode@?$_Tree@V?$_Tmap_traits@_KUsTEMP_SERVER_LIFETIME@@U?$less@_K@std@@V?$allocator@U?$pair@$$CB_KUsTEMP_SERVER_LIFETIME@@@std@@@3@$0A@@std@@@std@@IAEPAU_Node@?$_Tree_nod@V?$_Tmap_traits@_KUsTEMP_SERVER_LIFETIME@@U?$less@_K@std@@V?$allocator@U?$pair@$$CB_KUsTEMP_SERVER_LIFETIME@@@std@@@3@$0A@@std@@@2@PAU342@00ABU?$pair@$$CB_KUsTEMP_SERVER_LIFETIME@@@2@D@Z 0040d1a0 f i MasterServerEx.obj
 0001:0000c1f0       ??$_Distance2@Viterator@?$_Tree@V?$_Tmap_traits@_KUsTEMP_SERVER_LIFETIME@@U?$less@_K@std@@V?$allocator@U?$pair@$$CB_KUsTEMP_SERVER_LIFETIME@@@std@@@3@$0A@@std@@@std@@I@std@@YAXViterator@?$_Tree@V?$_Tmap_traits@_KUsTEMP_SERVER_LIFETIME@@U?$less@_K@std@@V?$allocator@U?$pair@$$CB_KUsTEMP_SERVER_LIFETIME@@@std@@@3@$0A@@std@@@0@0AAIUbidirectional_iterator_tag@0@@Z 0040d1f0 f i MasterServerEx.obj
 0001:0000c230       ?find@?$_Tree@V?$_Tmap_traits@_KUsTEMP_SERVER_LIFETIME@@U?$less@_K@std@@V?$allocator@U?$pair@$$CB_KUsTEMP_SERVER_LIFETIME@@@std@@@3@$0A@@std@@@std@@QAE?AViterator@12@AB_K@Z 0040d230 f i MasterServerEx.obj
 0001:0000c2b0       ?erase@?$_Tree@V?$_Tmap_traits@_KUsTEMP_SERVER_LIFETIME@@U?$less@_K@std@@V?$allocator@U?$pair@$$CB_KUsTEMP_SERVER_LIFETIME@@@std@@@3@$0A@@std@@@std@@QAE?AViterator@12@Vconst_iterator@12@@Z 0040d2b0 f i MasterServerEx.obj
 0001:0000c580       ?erase@?$_Tree@V?$_Tmap_traits@_KUsTEMP_SERVER_LIFETIME@@U?$less@_K@std@@V?$allocator@U?$pair@$$CB_KUsTEMP_SERVER_LIFETIME@@@std@@@3@$0A@@std@@@std@@QAE?AViterator@12@Vconst_iterator@12@0@Z 0040d580 f i MasterServerEx.obj
 0001:0000c660       ?_Insert@?$_Tree@V?$_Tmap_traits@_KUsTEMP_SERVER_LIFETIME@@U?$less@_K@std@@V?$allocator@U?$pair@$$CB_KUsTEMP_SERVER_LIFETIME@@@std@@@3@$0A@@std@@@std@@IAE?AViterator@12@_NPAU_Node@?$_Tree_nod@V?$_Tmap_traits@_KUsTEMP_SERVER_LIFETIME@@U?$less@_K@std@@V?$allocator@U?$pair@$$CB_KUsTEMP_SERVER_LIFETIME@@@std@@@3@$0A@@std@@@2@ABU?$pair@$$CB_KUsTEMP_SERVER_LIFETIME@@@2@@Z 0040d660 f i MasterServerEx.obj
 0001:0000c860       ?erase@?$_Tree@V?$_Tmap_traits@KU?$pair@KK@std@@U?$less@K@2@V?$CustomAllocator@U?$pair@KK@std@@@util@@$0A@@std@@@std@@QAE?AViterator@12@Vconst_iterator@12@@Z 0040d860 f i MasterServerEx.obj
 0001:0000cb30       ?erase@?$_Tree@V?$_Tmap_traits@KU?$pair@KK@std@@U?$less@K@2@V?$CustomAllocator@U?$pair@KK@std@@@util@@$0A@@std@@@std@@QAE?AViterator@12@Vconst_iterator@12@0@Z 0040db30 f i MasterServerEx.obj
 0001:0000cc10       ?erase@?$_Tree@V?$_Tmap_traits@_KUsTEMP_SERVER_LIFETIME@@U?$less@_K@std@@V?$allocator@U?$pair@$$CB_KUsTEMP_SERVER_LIFETIME@@@std@@@3@$0A@@std@@@std@@QAEIAB_K@Z 0040dc10 f i MasterServerEx.obj
 0001:0000cc80       ?insert@?$_Tree@V?$_Tmap_traits@_KUsTEMP_SERVER_LIFETIME@@U?$less@_K@std@@V?$allocator@U?$pair@$$CB_KUsTEMP_SERVER_LIFETIME@@@std@@@3@$0A@@std@@@std@@QAE?AU?$pair@Viterator@?$_Tree@V?$_Tmap_traits@_KUsTEMP_SERVER_LIFETIME@@U?$less@_K@std@@V?$allocator@U?$pair@$$CB_KUsTEMP_SERVER_LIFETIME@@@std@@@3@$0A@@std@@@std@@_N@2@ABU?$pair@$$CB_KUsTEMP_SERVER_LIFETIME@@@2@@Z 0040dc80 f i MasterServerEx.obj
 0001:0000cd70       ?ReleaseWork@?$WorkLoadContainer@K@@QAEXKH@Z 0040dd70 f i MasterServerEx.obj
 0001:0000ce20       ?insert@?$_Tree@V?$_Tmap_traits@_KUsTEMP_SERVER_LIFETIME@@U?$less@_K@std@@V?$allocator@U?$pair@$$CB_KUsTEMP_SERVER_LIFETIME@@@std@@@3@$0A@@std@@@std@@QAE?AViterator@12@Vconst_iterator@12@ABU?$pair@$$CB_KUsTEMP_SERVER_LIFETIME@@@2@@Z 0040de20 f i MasterServerEx.obj
 0001:0000d040       ?Release@?$WorkLoadContainer@K@@QAEXH@Z 0040e040 f i MasterServerEx.obj
 0001:0000d0b0       ??1?$_Tree@V?$_Tmap_traits@KU?$pair@KK@std@@U?$less@K@2@V?$CustomAllocator@U?$pair@KK@std@@@util@@$0A@@std@@@std@@QAE@XZ 0040e0b0 f i MasterServerEx.obj
 0001:0000d130       ??1?$chunk_map@KU?$pair@KK@std@@U?$less@K@2@@util@@QAE@XZ 0040e130 f i MasterServerEx.obj
 0001:0000d140       ??0?$WorkLoadContainer@K@@QAE@XZ 0040e140 f i MasterServerEx.obj
 0001:0000d1c0       ??1?$WorkLoadContainer@K@@QAE@XZ 0040e1c0 f i MasterServerEx.obj
 0001:0000d220       ??1MasterServerInfo@@QAE@XZ 0040e220 f i MasterServerEx.obj
 0001:0000d230       ?GetServerType@MasterServerEx@@UAE?AW4eSERVER_TYPE@@XZ 0040e230 f i MasterServerEx.obj
 0001:0000d240       ??_GMasterServerEx@@UAEPAXI@Z 0040e240 f i MasterServerEx.obj
 0001:0000d240       ??_EMasterServerEx@@UAEPAXI@Z 0040e240 f i MasterServerEx.obj
 0001:0000d260       ?OnRedirect@AccountDBProxySession@@MAEXKQAUMSG_SERVER_TYPE@@@Z 0040e260 f   AccountDBProxySession.obj
 0001:0000d270       ?OnDisconnect@AccountDBProxySession@@MAEXXZ 0040e270 f   AccountDBProxySession.obj
 0001:0000d290       ?RequestServerInfo@SendFunc@AccountDBProxySession@@SAXPAV2@@Z 0040e290 f   AccountDBProxySession.obj
 0001:0000d2c0       ?OnConnect@AccountDBProxySession@@MAEXHK@Z 0040e2c0 f   AccountDBProxySession.obj
 0001:0000d340       ?Init@ServerSessionEx@@UAEXXZ 0040e340 f i AgentServerSession.obj
 0001:0000d350       ?Init@AgentServerSession@@UAEXXZ 0040e350 f   AgentServerSession.obj
 0001:0000d370       ?CCUReport@AgentServerSession@@QAEXPAUMSG_AM_CONNECTION_CCU_REPORT_NTF@@@Z 0040e370 f   AgentServerSession.obj
 0001:0000d390       ?OnRedirect@AgentServerSession@@MAEXKQAUMSG_SERVER_TYPE@@@Z 0040e390 f   AgentServerSession.obj
 0001:0000d5e0       ?OnRedirect@GameDBProxySession@@MAEXKQAUMSG_SERVER_TYPE@@@Z 0040e5e0 f   GameDBProxySession.obj
 0001:0000d680       ?Release@ServerSessionEx@@UAEXXZ 0040e680 f i GameServerSession.obj
 0001:0000d690       ?Initialize@GameStatisticsData@@QAEXXZ 0040e690 f i GameServerSession.obj
 0001:0000d710       ?Init@GameServerSession@@UAEXXZ 0040e710 f   GameServerSession.obj
 0001:0000d780       ?Release@GameServerSession@@UAEXXZ 0040e780 f   GameServerSession.obj
 0001:0000d7b0       ?OnRedirect@GameServerSession@@MAEXKQAUMSG_SERVER_TYPE@@@Z 0040e7b0 f   GameServerSession.obj
 0001:0000da60       ?OnRedirect@GuildServerSession@@MAEXKQAUMSG_SERVER_TYPE@@@Z 0040ea60 f   GuildServerSession.obj
 0001:0000dbd0       ?OnRedirect@OpServerSession@@MAEXKQAUMSG_SERVER_TYPE@@@Z 0040ebd0 f   OpServerSession.obj
 0001:0000dbe0       ?OnDisconnect@OpServerSession@@MAEXXZ 0040ebe0 f   OpServerSession.obj
 0001:0000dc00       ?OnRecv@OpServerSession@@MAEXPAEG@Z 0040ec00 f   OpServerSession.obj
 0001:0000dc70       ?AllServerInfo_OnLIVE@SendFunc@OpServerSession@@SAXPAV2@@Z 0040ec70 f   OpServerSession.obj
 0001:0000ddc0       ?OnConnect@OpServerSession@@MAEXHK@Z 0040edc0 f   OpServerSession.obj
 0001:0000de30       ??0MSG_MO_RTTG_ALL_SERVER_STATUS_NTF@@QAE@XZ 0040ee30 f i OpServerSession.obj
 0001:0000de60       ?GetPacketHandler@Services4Session@@QAE?AV?$Delegator@VPacketHandler@@@@XZ 0040ee60 f i OpServerSession.obj
 0001:0000de80       ?OnRedirect@ServerSessionEx@@UAEXKQAUMSG_SERVER_TYPE@@@Z 0040ee80 f   ServerSessionEx.obj
 0001:0000de90       ?OnRecv@ServerSessionEx@@MAEXPAEG@Z 0040ee90 f   ServerSessionEx.obj
 0001:0000df00       ?OnDisconnect@ServerSessionEx@@UAEXXZ 0040ef00 f   ServerSessionEx.obj
 0001:0000df70       ?_Initialize@ServerSessionEx@@IAEXXZ 0040ef70 f   ServerSessionEx.obj
 0001:0000df90       ?_Release@ServerSessionEx@@IAEXXZ 0040ef90 f   ServerSessionEx.obj
 0001:0000dfb0       ?Init@Services4Session@@QAEXXZ 0040efb0 f i ServerSessionEx.obj
 0001:0000e020       ?GetServerTree@ServerSessionManager@@SAPAV?$ServerTree@UsSERVER_NODE@@@@XZ 0040f020 f   ServerSessionManager.obj
 0001:0000e030       ?AllocNewSession@ServerSessionManager@@SAPAVServerSession@@W4eSERVER_TYPE@@@Z 0040f030 f   ServerSessionManager.obj
 0001:0000e050       ?FreeSession@ServerSessionManager@@SAHPAVServerSession@@@Z 0040f050 f   ServerSessionManager.obj
 0001:0000e090       ?GetWorldServerList@ServerSessionManager@@SAXPAU?$sPTR_LIST@UsSERVER_NODE@@@@@Z 0040f090 f   ServerSessionManager.obj
 0001:0000e0b0       ?GetAgentServerList@ServerSessionManager@@SAXPAU?$sPTR_LIST@UsSERVER_NODE@@@@@Z 0040f0b0 f   ServerSessionManager.obj
 0001:0000e0d0       ?GetGameServerList@ServerSessionManager@@SAXPAU?$sPTR_LIST@UsSERVER_NODE@@@@@Z 0040f0d0 f   ServerSessionManager.obj
 0001:0000e0f0       ?GetGameDBProxyList@ServerSessionManager@@SAXPAU?$sPTR_LIST@UsSERVER_NODE@@@@@Z 0040f0f0 f   ServerSessionManager.obj
 0001:0000e110       ?SendToGameServers@ServerSessionManager@@SAXPAUMSG_BASE@@G@Z 0040f110 f   ServerSessionManager.obj
 0001:0000e160       ?FindServer@ServerSessionManager@@SAPAVServerSessionEx@@UtagSERVER_KEY@@@Z 0040f160 f   ServerSessionManager.obj
 0001:0000e180       ??1ServerSessionManager@@AAE@XZ 0040f180 f   ServerSessionManager.obj
 0001:0000e1f0       ?RemoveServer@ServerSessionManager@@SAXUtagSERVER_KEY@@@Z 0040f1f0 f   ServerSessionManager.obj
 0001:0000e350       ?DestroyInstance@ServerSessionManager@@SAHXZ 0040f350 f   ServerSessionManager.obj
 0001:0000e380       ??0ServerSessionManager@@AAE@XZ 0040f380 f   ServerSessionManager.obj
 0001:0000e710       ?CreateInstance@ServerSessionManager@@SAHXZ 0040f710 f   ServerSessionManager.obj
 0001:0000e780       ?AddServer@ServerSessionManager@@SAHPAVServerSessionEx@@@Z 0040f780 f   ServerSessionManager.obj
 0001:0000e920       ?GetPtrList@?$ServerTree@UsSERVER_NODE@@@@QAEXKPAU?$sPTR_LIST@UsSERVER_NODE@@@@@Z 0040f920 f i ServerSessionManager.obj
 0001:0000e970       ?_FindEmptyNode@?$ServerTree@UsSERVER_NODE@@@@AAEPAUsSERVER_NODE@@XZ 0040f970 f i ServerSessionManager.obj
 0001:0000e9f0       ?Release@?$PoolRouter@$0CA@@util@@QAEXXZ 0040f9f0 f i ServerSessionManager.obj
 0001:0000ea30       ??$_Allocate@PAV?$vector@PAV?$vector@PAUsSERVER_NODE@@V?$allocator@PAUsSERVER_NODE@@@std@@@std@@V?$allocator@PAV?$vector@PAUsSERVER_NODE@@V?$allocator@PAUsSERVER_NODE@@@std@@@std@@@2@@std@@@std@@YAPAPAV?$vector@PAV?$vector@PAUsSERVER_NODE@@V?$allocator@PAUsSERVER_NODE@@@std@@@std@@V?$allocator@PAV?$vector@PAUsSERVER_NODE@@V?$allocator@PAUsSERVER_NODE@@@std@@@std@@@2@@0@IPAPAV10@@Z 0040fa30 f i ServerSessionManager.obj
 0001:0000ea30       ??$_Allocate@PAUsSERVER_INFO@@@std@@YAPAPAUsSERVER_INFO@@IPAPAU1@@Z 0040fa30 f i ServerInfoManager.obj
 0001:0000ea30       ??$_Allocate@PAV?$vector@PAUsSERVER_NODE@@V?$allocator@PAUsSERVER_NODE@@@std@@@std@@@std@@YAPAPAV?$vector@PAUsSERVER_NODE@@V?$allocator@PAUsSERVER_NODE@@@std@@@0@IPAPAV10@@Z 0040fa30 f i ServerSessionManager.obj
 0001:0000ea30       ??$_Allocate@PAV?$vector@PAUsSERVER_INFO@@V?$allocator@PAUsSERVER_INFO@@@std@@@std@@@std@@YAPAPAV?$vector@PAUsSERVER_INFO@@V?$allocator@PAUsSERVER_INFO@@@std@@@0@IPAPAV10@@Z 0040fa30 f i ServerInfoManager.obj
 0001:0000ea30       ??$_Allocate@PAUsSERVER_NODE@@@std@@YAPAPAUsSERVER_NODE@@IPAPAU1@@Z 0040fa30 f i ServerSessionManager.obj
 0001:0000ea30       ??$_Allocate@PAV?$vector@PAV?$vector@PAUsSERVER_INFO@@V?$allocator@PAUsSERVER_INFO@@@std@@@std@@V?$allocator@PAV?$vector@PAUsSERVER_INFO@@V?$allocator@PAUsSERVER_INFO@@@std@@@std@@@2@@std@@@std@@YAPAPAV?$vector@PAV?$vector@PAUsSERVER_INFO@@V?$allocator@PAUsSERVER_INFO@@@std@@@std@@V?$allocator@PAV?$vector@PAUsSERVER_INFO@@V?$allocator@PAUsSERVER_INFO@@@std@@@std@@@2@@0@IPAPAV10@@Z 0040fa30 f i ServerInfoManager.obj
 0001:0000ea90       ??1?$CMemoryPoolFactory@VAgentServerSession@@@util@@UAE@XZ 0040fa90 f i ServerSessionManager.obj
 0001:0000eb00       ??1?$CMemoryPoolFactory@VFieldServerSession@@@util@@UAE@XZ 0040fb00 f i ServerSessionManager.obj
 0001:0000eb70       ?Alloc@?$CMemoryPoolFactory@VAgentServerSession@@@util@@UAEPAXXZ 0040fb70 f i ServerSessionManager.obj
 0001:0000eb70       ?Alloc@?$CMemoryPoolFactory@VGuildServerSession@@@util@@UAEPAXXZ 0040fb70 f i ServerSessionManager.obj
 0001:0000eb70       ?Alloc@?$CMemoryPoolFactory@VWorldServerSession@@@util@@UAEPAXXZ 0040fb70 f i ServerSessionManager.obj
 0001:0000eb70       ?Alloc@?$CMemoryPoolFactory@VGameDBProxySession@@@util@@UAEPAXXZ 0040fb70 f i ServerSessionManager.obj
 0001:0000eb70       ?Alloc@?$CMemoryPoolFactory@VFieldServerSession@@@util@@UAEPAXXZ 0040fb70 f i ServerSessionManager.obj
 0001:0000eb70       ?Alloc@?$CMemoryPoolFactory@VTempServerSessionEx@@@util@@UAEPAXXZ 0040fb70 f i ServerSessionManager.obj
 0001:0000eb70       ?Alloc@?$CMemoryPoolFactory@VOpServerSession@@@util@@UAEPAXXZ 0040fb70 f i ServerSessionManager.obj
 0001:0000eb70       ?Alloc@?$CMemoryPoolFactory@VBattleServerSession@@@util@@UAEPAXXZ 0040fb70 f i ServerSessionManager.obj
 0001:0000eb70       ?Alloc@?$CMemoryPoolFactory@VAccountDBProxySession@@@util@@UAEPAXXZ 0040fb70 f i ServerSessionManager.obj
 0001:0000eb70       ?Alloc@?$CMemoryPoolFactory@VAbuseUser@@@util@@UAEPAXXZ 0040fb70 f i AbuseUserManager.obj
 0001:0000eb70       ?Alloc@?$CMemoryPoolFactory@VSolarAuthServerSession@@@util@@UAEPAXXZ 0040fb70 f i ServerSessionManager.obj
 0001:0000eb80       ??1?$CMemoryPoolFactory@VBattleServerSession@@@util@@UAE@XZ 0040fb80 f i ServerSessionManager.obj
 0001:0000ebf0       ??1?$CMemoryPoolFactory@VGameDBProxySession@@@util@@UAE@XZ 0040fbf0 f i ServerSessionManager.obj
 0001:0000ec60       ??1?$CMemoryPoolFactory@VWorldServerSession@@@util@@UAE@XZ 0040fc60 f i ServerSessionManager.obj
 0001:0000ecd0       ?Destroy@?$VariableSizeChunkImpl@VSolarAuthServerSession@@@internal@util@@CAXPAX@Z 0040fcd0 f i ServerSessionManager.obj
 0001:0000ecd0       ?Destroy@?$VariableSizeChunkImpl@VBattleServerSession@@@internal@util@@CAXPAX@Z 0040fcd0 f i ServerSessionManager.obj
 0001:0000ecd0       ?Destroy@?$VariableSizeChunkImpl@VTempServerSessionEx@@@internal@util@@CAXPAX@Z 0040fcd0 f i ServerSessionManager.obj
 0001:0000ecd0       ?Destroy@?$VariableSizeChunkImpl@VWorldServerSession@@@internal@util@@CAXPAX@Z 0040fcd0 f i ServerSessionManager.obj
 0001:0000ecd0       ?Destroy@?$VariableSizeChunkImpl@VGameDBProxySession@@@internal@util@@CAXPAX@Z 0040fcd0 f i ServerSessionManager.obj
 0001:0000ecd0       ?Destroy@?$VariableSizeChunkImpl@VGuildServerSession@@@internal@util@@CAXPAX@Z 0040fcd0 f i ServerSessionManager.obj
 0001:0000ecd0       ?Destroy@?$VariableSizeChunkImpl@VAccountDBProxySession@@@internal@util@@CAXPAX@Z 0040fcd0 f i ServerSessionManager.obj
 0001:0000ecd0       ?Destroy@?$VariableSizeChunkImpl@VFieldServerSession@@@internal@util@@CAXPAX@Z 0040fcd0 f i ServerSessionManager.obj
 0001:0000ecd0       ?Destroy@?$VariableSizeChunkImpl@VOpServerSession@@@internal@util@@CAXPAX@Z 0040fcd0 f i ServerSessionManager.obj
 0001:0000ecd0       ?Destroy@?$VariableSizeChunkImpl@VAgentServerSession@@@internal@util@@CAXPAX@Z 0040fcd0 f i ServerSessionManager.obj
 0001:0000ece0       ??1?$CMemoryPoolFactory@VGuildServerSession@@@util@@UAE@XZ 0040fce0 f i ServerSessionManager.obj
 0001:0000ed50       ??1?$CMemoryPoolFactory@VAccountDBProxySession@@@util@@UAE@XZ 0040fd50 f i ServerSessionManager.obj
 0001:0000edc0       ?Free@?$CMemoryPoolFactory@VWorldServerSession@@@util@@UAEHPAX@Z 0040fdc0 f i ServerSessionManager.obj
 0001:0000edc0       ?Free@?$CMemoryPoolFactory@VBattleServerSession@@@util@@UAEHPAX@Z 0040fdc0 f i ServerSessionManager.obj
 0001:0000edc0       ?Free@?$CMemoryPoolFactory@VGuildServerSession@@@util@@UAEHPAX@Z 0040fdc0 f i ServerSessionManager.obj
 0001:0000edc0       ?Free@?$CMemoryPoolFactory@VAbuseUser@@@util@@UAEHPAX@Z 0040fdc0 f i AbuseUserManager.obj
 0001:0000edc0       ?Free@?$CMemoryPoolFactory@VAccountDBProxySession@@@util@@UAEHPAX@Z 0040fdc0 f i ServerSessionManager.obj
 0001:0000edc0       ?Free@?$CMemoryPoolFactory@VFieldServerSession@@@util@@UAEHPAX@Z 0040fdc0 f i ServerSessionManager.obj
 0001:0000edc0       ?Free@?$CMemoryPoolFactory@VOpServerSession@@@util@@UAEHPAX@Z 0040fdc0 f i ServerSessionManager.obj
 0001:0000edc0       ?Free@?$CMemoryPoolFactory@VAgentServerSession@@@util@@UAEHPAX@Z 0040fdc0 f i ServerSessionManager.obj
 0001:0000edc0       ?Free@?$CMemoryPoolFactory@VTempServerSessionEx@@@util@@UAEHPAX@Z 0040fdc0 f i ServerSessionManager.obj
 0001:0000edc0       ?Free@?$CMemoryPoolFactory@VSolarAuthServerSession@@@util@@UAEHPAX@Z 0040fdc0 f i ServerSessionManager.obj
 0001:0000edc0       ?Free@?$CMemoryPoolFactory@VGameDBProxySession@@@util@@UAEHPAX@Z 0040fdc0 f i ServerSessionManager.obj
 0001:0000ede0       ??1?$CMemoryPoolFactory@VOpServerSession@@@util@@UAE@XZ 0040fde0 f i ServerSessionManager.obj
 0001:0000ee50       ??1?$CMemoryPoolFactory@VTempServerSessionEx@@@util@@UAE@XZ 0040fe50 f i ServerSessionManager.obj
 0001:0000eec0       ?Create@?$VariableSizeChunkImpl@VSolarAuthServerSession@@@internal@util@@CAXPAX@Z 0040fec0 f i ServerSessionManager.obj
 0001:0000ef10       ??1?$CMemoryPoolFactory@VSolarAuthServerSession@@@util@@UAE@XZ 0040ff10 f i ServerSessionManager.obj
 0001:0000ef80       ??_E?$CMemoryPoolFactory@VAgentServerSession@@@util@@UAEPAXI@Z 0040ff80 f i ServerSessionManager.obj
 0001:0000ef80       ??_G?$CMemoryPoolFactory@VAgentServerSession@@@util@@UAEPAXI@Z 0040ff80 f i ServerSessionManager.obj
 0001:0000efa0       ??_E?$CMemoryPoolFactory@VFieldServerSession@@@util@@UAEPAXI@Z 0040ffa0 f i ServerSessionManager.obj
 0001:0000efa0       ??_G?$CMemoryPoolFactory@VFieldServerSession@@@util@@UAEPAXI@Z 0040ffa0 f i ServerSessionManager.obj
 0001:0000efc0       ??_G?$CMemoryPoolFactory@VBattleServerSession@@@util@@UAEPAXI@Z 0040ffc0 f i ServerSessionManager.obj
 0001:0000efc0       ??_E?$CMemoryPoolFactory@VBattleServerSession@@@util@@UAEPAXI@Z 0040ffc0 f i ServerSessionManager.obj
 0001:0000efe0       ??_E?$CMemoryPoolFactory@VGameDBProxySession@@@util@@UAEPAXI@Z 0040ffe0 f i ServerSessionManager.obj
 0001:0000efe0       ??_G?$CMemoryPoolFactory@VGameDBProxySession@@@util@@UAEPAXI@Z 0040ffe0 f i ServerSessionManager.obj
 0001:0000f000       ??_G?$CMemoryPoolFactory@VWorldServerSession@@@util@@UAEPAXI@Z 00410000 f i ServerSessionManager.obj
 0001:0000f000       ??_E?$CMemoryPoolFactory@VWorldServerSession@@@util@@UAEPAXI@Z 00410000 f i ServerSessionManager.obj
 0001:0000f020       ??_G?$CMemoryPoolFactory@VGuildServerSession@@@util@@UAEPAXI@Z 00410020 f i ServerSessionManager.obj
 0001:0000f020       ??_E?$CMemoryPoolFactory@VGuildServerSession@@@util@@UAEPAXI@Z 00410020 f i ServerSessionManager.obj
 0001:0000f040       ??_E?$CMemoryPoolFactory@VAccountDBProxySession@@@util@@UAEPAXI@Z 00410040 f i ServerSessionManager.obj
 0001:0000f040       ??_G?$CMemoryPoolFactory@VAccountDBProxySession@@@util@@UAEPAXI@Z 00410040 f i ServerSessionManager.obj
 0001:0000f060       ??_E?$CMemoryPoolFactory@VOpServerSession@@@util@@UAEPAXI@Z 00410060 f i ServerSessionManager.obj
 0001:0000f060       ??_G?$CMemoryPoolFactory@VOpServerSession@@@util@@UAEPAXI@Z 00410060 f i ServerSessionManager.obj
 0001:0000f080       ??_E?$CMemoryPoolFactory@VTempServerSessionEx@@@util@@UAEPAXI@Z 00410080 f i ServerSessionManager.obj
 0001:0000f080       ??_G?$CMemoryPoolFactory@VTempServerSessionEx@@@util@@UAEPAXI@Z 00410080 f i ServerSessionManager.obj
 0001:0000f0a0       ??_E?$CMemoryPoolFactory@VSolarAuthServerSession@@@util@@UAEPAXI@Z 004100a0 f i ServerSessionManager.obj
 0001:0000f0a0       ??_G?$CMemoryPoolFactory@VSolarAuthServerSession@@@util@@UAEPAXI@Z 004100a0 f i ServerSessionManager.obj
 0001:0000f0c0       ?Free@?$NotUseChunkImpl@VOpServerSession@@@internal@util@@UAEXQAX@Z 004100c0 f i ServerSessionManager.obj
 0001:0000f0c0       ?Free@?$NotUseChunkImpl@VAgentServerSession@@@internal@util@@UAEXQAX@Z 004100c0 f i ServerSessionManager.obj
 0001:0000f0c0       ?Free@?$NotUseChunkImpl@VBattleServerSession@@@internal@util@@UAEXQAX@Z 004100c0 f i ServerSessionManager.obj
 0001:0000f0c0       ?Free@?$NotUseChunkImpl@VGuildServerSession@@@internal@util@@UAEXQAX@Z 004100c0 f i ServerSessionManager.obj
 0001:0000f0c0       ?Free@?$NotUseChunkImpl@VWorldServerSession@@@internal@util@@UAEXQAX@Z 004100c0 f i ServerSessionManager.obj
 0001:0000f0c0       ?Free@?$NotUseChunkImpl@VSolarAuthServerSession@@@internal@util@@UAEXQAX@Z 004100c0 f i ServerSessionManager.obj
 0001:0000f0c0       ?Free@?$NotUseChunkImpl@VGameDBProxySession@@@internal@util@@UAEXQAX@Z 004100c0 f i ServerSessionManager.obj
 0001:0000f0c0       ?Free@?$NotUseChunkImpl@VAccountDBProxySession@@@internal@util@@UAEXQAX@Z 004100c0 f i ServerSessionManager.obj
 0001:0000f0c0       ?Free@?$NotUseChunkImpl@VTempServerSessionEx@@@internal@util@@UAEXQAX@Z 004100c0 f i ServerSessionManager.obj
 0001:0000f0c0       ?Free@?$NotUseChunkImpl@VFieldServerSession@@@internal@util@@UAEXQAX@Z 004100c0 f i ServerSessionManager.obj
 0001:0000f0e0       ?Alloc@?$NotUseChunkImpl@VSolarAuthServerSession@@@internal@util@@UAEPAXXZ 004100e0 f i ServerSessionManager.obj
 0001:0000f150       ??0?$VariableSizeChunkImpl@VSolarAuthServerSession@@@internal@util@@QAE@XZ 00410150 f i ServerSessionManager.obj
 0001:0000f1b0       ??1?$VariableSizeChunkImpl@VSolarAuthServerSession@@@internal@util@@UAE@XZ 004101b0 f i ServerSessionManager.obj
 0001:0000f220       ??_G?$NotUseChunkImpl@VSolarAuthServerSession@@@internal@util@@UAEPAXI@Z 00410220 f i ServerSessionManager.obj
 0001:0000f220       ??_E?$NotUseChunkImpl@VBattleServerSession@@@internal@util@@UAEPAXI@Z 00410220 f i ServerSessionManager.obj
 0001:0000f220       ??_G?$NotUseChunkImpl@VAccountDBProxySession@@@internal@util@@UAEPAXI@Z 00410220 f i ServerSessionManager.obj
 0001:0000f220       ??_G?$NotUseChunkImpl@VAbuseUser@@@internal@util@@UAEPAXI@Z 00410220 f i AbuseUserManager.obj
 0001:0000f220       ??_E?$NotUseChunkImpl@VAccountDBProxySession@@@internal@util@@UAEPAXI@Z 00410220 f i ServerSessionManager.obj
 0001:0000f220       ??_G?$NotUseChunkImpl@VBattleServerSession@@@internal@util@@UAEPAXI@Z 00410220 f i ServerSessionManager.obj
 0001:0000f220       ??_E?$NotUseChunkImpl@VAbuseUser@@@internal@util@@UAEPAXI@Z 00410220 f i AbuseUserManager.obj
 0001:0000f220       ??_GIMemoryPoolFactoryImpl@internal@util@@UAEPAXI@Z 00410220 f i AbuseUserManager.obj
 0001:0000f220       ??_E?$NotUseChunkImpl@VSolarAuthServerSession@@@internal@util@@UAEPAXI@Z 00410220 f i ServerSessionManager.obj
 0001:0000f220       ??_G?$NotUseChunkImpl@VFieldServerSession@@@internal@util@@UAEPAXI@Z 00410220 f i ServerSessionManager.obj
 0001:0000f220       ??_E?$NotUseChunkImpl@VGuildServerSession@@@internal@util@@UAEPAXI@Z 00410220 f i ServerSessionManager.obj
 0001:0000f220       ??_G?$NotUseChunkImpl@VAgentServerSession@@@internal@util@@UAEPAXI@Z 00410220 f i ServerSessionManager.obj
 0001:0000f220       ??_G?$NotUseChunkImpl@VGameDBProxySession@@@internal@util@@UAEPAXI@Z 00410220 f i ServerSessionManager.obj
 0001:0000f220       ??_G?$NotUseChunkImpl@VOpServerSession@@@internal@util@@UAEPAXI@Z 00410220 f i ServerSessionManager.obj
 0001:0000f220       ??_E?$NotUseChunkImpl@VGameDBProxySession@@@internal@util@@UAEPAXI@Z 00410220 f i ServerSessionManager.obj
 0001:0000f220       ??_E?$NotUseChunkImpl@VAgentServerSession@@@internal@util@@UAEPAXI@Z 00410220 f i ServerSessionManager.obj
 0001:0000f220       ??_G?$NotUseChunkImpl@VWorldServerSession@@@internal@util@@UAEPAXI@Z 00410220 f i ServerSessionManager.obj
 0001:0000f220       ??_G?$NotUseChunkImpl@VGuildServerSession@@@internal@util@@UAEPAXI@Z 00410220 f i ServerSessionManager.obj
 0001:0000f220       ??_E?$NotUseChunkImpl@VFieldServerSession@@@internal@util@@UAEPAXI@Z 00410220 f i ServerSessionManager.obj
 0001:0000f220       ??_E?$NotUseChunkImpl@VTempServerSessionEx@@@internal@util@@UAEPAXI@Z 00410220 f i ServerSessionManager.obj
 0001:0000f220       ??_E?$NotUseChunkImpl@VWorldServerSession@@@internal@util@@UAEPAXI@Z 00410220 f i ServerSessionManager.obj
 0001:0000f220       ??_E?$NotUseChunkImpl@VOpServerSession@@@internal@util@@UAEPAXI@Z 00410220 f i ServerSessionManager.obj
 0001:0000f220       ??_EIMemoryPoolFactoryImpl@internal@util@@UAEPAXI@Z 00410220 f i AbuseUserManager.obj
 0001:0000f220       ??_G?$NotUseChunkImpl@VTempServerSessionEx@@@internal@util@@UAEPAXI@Z 00410220 f i ServerSessionManager.obj
 0001:0000f240       ??_E?$VariableSizeChunkImpl@VSolarAuthServerSession@@@internal@util@@UAEPAXI@Z 00410240 f i ServerSessionManager.obj
 0001:0000f240       ??_G?$VariableSizeChunkImpl@VSolarAuthServerSession@@@internal@util@@UAEPAXI@Z 00410240 f i ServerSessionManager.obj
 0001:0000f260       ??H?$_Vector_iterator@PAV?$vector@PAV?$vector@PAUsSERVER_NODE@@V?$allocator@PAUsSERVER_NODE@@@std@@@std@@V?$allocator@PAV?$vector@PAUsSERVER_NODE@@V?$allocator@PAUsSERVER_NODE@@@std@@@std@@@2@@std@@V?$allocator@PAV?$vector@PAV?$vector@PAUsSERVER_NODE@@V?$allocator@PAUsSERVER_NODE@@@std@@@std@@V?$allocator@PAV?$vector@PAUsSERVER_NODE@@V?$allocator@PAUsSERVER_NODE@@@std@@@std@@@2@@std@@@2@@std@@QBE?AV01@H@Z 00410260 f i ServerSessionManager.obj
 0001:0000f260       ??H?$_Vector_iterator@PAV?$vector@PAV?$vector@PAUsSERVER_INFO@@V?$allocator@PAUsSERVER_INFO@@@std@@@std@@V?$allocator@PAV?$vector@PAUsSERVER_INFO@@V?$allocator@PAUsSERVER_INFO@@@std@@@std@@@2@@std@@V?$allocator@PAV?$vector@PAV?$vector@PAUsSERVER_INFO@@V?$allocator@PAUsSERVER_INFO@@@std@@@std@@V?$allocator@PAV?$vector@PAUsSERVER_INFO@@V?$allocator@PAUsSERVER_INFO@@@std@@@std@@@2@@std@@@2@@std@@QBE?AV01@H@Z 00410260 f i ServerInfoManager.obj
 0001:0000f260       ??H?$_Vector_iterator@PAV?$vector@PAUsSERVER_INFO@@V?$allocator@PAUsSERVER_INFO@@@std@@@std@@V?$allocator@PAV?$vector@PAUsSERVER_INFO@@V?$allocator@PAUsSERVER_INFO@@@std@@@std@@@2@@std@@QBE?AV01@H@Z 00410260 f i ServerInfoManager.obj
 0001:0000f260       ??H?$_Vector_iterator@PAV?$vector@PAUsSERVER_NODE@@V?$allocator@PAUsSERVER_NODE@@@std@@@std@@V?$allocator@PAV?$vector@PAUsSERVER_NODE@@V?$allocator@PAUsSERVER_NODE@@@std@@@std@@@2@@std@@QBE?AV01@H@Z 00410260 f i ServerSessionManager.obj
 0001:0000f2b0       ??$fill@PAPAV?$vector@PAUsSERVER_INFO@@V?$allocator@PAUsSERVER_INFO@@@std@@@std@@PAV12@@std@@YAXPAPAV?$vector@PAUsSERVER_INFO@@V?$allocator@PAUsSERVER_INFO@@@std@@@0@0ABQAV10@@Z 004102b0 f i ServerInfoManager.obj
 0001:0000f2b0       ??$fill@PAPAV?$vector@PAV?$vector@PAUsSERVER_NODE@@V?$allocator@PAUsSERVER_NODE@@@std@@@std@@V?$allocator@PAV?$vector@PAUsSERVER_NODE@@V?$allocator@PAUsSERVER_NODE@@@std@@@std@@@2@@std@@PAV12@@std@@YAXPAPAV?$vector@PAV?$vector@PAUsSERVER_NODE@@V?$allocator@PAUsSERVER_NODE@@@std@@@std@@V?$allocator@PAV?$vector@PAUsSERVER_NODE@@V?$allocator@PAUsSERVER_NODE@@@std@@@std@@@2@@0@0ABQAV10@@Z 004102b0 f i ServerSessionManager.obj
 0001:0000f2b0       ??$fill@PAPAV?$vector@PAV?$vector@PAUsSERVER_INFO@@V?$allocator@PAUsSERVER_INFO@@@std@@@std@@V?$allocator@PAV?$vector@PAUsSERVER_INFO@@V?$allocator@PAUsSERVER_INFO@@@std@@@std@@@2@@std@@PAV12@@std@@YAXPAPAV?$vector@PAV?$vector@PAUsSERVER_INFO@@V?$allocator@PAUsSERVER_INFO@@@std@@@std@@V?$allocator@PAV?$vector@PAUsSERVER_INFO@@V?$allocator@PAUsSERVER_INFO@@@std@@@std@@@2@@0@0ABQAV10@@Z 004102b0 f i ServerInfoManager.obj
 0001:0000f2b0       ??$fill@PAPAUsSERVER_NODE@@PAU1@@std@@YAXPAPAUsSERVER_NODE@@0ABQAU1@@Z 004102b0 f i ServerSessionManager.obj
 0001:0000f2b0       ??$fill@PAPAUsSERVER_INFO@@PAU1@@std@@YAXPAPAUsSERVER_INFO@@0ABQAU1@@Z 004102b0 f i ServerInfoManager.obj
 0001:0000f2b0       ??$fill@PAPAV?$vector@PAUsSERVER_NODE@@V?$allocator@PAUsSERVER_NODE@@@std@@@std@@PAV12@@std@@YAXPAPAV?$vector@PAUsSERVER_NODE@@V?$allocator@PAUsSERVER_NODE@@@std@@@0@0ABQAV10@@Z 004102b0 f i ServerSessionManager.obj
 0001:0000f2d0       ??$_Unchecked_move_backward@PAPAV?$vector@PAUsSERVER_NODE@@V?$allocator@PAUsSERVER_NODE@@@std@@@std@@PAPAV12@@stdext@@YAPAPAV?$vector@PAUsSERVER_NODE@@V?$allocator@PAUsSERVER_NODE@@@std@@@std@@PAPAV12@00@Z 004102d0 f i ServerSessionManager.obj
 0001:0000f2d0       ??$_Unchecked_move_backward@PAPAV?$vector@PAV?$vector@PAUsSERVER_INFO@@V?$allocator@PAUsSERVER_INFO@@@std@@@std@@V?$allocator@PAV?$vector@PAUsSERVER_INFO@@V?$allocator@PAUsSERVER_INFO@@@std@@@std@@@2@@std@@PAPAV12@@stdext@@YAPAPAV?$vector@PAV?$vector@PAUsSERVER_INFO@@V?$allocator@PAUsSERVER_INFO@@@std@@@std@@V?$allocator@PAV?$vector@PAUsSERVER_INFO@@V?$allocator@PAUsSERVER_INFO@@@std@@@std@@@2@@std@@PAPAV12@00@Z 004102d0 f i ServerInfoManager.obj
 0001:0000f2d0       ??$_Unchecked_move_backward@PAPAV?$vector@PAV?$vector@PAUsSERVER_NODE@@V?$allocator@PAUsSERVER_NODE@@@std@@@std@@V?$allocator@PAV?$vector@PAUsSERVER_NODE@@V?$allocator@PAUsSERVER_NODE@@@std@@@std@@@2@@std@@PAPAV12@@stdext@@YAPAPAV?$vector@PAV?$vector@PAUsSERVER_NODE@@V?$allocator@PAUsSERVER_NODE@@@std@@@std@@V?$allocator@PAV?$vector@PAUsSERVER_NODE@@V?$allocator@PAUsSERVER_NODE@@@std@@@std@@@2@@std@@PAPAV12@00@Z 004102d0 f i ServerSessionManager.obj
 0001:0000f2d0       ??$_Unchecked_move_backward@PAPAUsSERVER_NODE@@PAPAU1@@stdext@@YAPAPAUsSERVER_NODE@@PAPAU1@00@Z 004102d0 f i ServerSessionManager.obj
 0001:0000f2d0       ??$_Unchecked_move_backward@PAPAUsSERVER_INFO@@PAPAU1@@stdext@@YAPAPAUsSERVER_INFO@@PAPAU1@00@Z 004102d0 f i ServerInfoManager.obj
 0001:0000f2d0       ??$_Unchecked_move_backward@PAPAV?$vector@PAUsSERVER_INFO@@V?$allocator@PAUsSERVER_INFO@@@std@@@std@@PAPAV12@@stdext@@YAPAPAV?$vector@PAUsSERVER_INFO@@V?$allocator@PAUsSERVER_INFO@@@std@@@std@@PAPAV12@00@Z 004102d0 f i ServerInfoManager.obj
 0001:0000f300       ?Release@?$FixedSizeChunkImpl@VFieldServerSession@@@internal@util@@UAEXXZ 00410300 f i ServerSessionManager.obj
 0001:0000f300       ?Release@?$FixedSizeChunkImpl@VAgentServerSession@@@internal@util@@UAEXXZ 00410300 f i ServerSessionManager.obj
 0001:0000f300       ?Release@?$FixedSizeChunkImpl@VAbuseUser@@@internal@util@@UAEXXZ 00410300 f i AbuseUserManager.obj
 0001:0000f300       ?Release@?$FixedSizeChunkImpl@VGuildServerSession@@@internal@util@@UAEXXZ 00410300 f i ServerSessionManager.obj
 0001:0000f300       ?Release@?$FixedSizeChunkImpl@VSolarAuthServerSession@@@internal@util@@UAEXXZ 00410300 f i ServerSessionManager.obj
 0001:0000f300       ?Release@?$FixedSizeChunkImpl@VTempServerSessionEx@@@internal@util@@UAEXXZ 00410300 f i ServerSessionManager.obj
 0001:0000f300       ?Release@?$FixedSizeChunkImpl@VAccountDBProxySession@@@internal@util@@UAEXXZ 00410300 f i ServerSessionManager.obj
 0001:0000f300       ?Release@?$FixedSizeChunkImpl@VWorldServerSession@@@internal@util@@UAEXXZ 00410300 f i ServerSessionManager.obj
 0001:0000f300       ?Release@?$FixedSizeChunkImpl@VBattleServerSession@@@internal@util@@UAEXXZ 00410300 f i ServerSessionManager.obj
 0001:0000f300       ?Release@?$FixedSizeChunkImpl@VGameDBProxySession@@@internal@util@@UAEXXZ 00410300 f i ServerSessionManager.obj
 0001:0000f300       ?Release@?$FixedSizeChunkImpl@VOpServerSession@@@internal@util@@UAEXXZ 00410300 f i ServerSessionManager.obj
 0001:0000f310       ?Free@?$FixedSizeChunkImpl@VGameDBProxySession@@@internal@util@@UAEXQAX@Z 00410310 f i ServerSessionManager.obj
 0001:0000f310       ?Free@?$FixedSizeChunkImpl@VGuildServerSession@@@internal@util@@UAEXQAX@Z 00410310 f i ServerSessionManager.obj
 0001:0000f310       ?Free@?$FixedSizeChunkImpl@VAccountDBProxySession@@@internal@util@@UAEXQAX@Z 00410310 f i ServerSessionManager.obj
 0001:0000f310       ?Free@?$FixedSizeChunkImpl@VAgentServerSession@@@internal@util@@UAEXQAX@Z 00410310 f i ServerSessionManager.obj
 0001:0000f310       ?Free@?$FixedSizeChunkImpl@VFieldServerSession@@@internal@util@@UAEXQAX@Z 00410310 f i ServerSessionManager.obj
 0001:0000f310       ?Free@?$FixedSizeChunkImpl@VBattleServerSession@@@internal@util@@UAEXQAX@Z 00410310 f i ServerSessionManager.obj
 0001:0000f310       ?Free@?$FixedSizeChunkImpl@VTempServerSessionEx@@@internal@util@@UAEXQAX@Z 00410310 f i ServerSessionManager.obj
 0001:0000f310       ?Free@?$FixedSizeChunkImpl@VSolarAuthServerSession@@@internal@util@@UAEXQAX@Z 00410310 f i ServerSessionManager.obj
 0001:0000f310       ?Free@?$FixedSizeChunkImpl@VWorldServerSession@@@internal@util@@UAEXQAX@Z 00410310 f i ServerSessionManager.obj
 0001:0000f310       ?Free@?$FixedSizeChunkImpl@VOpServerSession@@@internal@util@@UAEXQAX@Z 00410310 f i ServerSessionManager.obj
 0001:0000f340       ?Alloc@?$FixedSizeChunkImpl@VSolarAuthServerSession@@@internal@util@@UAEPAXXZ 00410340 f i ServerSessionManager.obj
 0001:0000f3b0       ??_E?$FixedSizeChunkImpl@VAgentServerSession@@@internal@util@@UAEPAXI@Z 004103b0 f i ServerSessionManager.obj
 0001:0000f3b0       ??_G?$FixedSizeChunkImpl@VAgentServerSession@@@internal@util@@UAEPAXI@Z 004103b0 f i ServerSessionManager.obj
 0001:0000f3e0       ??_E?$FixedSizeChunkImpl@VFieldServerSession@@@internal@util@@UAEPAXI@Z 004103e0 f i ServerSessionManager.obj
 0001:0000f3e0       ??_G?$FixedSizeChunkImpl@VFieldServerSession@@@internal@util@@UAEPAXI@Z 004103e0 f i ServerSessionManager.obj
 0001:0000f410       ??_E?$FixedSizeChunkImpl@VBattleServerSession@@@internal@util@@UAEPAXI@Z 00410410 f i ServerSessionManager.obj
 0001:0000f410       ??_G?$FixedSizeChunkImpl@VBattleServerSession@@@internal@util@@UAEPAXI@Z 00410410 f i ServerSessionManager.obj
 0001:0000f440       ??_G?$FixedSizeChunkImpl@VGameDBProxySession@@@internal@util@@UAEPAXI@Z 00410440 f i ServerSessionManager.obj
 0001:0000f440       ??_E?$FixedSizeChunkImpl@VGameDBProxySession@@@internal@util@@UAEPAXI@Z 00410440 f i ServerSessionManager.obj
 0001:0000f470       ??_G?$FixedSizeChunkImpl@VWorldServerSession@@@internal@util@@UAEPAXI@Z 00410470 f i ServerSessionManager.obj
 0001:0000f470       ??_E?$FixedSizeChunkImpl@VWorldServerSession@@@internal@util@@UAEPAXI@Z 00410470 f i ServerSessionManager.obj
 0001:0000f4a0       ??_E?$FixedSizeChunkImpl@VGuildServerSession@@@internal@util@@UAEPAXI@Z 004104a0 f i ServerSessionManager.obj
 0001:0000f4a0       ??_G?$FixedSizeChunkImpl@VGuildServerSession@@@internal@util@@UAEPAXI@Z 004104a0 f i ServerSessionManager.obj
 0001:0000f4d0       ??_E?$FixedSizeChunkImpl@VAccountDBProxySession@@@internal@util@@UAEPAXI@Z 004104d0 f i ServerSessionManager.obj
 0001:0000f4d0       ??_G?$FixedSizeChunkImpl@VAccountDBProxySession@@@internal@util@@UAEPAXI@Z 004104d0 f i ServerSessionManager.obj
 0001:0000f500       ??_G?$FixedSizeChunkImpl@VOpServerSession@@@internal@util@@UAEPAXI@Z 00410500 f i ServerSessionManager.obj
 0001:0000f500       ??_E?$FixedSizeChunkImpl@VOpServerSession@@@internal@util@@UAEPAXI@Z 00410500 f i ServerSessionManager.obj
 0001:0000f530       ??_E?$FixedSizeChunkImpl@VTempServerSessionEx@@@internal@util@@UAEPAXI@Z 00410530 f i ServerSessionManager.obj
 0001:0000f530       ??_G?$FixedSizeChunkImpl@VTempServerSessionEx@@@internal@util@@UAEPAXI@Z 00410530 f i ServerSessionManager.obj
 0001:0000f560       ??_G?$FixedSizeChunkImpl@VSolarAuthServerSession@@@internal@util@@UAEPAXI@Z 00410560 f i ServerSessionManager.obj
 0001:0000f560       ??_E?$FixedSizeChunkImpl@VSolarAuthServerSession@@@internal@util@@UAEPAXI@Z 00410560 f i ServerSessionManager.obj
 0001:0000f590       ?FindServer@?$ServerTree@UsSERVER_INFO@@@@QAEPAUsSERVER_INFO@@UtagSERVER_KEY@@@Z 00410590 f i ServerInfoManager.obj
 0001:0000f590       ?FindServer@?$ServerTree@UsSERVER_NODE@@@@QAEPAUsSERVER_NODE@@UtagSERVER_KEY@@@Z 00410590 f i ServerSessionManager.obj
 0001:0000f680       ?erase@?$vector@PAUsSERVER_INFO@@V?$allocator@PAUsSERVER_INFO@@@std@@@std@@QAE?AV?$_Vector_iterator@PAUsSERVER_INFO@@V?$allocator@PAUsSERVER_INFO@@@std@@@2@V?$_Vector_const_iterator@PAUsSERVER_INFO@@V?$allocator@PAUsSERVER_INFO@@@std@@@2@@Z 00410680 f i ServerInfoManager.obj
 0001:0000f680       ?erase@?$vector@PAUsSERVER_NODE@@V?$allocator@PAUsSERVER_NODE@@@std@@@std@@QAE?AV?$_Vector_iterator@PAUsSERVER_NODE@@V?$allocator@PAUsSERVER_NODE@@@std@@@2@V?$_Vector_const_iterator@PAUsSERVER_NODE@@V?$allocator@PAUsSERVER_NODE@@@std@@@2@@Z 00410680 f i ServerSessionManager.obj
 0001:0000f6e0       ?CreateImpl@?$CMemoryPoolFactory@VSolarAuthServerSession@@@util@@QAEXH@Z 004106e0 f i ServerSessionManager.obj
 0001:0000f800       ?Release@?$ServerTree@UsSERVER_NODE@@@@AAEXXZ 00410800 f i ServerSessionManager.obj
 0001:0000f800       ?Release@?$ServerTree@UsSERVER_INFO@@@@AAEXXZ 00410800 f i ServerInfoManager.obj
 0001:0000fa00       ??1?$ServerTree@UsSERVER_NODE@@@@QAE@XZ 00410a00 f i ServerSessionManager.obj
 0001:0000fa10       ?RemoveServer@?$ServerTree@UsSERVER_NODE@@@@QAEXUtagSERVER_KEY@@@Z 00410a10 f i ServerSessionManager.obj
 0001:0000fb80       ?Initialize@?$CMemoryPoolFactory@VSolarAuthServerSession@@@util@@UAE_NIIPBDPAX@Z 00410b80 f i ServerSessionManager.obj
 0001:0000fbb0       ?insert@?$vector@PAUsSERVER_INFO@@V?$allocator@PAUsSERVER_INFO@@@std@@@std@@QAE?AV?$_Vector_iterator@PAUsSERVER_INFO@@V?$allocator@PAUsSERVER_INFO@@@std@@@2@V?$_Vector_const_iterator@PAUsSERVER_INFO@@V?$allocator@PAUsSERVER_INFO@@@std@@@2@ABQAUsSERVER_INFO@@@Z 00410bb0 f i ServerInfoManager.obj
 0001:0000fbb0       ?insert@?$vector@PAUsSERVER_NODE@@V?$allocator@PAUsSERVER_NODE@@@std@@@std@@QAE?AV?$_Vector_iterator@PAUsSERVER_NODE@@V?$allocator@PAUsSERVER_NODE@@@std@@@2@V?$_Vector_const_iterator@PAUsSERVER_NODE@@V?$allocator@PAUsSERVER_NODE@@@std@@@2@ABQAUsSERVER_NODE@@@Z 00410bb0 f i ServerSessionManager.obj
 0001:0000fc60       ?push_back@?$vector@PAUsSERVER_INFO@@V?$allocator@PAUsSERVER_INFO@@@std@@@std@@QAEXABQAUsSERVER_INFO@@@Z 00410c60 f i ServerInfoManager.obj
 0001:0000fc60       ?push_back@?$vector@PAUsSERVER_NODE@@V?$allocator@PAUsSERVER_NODE@@@std@@@std@@QAEXABQAUsSERVER_NODE@@@Z 00410c60 f i ServerSessionManager.obj
 0001:0000fcd0       ?Initialize@?$ServerTree@UsSERVER_NODE@@@@AAEXXZ 00410cd0 f i ServerSessionManager.obj
 0001:0000fda0       ?AddServer@?$ServerTree@UsSERVER_NODE@@@@QAEPAUsSERVER_NODE@@UtagSERVER_KEY@@PAU2@@Z 00410da0 f i ServerSessionManager.obj
 0001:0000ff10       ??0TempServerSessionEx@@QAE@XZ 00410f10 f i ServerSessionManager.obj
 0001:0000ff90       ?SendPacket@ServerSession@@UAEHPAUMSG_BASE@@G@Z 00410f90 f i ServerSessionManager.obj
 0001:0000ff90       ?SendPacket@ServerSession@@UAEHPAUMSG_BASE_INTERNAL@@G@Z 00410f90 f i ServerSessionManager.obj
 0001:0000ffa0       ?GetServerType@TempServerSession@@UAE?AW4eSERVER_TYPE@@XZ 00410fa0 f i ServerSessionManager.obj
 0001:0000ffb0       ?Init@TempServerSessionEx@@UAEXXZ 00410fb0 f i ServerSessionManager.obj
 0001:0000ffc0       ?Release@TempServerSessionEx@@UAEXXZ 00410fc0 f i ServerSessionManager.obj
 0001:0000ffd0       ??1TempServerSessionEx@@UAE@XZ 00410fd0 f i ServerSessionManager.obj
 0001:00010030       ??_GTempServerSessionEx@@UAEPAXI@Z 00411030 f i ServerSessionManager.obj
 0001:00010030       ??_ETempServerSessionEx@@UAEPAXI@Z 00411030 f i ServerSessionManager.obj
 0001:00010050       ?Alloc@?$NotUseChunkImpl@VTempServerSessionEx@@@internal@util@@UAEPAXXZ 00411050 f i ServerSessionManager.obj
 0001:000100c0       ?Alloc@?$FixedSizeChunkImpl@VTempServerSessionEx@@@internal@util@@UAEPAXXZ 004110c0 f i ServerSessionManager.obj
 0001:00010130       ?Create@?$VariableSizeChunkImpl@VTempServerSessionEx@@@internal@util@@CAXPAX@Z 00411130 f i ServerSessionManager.obj
 0001:00010180       ??0ServerSessionEx@@QAE@XZ 00411180 f i ServerSessionManager.obj
 0001:00010200       ??1ServerSessionEx@@UAE@XZ 00411200 f i ServerSessionManager.obj
 0001:00010260       ??_EServerSessionEx@@UAEPAXI@Z 00411260 f i ServerSessionManager.obj
 0001:00010260       ??_GServerSessionEx@@UAEPAXI@Z 00411260 f i ServerSessionManager.obj
 0001:00010280       ?GetServerType@AccountDBProxySession@@UAE?AW4eSERVER_TYPE@@XZ 00411280 f i ServerSessionManager.obj
 0001:00010290       ??_GAccountDBProxySession@@UAEPAXI@Z 00411290 f i ServerSessionManager.obj
 0001:00010290       ??_EAccountDBProxySession@@UAEPAXI@Z 00411290 f i ServerSessionManager.obj
 0001:000102c0       ?GetServerType@AgentServerSession@@UAE?AW4eSERVER_TYPE@@XZ 004112c0 f i ServerSessionManager.obj
 0001:000102c0       ?DoRelease@PROCESS_TIMER_PROCESS@@UAEHXZ 004112c0 f i MasterServerInfo.obj
 0001:000102d0       ??_GAgentServerSession@@UAEPAXI@Z 004112d0 f i ServerSessionManager.obj
 0001:000102d0       ??_EAgentServerSession@@UAEPAXI@Z 004112d0 f i ServerSessionManager.obj
 0001:00010300       ?GetServerType@GameServerSession@@UAE?AW4eSERVER_TYPE@@XZ 00411300 f i ServerSessionManager.obj
 0001:00010310       ?GetServerType@BattleServerSession@@UAE?AW4eSERVER_TYPE@@XZ 00411310 f i ServerSessionManager.obj
 0001:00010320       ?GetServerType@FieldServerSession@@UAE?AW4eSERVER_TYPE@@XZ 00411320 f i ServerSessionManager.obj
 0001:00010330       ??_EBattleServerSession@@UAEPAXI@Z 00411330 f i ServerSessionManager.obj
 0001:00010330       ??_GBattleServerSession@@UAEPAXI@Z 00411330 f i ServerSessionManager.obj
 0001:00010330       ??_EFieldServerSession@@UAEPAXI@Z 00411330 f i ServerSessionManager.obj
 0001:00010330       ??_EGameServerSession@@UAEPAXI@Z 00411330 f i ServerSessionManager.obj
 0001:00010330       ??_GGameServerSession@@UAEPAXI@Z 00411330 f i ServerSessionManager.obj
 0001:00010330       ??_GFieldServerSession@@UAEPAXI@Z 00411330 f i ServerSessionManager.obj
 0001:00010360       ?GetServerType@GameDBProxySession@@UAE?AW4eSERVER_TYPE@@XZ 00411360 f i ServerSessionManager.obj
 0001:00010370       ??_EGameDBProxySession@@UAEPAXI@Z 00411370 f i ServerSessionManager.obj
 0001:00010370       ??_GGameDBProxySession@@UAEPAXI@Z 00411370 f i ServerSessionManager.obj
 0001:000103a0       ?GetServerType@GuildServerSession@@UAE?AW4eSERVER_TYPE@@XZ 004113a0 f i ServerSessionManager.obj
 0001:000103b0       ??_EGuildServerSession@@UAEPAXI@Z 004113b0 f i ServerSessionManager.obj
 0001:000103b0       ??_GGuildServerSession@@UAEPAXI@Z 004113b0 f i ServerSessionManager.obj
 0001:000103e0       ?GetServerType@OpServerSession@@UAE?AW4eSERVER_TYPE@@XZ 004113e0 f i ServerSessionManager.obj
 0001:000103f0       ??_EOpServerSession@@UAEPAXI@Z 004113f0 f i ServerSessionManager.obj
 0001:000103f0       ??_GOpServerSession@@UAEPAXI@Z 004113f0 f i ServerSessionManager.obj
 0001:00010420       ?GetServerType@WorldServerSession@@UAE?AW4eSERVER_TYPE@@XZ 00411420 f i ServerSessionManager.obj
 0001:00010430       ??_EWorldServerSession@@UAEPAXI@Z 00411430 f i ServerSessionManager.obj
 0001:00010430       ??_GWorldServerSession@@UAEPAXI@Z 00411430 f i ServerSessionManager.obj
 0001:00010460       ?Alloc@?$NotUseChunkImpl@VAgentServerSession@@@internal@util@@UAEPAXXZ 00411460 f i ServerSessionManager.obj
 0001:000104d0       ?Alloc@?$FixedSizeChunkImpl@VAgentServerSession@@@internal@util@@UAEPAXXZ 004114d0 f i ServerSessionManager.obj
 0001:00010540       ?Alloc@?$NotUseChunkImpl@VFieldServerSession@@@internal@util@@UAEPAXXZ 00411540 f i ServerSessionManager.obj
 0001:000105b0       ?Alloc@?$FixedSizeChunkImpl@VFieldServerSession@@@internal@util@@UAEPAXXZ 004115b0 f i ServerSessionManager.obj
 0001:00010620       ?Alloc@?$NotUseChunkImpl@VBattleServerSession@@@internal@util@@UAEPAXXZ 00411620 f i ServerSessionManager.obj
 0001:00010690       ?Alloc@?$FixedSizeChunkImpl@VBattleServerSession@@@internal@util@@UAEPAXXZ 00411690 f i ServerSessionManager.obj
 0001:00010700       ?Alloc@?$NotUseChunkImpl@VGameDBProxySession@@@internal@util@@UAEPAXXZ 00411700 f i ServerSessionManager.obj
 0001:00010770       ?Alloc@?$FixedSizeChunkImpl@VGameDBProxySession@@@internal@util@@UAEPAXXZ 00411770 f i ServerSessionManager.obj
 0001:000107e0       ?Alloc@?$NotUseChunkImpl@VWorldServerSession@@@internal@util@@UAEPAXXZ 004117e0 f i ServerSessionManager.obj
 0001:00010850       ?Alloc@?$FixedSizeChunkImpl@VWorldServerSession@@@internal@util@@UAEPAXXZ 00411850 f i ServerSessionManager.obj
 0001:000108c0       ?Alloc@?$NotUseChunkImpl@VGuildServerSession@@@internal@util@@UAEPAXXZ 004118c0 f i ServerSessionManager.obj
 0001:00010930       ?Alloc@?$FixedSizeChunkImpl@VGuildServerSession@@@internal@util@@UAEPAXXZ 00411930 f i ServerSessionManager.obj
 0001:000109a0       ?Alloc@?$NotUseChunkImpl@VAccountDBProxySession@@@internal@util@@UAEPAXXZ 004119a0 f i ServerSessionManager.obj
 0001:00010a10       ?Alloc@?$FixedSizeChunkImpl@VAccountDBProxySession@@@internal@util@@UAEPAXXZ 00411a10 f i ServerSessionManager.obj
 0001:00010a80       ?Alloc@?$NotUseChunkImpl@VOpServerSession@@@internal@util@@UAEPAXXZ 00411a80 f i ServerSessionManager.obj
 0001:00010af0       ?Alloc@?$FixedSizeChunkImpl@VOpServerSession@@@internal@util@@UAEPAXXZ 00411af0 f i ServerSessionManager.obj
 0001:00010b60       ??0?$VariableSizeChunkImpl@VTempServerSessionEx@@@internal@util@@QAE@XZ 00411b60 f i ServerSessionManager.obj
 0001:00010bc0       ?Initialize@?$VariableSizeChunkImpl@VAgentServerSession@@@internal@util@@UAE_NIIPBD@Z 00411bc0 f i ServerSessionManager.obj
 0001:00010bc0       ?Initialize@?$VariableSizeChunkImpl@VAccountDBProxySession@@@internal@util@@UAE_NIIPBD@Z 00411bc0 f i ServerSessionManager.obj
 0001:00010bc0       ?Initialize@?$VariableSizeChunkImpl@VFieldServerSession@@@internal@util@@UAE_NIIPBD@Z 00411bc0 f i ServerSessionManager.obj
 0001:00010bc0       ?Initialize@?$VariableSizeChunkImpl@VSolarAuthServerSession@@@internal@util@@UAE_NIIPBD@Z 00411bc0 f i ServerSessionManager.obj
 0001:00010bc0       ?Initialize@?$VariableSizeChunkImpl@VGameDBProxySession@@@internal@util@@UAE_NIIPBD@Z 00411bc0 f i ServerSessionManager.obj
 0001:00010bc0       ?Initialize@?$VariableSizeChunkImpl@VTempServerSessionEx@@@internal@util@@UAE_NIIPBD@Z 00411bc0 f i ServerSessionManager.obj
 0001:00010bc0       ?Initialize@?$VariableSizeChunkImpl@VGuildServerSession@@@internal@util@@UAE_NIIPBD@Z 00411bc0 f i ServerSessionManager.obj
 0001:00010bc0       ?Initialize@?$VariableSizeChunkImpl@VOpServerSession@@@internal@util@@UAE_NIIPBD@Z 00411bc0 f i ServerSessionManager.obj
 0001:00010bc0       ?Initialize@?$VariableSizeChunkImpl@VWorldServerSession@@@internal@util@@UAE_NIIPBD@Z 00411bc0 f i ServerSessionManager.obj
 0001:00010bc0       ?Initialize@?$VariableSizeChunkImpl@VAbuseUser@@@internal@util@@UAE_NIIPBD@Z 00411bc0 f i AbuseUserManager.obj
 0001:00010bc0       ?Initialize@?$VariableSizeChunkImpl@VBattleServerSession@@@internal@util@@UAE_NIIPBD@Z 00411bc0 f i ServerSessionManager.obj
 0001:00010be0       ??1?$VariableSizeChunkImpl@VTempServerSessionEx@@@internal@util@@UAE@XZ 00411be0 f i ServerSessionManager.obj
 0001:00010c50       ??_G?$VariableSizeChunkImpl@VTempServerSessionEx@@@internal@util@@UAEPAXI@Z 00411c50 f i ServerSessionManager.obj
 0001:00010c50       ??_E?$VariableSizeChunkImpl@VTempServerSessionEx@@@internal@util@@UAEPAXI@Z 00411c50 f i ServerSessionManager.obj
 0001:00010c70       ?Create@?$VariableSizeChunkImpl@VAgentServerSession@@@internal@util@@CAXPAX@Z 00411c70 f i ServerSessionManager.obj
 0001:00010cd0       ?Create@?$VariableSizeChunkImpl@VFieldServerSession@@@internal@util@@CAXPAX@Z 00411cd0 f i ServerSessionManager.obj
 0001:00010d30       ?Create@?$VariableSizeChunkImpl@VBattleServerSession@@@internal@util@@CAXPAX@Z 00411d30 f i ServerSessionManager.obj
 0001:00010d90       ?Create@?$VariableSizeChunkImpl@VGameDBProxySession@@@internal@util@@CAXPAX@Z 00411d90 f i ServerSessionManager.obj
 0001:00010df0       ?Create@?$VariableSizeChunkImpl@VWorldServerSession@@@internal@util@@CAXPAX@Z 00411df0 f i ServerSessionManager.obj
 0001:00010e50       ?Create@?$VariableSizeChunkImpl@VGuildServerSession@@@internal@util@@CAXPAX@Z 00411e50 f i ServerSessionManager.obj
 0001:00010eb0       ?Create@?$VariableSizeChunkImpl@VAccountDBProxySession@@@internal@util@@CAXPAX@Z 00411eb0 f i ServerSessionManager.obj
 0001:00010f10       ?Create@?$VariableSizeChunkImpl@VOpServerSession@@@internal@util@@CAXPAX@Z 00411f10 f i ServerSessionManager.obj
 0001:00010f70       ?CreateImpl@?$CMemoryPoolFactory@VTempServerSessionEx@@@util@@QAEXH@Z 00411f70 f i ServerSessionManager.obj
 0001:00011090       ??0?$VariableSizeChunkImpl@VAgentServerSession@@@internal@util@@QAE@XZ 00412090 f i ServerSessionManager.obj
 0001:000110f0       ??1?$VariableSizeChunkImpl@VAgentServerSession@@@internal@util@@UAE@XZ 004120f0 f i ServerSessionManager.obj
 0001:00011160       ?SetTypeName@?$VariableSizeChunkImpl@VAgentServerSession@@@internal@util@@UAEXPBD@Z 00412160 f i ServerSessionManager.obj
 0001:00011160       ?SetTypeName@?$VariableSizeChunkImpl@VFieldServerSession@@@internal@util@@UAEXPBD@Z 00412160 f i ServerSessionManager.obj
 0001:00011160       ?SetTypeName@?$VariableSizeChunkImpl@VSolarAuthServerSession@@@internal@util@@UAEXPBD@Z 00412160 f i ServerSessionManager.obj
 0001:00011160       ?SetTypeName@?$VariableSizeChunkImpl@VGuildServerSession@@@internal@util@@UAEXPBD@Z 00412160 f i ServerSessionManager.obj
 0001:00011160       ?SetTypeName@?$VariableSizeChunkImpl@VAccountDBProxySession@@@internal@util@@UAEXPBD@Z 00412160 f i ServerSessionManager.obj
 0001:00011160       ?SetTypeName@?$VariableSizeChunkImpl@VAbuseUser@@@internal@util@@UAEXPBD@Z 00412160 f i AbuseUserManager.obj
 0001:00011160       ?SetTypeName@?$VariableSizeChunkImpl@VTempServerSessionEx@@@internal@util@@UAEXPBD@Z 00412160 f i ServerSessionManager.obj
 0001:00011160       ?SetTypeName@?$VariableSizeChunkImpl@VOpServerSession@@@internal@util@@UAEXPBD@Z 00412160 f i ServerSessionManager.obj
 0001:00011160       ?SetTypeName@?$VariableSizeChunkImpl@VBattleServerSession@@@internal@util@@UAEXPBD@Z 00412160 f i ServerSessionManager.obj
 0001:00011160       ?SetTypeName@?$VariableSizeChunkImpl@VWorldServerSession@@@internal@util@@UAEXPBD@Z 00412160 f i ServerSessionManager.obj
 0001:00011160       ?SetTypeName@?$VariableSizeChunkImpl@VGameDBProxySession@@@internal@util@@UAEXPBD@Z 00412160 f i ServerSessionManager.obj
 0001:00011170       ?GetNumberOfBands@?$VariableSizeChunkImpl@VSolarAuthServerSession@@@internal@util@@UBEHXZ 00412170 f i ServerSessionManager.obj
 0001:00011170       ?GetNumberOfBands@?$VariableSizeChunkImpl@VAgentServerSession@@@internal@util@@UBEHXZ 00412170 f i ServerSessionManager.obj
 0001:00011170       ?GetNumberOfBands@?$VariableSizeChunkImpl@VOpServerSession@@@internal@util@@UBEHXZ 00412170 f i ServerSessionManager.obj
 0001:00011170       ?GetNumberOfBands@?$VariableSizeChunkImpl@VFieldServerSession@@@internal@util@@UBEHXZ 00412170 f i ServerSessionManager.obj
 0001:00011170       ?GetNumberOfBands@?$VariableSizeChunkImpl@VBattleServerSession@@@internal@util@@UBEHXZ 00412170 f i ServerSessionManager.obj
 0001:00011170       ?GetNumberOfBands@?$VariableSizeChunkImpl@VAbuseUser@@@internal@util@@UBEHXZ 00412170 f i AbuseUserManager.obj
 0001:00011170       ?GetNumberOfBands@?$VariableSizeChunkImpl@VWorldServerSession@@@internal@util@@UBEHXZ 00412170 f i ServerSessionManager.obj
 0001:00011170       ?GetNumberOfBands@?$VariableSizeChunkImpl@VGuildServerSession@@@internal@util@@UBEHXZ 00412170 f i ServerSessionManager.obj
 0001:00011170       ?GetNumberOfBands@?$VariableSizeChunkImpl@VGameDBProxySession@@@internal@util@@UBEHXZ 00412170 f i ServerSessionManager.obj
 0001:00011170       ?GetNumberOfBands@?$VariableSizeChunkImpl@VTempServerSessionEx@@@internal@util@@UBEHXZ 00412170 f i ServerSessionManager.obj
 0001:00011170       ?GetNumberOfBands@?$VariableSizeChunkImpl@VAccountDBProxySession@@@internal@util@@UBEHXZ 00412170 f i ServerSessionManager.obj
 0001:00011180       ??_G?$VariableSizeChunkImpl@VAgentServerSession@@@internal@util@@UAEPAXI@Z 00412180 f i ServerSessionManager.obj
 0001:00011180       ??_E?$VariableSizeChunkImpl@VAgentServerSession@@@internal@util@@UAEPAXI@Z 00412180 f i ServerSessionManager.obj
 0001:000111a0       ??0?$VariableSizeChunkImpl@VFieldServerSession@@@internal@util@@QAE@XZ 004121a0 f i ServerSessionManager.obj
 0001:00011200       ??1?$VariableSizeChunkImpl@VFieldServerSession@@@internal@util@@UAE@XZ 00412200 f i ServerSessionManager.obj
 0001:00011270       ??_G?$VariableSizeChunkImpl@VFieldServerSession@@@internal@util@@UAEPAXI@Z 00412270 f i ServerSessionManager.obj
 0001:00011270       ??_E?$VariableSizeChunkImpl@VFieldServerSession@@@internal@util@@UAEPAXI@Z 00412270 f i ServerSessionManager.obj
 0001:00011290       ??0?$VariableSizeChunkImpl@VBattleServerSession@@@internal@util@@QAE@XZ 00412290 f i ServerSessionManager.obj
 0001:000112f0       ??1?$VariableSizeChunkImpl@VBattleServerSession@@@internal@util@@UAE@XZ 004122f0 f i ServerSessionManager.obj
 0001:00011360       ??_G?$VariableSizeChunkImpl@VBattleServerSession@@@internal@util@@UAEPAXI@Z 00412360 f i ServerSessionManager.obj
 0001:00011360       ??_E?$VariableSizeChunkImpl@VBattleServerSession@@@internal@util@@UAEPAXI@Z 00412360 f i ServerSessionManager.obj
 0001:00011380       ??0?$VariableSizeChunkImpl@VGameDBProxySession@@@internal@util@@QAE@XZ 00412380 f i ServerSessionManager.obj
 0001:000113e0       ??1?$VariableSizeChunkImpl@VGameDBProxySession@@@internal@util@@UAE@XZ 004123e0 f i ServerSessionManager.obj
 0001:00011450       ??_G?$VariableSizeChunkImpl@VGameDBProxySession@@@internal@util@@UAEPAXI@Z 00412450 f i ServerSessionManager.obj
 0001:00011450       ??_E?$VariableSizeChunkImpl@VGameDBProxySession@@@internal@util@@UAEPAXI@Z 00412450 f i ServerSessionManager.obj
 0001:00011470       ??0?$VariableSizeChunkImpl@VWorldServerSession@@@internal@util@@QAE@XZ 00412470 f i ServerSessionManager.obj
 0001:000114d0       ??1?$VariableSizeChunkImpl@VWorldServerSession@@@internal@util@@UAE@XZ 004124d0 f i ServerSessionManager.obj
 0001:00011540       ??_G?$VariableSizeChunkImpl@VWorldServerSession@@@internal@util@@UAEPAXI@Z 00412540 f i ServerSessionManager.obj
 0001:00011540       ??_E?$VariableSizeChunkImpl@VWorldServerSession@@@internal@util@@UAEPAXI@Z 00412540 f i ServerSessionManager.obj
 0001:00011560       ??0?$VariableSizeChunkImpl@VGuildServerSession@@@internal@util@@QAE@XZ 00412560 f i ServerSessionManager.obj
 0001:000115c0       ?Alloc@?$VariableSizeChunkImpl@VAgentServerSession@@@internal@util@@UAEPAXXZ 004125c0 f i ServerSessionManager.obj
 0001:000115c0       ?Alloc@?$VariableSizeChunkImpl@VGuildServerSession@@@internal@util@@UAEPAXXZ 004125c0 f i ServerSessionManager.obj
 0001:000115c0       ?Alloc@?$VariableSizeChunkImpl@VBattleServerSession@@@internal@util@@UAEPAXXZ 004125c0 f i ServerSessionManager.obj
 0001:000115c0       ?Alloc@?$VariableSizeChunkImpl@VSolarAuthServerSession@@@internal@util@@UAEPAXXZ 004125c0 f i ServerSessionManager.obj
 0001:000115c0       ?Alloc@?$VariableSizeChunkImpl@VGameDBProxySession@@@internal@util@@UAEPAXXZ 004125c0 f i ServerSessionManager.obj
 0001:000115c0       ?Alloc@?$VariableSizeChunkImpl@VAbuseUser@@@internal@util@@UAEPAXXZ 004125c0 f i AbuseUserManager.obj
 0001:000115c0       ?Alloc@?$VariableSizeChunkImpl@VOpServerSession@@@internal@util@@UAEPAXXZ 004125c0 f i ServerSessionManager.obj
 0001:000115c0       ?Alloc@?$VariableSizeChunkImpl@VWorldServerSession@@@internal@util@@UAEPAXXZ 004125c0 f i ServerSessionManager.obj
 0001:000115c0       ?Alloc@?$VariableSizeChunkImpl@VFieldServerSession@@@internal@util@@UAEPAXXZ 004125c0 f i ServerSessionManager.obj
 0001:000115c0       ?Alloc@?$VariableSizeChunkImpl@VAccountDBProxySession@@@internal@util@@UAEPAXXZ 004125c0 f i ServerSessionManager.obj
 0001:000115c0       ?Alloc@?$VariableSizeChunkImpl@VTempServerSessionEx@@@internal@util@@UAEPAXXZ 004125c0 f i ServerSessionManager.obj
 0001:000115d0       ??1?$VariableSizeChunkImpl@VGuildServerSession@@@internal@util@@UAE@XZ 004125d0 f i ServerSessionManager.obj
 0001:00011640       ??_G?$VariableSizeChunkImpl@VGuildServerSession@@@internal@util@@UAEPAXI@Z 00412640 f i ServerSessionManager.obj
 0001:00011640       ??_E?$VariableSizeChunkImpl@VGuildServerSession@@@internal@util@@UAEPAXI@Z 00412640 f i ServerSessionManager.obj
 0001:00011660       ??0?$VariableSizeChunkImpl@VAccountDBProxySession@@@internal@util@@QAE@XZ 00412660 f i ServerSessionManager.obj
 0001:000116c0       ?Free@?$VariableSizeChunkImpl@VAccountDBProxySession@@@internal@util@@UAEXQAX@Z 004126c0 f i ServerSessionManager.obj
 0001:000116c0       ?Free@?$VariableSizeChunkImpl@VSolarAuthServerSession@@@internal@util@@UAEXQAX@Z 004126c0 f i ServerSessionManager.obj
 0001:000116c0       ?Free@?$VariableSizeChunkImpl@VFieldServerSession@@@internal@util@@UAEXQAX@Z 004126c0 f i ServerSessionManager.obj
 0001:000116c0       ?Free@?$VariableSizeChunkImpl@VTempServerSessionEx@@@internal@util@@UAEXQAX@Z 004126c0 f i ServerSessionManager.obj
 0001:000116c0       ?Free@?$VariableSizeChunkImpl@VAbuseUser@@@internal@util@@UAEXQAX@Z 004126c0 f i AbuseUserManager.obj
 0001:000116c0       ?Free@?$VariableSizeChunkImpl@VGameDBProxySession@@@internal@util@@UAEXQAX@Z 004126c0 f i ServerSessionManager.obj
 0001:000116c0       ?Free@?$VariableSizeChunkImpl@VGuildServerSession@@@internal@util@@UAEXQAX@Z 004126c0 f i ServerSessionManager.obj
 0001:000116c0       ?Free@?$VariableSizeChunkImpl@VOpServerSession@@@internal@util@@UAEXQAX@Z 004126c0 f i ServerSessionManager.obj
 0001:000116c0       ?Free@?$VariableSizeChunkImpl@VAgentServerSession@@@internal@util@@UAEXQAX@Z 004126c0 f i ServerSessionManager.obj
 0001:000116c0       ?Free@?$VariableSizeChunkImpl@VBattleServerSession@@@internal@util@@UAEXQAX@Z 004126c0 f i ServerSessionManager.obj
 0001:000116c0       ?Free@?$VariableSizeChunkImpl@VWorldServerSession@@@internal@util@@UAEXQAX@Z 004126c0 f i ServerSessionManager.obj
 0001:000116d0       ??1?$VariableSizeChunkImpl@VAccountDBProxySession@@@internal@util@@UAE@XZ 004126d0 f i ServerSessionManager.obj
 0001:00011740       ??_G?$VariableSizeChunkImpl@VAccountDBProxySession@@@internal@util@@UAEPAXI@Z 00412740 f i ServerSessionManager.obj
 0001:00011740       ??_E?$VariableSizeChunkImpl@VAccountDBProxySession@@@internal@util@@UAEPAXI@Z 00412740 f i ServerSessionManager.obj
 0001:00011760       ??0?$VariableSizeChunkImpl@VOpServerSession@@@internal@util@@QAE@XZ 00412760 f i ServerSessionManager.obj
 0001:000117c0       ??1?$VariableSizeChunkImpl@VOpServerSession@@@internal@util@@UAE@XZ 004127c0 f i ServerSessionManager.obj
 0001:00011830       ?GetAvailableNumberOfTypes@?$VariableSizeChunkImpl@VAbuseUser@@@internal@util@@UBEHXZ 00412830 f i AbuseUserManager.obj
 0001:00011830       ?GetAvailableNumberOfTypes@?$VariableSizeChunkImpl@VAccountDBProxySession@@@internal@util@@UBEHXZ 00412830 f i ServerSessionManager.obj
 0001:00011830       ?GetAvailableNumberOfTypes@?$VariableSizeChunkImpl@VWorldServerSession@@@internal@util@@UBEHXZ 00412830 f i ServerSessionManager.obj
 0001:00011830       ?GetAvailableNumberOfTypes@?$VariableSizeChunkImpl@VGameDBProxySession@@@internal@util@@UBEHXZ 00412830 f i ServerSessionManager.obj
 0001:00011830       ?GetAvailableNumberOfTypes@?$VariableSizeChunkImpl@VTempServerSessionEx@@@internal@util@@UBEHXZ 00412830 f i ServerSessionManager.obj
 0001:00011830       ?GetAvailableNumberOfTypes@?$VariableSizeChunkImpl@VBattleServerSession@@@internal@util@@UBEHXZ 00412830 f i ServerSessionManager.obj
 0001:00011830       ?GetAvailableNumberOfTypes@?$VariableSizeChunkImpl@VSolarAuthServerSession@@@internal@util@@UBEHXZ 00412830 f i ServerSessionManager.obj
 0001:00011830       ?GetAvailableNumberOfTypes@?$VariableSizeChunkImpl@VOpServerSession@@@internal@util@@UBEHXZ 00412830 f i ServerSessionManager.obj
 0001:00011830       ?GetAvailableNumberOfTypes@?$VariableSizeChunkImpl@VAgentServerSession@@@internal@util@@UBEHXZ 00412830 f i ServerSessionManager.obj
 0001:00011830       ?GetAvailableNumberOfTypes@?$VariableSizeChunkImpl@VGuildServerSession@@@internal@util@@UBEHXZ 00412830 f i ServerSessionManager.obj
 0001:00011830       ?GetAvailableNumberOfTypes@?$VariableSizeChunkImpl@VFieldServerSession@@@internal@util@@UBEHXZ 00412830 f i ServerSessionManager.obj
 0001:00011840       ??_G?$VariableSizeChunkImpl@VOpServerSession@@@internal@util@@UAEPAXI@Z 00412840 f i ServerSessionManager.obj
 0001:00011840       ??_E?$VariableSizeChunkImpl@VOpServerSession@@@internal@util@@UAEPAXI@Z 00412840 f i ServerSessionManager.obj
 0001:00011860       ?Initialize@?$CMemoryPoolFactory@VTempServerSessionEx@@@util@@UAE_NIIPBDPAX@Z 00412860 f i ServerSessionManager.obj
 0001:00011890       ?CreateImpl@?$CMemoryPoolFactory@VAgentServerSession@@@util@@QAEXH@Z 00412890 f i ServerSessionManager.obj
 0001:000119b0       ?CreateImpl@?$CMemoryPoolFactory@VFieldServerSession@@@util@@QAEXH@Z 004129b0 f i ServerSessionManager.obj
 0001:00011ad0       ?CreateImpl@?$CMemoryPoolFactory@VBattleServerSession@@@util@@QAEXH@Z 00412ad0 f i ServerSessionManager.obj
 0001:00011bf0       ?CreateImpl@?$CMemoryPoolFactory@VGameDBProxySession@@@util@@QAEXH@Z 00412bf0 f i ServerSessionManager.obj
 0001:00011d10       ?CreateImpl@?$CMemoryPoolFactory@VWorldServerSession@@@util@@QAEXH@Z 00412d10 f i ServerSessionManager.obj
 0001:00011e30       ?CreateImpl@?$CMemoryPoolFactory@VGuildServerSession@@@util@@QAEXH@Z 00412e30 f i ServerSessionManager.obj
 0001:00011f50       ?CreateImpl@?$CMemoryPoolFactory@VAccountDBProxySession@@@util@@QAEXH@Z 00412f50 f i ServerSessionManager.obj
 0001:00012070       ?CreateImpl@?$CMemoryPoolFactory@VOpServerSession@@@util@@QAEXH@Z 00413070 f i ServerSessionManager.obj
 0001:00012190       ?Initialize@?$CMemoryPoolFactory@VAgentServerSession@@@util@@UAE_NIIPBDPAX@Z 00413190 f i ServerSessionManager.obj
 0001:000121c0       ?Initialize@?$CMemoryPoolFactory@VFieldServerSession@@@util@@UAE_NIIPBDPAX@Z 004131c0 f i ServerSessionManager.obj
 0001:000121f0       ?Initialize@?$CMemoryPoolFactory@VBattleServerSession@@@util@@UAE_NIIPBDPAX@Z 004131f0 f i ServerSessionManager.obj
 0001:00012220       ?Initialize@?$CMemoryPoolFactory@VGameDBProxySession@@@util@@UAE_NIIPBDPAX@Z 00413220 f i ServerSessionManager.obj
 0001:00012250       ?Initialize@?$CMemoryPoolFactory@VWorldServerSession@@@util@@UAE_NIIPBDPAX@Z 00413250 f i ServerSessionManager.obj
 0001:00012280       ?Initialize@?$CMemoryPoolFactory@VGuildServerSession@@@util@@UAE_NIIPBDPAX@Z 00413280 f i ServerSessionManager.obj
 0001:000122b0       ?Initialize@?$CMemoryPoolFactory@VAccountDBProxySession@@@util@@UAE_NIIPBDPAX@Z 004132b0 f i ServerSessionManager.obj
 0001:000122e0       ?Initialize@?$CMemoryPoolFactory@VOpServerSession@@@util@@UAE_NIIPBDPAX@Z 004132e0 f i ServerSessionManager.obj
 0001:00012310       ?SendServerType@SolarAuthServerSession@@MAEXXZ 00413310 f   SolarAuthServerSession.obj
 0001:00012320       ?SendHeartbeatPacket@SolarAuthServerSession@@MAEXXZ 00413320 f   SolarAuthServerSession.obj
 0001:00012330       ?Send@SolarAuthServerSession@@UAEHPAEG@Z 00413330 f   SolarAuthServerSession.obj
 0001:00012340       ?SendPacket@SolarAuthServerSession@@UAEHPAUMSG_BASE@@G@Z 00413340 f   SolarAuthServerSession.obj
 0001:00012350       ?OnRedirect@SolarAuthServerSession@@MAEXKQAUMSG_SERVER_TYPE@@@Z 00413350 f   SolarAuthServerSession.obj
 0001:00012360       ?OnConnect@SolarAuthServerSession@@MAEXHK@Z 00413360 f   SolarAuthServerSession.obj
 0001:000123b0       ?ChangeObjectNoCrypt@SolarAuthServerSessionCrypted@@SAXPAV1@@Z 004133b0 f   SolarAuthServerSession.obj
 0001:000123d0       ?ChangeObjectCrypted@SolarAuthServerSessionCrypted@@SAXPAVSolarAuthServerSession@@@Z 004133d0 f   SolarAuthServerSession.obj
 0001:000123f0       ?Init@SolarAuthServerSession@@UAEXXZ 004133f0 f   SolarAuthServerSession.obj
 0001:00012440       ?Release@SolarAuthServerSession@@UAEXXZ 00413440 f   SolarAuthServerSession.obj
 0001:00012480       ?OnDisconnect@SolarAuthServerSession@@MAEXXZ 00413480 f   SolarAuthServerSession.obj
 0001:00012500       ?OnRecv@SolarAuthServerSession@@MAEXPAEG@Z 00413500 f   SolarAuthServerSession.obj
 0001:000125a0       ?SendPacket@SolarAuthServerSessionCrypted@@UAEHPAUMSG_BASE@@G@Z 004135a0 f   SolarAuthServerSession.obj
 0001:00012690       ?OnRecv@SolarAuthServerSessionCrypted@@MAEXPAEG@Z 00413690 f   SolarAuthServerSession.obj
 0001:000127b0       ?Init_ClientRoleManager@Crypt@SolarAuthServerSession@@SAXPAV2@PAUMSG_SM_CRYPTOGRAPHY_KEY@@@Z 004137b0 f   SolarAuthServerSession.obj
 0001:00012800       ?StartPacketCrypt@Crypt@SolarAuthServerSession@@SAXPAV2@@Z 00413800 f   SolarAuthServerSession.obj
 0001:00012840       ??0SolarAuthServerSession@@QAE@XZ 00413840 f   SolarAuthServerSession.obj
 0001:000128b0       ??1SolarAuthServerSession@@UAE@XZ 004138b0 f   SolarAuthServerSession.obj
 0001:000128c0       ?CreateCode@SolarAuthServerSessionCrypted@@SAXXZ 004138c0 f   SolarAuthServerSession.obj
 0001:000128f0       ?GetServerType@SolarAuthServerSession@@UAE?AW4eSERVER_TYPE@@XZ 004138f0 f i SolarAuthServerSession.obj
 0001:00012900       ??$RegisterObject@VSolarAuthServerSession@@@sOBJECT_CHANGER@@QAEHK@Z 00413900 f i SolarAuthServerSession.obj
 0001:000129a0       ??_ESolarAuthServerSessionCrypted@@UAEPAXI@Z 004139a0 f i SolarAuthServerSession.obj
 0001:000129a0       ??_GSolarAuthServerSessionCrypted@@UAEPAXI@Z 004139a0 f i SolarAuthServerSession.obj
 0001:000129a0       ??_GSolarAuthServerSession@@UAEPAXI@Z 004139a0 f i SolarAuthServerSession.obj
 0001:000129a0       ??_ESolarAuthServerSession@@UAEPAXI@Z 004139a0 f i SolarAuthServerSession.obj
 0001:000129d0       ??$RegisterObject@VSolarAuthServerSessionCrypted@@@sOBJECT_CHANGER@@QAEHK@Z 004139d0 f i SolarAuthServerSession.obj
 0001:00012a80       ?Redirect2NewSession@TempServerSessionEx@@SAXKUtagSERVER_KEY@@@Z 00413a80 f   TempServerSessionEx.obj
 0001:00012a90       ?SendPacket@TempServerSessionEx@@UAEHPAUMSG_BASE@@G@Z 00413a90 f   TempServerSessionEx.obj
 0001:00012aa0       ?OnRecv@TempServerSessionEx@@MAEXPAEG@Z 00413aa0 f   TempServerSessionEx.obj
 0001:00012b00       ?_Initialize@TempServerSessionEx@@IAEXXZ 00413b00 f   TempServerSessionEx.obj
 0001:00012b30       ?_Release@TempServerSessionEx@@IAEXXZ 00413b30 f   TempServerSessionEx.obj
 0001:00012b50       ?ReleaseProcess@TempServerSessionEx@@SAXPAV1@@Z 00413b50 f   TempServerSessionEx.obj
 0001:00012b90       ??$_Uninit_fill_n@PAU_List_position@?$_Hash@V?$_Hmap_traits@KV?$chunk_set@KU?$less@K@std@@@util@@V?$hash_compare@KU?$less@K@std@@@stdext@@V?$CustomAllocator@V?$chunk_set@KU?$less@K@std@@@util@@@2@$0A@@stdext@@@stdext@@IU123@V?$CustomAllocator@U_List_position@?$_Hash@V?$_Hmap_traits@KV?$chunk_set@KU?$less@K@std@@@util@@V?$hash_compare@KU?$less@K@std@@@stdext@@V?$CustomAllocator@V?$chunk_set@KU?$less@K@std@@@util@@@2@$0A@@stdext@@@stdext@@@util@@@std@@YAXPAU_List_position@?$_Hash@V?$_Hmap_traits@KV?$chunk_set@KU?$less@K@std@@@util@@V?$hash_compare@KU?$less@K@std@@@stdext@@V?$CustomAllocator@V?$chunk_set@KU?$less@K@std@@@util@@@2@$0A@@stdext@@@stdext@@IABU123@AAV?$CustomAllocator@U_List_position@?$_Hash@V?$_Hmap_traits@KV?$chunk_set@KU?$less@K@std@@@util@@V?$hash_compare@KU?$less@K@std@@@stdext@@V?$CustomAllocator@V?$chunk_set@KU?$less@K@std@@@util@@@2@$0A@@stdext@@@stdext@@@util@@U_Nonscalar_ptr_iterator_tag@0@U_Range_checked_iterator_tag@0@@Z 00413b90 f i AbuseUserManager.obj
 0001:00012b90       ??$_Uninit_fill_n@PAU_List_position@?$_Hash@V?$_Hmap_traits@KPAVBASE_FUNC@util@@V?$hash_compare@KU?$less@K@std@@@stdext@@V?$allocator@U?$pair@$$CBKPAVBASE_FUNC@util@@@std@@@std@@$0A@@stdext@@@stdext@@IU123@V?$allocator@U_List_position@?$_Hash@V?$_Hmap_traits@KPAVBASE_FUNC@util@@V?$hash_compare@KU?$less@K@std@@@stdext@@V?$allocator@U?$pair@$$CBKPAVBASE_FUNC@util@@@std@@@std@@$0A@@stdext@@@stdext@@@std@@@std@@YAXPAU_List_position@?$_Hash@V?$_Hmap_traits@KPAVBASE_FUNC@util@@V?$hash_compare@KU?$less@K@std@@@stdext@@V?$allocator@U?$pair@$$CBKPAVBASE_FUNC@util@@@std@@@std@@$0A@@stdext@@@stdext@@IABU123@AAV?$allocator@U_List_position@?$_Hash@V?$_Hmap_traits@KPAVBASE_FUNC@util@@V?$hash_compare@KU?$less@K@std@@@stdext@@V?$allocator@U?$pair@$$CBKPAVBASE_FUNC@util@@@std@@@std@@$0A@@stdext@@@stdext@@@0@U_Nonscalar_ptr_iterator_tag@0@U_Range_checked_iterator_tag@0@@Z 00413b90 f i PacketHandler.obj
 0001:00012b90       ??$_Uninit_fill_n@PAU_List_position@?$_Hash@V?$_Hmap_traits@KPAVServerSession@@V?$hash_compare@KU?$less@K@std@@@stdext@@V?$CustomAllocator@PAVServerSession@@@util@@$0A@@stdext@@@stdext@@IU123@V?$CustomAllocator@U_List_position@?$_Hash@V?$_Hmap_traits@KPAVServerSession@@V?$hash_compare@KU?$less@K@std@@@stdext@@V?$CustomAllocator@PAVServerSession@@@util@@$0A@@stdext@@@stdext@@@util@@@std@@YAXPAU_List_position@?$_Hash@V?$_Hmap_traits@KPAVServerSession@@V?$hash_compare@KU?$less@K@std@@@stdext@@V?$CustomAllocator@PAVServerSession@@@util@@$0A@@stdext@@@stdext@@IABU123@AAV?$CustomAllocator@U_List_position@?$_Hash@V?$_Hmap_traits@KPAVServerSession@@V?$hash_compare@KU?$less@K@std@@@stdext@@V?$CustomAllocator@PAVServerSession@@@util@@$0A@@stdext@@@stdext@@@util@@U_Nonscalar_ptr_iterator_tag@0@U_Range_checked_iterator_tag@0@@Z 00413b90 f i TempServerSessionEx.obj
 0001:00012b90       ??$_Uninit_fill_n@PAU_List_position@?$_Hash@V?$_Hmap_traits@W4eSCRIPT_CODE@@PAUsSCRIPT_DATA_INFO_NODE_INTERNAL@@V?$hash_compare@W4eSCRIPT_CODE@@U?$less@W4eSCRIPT_CODE@@@std@@@stdext@@V?$CustomAllocator@PAUsSCRIPT_DATA_INFO_NODE_INTERNAL@@@util@@$0A@@stdext@@@stdext@@IU123@V?$CustomAllocator@U_List_position@?$_Hash@V?$_Hmap_traits@W4eSCRIPT_CODE@@PAUsSCRIPT_DATA_INFO_NODE_INTERNAL@@V?$hash_compare@W4eSCRIPT_CODE@@U?$less@W4eSCRIPT_CODE@@@std@@@stdext@@V?$CustomAllocator@PAUsSCRIPT_DATA_INFO_NODE_INTERNAL@@@util@@$0A@@stdext@@@stdext@@@util@@@std@@YAXPAU_List_position@?$_Hash@V?$_Hmap_traits@W4eSCRIPT_CODE@@PAUsSCRIPT_DATA_INFO_NODE_INTERNAL@@V?$hash_compare@W4eSCRIPT_CODE@@U?$less@W4eSCRIPT_CODE@@@std@@@stdext@@V?$CustomAllocator@PAUsSCRIPT_DATA_INFO_NODE_INTERNAL@@@util@@$0A@@stdext@@@stdext@@IABU123@AAV?$CustomAllocator@U_List_position@?$_Hash@V?$_Hmap_traits@W4eSCRIPT_CODE@@PAUsSCRIPT_DATA_INFO_NODE_INTERNAL@@V?$hash_compare@W4eSCRIPT_CODE@@U?$less@W4eSCRIPT_CODE@@@std@@@stdext@@V?$CustomAllocator@PAUsSCRIPT_DATA_INFO_NODE_INTERNAL@@@util@@$0A@@stdext@@@stdext@@@util@@U_Nonscalar_ptr_iterator_tag@0@U_Range_checked_iterator_tag@0@@Z 00413b90 f i servercommon:ScriptDataManager.obj
 0001:00012b90       ??$_Uninit_fill_n@PAU_List_position@?$_Hash@V?$_Hmap_traits@KPAVAbuseUser@@V?$hash_compare@KU?$less@K@std@@@stdext@@V?$CustomAllocator@PAVAbuseUser@@@util@@$0A@@stdext@@@stdext@@IU123@V?$CustomAllocator@U_List_position@?$_Hash@V?$_Hmap_traits@KPAVAbuseUser@@V?$hash_compare@KU?$less@K@std@@@stdext@@V?$CustomAllocator@PAVAbuseUser@@@util@@$0A@@stdext@@@stdext@@@util@@@std@@YAXPAU_List_position@?$_Hash@V?$_Hmap_traits@KPAVAbuseUser@@V?$hash_compare@KU?$less@K@std@@@stdext@@V?$CustomAllocator@PAVAbuseUser@@@util@@$0A@@stdext@@@stdext@@IABU123@AAV?$CustomAllocator@U_List_position@?$_Hash@V?$_Hmap_traits@KPAVAbuseUser@@V?$hash_compare@KU?$less@K@std@@@stdext@@V?$CustomAllocator@PAVAbuseUser@@@util@@$0A@@stdext@@@stdext@@@util@@U_Nonscalar_ptr_iterator_tag@0@U_Range_checked_iterator_tag@0@@Z 00413b90 f i AbuseUserManager.obj
 0001:00012b90       ??$_Uninit_fill_n@PAU?$pair@W4eSCRIPT_CODE@@PAUsSCRIPT_DATA_INFO_NODE_INTERNAL@@@std@@IU12@V?$CustomAllocator@U?$pair@W4eSCRIPT_CODE@@PAUsSCRIPT_DATA_INFO_NODE_INTERNAL@@@std@@@util@@@std@@YAXPAU?$pair@W4eSCRIPT_CODE@@PAUsSCRIPT_DATA_INFO_NODE_INTERNAL@@@0@IABU10@AAV?$CustomAllocator@U?$pair@W4eSCRIPT_CODE@@PAUsSCRIPT_DATA_INFO_NODE_INTERNAL@@@std@@@util@@U_Nonscalar_ptr_iterator_tag@0@U_Range_checked_iterator_tag@0@@Z 00413b90 f i servercommon:ScriptDataManager.obj
 0001:00012bc0       ?OnRedirect@WorldServerSession@@MAEXKQAUMSG_SERVER_TYPE@@@Z 00413bc0 f   WorldServerSession.obj
 0001:00012ce0       ?Release@ICompressConverter@@UAEXXZ 00413ce0 f   MasterScriptParserManager.obj
 0001:00012cf0       ?InitParserPool@MasterScriptParserManager@@UAEXPAX@Z 00413cf0 f   MasterScriptParserManager.obj
 0001:00012d10       ?RegisterParser@MasterScriptParserManager@@UAEHXZ 00413d10 f   MasterScriptParserManager.obj
 0001:00012d50       ?DestroyInstanceEx@MasterScriptParserManager@@UAEXXZ 00413d50 f   MasterScriptParserManager.obj
 0001:00012d70       ?SolarLoad@ICompressConverter@@UAEHW4eSCRIPT_CODE@@PAEKH@Z 00413d70 f   MasterScriptParserManager.obj
 0001:00012f10       ?SetCompressInfo@ICompressConverter@@QAEXW4eSCRIPT_CODE@@KK@Z 00413f10 f   MasterScriptParserManager.obj
 0001:00012f40       ?SetParser@IParserInMaster@@QAEXW4eSCRIPT_CODE@@QAVIParser@@@Z 00413f40 f   MasterScriptParserManager.obj
 0001:00012f60       ?SolarLoad@IParserInMaster@@UAEHW4eSCRIPT_CODE@@PAEKH@Z 00413f60 f   MasterScriptParserManager.obj
 0001:00013000       ??0MasterScriptParserManager@@QAE@XZ 00414000 f   MasterScriptParserManager.obj
 0001:00013060       ??1MasterScriptParserManager@@UAE@XZ 00414060 f   MasterScriptParserManager.obj
 0001:000130d0       ?_Rrotate@?$_Tree@V?$_Tmap_traits@W4eSCRIPT_CODE@@UsCOMPRESS_INFO@ICompressConverter@@U?$less@W4eSCRIPT_CODE@@@std@@V?$CustomAllocator@UsCOMPRESS_INFO@ICompressConverter@@@util@@$0A@@std@@@std@@IAEXPAU_Node@?$_Tree_nod@V?$_Tmap_traits@W4eSCRIPT_CODE@@UsCOMPRESS_INFO@ICompressConverter@@U?$less@W4eSCRIPT_CODE@@@std@@V?$CustomAllocator@UsCOMPRESS_INFO@ICompressConverter@@@util@@$0A@@std@@@2@@Z 004140d0 f i MasterScriptParserManager.obj
 0001:00013130       ?_Max@?$_Tree@V?$_Tmap_traits@W4eSCRIPT_CODE@@UsCOMPRESS_INFO@ICompressConverter@@U?$less@W4eSCRIPT_CODE@@@std@@V?$CustomAllocator@UsCOMPRESS_INFO@ICompressConverter@@@util@@$0A@@std@@@std@@KAPAU_Node@?$_Tree_nod@V?$_Tmap_traits@W4eSCRIPT_CODE@@UsCOMPRESS_INFO@ICompressConverter@@U?$less@W4eSCRIPT_CODE@@@std@@V?$CustomAllocator@UsCOMPRESS_INFO@ICompressConverter@@@util@@$0A@@std@@@2@PAU342@@Z 00414130 f i MasterScriptParserManager.obj
 0001:00013150       ?_Min@?$_Tree@V?$_Tmap_traits@W4eSCRIPT_CODE@@UsCOMPRESS_INFO@ICompressConverter@@U?$less@W4eSCRIPT_CODE@@@std@@V?$CustomAllocator@UsCOMPRESS_INFO@ICompressConverter@@@util@@$0A@@std@@@std@@KAPAU_Node@?$_Tree_nod@V?$_Tmap_traits@W4eSCRIPT_CODE@@UsCOMPRESS_INFO@ICompressConverter@@U?$less@W4eSCRIPT_CODE@@@std@@V?$CustomAllocator@UsCOMPRESS_INFO@ICompressConverter@@@util@@$0A@@std@@@2@PAU342@@Z 00414150 f i MasterScriptParserManager.obj
 0001:00013170       ?_Lrotate@?$_Tree@V?$_Tmap_traits@W4eSCRIPT_CODE@@UsCOMPRESS_INFO@ICompressConverter@@U?$less@W4eSCRIPT_CODE@@@std@@V?$CustomAllocator@UsCOMPRESS_INFO@ICompressConverter@@@util@@$0A@@std@@@std@@IAEXPAU_Node@?$_Tree_nod@V?$_Tmap_traits@W4eSCRIPT_CODE@@UsCOMPRESS_INFO@ICompressConverter@@U?$less@W4eSCRIPT_CODE@@@std@@V?$CustomAllocator@UsCOMPRESS_INFO@ICompressConverter@@@util@@$0A@@std@@@2@@Z 00414170 f i MasterScriptParserManager.obj
 0001:000131c0       ?_Buynode@?$_Tree@V?$_Tmap_traits@W4eSCRIPT_CODE@@UsCOMPRESS_INFO@ICompressConverter@@U?$less@W4eSCRIPT_CODE@@@std@@V?$CustomAllocator@UsCOMPRESS_INFO@ICompressConverter@@@util@@$0A@@std@@@std@@IAEPAU_Node@?$_Tree_nod@V?$_Tmap_traits@W4eSCRIPT_CODE@@UsCOMPRESS_INFO@ICompressConverter@@U?$less@W4eSCRIPT_CODE@@@std@@V?$CustomAllocator@UsCOMPRESS_INFO@ICompressConverter@@@util@@$0A@@std@@@2@PAU342@00ABU?$pair@$$CBW4eSCRIPT_CODE@@UsCOMPRESS_INFO@ICompressConverter@@@2@D@Z 004141c0 f i MasterScriptParserManager.obj
 0001:00013210       ?_Dec@const_iterator@?$_Tree@V?$_Tmap_traits@W4eSCRIPT_CODE@@UsCOMPRESS_INFO@ICompressConverter@@U?$less@W4eSCRIPT_CODE@@@std@@V?$CustomAllocator@UsCOMPRESS_INFO@ICompressConverter@@@util@@$0A@@std@@@std@@QAEXXZ 00414210 f i MasterScriptParserManager.obj
 0001:000132a0       ?_Inc@const_iterator@?$_Tree@V?$_Tmap_traits@W4eSCRIPT_CODE@@UsCOMPRESS_INFO@ICompressConverter@@U?$less@W4eSCRIPT_CODE@@@std@@V?$CustomAllocator@UsCOMPRESS_INFO@ICompressConverter@@@util@@$0A@@std@@@std@@QAEXXZ 004142a0 f i MasterScriptParserManager.obj
 0001:00013310       ?_Erase@?$_Tree@V?$_Tmap_traits@W4eSCRIPT_CODE@@UsCOMPRESS_INFO@ICompressConverter@@U?$less@W4eSCRIPT_CODE@@@std@@V?$CustomAllocator@UsCOMPRESS_INFO@ICompressConverter@@@util@@$0A@@std@@@std@@IAEXPAU_Node@?$_Tree_nod@V?$_Tmap_traits@W4eSCRIPT_CODE@@UsCOMPRESS_INFO@ICompressConverter@@U?$less@W4eSCRIPT_CODE@@@std@@V?$CustomAllocator@UsCOMPRESS_INFO@ICompressConverter@@@util@@$0A@@std@@@2@@Z 00414310 f i MasterScriptParserManager.obj
 0001:00013350       ?_Buynode@?$_Tree@V?$_Tmap_traits@W4eSCRIPT_CODE@@UsCOMPRESS_INFO@ICompressConverter@@U?$less@W4eSCRIPT_CODE@@@std@@V?$CustomAllocator@UsCOMPRESS_INFO@ICompressConverter@@@util@@$0A@@std@@@std@@IAEPAU_Node@?$_Tree_nod@V?$_Tmap_traits@W4eSCRIPT_CODE@@UsCOMPRESS_INFO@ICompressConverter@@U?$less@W4eSCRIPT_CODE@@@std@@V?$CustomAllocator@UsCOMPRESS_INFO@ICompressConverter@@@util@@$0A@@std@@@2@XZ 00414350 f i MasterScriptParserManager.obj
 0001:00013390       ?find@?$_Tree@V?$_Tmap_traits@W4eSCRIPT_CODE@@UsCOMPRESS_INFO@ICompressConverter@@U?$less@W4eSCRIPT_CODE@@@std@@V?$CustomAllocator@UsCOMPRESS_INFO@ICompressConverter@@@util@@$0A@@std@@@std@@QAE?AViterator@12@ABW4eSCRIPT_CODE@@@Z 00414390 f i MasterScriptParserManager.obj
 0001:00013420       ??0?$_Tree@V?$_Tmap_traits@W4eSCRIPT_CODE@@UsCOMPRESS_INFO@ICompressConverter@@U?$less@W4eSCRIPT_CODE@@@std@@V?$CustomAllocator@UsCOMPRESS_INFO@ICompressConverter@@@util@@$0A@@std@@@std@@QAE@ABU?$less@W4eSCRIPT_CODE@@@1@ABV?$CustomAllocator@U?$pair@$$CBW4eSCRIPT_CODE@@UsCOMPRESS_INFO@ICompressConverter@@@std@@@util@@@Z 00414420 f i MasterScriptParserManager.obj
 0001:000134b0       ?_Insert@?$_Tree@V?$_Tmap_traits@W4eSCRIPT_CODE@@UsCOMPRESS_INFO@ICompressConverter@@U?$less@W4eSCRIPT_CODE@@@std@@V?$CustomAllocator@UsCOMPRESS_INFO@ICompressConverter@@@util@@$0A@@std@@@std@@IAE?AViterator@12@_NPAU_Node@?$_Tree_nod@V?$_Tmap_traits@W4eSCRIPT_CODE@@UsCOMPRESS_INFO@ICompressConverter@@U?$less@W4eSCRIPT_CODE@@@std@@V?$CustomAllocator@UsCOMPRESS_INFO@ICompressConverter@@@util@@$0A@@std@@@2@ABU?$pair@$$CBW4eSCRIPT_CODE@@UsCOMPRESS_INFO@ICompressConverter@@@2@@Z 004144b0 f i MasterScriptParserManager.obj
 0001:000136b0       ?erase@?$_Tree@V?$_Tmap_traits@W4eSCRIPT_CODE@@UsCOMPRESS_INFO@ICompressConverter@@U?$less@W4eSCRIPT_CODE@@@std@@V?$CustomAllocator@UsCOMPRESS_INFO@ICompressConverter@@@util@@$0A@@std@@@std@@QAE?AViterator@12@Vconst_iterator@12@@Z 004146b0 f i MasterScriptParserManager.obj
 0001:00013980       ?insert@?$_Tree@V?$_Tmap_traits@W4eSCRIPT_CODE@@UsCOMPRESS_INFO@ICompressConverter@@U?$less@W4eSCRIPT_CODE@@@std@@V?$CustomAllocator@UsCOMPRESS_INFO@ICompressConverter@@@util@@$0A@@std@@@std@@QAE?AU?$pair@Viterator@?$_Tree@V?$_Tmap_traits@W4eSCRIPT_CODE@@UsCOMPRESS_INFO@ICompressConverter@@U?$less@W4eSCRIPT_CODE@@@std@@V?$CustomAllocator@UsCOMPRESS_INFO@ICompressConverter@@@util@@$0A@@std@@@std@@_N@2@ABU?$pair@$$CBW4eSCRIPT_CODE@@UsCOMPRESS_INFO@ICompressConverter@@@2@@Z 00414980 f i MasterScriptParserManager.obj
 0001:00013a70       ?erase@?$_Tree@V?$_Tmap_traits@W4eSCRIPT_CODE@@UsCOMPRESS_INFO@ICompressConverter@@U?$less@W4eSCRIPT_CODE@@@std@@V?$CustomAllocator@UsCOMPRESS_INFO@ICompressConverter@@@util@@$0A@@std@@@std@@QAE?AViterator@12@Vconst_iterator@12@0@Z 00414a70 f i MasterScriptParserManager.obj
 0001:00013b50       ?insert@?$_Tree@V?$_Tmap_traits@W4eSCRIPT_CODE@@UsCOMPRESS_INFO@ICompressConverter@@U?$less@W4eSCRIPT_CODE@@@std@@V?$CustomAllocator@UsCOMPRESS_INFO@ICompressConverter@@@util@@$0A@@std@@@std@@QAE?AViterator@12@Vconst_iterator@12@ABU?$pair@$$CBW4eSCRIPT_CODE@@UsCOMPRESS_INFO@ICompressConverter@@@2@@Z 00414b50 f i MasterScriptParserManager.obj
 0001:00013d20       ??A?$map@W4eSCRIPT_CODE@@UsCOMPRESS_INFO@ICompressConverter@@U?$less@W4eSCRIPT_CODE@@@std@@V?$CustomAllocator@UsCOMPRESS_INFO@ICompressConverter@@@util@@@std@@QAEAAUsCOMPRESS_INFO@ICompressConverter@@ABW4eSCRIPT_CODE@@@Z 00414d20 f i MasterScriptParserManager.obj
 0001:00013de0       ??1?$_Tree@V?$_Tmap_traits@W4eSCRIPT_CODE@@UsCOMPRESS_INFO@ICompressConverter@@U?$less@W4eSCRIPT_CODE@@@std@@V?$CustomAllocator@UsCOMPRESS_INFO@ICompressConverter@@@util@@$0A@@std@@@std@@QAE@XZ 00414de0 f i MasterScriptParserManager.obj
 0001:00013e60       ??0ICompressConverter@@QAE@XZ 00414e60 f i MasterScriptParserManager.obj
 0001:00013ed0       ??1ICompressConverter@@UAE@XZ 00414ed0 f i MasterScriptParserManager.obj
 0001:00013f40       ??_EICompressConverter@@UAEPAXI@Z 00414f40 f i MasterScriptParserManager.obj
 0001:00013f40       ??_GICompressConverter@@UAEPAXI@Z 00414f40 f i MasterScriptParserManager.obj
 0001:00013f60       ??_EIParserInMaster@@UAEPAXI@Z 00414f60 f i MasterScriptParserManager.obj
 0001:00013f60       ??_GIParserInMaster@@UAEPAXI@Z 00414f60 f i MasterScriptParserManager.obj
 0001:00013f90       ??_GMasterScriptParserManager@@UAEPAXI@Z 00414f90 f i MasterScriptParserManager.obj
 0001:00013f90       ??_EMasterScriptParserManager@@UAEPAXI@Z 00414f90 f i MasterScriptParserManager.obj
 0001:00013fb0       ?CheckSkipType@ns_formula@@YA_NW4eATTR_TYPE@@_N@Z 00414fb0 f   solarslot_s:ItemOptionHeader.obj
 0001:00013fe0       ?CheckAttrValidity@ns_formula@@YA_NW4eATTR_TYPE@@HH@Z 00414fe0 f   solarslot_s:ItemOptionHeader.obj
 0001:00014000       ?CheckStatsRelatedOption@ns_formula@@YA_NG@Z 00415000 f   solarslot_s:ItemOptionHeader.obj
 0001:00014040       ?_Max@?$_Tree@V?$_Tmap_traits@PAVServerSessionEx@@HU?$less@PAVServerSessionEx@@@std@@V?$allocator@U?$pair@QAVServerSessionEx@@H@std@@@3@$0A@@std@@@std@@KAPAU_Node@?$_Tree_nod@V?$_Tmap_traits@PAVServerSessionEx@@HU?$less@PAVServerSessionEx@@@std@@V?$allocator@U?$pair@QAVServerSessionEx@@H@std@@@3@$0A@@std@@@2@PAU342@@Z 00415040 f i MasterServerInfo.obj
 0001:00014040       ?_Max@?$_Tree@V?$_Tmap_traits@EPAUABUSING_OPTION_INFO@@U?$less@E@std@@V?$CustomAllocator@PAUABUSING_OPTION_INFO@@@util@@$0A@@std@@@std@@KAPAU_Node@?$_Tree_nod@V?$_Tmap_traits@EPAUABUSING_OPTION_INFO@@U?$less@E@std@@V?$CustomAllocator@PAUABUSING_OPTION_INFO@@@util@@$0A@@std@@@2@PAU342@@Z 00415040 f i servercommon:AbusingOptionParser.obj
 0001:00014060       ?_Min@?$_Tree@V?$_Tmap_traits@EPAUABUSING_OPTION_INFO@@U?$less@E@std@@V?$CustomAllocator@PAUABUSING_OPTION_INFO@@@util@@$0A@@std@@@std@@KAPAU_Node@?$_Tree_nod@V?$_Tmap_traits@EPAUABUSING_OPTION_INFO@@U?$less@E@std@@V?$CustomAllocator@PAUABUSING_OPTION_INFO@@@util@@$0A@@std@@@2@PAU342@@Z 00415060 f i servercommon:AbusingOptionParser.obj
 0001:00014060       ?_Min@?$_Tree@V?$_Tmap_traits@PAVServerSessionEx@@HU?$less@PAVServerSessionEx@@@std@@V?$allocator@U?$pair@QAVServerSessionEx@@H@std@@@3@$0A@@std@@@std@@KAPAU_Node@?$_Tree_nod@V?$_Tmap_traits@PAVServerSessionEx@@HU?$less@PAVServerSessionEx@@@std@@V?$allocator@U?$pair@QAVServerSessionEx@@H@std@@@3@$0A@@std@@@2@PAU342@@Z 00415060 f i MasterServerInfo.obj
 0001:00014080       ?_Inc@const_iterator@?$_Tree@V?$_Tmap_traits@EPAUABUSING_OPTION_INFO@@U?$less@E@std@@V?$CustomAllocator@PAUABUSING_OPTION_INFO@@@util@@$0A@@std@@@std@@QAEXXZ 00415080 f i servercommon:AbusingOptionParser.obj
 0001:00014080       ?_Inc@const_iterator@?$_Tree@V?$_Tmap_traits@PAVServerSessionEx@@HU?$less@PAVServerSessionEx@@@std@@V?$allocator@U?$pair@QAVServerSessionEx@@H@std@@@3@$0A@@std@@@std@@QAEXXZ 00415080 f i MasterServerInfo.obj
 0001:000140f0       ?_Rrotate@?$_Tree@V?$_Tmap_traits@PAVServerSessionEx@@HU?$less@PAVServerSessionEx@@@std@@V?$allocator@U?$pair@QAVServerSessionEx@@H@std@@@3@$0A@@std@@@std@@IAEXPAU_Node@?$_Tree_nod@V?$_Tmap_traits@PAVServerSessionEx@@HU?$less@PAVServerSessionEx@@@std@@V?$allocator@U?$pair@QAVServerSessionEx@@H@std@@@3@$0A@@std@@@2@@Z 004150f0 f i MasterServerInfo.obj
 0001:000140f0       ?_Rrotate@?$_Tree@V?$_Tmap_traits@EPAUABUSING_OPTION_INFO@@U?$less@E@std@@V?$CustomAllocator@PAUABUSING_OPTION_INFO@@@util@@$0A@@std@@@std@@IAEXPAU_Node@?$_Tree_nod@V?$_Tmap_traits@EPAUABUSING_OPTION_INFO@@U?$less@E@std@@V?$CustomAllocator@PAUABUSING_OPTION_INFO@@@util@@$0A@@std@@@2@@Z 004150f0 f i servercommon:AbusingOptionParser.obj
 0001:00014150       ?_Buynode@?$_Tree@V?$_Tmap_traits@EPAUABUSING_OPTION_INFO@@U?$less@E@std@@V?$CustomAllocator@PAUABUSING_OPTION_INFO@@@util@@$0A@@std@@@std@@IAEPAU_Node@?$_Tree_nod@V?$_Tmap_traits@EPAUABUSING_OPTION_INFO@@U?$less@E@std@@V?$CustomAllocator@PAUABUSING_OPTION_INFO@@@util@@$0A@@std@@@2@PAU342@00ABU?$pair@$$CBEPAUABUSING_OPTION_INFO@@@2@D@Z 00415150 f i servercommon:AbusingOptionParser.obj
 0001:00014190       ?_Dec@const_iterator@?$_Tree@V?$_Tmap_traits@PAVServerSessionEx@@HU?$less@PAVServerSessionEx@@@std@@V?$allocator@U?$pair@QAVServerSessionEx@@H@std@@@3@$0A@@std@@@std@@QAEXXZ 00415190 f i MasterServerInfo.obj
 0001:00014190       ?_Dec@const_iterator@?$_Tree@V?$_Tmap_traits@EPAUABUSING_OPTION_INFO@@U?$less@E@std@@V?$CustomAllocator@PAUABUSING_OPTION_INFO@@@util@@$0A@@std@@@std@@QAEXXZ 00415190 f i servercommon:AbusingOptionParser.obj
 0001:00014220       ?_Erase@?$_Tree@V?$_Tmap_traits@EPAUABUSING_OPTION_INFO@@U?$less@E@std@@V?$CustomAllocator@PAUABUSING_OPTION_INFO@@@util@@$0A@@std@@@std@@IAEXPAU_Node@?$_Tree_nod@V?$_Tmap_traits@EPAUABUSING_OPTION_INFO@@U?$less@E@std@@V?$CustomAllocator@PAUABUSING_OPTION_INFO@@@util@@$0A@@std@@@2@@Z 00415220 f i servercommon:AbusingOptionParser.obj
 0001:00014260       ?_Buynode@?$_Tree@V?$_Tmap_traits@EPAUABUSING_OPTION_INFO@@U?$less@E@std@@V?$CustomAllocator@PAUABUSING_OPTION_INFO@@@util@@$0A@@std@@@std@@IAEPAU_Node@?$_Tree_nod@V?$_Tmap_traits@EPAUABUSING_OPTION_INFO@@U?$less@E@std@@V?$CustomAllocator@PAUABUSING_OPTION_INFO@@@util@@$0A@@std@@@2@XZ 00415260 f i servercommon:AbusingOptionParser.obj
 0001:000142a0       ??$ClearMap@V?$chunk_map@EPAUABUSING_OPTION_INFO@@U?$less@E@std@@@util@@@@YAXAAV?$chunk_map@EPAUABUSING_OPTION_INFO@@U?$less@E@std@@@util@@@Z 004152a0 f i servercommon:AbusingOptionParser.obj
 0001:00014370       ?Release@AbusingOptionParser@@UAEXXZ 00415370 f   servercommon:AbusingOptionParser.obj
 0001:00014380       ?Init@AbusingOptionParser@@UAEXK@Z 00415380 f   servercommon:AbusingOptionParser.obj
 0001:00014390       ?GetAbusingOptionInfo@AbusingOptionParser@@QBEPAUABUSING_OPTION_INFO@@E@Z 00415390 f   servercommon:AbusingOptionParser.obj
 0001:00014400       ?LoadOptionInfo@AbusingOptionParser@@AAEHH@Z 00415400 f   servercommon:AbusingOptionParser.obj
 0001:00014600       ?LoadScript@AbusingOptionParser@@UAEHW4eSCRIPT_CODE@@H@Z 00415600 f   servercommon:AbusingOptionParser.obj
 0001:00014620       ??1AbusingOptionParser@@UAE@XZ 00415620 f   servercommon:AbusingOptionParser.obj
 0001:00014690       ??0AbusingOptionParser@@QAE@XZ 00415690 f   servercommon:AbusingOptionParser.obj
 0001:00014700       ?find@?$_Tree@V?$_Tmap_traits@EPAUABUSING_OPTION_INFO@@U?$less@E@std@@V?$CustomAllocator@PAUABUSING_OPTION_INFO@@@util@@$0A@@std@@@std@@QBE?AVconst_iterator@12@ABE@Z 00415700 f i servercommon:AbusingOptionParser.obj
 0001:00014790       ??0?$_Tree@V?$_Tmap_traits@EPAUABUSING_OPTION_INFO@@U?$less@E@std@@V?$CustomAllocator@PAUABUSING_OPTION_INFO@@@util@@$0A@@std@@@std@@QAE@ABU?$less@E@1@ABV?$CustomAllocator@U?$pair@$$CBEPAUABUSING_OPTION_INFO@@@std@@@util@@@Z 00415790 f i servercommon:AbusingOptionParser.obj
 0001:00014820       ?_Insert@?$_Tree@V?$_Tmap_traits@EPAUABUSING_OPTION_INFO@@U?$less@E@std@@V?$CustomAllocator@PAUABUSING_OPTION_INFO@@@util@@$0A@@std@@@std@@IAE?AViterator@12@_NPAU_Node@?$_Tree_nod@V?$_Tmap_traits@EPAUABUSING_OPTION_INFO@@U?$less@E@std@@V?$CustomAllocator@PAUABUSING_OPTION_INFO@@@util@@$0A@@std@@@2@ABU?$pair@$$CBEPAUABUSING_OPTION_INFO@@@2@@Z 00415820 f i servercommon:AbusingOptionParser.obj
 0001:00014a20       ?erase@?$_Tree@V?$_Tmap_traits@EPAUABUSING_OPTION_INFO@@U?$less@E@std@@V?$CustomAllocator@PAUABUSING_OPTION_INFO@@@util@@$0A@@std@@@std@@QAE?AViterator@12@Vconst_iterator@12@@Z 00415a20 f i servercommon:AbusingOptionParser.obj
 0001:00014cf0       ?insert@?$_Tree@V?$_Tmap_traits@EPAUABUSING_OPTION_INFO@@U?$less@E@std@@V?$CustomAllocator@PAUABUSING_OPTION_INFO@@@util@@$0A@@std@@@std@@QAE?AU?$pair@Viterator@?$_Tree@V?$_Tmap_traits@EPAUABUSING_OPTION_INFO@@U?$less@E@std@@V?$CustomAllocator@PAUABUSING_OPTION_INFO@@@util@@$0A@@std@@@std@@_N@2@ABU?$pair@$$CBEPAUABUSING_OPTION_INFO@@@2@@Z 00415cf0 f i servercommon:AbusingOptionParser.obj
 0001:00014de0       ?erase@?$_Tree@V?$_Tmap_traits@EPAUABUSING_OPTION_INFO@@U?$less@E@std@@V?$CustomAllocator@PAUABUSING_OPTION_INFO@@@util@@$0A@@std@@@std@@QAE?AViterator@12@Vconst_iterator@12@0@Z 00415de0 f i servercommon:AbusingOptionParser.obj
 0001:00014ec0       ??1?$_Tree@V?$_Tmap_traits@EPAUABUSING_OPTION_INFO@@U?$less@E@std@@V?$CustomAllocator@PAUABUSING_OPTION_INFO@@@util@@$0A@@std@@@std@@QAE@XZ 00415ec0 f i servercommon:AbusingOptionParser.obj
 0001:00014f40       ??_EAbusingOptionParser@@UAEPAXI@Z 00415f40 f i servercommon:AbusingOptionParser.obj
 0001:00014f40       ??_GAbusingOptionParser@@UAEPAXI@Z 00415f40 f i servercommon:AbusingOptionParser.obj
 0001:00014f60       ?MessageOut@@YA_NW4eSUN_LOG_LEVEL@@PBDZZ 00415f60 f   servercommon:SunLog.Interfaces.obj
 0001:00015020       ?ConsoleOut@@YA_NW4eSUN_LOG_LEVEL@@PBDZZ 00416020 f   servercommon:SunLog.Interfaces.obj
 0001:000150e0       ?MessageOutEx@@YA_NPAVCSunLog@@W4eLOGLEVEL@1@W4eLOGOPTION@1@W4eLOGCATEGORY@1@PBDZZ 004160e0 f   servercommon:SunLog.Interfaces.obj
 0001:000151a0       ?MessageSecure@@YAHKKPBD00W4eABUSE_TYPE@@W4eABUSE_SUB_TYPE@@0ZZ 004161a0 f   servercommon:SunLog.Interfaces.obj
 0001:00015340       ?AssertionLogger4Pool_Server@@YAXXZ 00416340 f   servercommon:SunLog.Interfaces.obj
 0001:00015350       ?GetServerType2String@@YAPADW4eSERVER_TYPE@@@Z 00416350 f   servercommon:ServerGlobal.obj
 0001:00015370       ?GetCommandLineArg@@YAHHPAD0H@Z 00416370 f   servercommon:ServerGlobal.obj
 0001:00015440       ?DisplayDebugInfo@@YAXW4eSERVER_TYPE@@HHKKKKGGG@Z 00416440 f   servercommon:ServerGlobal.obj
 0001:000155c0       ?SetApplicationDirectory@@YAXXZ 004165c0 f   servercommon:ServerGlobal.obj
 0001:00015660       ?ParseArguments@@YAHPAD@Z  00416660 f   servercommon:ServerGlobal.obj
 0001:000156d0       ?Init@ServerTimeInfoPerFrame@util@@QAEXXZ 004166d0 f   servercommon:ServerFrame.obj
 0001:00015710       ?Update@ServerTimeInfoPerFrame@util@@QAEXXZ 00416710 f   servercommon:ServerFrame.obj
 0001:00015800       ?IsListening@ServerFrame@@QAEHK@Z 00416800 f   servercommon:ServerFrame.obj
 0001:00015810       ?SuspendListenThread@ServerFrame@@QAEXK@Z 00416810 f   servercommon:ServerFrame.obj
 0001:00015820       ?ResumeListenThread@ServerFrame@@QAEXK@Z 00416820 f   servercommon:ServerFrame.obj
 0001:00015830       ?Listen@ServerFrame@@IAEXKPBDG@Z 00416830 f   servercommon:ServerFrame.obj
 0001:000158a0       ?UpdateAppTitle@ServerFrame@@QAEXXZ 004168a0 f   servercommon:ServerFrame.obj
 0001:000158f0       ?FrameCheck@ServerFrame@@IAEXXZ 004168f0 f   servercommon:ServerFrame.obj
 0001:00015980       ?SendServerType@ServerFrame@@UAEXPAVServerSession@@@Z 00416980 f   servercommon:ServerFrame.obj
 0001:000159b0       ?RunUnitTest@ServerFrame@@IAEXXZ 004169b0 f   servercommon:ServerFrame.obj
 0001:00015af0       ?Listen@ServerFrame@@QAEXK@Z 00416af0 f   servercommon:ServerFrame.obj
 0001:00015b30       ?Connect@ServerFrame@@IAEXPAVServerSession@@@Z 00416b30 f   servercommon:ServerFrame.obj
 0001:00015bf0       ?MaintainConnection@ServerFrame@@IAEXXZ 00416bf0 f   servercommon:ServerFrame.obj
 0001:00015cc0       ?_Update@ServerFrame@@AAEHXZ 00416cc0 f   servercommon:ServerFrame.obj
 0001:00015de0       ?DisplayAppInfo@ServerFrame@@IAEXH@Z 00416de0 f   servercommon:ServerFrame.obj
 0001:00015fb0       ?DisplayServerList@ServerFrame@@IAEXXZ 00416fb0 f   servercommon:ServerFrame.obj
 0001:00016180       ?SendToSessionType@ServerFrame@@QAEXW4eSERVER_TYPE@@PAUMSG_BASE@@GK@Z 00417180 f   servercommon:ServerFrame.obj
 0001:00016230       ?ProcessConsole@ServerFrame@@IAEHXZ 00417230 f   servercommon:ServerFrame.obj
 0001:000162c0       ?SendToSessionType@ServerFrame@@QAEXW4eSERVER_TYPE@@PAUMSG_BASE_INTERNAL@@GK@Z 004172c0 f   servercommon:ServerFrame.obj
 0001:000162d0       ?SendToSession@ServerFrame@@QAEHKPAUMSG_BASE@@G@Z 004172d0 f   servercommon:ServerFrame.obj
 0001:00016360       ??1ServerFrame@@UAE@XZ     00417360 f   servercommon:ServerFrame.obj
 0001:00016450       ?DoProcess@ServerFrame@@QAEXXZ 00417450 f   servercommon:ServerFrame.obj
 0001:00016490       ?DoUpdate@ServerFrame@@QAEHXZ 00417490 f   servercommon:ServerFrame.obj
 0001:000164c0       ?SendToSession@ServerFrame@@QAEHKPAUMSG_BASE_INTERNAL@@G@Z 004174c0 f   servercommon:ServerFrame.obj
 0001:000164d0       ?DoRelease@ServerFrame@@QAEXXZ 004174d0 f   servercommon:ServerFrame.obj
 0001:000165b0       ?AddConnectionlessConnector@ServerFrame@@QAEXPAVServerSession@@@Z 004175b0 f   servercommon:ServerFrame.obj
 0001:00016620       ??0ServerFrame@@QAE@XZ     00417620 f   servercommon:ServerFrame.obj
 0001:00016730       ?InitConnectSession@ServerFrame@@QAEPAVServerSession@@W4eSERVER_TYPE@@PADG@Z 00417730 f   servercommon:ServerFrame.obj
 0001:000167c0       ?Connect@ServerFrame@@IAEXH@Z 004177c0 f   servercommon:ServerFrame.obj
 0001:000168f0       ?DoInit@ServerFrame@@QAEHPBDP6APAVNetworkObject@@XZP6AXPAV2@@Z3133@Z 004178f0 f   servercommon:ServerFrame.obj
 0001:00016cf0       ?KeyEvent@ServerFrame@@MAEHD@Z 00417cf0 f i servercommon:ServerFrame.obj
 0001:00016d00       ??_GServerFrame@@UAEPAXI@Z 00417d00 f i servercommon:ServerFrame.obj
 0001:00016d00       ??_EServerFrame@@UAEPAXI@Z 00417d00 f i servercommon:ServerFrame.obj
 0001:00016d20       ?insert@?$list@U?$pair@$$CBKPAVAbuseUser@@@std@@V?$CustomAllocator@U?$pair@$$CBKPAVAbuseUser@@@std@@@util@@@std@@QAE?AV?$_Iterator@$00@12@V?$_Const_iterator@$00@12@ABU?$pair@$$CBKPAVAbuseUser@@@2@@Z 00417d20 f i AbuseUserManager.obj
 0001:00016d20       ?insert@?$list@U?$pair@$$CBKPAVServerSession@@@std@@V?$CustomAllocator@U?$pair@$$CBKPAVServerSession@@@std@@@util@@@std@@QAE?AV?$_Iterator@$00@12@V?$_Const_iterator@$00@12@ABU?$pair@$$CBKPAVServerSession@@@2@@Z 00417d20 f i servercommon:ServerFrame.obj
 0001:00016d20       ?insert@?$list@U?$pair@$$CBW4eSCRIPT_CODE@@PAUsSCRIPT_DATA_INFO_NODE_INTERNAL@@@std@@V?$CustomAllocator@U?$pair@$$CBW4eSCRIPT_CODE@@PAUsSCRIPT_DATA_INFO_NODE_INTERNAL@@@std@@@util@@@std@@QAE?AV?$_Iterator@$00@12@V?$_Const_iterator@$00@12@ABU?$pair@$$CBW4eSCRIPT_CODE@@PAUsSCRIPT_DATA_INFO_NODE_INTERNAL@@@2@@Z 00417d20 f i servercommon:ScriptDataManager.obj
 0001:00016db0       ?_Insert@?$_Hash@V?$_Hmap_traits@KPAVAbuseUser@@V?$hash_compare@KU?$less@K@std@@@stdext@@V?$CustomAllocator@PAVAbuseUser@@@util@@$0A@@stdext@@@stdext@@IAE?AU?$pair@V?$_Iterator@$00@?$list@U?$pair@$$CBKPAVAbuseUser@@@std@@V?$CustomAllocator@U?$pair@$$CBKPAVAbuseUser@@@std@@@util@@@std@@_N@std@@ABU?$pair@$$CBKPAVAbuseUser@@@4@V?$_Iterator@$00@?$list@U?$pair@$$CBKPAVAbuseUser@@@std@@V?$CustomAllocator@U?$pair@$$CBKPAVAbuseUser@@@std@@@util@@@4@@Z 00417db0 f i AbuseUserManager.obj
 0001:00016db0       ?_Insert@?$_Hash@V?$_Hmap_traits@KPAVServerSession@@V?$hash_compare@KU?$less@K@std@@@stdext@@V?$CustomAllocator@PAVServerSession@@@util@@$0A@@stdext@@@stdext@@IAE?AU?$pair@V?$_Iterator@$00@?$list@U?$pair@$$CBKPAVServerSession@@@std@@V?$CustomAllocator@U?$pair@$$CBKPAVServerSession@@@std@@@util@@@std@@_N@std@@ABU?$pair@$$CBKPAVServerSession@@@4@V?$_Iterator@$00@?$list@U?$pair@$$CBKPAVServerSession@@@std@@V?$CustomAllocator@U?$pair@$$CBKPAVServerSession@@@std@@@util@@@4@@Z 00417db0 f i servercommon:ServerFrame.obj
 0001:00017130       ?_Reinsert@?$_Hash@V?$_Hmap_traits@KPAVServerSession@@V?$hash_compare@KU?$less@K@std@@@stdext@@V?$CustomAllocator@PAVServerSession@@@util@@$0A@@stdext@@@stdext@@IAEXXZ 00418130 f i servercommon:ServerFrame.obj
 0001:00017130       ?_Reinsert@?$_Hash@V?$_Hmap_traits@KPAVAbuseUser@@V?$hash_compare@KU?$less@K@std@@@stdext@@V?$CustomAllocator@PAVAbuseUser@@@util@@$0A@@stdext@@@stdext@@IAEXXZ 00418130 f i AbuseUserManager.obj
 0001:000171c0       ?_Rrotate@?$_Tree@V?$_Tmap_traits@KU?$pair@V?$Delegator@VIWorkNode@@@@H@std@@U?$less@K@2@V?$CustomAllocator@U?$pair@V?$Delegator@VIWorkNode@@@@H@std@@@util@@$0A@@std@@@std@@IAEXPAU_Node@?$_Tree_nod@V?$_Tmap_traits@KU?$pair@V?$Delegator@VIWorkNode@@@@H@std@@U?$less@K@2@V?$CustomAllocator@U?$pair@V?$Delegator@VIWorkNode@@@@H@std@@@util@@$0A@@std@@@2@@Z 004181c0 f i servercommon:WorkLoadManager.obj
 0001:000171c0       ?_Rrotate@?$_Tree@V?$_Tmap_traits@KU?$pair@KK@std@@U?$less@K@2@V?$CustomAllocator@U?$pair@KK@std@@@util@@$0A@@std@@@std@@IAEXPAU_Node@?$_Tree_nod@V?$_Tmap_traits@KU?$pair@KK@std@@U?$less@K@2@V?$CustomAllocator@U?$pair@KK@std@@@util@@$0A@@std@@@2@@Z 004181c0 f i MasterServerInfo.obj
 0001:00017220       ?_Dec@const_iterator@?$_Tree@V?$_Tmap_traits@KU?$pair@V?$Delegator@VIWorkNode@@@@H@std@@U?$less@K@2@V?$CustomAllocator@U?$pair@V?$Delegator@VIWorkNode@@@@H@std@@@util@@$0A@@std@@@std@@QAEXXZ 00418220 f i servercommon:WorkLoadManager.obj
 0001:00017220       ?_Dec@const_iterator@?$_Tree@V?$_Tmap_traits@KU?$pair@KK@std@@U?$less@K@2@V?$CustomAllocator@U?$pair@KK@std@@@util@@$0A@@std@@@std@@QAEXXZ 00418220 f i MasterServerInfo.obj
 0001:000172b0       ?_Inc@const_iterator@?$_Tree@V?$_Tmap_traits@KU?$pair@KK@std@@U?$less@K@2@V?$CustomAllocator@U?$pair@KK@std@@@util@@$0A@@std@@@std@@QAEXXZ 004182b0 f i MasterServerInfo.obj
 0001:000172b0       ?_Inc@const_iterator@?$_Tree@V?$_Tmap_traits@KU?$pair@V?$Delegator@VIWorkNode@@@@H@std@@U?$less@K@2@V?$CustomAllocator@U?$pair@V?$Delegator@VIWorkNode@@@@H@std@@@util@@$0A@@std@@@std@@QAEXXZ 004182b0 f i servercommon:WorkLoadManager.obj
 0001:00017320       ??1?$pair@KU?$pair@V?$Delegator@VIWorkNode@@@@H@std@@@std@@QAE@XZ 00418320 f i servercommon:WorkLoadManager.obj
 0001:00017320       ??1?$pair@$$CBKU?$pair@V?$Delegator@VIWorkNode@@@@H@std@@@std@@QAE@XZ 00418320 f i servercommon:WorkLoadManager.obj
 0001:00017330       ?_NodeRelease@WorkLoadManager@@AAEXU?$pair@KU?$pair@V?$Delegator@VIWorkNode@@@@H@std@@@std@@@Z 00418330 f   servercommon:WorkLoadManager.obj
 0001:00017390       ?PendingTask@WorkLoadManager@@SAKKH@Z 00418390 f   servercommon:WorkLoadManager.obj
 0001:00017400       ?ReleaseTaskAll@WorkLoadManager@@SAXXZ 00418400 f   servercommon:WorkLoadManager.obj
 0001:00017480       ?OnMsg@WorkLoadManager@@SAXPAUsSIG_MSG@@K@Z 00418480 f   servercommon:WorkLoadManager.obj
 0001:00017570       ?ReleaseTask@WorkLoadManager@@SAXKH@Z 00418570 f   servercommon:WorkLoadManager.obj
 0001:00017650       ?_NodeUpdate@WorkLoadManager@@AAEXV?$_Iterator@$00@?$list@KV?$CustomAllocator@K@util@@@std@@@Z 00418650 f   servercommon:WorkLoadManager.obj
 0001:00017770       ?Update@WorkLoadManager@@SAXXZ 00418770 f   servercommon:WorkLoadManager.obj
 0001:000177e0       ?RegisterTask@WorkLoadManager@@SAKPAVIWorkNode@@HK@Z 004187e0 f   servercommon:WorkLoadManager.obj
 0001:00017930       ??1WorkLoadManager@@AAE@XZ 00418930 f   servercommon:WorkLoadManager.obj
 0001:000179a0       ??0WorkLoadManager@@AAE@XZ 004189a0 f   servercommon:WorkLoadManager.obj
 0001:00017a70       ?CreateInstance@WorkLoadManager@@SAAAV?$Delegator@VWorkLoadManager@@@@XZ 00418a70 f   servercommon:WorkLoadManager.obj
 0001:00017ae0       ?DestroyInstance@WorkLoadManager@@SAXXZ 00418ae0 f   servercommon:WorkLoadManager.obj
 0001:00017b10       ?clear@?$list@KV?$CustomAllocator@K@util@@@std@@QAEXXZ 00418b10 f i servercommon:WorkLoadManager.obj
 0001:00017b50       ?_Lrotate@?$_Tree@V?$_Tmap_traits@KU?$pair@KK@std@@U?$less@K@2@V?$CustomAllocator@U?$pair@KK@std@@@util@@$0A@@std@@@std@@IAEXPAU_Node@?$_Tree_nod@V?$_Tmap_traits@KU?$pair@KK@std@@U?$less@K@2@V?$CustomAllocator@U?$pair@KK@std@@@util@@$0A@@std@@@2@@Z 00418b50 f i MasterServerInfo.obj
 0001:00017b50       ?_Lrotate@?$_Tree@V?$_Tmap_traits@KU?$pair@V?$Delegator@VIWorkNode@@@@H@std@@U?$less@K@2@V?$CustomAllocator@U?$pair@V?$Delegator@VIWorkNode@@@@H@std@@@util@@$0A@@std@@@std@@IAEXPAU_Node@?$_Tree_nod@V?$_Tmap_traits@KU?$pair@V?$Delegator@VIWorkNode@@@@H@std@@U?$less@K@2@V?$CustomAllocator@U?$pair@V?$Delegator@VIWorkNode@@@@H@std@@@util@@$0A@@std@@@2@@Z 00418b50 f i servercommon:WorkLoadManager.obj
 0001:00017ba0       ?_Buynode@?$list@KV?$CustomAllocator@K@util@@@std@@IAEPAU_Node@?$_List_nod@KV?$CustomAllocator@K@util@@@2@XZ 00418ba0 f i servercommon:WorkLoadManager.obj
 0001:00017ba0       ?_Buynode@?$list@W4eSCRIPT_CODE@@V?$CustomAllocator@W4eSCRIPT_CODE@@@util@@@std@@IAEPAU_Node@?$_List_nod@W4eSCRIPT_CODE@@V?$CustomAllocator@W4eSCRIPT_CODE@@@util@@@2@XZ 00418ba0 f i servercommon:ScriptDataManager.obj
 0001:00017ba0       ?_Buynode@?$list@PAUSCRIPT_DATA@@V?$CustomAllocator@PAUSCRIPT_DATA@@@util@@@std@@IAEPAU_Node@?$_List_nod@PAUSCRIPT_DATA@@V?$CustomAllocator@PAUSCRIPT_DATA@@@util@@@2@XZ 00418ba0 f i programcommon_s:ScriptParserManager.obj
 0001:00017bc0       ?_Buynode@?$list@KV?$CustomAllocator@K@util@@@std@@IAEPAU_Node@?$_List_nod@KV?$CustomAllocator@K@util@@@2@PAU342@0ABK@Z 00418bc0 f i servercommon:WorkLoadManager.obj
 0001:00017bc0       ?_Buynode@?$list@W4eSCRIPT_CODE@@V?$CustomAllocator@W4eSCRIPT_CODE@@@util@@@std@@IAEPAU_Node@?$_List_nod@W4eSCRIPT_CODE@@V?$CustomAllocator@W4eSCRIPT_CODE@@@util@@@2@PAU342@0ABW4eSCRIPT_CODE@@@Z 00418bc0 f i servercommon:ScriptDataManager.obj
 0001:00017bc0       ?_Buynode@?$list@PAUSCRIPT_DATA@@V?$CustomAllocator@PAUSCRIPT_DATA@@@util@@@std@@IAEPAU_Node@?$_List_nod@PAUSCRIPT_DATA@@V?$CustomAllocator@PAUSCRIPT_DATA@@@util@@@2@PAU342@0ABQAUSCRIPT_DATA@@@Z 00418bc0 f i programcommon_s:ScriptParserManager.obj
 0001:00017c00       ?_Buynode@?$_Tree@V?$_Tmap_traits@KU?$pair@V?$Delegator@VIWorkNode@@@@H@std@@U?$less@K@2@V?$CustomAllocator@U?$pair@V?$Delegator@VIWorkNode@@@@H@std@@@util@@$0A@@std@@@std@@IAEPAU_Node@?$_Tree_nod@V?$_Tmap_traits@KU?$pair@V?$Delegator@VIWorkNode@@@@H@std@@U?$less@K@2@V?$CustomAllocator@U?$pair@V?$Delegator@VIWorkNode@@@@H@std@@@util@@$0A@@std@@@2@XZ 00418c00 f i servercommon:WorkLoadManager.obj
 0001:00017c00       ?_Buynode@?$_Tree@V?$_Tmap_traits@KU?$pair@KK@std@@U?$less@K@2@V?$CustomAllocator@U?$pair@KK@std@@@util@@$0A@@std@@@std@@IAEPAU_Node@?$_Tree_nod@V?$_Tmap_traits@KU?$pair@KK@std@@U?$less@K@2@V?$CustomAllocator@U?$pair@KK@std@@@util@@$0A@@std@@@2@XZ 00418c00 f i MasterServerEx.obj
 0001:00017c40       ??Citerator@?$_Tree@V?$_Tmap_traits@KU?$pair@V?$Delegator@VIWorkNode@@@@H@std@@U?$less@K@2@V?$CustomAllocator@U?$pair@V?$Delegator@VIWorkNode@@@@H@std@@@util@@$0A@@std@@@std@@QBEPAU?$pair@$$CBKU?$pair@V?$Delegator@VIWorkNode@@@@H@std@@@2@XZ 00418c40 f i servercommon:WorkLoadManager.obj
 0001:00017c40       ??Cconst_iterator@?$_Tree@V?$_Tmap_traits@V?$basic_string@DU?$char_traits@D@std@@V?$allocator@D@2@@std@@V12@U?$less@V?$basic_string@DU?$char_traits@D@std@@V?$allocator@D@2@@std@@@2@V?$allocator@U?$pair@$$CBV?$basic_string@DU?$char_traits@D@std@@V?$allocator@D@2@@std@@V12@@std@@@2@$0A@@std@@@std@@QBEPBU?$pair@$$CBV?$basic_string@DU?$char_traits@D@std@@V?$allocator@D@2@@std@@V12@@2@XZ 00418c40 f i utility_s:INIParser.obj
 0001:00017c70       ?_Buynode@?$_Tree@V?$_Tmap_traits@KU?$pair@V?$Delegator@VIWorkNode@@@@H@std@@U?$less@K@2@V?$CustomAllocator@U?$pair@V?$Delegator@VIWorkNode@@@@H@std@@@util@@$0A@@std@@@std@@IAEPAU_Node@?$_Tree_nod@V?$_Tmap_traits@KU?$pair@V?$Delegator@VIWorkNode@@@@H@std@@U?$less@K@2@V?$CustomAllocator@U?$pair@V?$Delegator@VIWorkNode@@@@H@std@@@util@@$0A@@std@@@2@PAU342@00ABU?$pair@$$CBKU?$pair@V?$Delegator@VIWorkNode@@@@H@std@@@2@D@Z 00418c70 f i servercommon:WorkLoadManager.obj
 0001:00017c70       ?_Buynode@?$_Tree@V?$_Tmap_traits@KU?$pair@KK@std@@U?$less@K@2@V?$CustomAllocator@U?$pair@KK@std@@@util@@$0A@@std@@@std@@IAEPAU_Node@?$_Tree_nod@V?$_Tmap_traits@KU?$pair@KK@std@@U?$less@K@2@V?$CustomAllocator@U?$pair@KK@std@@@util@@$0A@@std@@@2@PAU342@00ABU?$pair@$$CBKU?$pair@KK@std@@@2@D@Z 00418c70 f i MasterServerInfo.obj
 0001:00017cc0       ?_Erase@?$_Tree@V?$_Tmap_traits@KU?$pair@V?$Delegator@VIWorkNode@@@@H@std@@U?$less@K@2@V?$CustomAllocator@U?$pair@V?$Delegator@VIWorkNode@@@@H@std@@@util@@$0A@@std@@@std@@IAEXPAU_Node@?$_Tree_nod@V?$_Tmap_traits@KU?$pair@V?$Delegator@VIWorkNode@@@@H@std@@U?$less@K@2@V?$CustomAllocator@U?$pair@V?$Delegator@VIWorkNode@@@@H@std@@@util@@$0A@@std@@@2@@Z 00418cc0 f i servercommon:WorkLoadManager.obj
 0001:00017d00       ??$for_each@Viterator@?$_Tree@V?$_Tmap_traits@KU?$pair@V?$Delegator@VIWorkNode@@@@H@std@@U?$less@K@2@V?$CustomAllocator@U?$pair@V?$Delegator@VIWorkNode@@@@H@std@@@util@@$0A@@std@@@std@@V?$binder1st@V?$mem_fun1_t@XVWorkLoadManager@@U?$pair@KU?$pair@V?$Delegator@VIWorkNode@@@@H@std@@@std@@@std@@@3@@std@@YA?AV?$binder1st@V?$mem_fun1_t@XVWorkLoadManager@@U?$pair@KU?$pair@V?$Delegator@VIWorkNode@@@@H@std@@@std@@@std@@@0@Viterator@?$_Tree@V?$_Tmap_traits@KU?$pair@V?$Delegator@VIWorkNode@@@@H@std@@U?$less@K@2@V?$CustomAllocator@U?$pair@V?$Delegator@VIWorkNode@@@@H@std@@@util@@$0A@@std@@@0@0V10@@Z 00418d00 f i servercommon:WorkLoadManager.obj
 0001:00017e10       ?find@?$_Tree@V?$_Tmap_traits@KU?$pair@V?$Delegator@VIWorkNode@@@@H@std@@U?$less@K@2@V?$CustomAllocator@U?$pair@V?$Delegator@VIWorkNode@@@@H@std@@@util@@$0A@@std@@@std@@QAE?AViterator@12@ABK@Z 00418e10 f i servercommon:WorkLoadManager.obj
 0001:00017e10       ?find@?$_Tree@V?$_Tmap_traits@KU?$pair@KK@std@@U?$less@K@2@V?$CustomAllocator@U?$pair@KK@std@@@util@@$0A@@std@@@std@@QAE?AViterator@12@ABK@Z 00418e10 f i MasterServerInfo.obj
 0001:00017ea0       ??1?$_Vector_val@U_List_position@?$_Hash@V?$_Hmap_traits@KV?$chunk_set@KU?$less@K@std@@@util@@V?$hash_compare@KU?$less@K@std@@@stdext@@V?$CustomAllocator@V?$chunk_set@KU?$less@K@std@@@util@@@2@$0A@@stdext@@@stdext@@V?$CustomAllocator@U_List_position@?$_Hash@V?$_Hmap_traits@KV?$chunk_set@KU?$less@K@std@@@util@@V?$hash_compare@KU?$less@K@std@@@stdext@@V?$CustomAllocator@V?$chunk_set@KU?$less@K@std@@@util@@@2@$0A@@stdext@@@stdext@@@util@@@std@@QAE@XZ 00418ea0 f i AbuseUserManager.obj
 0001:00017ea0       ??1?$_List_val@U?$pair@$$CBW4eSCRIPT_CODE@@PAUsSCRIPT_DATA_INFO_NODE_INTERNAL@@@std@@V?$CustomAllocator@U?$pair@$$CBW4eSCRIPT_CODE@@PAUsSCRIPT_DATA_INFO_NODE_INTERNAL@@@std@@@util@@@std@@QAE@XZ 00418ea0 f i servercommon:ScriptDataManager.obj
 0001:00017ea0       ??1?$_Tree_val@V?$_Tmap_traits@KU?$pair@KK@std@@U?$less@K@2@V?$CustomAllocator@U?$pair@KK@std@@@util@@$0A@@std@@@std@@QAE@XZ 00418ea0 f i MasterServerEx.obj
 0001:00017ea0       ??1?$_Vector_val@U_List_position@?$_Hash@V?$_Hmap_traits@KPAVAbuseUser@@V?$hash_compare@KU?$less@K@std@@@stdext@@V?$CustomAllocator@PAVAbuseUser@@@util@@$0A@@stdext@@@stdext@@V?$CustomAllocator@U_List_position@?$_Hash@V?$_Hmap_traits@KPAVAbuseUser@@V?$hash_compare@KU?$less@K@std@@@stdext@@V?$CustomAllocator@PAVAbuseUser@@@util@@$0A@@stdext@@@stdext@@@util@@@std@@QAE@XZ 00418ea0 f i AbuseUserManager.obj
 0001:00017ea0       ??1?$_Tree_val@V?$_Tmap_traits@KU?$pair@V?$Delegator@VIWorkNode@@@@H@std@@U?$less@K@2@V?$CustomAllocator@U?$pair@V?$Delegator@VIWorkNode@@@@H@std@@@util@@$0A@@std@@@std@@QAE@XZ 00418ea0 f i servercommon:WorkLoadManager.obj
 0001:00017ea0       ??1?$_List_val@U?$pair@$$CBKV?$chunk_set@KU?$less@K@std@@@util@@@std@@V?$CustomAllocator@U?$pair@$$CBKV?$chunk_set@KU?$less@K@std@@@util@@@std@@@util@@@std@@QAE@XZ 00418ea0 f i AbuseUserManager.obj
 0001:00017ea0       ??1?$_Tree_val@V?$_Tset_traits@KU?$less@K@std@@V?$CustomAllocator@K@util@@$0A@@std@@@std@@QAE@XZ 00418ea0 f i AbuseUserManager.obj
 0001:00017ea0       ??1?$_List_val@PAUSCRIPT_DATA@@V?$CustomAllocator@PAUSCRIPT_DATA@@@util@@@std@@QAE@XZ 00418ea0 f i programcommon_s:ScriptParserManager.obj
 0001:00017ea0       ??1?$_List_val@W4eSCRIPT_CODE@@V?$CustomAllocator@W4eSCRIPT_CODE@@@util@@@std@@QAE@XZ 00418ea0 f i servercommon:ScriptDataManager.obj
 0001:00017ea0       ??1?$_Vector_val@U?$pair@W4eSCRIPT_CODE@@PAUsSCRIPT_DATA_INFO_NODE_INTERNAL@@@std@@V?$CustomAllocator@U?$pair@W4eSCRIPT_CODE@@PAUsSCRIPT_DATA_INFO_NODE_INTERNAL@@@std@@@util@@@std@@QAE@XZ 00418ea0 f i servercommon:ScriptDataManager.obj
 0001:00017ea0       ??1?$_Tree_val@V?$_Tmap_traits@W4eSCRIPT_CODE@@UsCOMPRESS_INFO@ICompressConverter@@U?$less@W4eSCRIPT_CODE@@@std@@V?$CustomAllocator@UsCOMPRESS_INFO@ICompressConverter@@@util@@$0A@@std@@@std@@QAE@XZ 00418ea0 f i MasterScriptParserManager.obj
 0001:00017ea0       ??1?$_Tree_val@V?$_Tmap_traits@EPAUABUSING_OPTION_INFO@@U?$less@E@std@@V?$CustomAllocator@PAUABUSING_OPTION_INFO@@@util@@$0A@@std@@@std@@QAE@XZ 00418ea0 f i servercommon:AbusingOptionParser.obj
 0001:00017ea0       ??1?$_List_val@U?$pair@$$CBKPAVServerSession@@@std@@V?$CustomAllocator@U?$pair@$$CBKPAVServerSession@@@std@@@util@@@std@@QAE@XZ 00418ea0 f i servercommon:ServerFrame.obj
 0001:00017ea0       ??1?$_Vector_val@U_List_position@?$_Hash@V?$_Hmap_traits@KPAVServerSession@@V?$hash_compare@KU?$less@K@std@@@stdext@@V?$CustomAllocator@PAVServerSession@@@util@@$0A@@stdext@@@stdext@@V?$CustomAllocator@U_List_position@?$_Hash@V?$_Hmap_traits@KPAVServerSession@@V?$hash_compare@KU?$less@K@std@@@stdext@@V?$CustomAllocator@PAVServerSession@@@util@@$0A@@stdext@@@stdext@@@util@@@std@@QAE@XZ 00418ea0 f i servercommon:ServerFrame.obj
 0001:00017ea0       ??1?$_List_val@U?$pair@$$CBKPAVAbuseUser@@@std@@V?$CustomAllocator@U?$pair@$$CBKPAVAbuseUser@@@std@@@util@@@std@@QAE@XZ 00418ea0 f i AbuseUserManager.obj
 0001:00017ea0       ??1?$_Vector_val@U_List_position@?$_Hash@V?$_Hmap_traits@W4eSCRIPT_CODE@@PAUsSCRIPT_DATA_INFO_NODE_INTERNAL@@V?$hash_compare@W4eSCRIPT_CODE@@U?$less@W4eSCRIPT_CODE@@@std@@@stdext@@V?$CustomAllocator@PAUsSCRIPT_DATA_INFO_NODE_INTERNAL@@@util@@$0A@@stdext@@@stdext@@V?$CustomAllocator@U_List_position@?$_Hash@V?$_Hmap_traits@W4eSCRIPT_CODE@@PAUsSCRIPT_DATA_INFO_NODE_INTERNAL@@V?$hash_compare@W4eSCRIPT_CODE@@U?$less@W4eSCRIPT_CODE@@@std@@@stdext@@V?$CustomAllocator@PAUsSCRIPT_DATA_INFO_NODE_INTERNAL@@@util@@$0A@@stdext@@@stdext@@@util@@@std@@QAE@XZ 00418ea0 f i servercommon:ScriptDataManager.obj
 0001:00017ea0       ??1?$_Tree_val@V?$_Tmap_traits@W4eSCRIPT_CODE@@V?$basic_string@DU?$char_traits@D@std@@V?$allocator@D@2@@std@@U?$less@W4eSCRIPT_CODE@@@3@V?$CustomAllocator@V?$basic_string@DU?$char_traits@D@std@@V?$allocator@D@2@@std@@@util@@$0A@@std@@@std@@QAE@XZ 00418ea0 f i programcommon_s:ScriptCode.IParser.Impl.obj
 0001:00017ea0       ??1?$_List_val@KV?$CustomAllocator@K@util@@@std@@QAE@XZ 00418ea0 f i servercommon:WorkLoadManager.obj
 0001:00017eb0       ??0?$_Tree@V?$_Tmap_traits@KU?$pair@V?$Delegator@VIWorkNode@@@@H@std@@U?$less@K@2@V?$CustomAllocator@U?$pair@V?$Delegator@VIWorkNode@@@@H@std@@@util@@$0A@@std@@@std@@QAE@ABU?$less@K@1@ABV?$CustomAllocator@U?$pair@$$CBKU?$pair@V?$Delegator@VIWorkNode@@@@H@std@@@std@@@util@@@Z 00418eb0 f i servercommon:WorkLoadManager.obj
 0001:00017eb0       ??0?$_Tree@V?$_Tmap_traits@KU?$pair@KK@std@@U?$less@K@2@V?$CustomAllocator@U?$pair@KK@std@@@util@@$0A@@std@@@std@@QAE@ABU?$less@K@1@ABV?$CustomAllocator@U?$pair@$$CBKU?$pair@KK@std@@@std@@@util@@@Z 00418eb0 f i MasterServerEx.obj
 0001:00017f40       ?erase@?$_Tree@V?$_Tmap_traits@KU?$pair@V?$Delegator@VIWorkNode@@@@H@std@@U?$less@K@2@V?$CustomAllocator@U?$pair@V?$Delegator@VIWorkNode@@@@H@std@@@util@@$0A@@std@@@std@@QAE?AViterator@12@Vconst_iterator@12@@Z 00418f40 f i servercommon:WorkLoadManager.obj
 0001:00018210       ?erase@?$_Tree@V?$_Tmap_traits@KU?$pair@V?$Delegator@VIWorkNode@@@@H@std@@U?$less@K@2@V?$CustomAllocator@U?$pair@V?$Delegator@VIWorkNode@@@@H@std@@@util@@$0A@@std@@@std@@QAE?AViterator@12@Vconst_iterator@12@0@Z 00419210 f i servercommon:WorkLoadManager.obj
 0001:000182f0       ??1?$_Tree@V?$_Tmap_traits@KU?$pair@V?$Delegator@VIWorkNode@@@@H@std@@U?$less@K@2@V?$CustomAllocator@U?$pair@V?$Delegator@VIWorkNode@@@@H@std@@@util@@$0A@@std@@@std@@QAE@XZ 004192f0 f i servercommon:WorkLoadManager.obj
 0001:00018370       ?insert@?$_Tree@V?$_Tmap_traits@KU?$pair@KK@std@@U?$less@K@2@V?$CustomAllocator@U?$pair@KK@std@@@util@@$0A@@std@@@std@@QAE?AViterator@12@Vconst_iterator@12@ABU?$pair@$$CBKU?$pair@KK@std@@@2@@Z 00419370 f i MasterServerInfo.obj
 0001:00018370       ?insert@?$_Tree@V?$_Tmap_traits@KU?$pair@V?$Delegator@VIWorkNode@@@@H@std@@U?$less@K@2@V?$CustomAllocator@U?$pair@V?$Delegator@VIWorkNode@@@@H@std@@@util@@$0A@@std@@@std@@QAE?AViterator@12@Vconst_iterator@12@ABU?$pair@$$CBKU?$pair@V?$Delegator@VIWorkNode@@@@H@std@@@2@@Z 00419370 f i servercommon:WorkLoadManager.obj
 0001:00018540       ??1?$chunk_map@KU?$pair@V?$Delegator@VIWorkNode@@@@H@std@@U?$less@K@2@@util@@QAE@XZ 00419540 f i servercommon:WorkLoadManager.obj
 0001:00018550       ??4tag_MMEMO_INFOS@@QAEAAU0@ABU0@@Z 00419550 f   servercommon:ServerStruct.obj
 0001:00018580       ?SetResult@tag_MMEMO_ERR_RESULT@@QAEXK@Z 00419580 f   servercommon:ServerStruct.obj
 0001:00018600       ??4tag_MMEMO_ERR_RESULT@@QAEAAU0@ABU0@@Z 00419600 f   servercommon:ServerStruct.obj
 0001:00018630       ?Set@tag_MMEMO_RESULT@@QAE_NPBDKH_K00@Z 00419630 f   servercommon:ServerStruct.obj
 0001:000186e0       ?Output@SERVER_CHARACTER_PART@@QAEXAAVArchiveOfStream@@@Z 004196e0 f   servercommon:ServerStruct.obj
 0001:00018af0       ?Input@SERVER_CHARACTER_PART@@QAEXAAVArchiveOfStream@@@Z 00419af0 f   servercommon:ServerStruct.obj
 0001:00018ef0       ??0CSunLog@@QAE@XZ         00419ef0 f   servercommon:SunLog.obj
 0001:00018f10       ?SetLogLevel@CSunLog@@QAEXE@Z 00419f10 f   servercommon:SunLog.obj
 0001:00018f30       ?RegisterHandler@CSunLog@@QAEXP6AHPBV1@PBDPAD@Z@Z 00419f30 f   servercommon:SunLog.obj
 0001:00018f40       ?WriteMessage_IO@CSunLog@@SAHPAXPBEK@Z 00419f40 f   servercommon:SunLog.obj
 0001:00018fe0       ?WriteMessage_Console@CSunLog@@SAHPBV1@PBDPAD@Z 00419fe0 f   servercommon:SunLog.obj
 0001:00019060       ?WriteMessage_File@CSunLog@@SAHPBV1@PBDPAD@Z 0041a060 f   servercommon:SunLog.obj
 0001:00019100       ?WriteMessage_Console2@CSunLog@@SAHPBV1@PBDPAD@Z 0041a100 f   servercommon:SunLog.obj
 0001:00019110       ?WriteMessage_Console3@CSunLog@@SAHPBV1@PBDPAD@Z 0041a110 f   servercommon:SunLog.obj
 0001:00019170       ?GetCategoryNameByCode@@YA?AUCHAR_WRAPPER@@W4eLOGCATEGORY@CSunLog@@@Z 0041a170 f   servercommon:SunLog.obj
 0001:000191a0       ?MakePrefixFormat@CSunLog@@CAHW4ePREFIX@1@PADKW4eLOGCATEGORY@1@@Z 0041a1a0 f   servercommon:SunLog.obj
 0001:00019270       ??0CSunLogInfo@CSunLog@@QAE@XZ 0041a270 f   servercommon:SunLog.obj
 0001:000192e0       ??1CSunLogInfo@CSunLog@@QAE@XZ 0041a2e0 f   servercommon:SunLog.obj
 0001:00019330       ?CheckHandler@CSunLog@@AAEHAAP6AHPBV1@PBDPAD@Z3@Z 0041a330 f   servercommon:SunLog.obj
 0001:000193a0       ?Flush@CSunLog@@QAEXW4eLOGOPTION@1@@Z 0041a3a0 f   servercommon:SunLog.obj
 0001:000193f0       ?LOGGINGwithARG@CSunLog@@SAHPAV1@W4eLOGOPTION@1@W4eLOGLEVEL@1@W4eLOGCATEGORY@1@PBDPAD@Z 0041a3f0 f   servercommon:SunLog.obj
 0001:000194a0       ??1CSunLog@@QAE@XZ         0041a4a0 f   servercommon:SunLog.obj
 0001:00019530       ?Init@CSunLog@@UAEHEEPBD0H@Z 0041a530 f   servercommon:SunLog.obj
 0001:00019720       ?Update@CSunLog@@QAEXXZ    0041a720 f   servercommon:SunLog.obj
 0001:00019780       ?BASE_NUMBER@SERVER_VERSION_INFO@@SAKXZ 0041a780 f   servercommon:ServerBuildVersion.obj
 0001:00019790       ?RELEASE_BUILD_NUMBER@SERVER_VERSION_INFO@@SAKXZ 0041a790 f   servercommon:ServerBuildVersion.obj
 0001:000197a0       ?OnRedirect@TempServerSession@@EAEXKQAUMSG_SERVER_TYPE@@@Z 0041a7a0 f i ServerSessionManager.obj
 0001:000197a0       ?OnConnect@NetworkObject@@MAEXHK@Z 0041a7a0 f i servercommon:ServerSession.obj
 0001:000197a0       ?OnRecv@ServerSession@@MAEXPAEG@Z 0041a7a0 f i servercommon:ServerSession.obj
 0001:000197b0       ?OnConnect@ServerSession@@MAEXHK@Z 0041a7b0 f   servercommon:ServerSession.obj
 0001:000197e0       ?SendHeartbeatPacket@ServerSession@@MAEXXZ 0041a7e0 f   servercommon:ServerSession.obj
 0001:000197f0       ?OnLogString@ServerSession@@MAEXPAD@Z 0041a7f0 f   servercommon:ServerSession.obj
 0001:00019820       ?Update@ServerSession@@UAEXXZ 0041a820 f   servercommon:ServerSession.obj
 0001:00019860       ?Clear@ServerSession@@QAEXXZ 0041a860 f   servercommon:ServerSession.obj
 0001:000198a0       ?Init@ServerSession@@MAEXXZ 0041a8a0 f   servercommon:ServerSession.obj
 0001:000198e0       ?Release@ServerSession@@UAEXXZ 0041a8e0 f   servercommon:ServerSession.obj
 0001:00019920       ??0ServerSession@@QAE@XZ   0041a920 f   servercommon:ServerSession.obj
 0001:00019990       ??1ServerSession@@UAE@XZ   0041a990 f   servercommon:ServerSession.obj
 0001:000199d0       ?OnRedirect@ServerSession@@UAEXKQAUMSG_SERVER_TYPE@@@Z 0041a9d0 f   servercommon:ServerSession.obj
 0001:00019a20       ?OnAccept@ServerSession@@MAEXK@Z 0041aa20 f   servercommon:ServerSession.obj
 0001:00019a80       ?OnConnectSuccess@ServerSession@@MAEXK@Z 0041aa80 f   servercommon:ServerSession.obj
 0001:00019b10       ?OnDisconnect@ServerSession@@MAEXXZ 0041ab10 f   servercommon:ServerSession.obj
 0001:00019b90       ??_EServerSession@@UAEPAXI@Z 0041ab90 f i servercommon:ServerSession.obj
 0001:00019b90       ??_GServerSession@@UAEPAXI@Z 0041ab90 f i servercommon:ServerSession.obj
 0001:00019be0       ?AddSession@ServerFrame@@QAEXKPAVServerSession@@@Z 0041abe0 f i servercommon:ServerSession.obj
 0001:00019c40       ??0StatisticsManager@@QAE@XZ 0041ac40 f   servercommon:StatisticsManager.obj
 0001:00019c50       ??1StatisticsManager@@QAE@XZ 0041ac50 f   servercommon:StatisticsManager.obj
 0001:00019c60       ??0TempServerSession@@QAE@XZ 0041ac60 f   servercommon:TempServerSession.obj
 0001:00019c80       ??1TempServerSession@@UAE@XZ 0041ac80 f   servercommon:TempServerSession.obj
 0001:00019c90       ?Init@TempServerSession@@MAEXXZ 0041ac90 f   servercommon:TempServerSession.obj
 0001:00019cb0       ?OnRecv@TempServerSession@@MAEXPAEG@Z 0041acb0 f   servercommon:TempServerSession.obj
 0001:00019da0       ??_ETempServerSession@@UAEPAXI@Z 0041ada0 f i servercommon:TempServerSession.obj
 0001:00019da0       ??_GTempServerSession@@UAEPAXI@Z 0041ada0 f i servercommon:TempServerSession.obj
 0001:00019dd0       ?_MoveStatusChangeEmptyToLoading@ScriptDataManagerInternal@@QAEXU?$pair@$$CBW4eSCRIPT_CODE@@PAUsSCRIPT_DATA_INFO_NODE_INTERNAL@@@std@@@Z 0041add0 f i servercommon:ScriptDataManager.obj
 0001:00019df0       ??0ScriptDataManager@@AAE@XZ 0041adf0 f   servercommon:ScriptDataManager.obj
 0001:00019e00       ??1ScriptDataManager@@AAE@XZ 0041ae00 f   servercommon:ScriptDataManager.obj
 0001:00019e10       ?RegisterCallbackAllDataLoaded@ScriptDataManager@@SAXP6AXXZ@Z 0041ae10 f   servercommon:ScriptDataManager.obj
 0001:00019e20       ?GetNeedLoadDataCount@ScriptDataManager@@SAKXZ 0041ae20 f   servercommon:ScriptDataManager.obj
 0001:00019e30       ?IsAllDataLoaded@ScriptDataManager@@SAHXZ 0041ae30 f   servercommon:ScriptDataManager.obj
 0001:00019e50       ?_GetEmptyListBegin@ScriptDataManager@@CA?AV?$_Iterator@$00@?$list@W4eSCRIPT_CODE@@V?$CustomAllocator@W4eSCRIPT_CODE@@@util@@@std@@XZ 0041ae50 f   servercommon:ScriptDataManager.obj
 0001:00019e70       ?_GetEmptyListEnd@ScriptDataManager@@CA?AV?$_Iterator@$00@?$list@W4eSCRIPT_CODE@@V?$CustomAllocator@W4eSCRIPT_CODE@@@util@@@std@@XZ 0041ae70 f   servercommon:ScriptDataManager.obj
 0001:00019e90       ?ProcessAllLoadedData@ScriptDataManager@@SAHXZ 0041ae90 f   servercommon:ScriptDataManager.obj
 0001:00019f30       ?_GetDataStatus@ScriptDataManager@@CAKW4eSCRIPT_CODE@@@Z 0041af30 f   servercommon:ScriptDataManager.obj
 0001:00019fc0       ?SaveDataStreamToken@ScriptDataManager@@SAHW4eSCRIPT_CODE@@KKPAE@Z 0041afc0 f   servercommon:ScriptDataManager.obj
 0001:0001a110       ?ProcessLoadedData@ScriptDataManager@@SAHW4eSCRIPT_CODE@@@Z 0041b110 f   servercommon:ScriptDataManager.obj
 0001:0001a210       ?DataStreamCommand@ScriptDataManager@@SAHKW4eSCRIPT_CODE@@AAPAEAAK@Z 0041b210 f   servercommon:ScriptDataManager.obj
 0001:0001a3d0       ?IsLoadedData@ScriptDataManager@@SAHW4eSCRIPT_CODE@@@Z 0041b3d0 f   servercommon:ScriptDataManager.obj
 0001:0001a450       ?AsyncReloadedDataCallback@ScriptDataManager@@CAXW4eSCRIPT_CODE@@PAE@Z 0041b450 f   servercommon:ScriptDataManager.obj
 0001:0001a4e0       ?ReRegisterReloadDataList@ScriptDataManager@@SAHXZ 0041b4e0 f   servercommon:ScriptDataManager.obj
 0001:0001a510       ?DataStatusCommand@ScriptDataManager@@SAHKW4eSCRIPT_CODE@@PAK@Z 0041b510 f   servercommon:ScriptDataManager.obj
 0001:0001a640       ?RegisterDataList@ScriptDataManager@@SAHPAUsSCRIPT_DATA_INFO_NODE@@@Z 0041b640 f   servercommon:ScriptDataManager.obj
 0001:0001a7b0       ??$_Uninit_copy@PAU?$pair@W4eSCRIPT_CODE@@PAUsSCRIPT_DATA_INFO_NODE_INTERNAL@@@std@@PAU12@V?$CustomAllocator@U?$pair@W4eSCRIPT_CODE@@PAUsSCRIPT_DATA_INFO_NODE_INTERNAL@@@std@@@util@@@std@@YAPAU?$pair@W4eSCRIPT_CODE@@PAUsSCRIPT_DATA_INFO_NODE_INTERNAL@@@0@PAU10@00AAV?$CustomAllocator@U?$pair@W4eSCRIPT_CODE@@PAUsSCRIPT_DATA_INFO_NODE_INTERNAL@@@std@@@util@@U_Nonscalar_ptr_iterator_tag@0@U_Range_checked_iterator_tag@0@@Z 0041b7b0 f i servercommon:ScriptDataManager.obj
 0001:0001a7b0       ??$_Uninit_copy@PAU_List_position@?$_Hash@V?$_Hmap_traits@KPAVBASE_FUNC@util@@V?$hash_compare@KU?$less@K@std@@@stdext@@V?$allocator@U?$pair@$$CBKPAVBASE_FUNC@util@@@std@@@std@@$0A@@stdext@@@stdext@@PAU123@V?$allocator@U_List_position@?$_Hash@V?$_Hmap_traits@KPAVBASE_FUNC@util@@V?$hash_compare@KU?$less@K@std@@@stdext@@V?$allocator@U?$pair@$$CBKPAVBASE_FUNC@util@@@std@@@std@@$0A@@stdext@@@stdext@@@std@@@std@@YAPAU_List_position@?$_Hash@V?$_Hmap_traits@KPAVBASE_FUNC@util@@V?$hash_compare@KU?$less@K@std@@@stdext@@V?$allocator@U?$pair@$$CBKPAVBASE_FUNC@util@@@std@@@std@@$0A@@stdext@@@stdext@@PAU123@00AAV?$allocator@U_List_position@?$_Hash@V?$_Hmap_traits@KPAVBASE_FUNC@util@@V?$hash_compare@KU?$less@K@std@@@stdext@@V?$allocator@U?$pair@$$CBKPAVBASE_FUNC@util@@@std@@@std@@$0A@@stdext@@@stdext@@@0@U_Nonscalar_ptr_iterator_tag@0@U_Range_checked_iterator_tag@0@@Z 0041b7b0 f i PacketHandler.obj
 0001:0001a7b0       ??$_Uninit_copy@PAU_List_position@?$_Hash@V?$_Hmap_traits@KPAVServerSession@@V?$hash_compare@KU?$less@K@std@@@stdext@@V?$CustomAllocator@PAVServerSession@@@util@@$0A@@stdext@@@stdext@@PAU123@V?$CustomAllocator@U_List_position@?$_Hash@V?$_Hmap_traits@KPAVServerSession@@V?$hash_compare@KU?$less@K@std@@@stdext@@V?$CustomAllocator@PAVServerSession@@@util@@$0A@@stdext@@@stdext@@@util@@@std@@YAPAU_List_position@?$_Hash@V?$_Hmap_traits@KPAVServerSession@@V?$hash_compare@KU?$less@K@std@@@stdext@@V?$CustomAllocator@PAVServerSession@@@util@@$0A@@stdext@@@stdext@@PAU123@00AAV?$CustomAllocator@U_List_position@?$_Hash@V?$_Hmap_traits@KPAVServerSession@@V?$hash_compare@KU?$less@K@std@@@stdext@@V?$CustomAllocator@PAVServerSession@@@util@@$0A@@stdext@@@stdext@@@util@@U_Nonscalar_ptr_iterator_tag@0@U_Range_checked_iterator_tag@0@@Z 0041b7b0 f i TempServerSessionEx.obj
 0001:0001a7b0       ??$_Uninit_copy@PAU_List_position@?$_Hash@V?$_Hmap_traits@KPAVAbuseUser@@V?$hash_compare@KU?$less@K@std@@@stdext@@V?$CustomAllocator@PAVAbuseUser@@@util@@$0A@@stdext@@@stdext@@PAU123@V?$CustomAllocator@U_List_position@?$_Hash@V?$_Hmap_traits@KPAVAbuseUser@@V?$hash_compare@KU?$less@K@std@@@stdext@@V?$CustomAllocator@PAVAbuseUser@@@util@@$0A@@stdext@@@stdext@@@util@@@std@@YAPAU_List_position@?$_Hash@V?$_Hmap_traits@KPAVAbuseUser@@V?$hash_compare@KU?$less@K@std@@@stdext@@V?$CustomAllocator@PAVAbuseUser@@@util@@$0A@@stdext@@@stdext@@PAU123@00AAV?$CustomAllocator@U_List_position@?$_Hash@V?$_Hmap_traits@KPAVAbuseUser@@V?$hash_compare@KU?$less@K@std@@@stdext@@V?$CustomAllocator@PAVAbuseUser@@@util@@$0A@@stdext@@@stdext@@@util@@U_Nonscalar_ptr_iterator_tag@0@U_Range_checked_iterator_tag@0@@Z 0041b7b0 f i AbuseUserManager.obj
 0001:0001a7b0       ??$_Uninit_copy@PAU_List_position@?$_Hash@V?$_Hmap_traits@W4eSCRIPT_CODE@@PAUsSCRIPT_DATA_INFO_NODE_INTERNAL@@V?$hash_compare@W4eSCRIPT_CODE@@U?$less@W4eSCRIPT_CODE@@@std@@@stdext@@V?$CustomAllocator@PAUsSCRIPT_DATA_INFO_NODE_INTERNAL@@@util@@$0A@@stdext@@@stdext@@PAU123@V?$CustomAllocator@U_List_position@?$_Hash@V?$_Hmap_traits@W4eSCRIPT_CODE@@PAUsSCRIPT_DATA_INFO_NODE_INTERNAL@@V?$hash_compare@W4eSCRIPT_CODE@@U?$less@W4eSCRIPT_CODE@@@std@@@stdext@@V?$CustomAllocator@PAUsSCRIPT_DATA_INFO_NODE_INTERNAL@@@util@@$0A@@stdext@@@stdext@@@util@@@std@@YAPAU_List_position@?$_Hash@V?$_Hmap_traits@W4eSCRIPT_CODE@@PAUsSCRIPT_DATA_INFO_NODE_INTERNAL@@V?$hash_compare@W4eSCRIPT_CODE@@U?$less@W4eSCRIPT_CODE@@@std@@@stdext@@V?$CustomAllocator@PAUsSCRIPT_DATA_INFO_NODE_INTERNAL@@@util@@$0A@@stdext@@@stdext@@PAU123@00AAV?$CustomAllocator@U_List_position@?$_Hash@V?$_Hmap_traits@W4eSCRIPT_CODE@@PAUsSCRIPT_DATA_INFO_NODE_INTERNAL@@V?$hash_compare@W4eSCRIPT_CODE@@U?$less@W4eSCRIPT_CODE@@@std@@@stdext@@V?$CustomAllocator@PAUsSCRIPT_DATA_INFO_NODE_INTERNAL@@@util@@$0A@@stdext@@@stdext@@@util@@U_Nonscalar_ptr_iterator_tag@0@U_Range_checked_iterator_tag@0@@Z 0041b7b0 f i servercommon:ScriptDataManager.obj
 0001:0001a7b0       ??$_Uninit_copy@PAU_List_position@?$_Hash@V?$_Hmap_traits@KV?$chunk_set@KU?$less@K@std@@@util@@V?$hash_compare@KU?$less@K@std@@@stdext@@V?$CustomAllocator@V?$chunk_set@KU?$less@K@std@@@util@@@2@$0A@@stdext@@@stdext@@PAU123@V?$CustomAllocator@U_List_position@?$_Hash@V?$_Hmap_traits@KV?$chunk_set@KU?$less@K@std@@@util@@V?$hash_compare@KU?$less@K@std@@@stdext@@V?$CustomAllocator@V?$chunk_set@KU?$less@K@std@@@util@@@2@$0A@@stdext@@@stdext@@@util@@@std@@YAPAU_List_position@?$_Hash@V?$_Hmap_traits@KV?$chunk_set@KU?$less@K@std@@@util@@V?$hash_compare@KU?$less@K@std@@@stdext@@V?$CustomAllocator@V?$chunk_set@KU?$less@K@std@@@util@@@2@$0A@@stdext@@@stdext@@PAU123@00AAV?$CustomAllocator@U_List_position@?$_Hash@V?$_Hmap_traits@KV?$chunk_set@KU?$less@K@std@@@util@@V?$hash_compare@KU?$less@K@std@@@stdext@@V?$CustomAllocator@V?$chunk_set@KU?$less@K@std@@@util@@@2@$0A@@stdext@@@stdext@@@util@@U_Nonscalar_ptr_iterator_tag@0@U_Range_checked_iterator_tag@0@@Z 0041b7b0 f i AbuseUserManager.obj
 0001:0001a7e0       ?_ProcessLoadedData@ScriptDataSubControl@@QBEXPAUsSCRIPT_DATA_INFO_NODE_INTERNAL@@@Z 0041b7e0 f i servercommon:ScriptDataManager.obj
 0001:0001a850       ?_Buynode@?$list@U?$pair@$$CBKPAVServerSession@@@std@@V?$CustomAllocator@U?$pair@$$CBKPAVServerSession@@@std@@@util@@@std@@IAEPAU_Node@?$_List_nod@U?$pair@$$CBKPAVServerSession@@@std@@V?$CustomAllocator@U?$pair@$$CBKPAVServerSession@@@std@@@util@@@2@XZ 0041b850 f i servercommon:ServerFrame.obj
 0001:0001a850       ?_Buynode@?$list@U?$pair@$$CBKPAVAbuseUser@@@std@@V?$CustomAllocator@U?$pair@$$CBKPAVAbuseUser@@@std@@@util@@@std@@IAEPAU_Node@?$_List_nod@U?$pair@$$CBKPAVAbuseUser@@@std@@V?$CustomAllocator@U?$pair@$$CBKPAVAbuseUser@@@std@@@util@@@2@XZ 0041b850 f i AbuseUserManager.obj
 0001:0001a850       ?_Buynode@?$list@U?$pair@$$CBW4eSCRIPT_CODE@@PAUsSCRIPT_DATA_INFO_NODE_INTERNAL@@@std@@V?$CustomAllocator@U?$pair@$$CBW4eSCRIPT_CODE@@PAUsSCRIPT_DATA_INFO_NODE_INTERNAL@@@std@@@util@@@std@@IAEPAU_Node@?$_List_nod@U?$pair@$$CBW4eSCRIPT_CODE@@PAUsSCRIPT_DATA_INFO_NODE_INTERNAL@@@std@@V?$CustomAllocator@U?$pair@$$CBW4eSCRIPT_CODE@@PAUsSCRIPT_DATA_INFO_NODE_INTERNAL@@@std@@@util@@@2@XZ 0041b850 f i servercommon:ScriptDataManager.obj
 0001:0001a870       ??$Foreach_Default@V?$chunk_vector@U?$pair@W4eSCRIPT_CODE@@PAUsSCRIPT_DATA_INFO_NODE_INTERNAL@@@std@@@util@@V?$_Vector_iterator@U?$pair@W4eSCRIPT_CODE@@PAUsSCRIPT_DATA_INFO_NODE_INTERNAL@@@std@@V?$CustomAllocator@U?$pair@W4eSCRIPT_CODE@@PAUsSCRIPT_DATA_INFO_NODE_INTERNAL@@@std@@@util@@@std@@V?$binder1st@V?$mem_fun1_t@XUScriptDataManagerInternal@@U?$pair@$$CBW4eSCRIPT_CODE@@PAUsSCRIPT_DATA_INFO_NODE_INTERNAL@@@std@@@std@@@4@@@YAXAAV?$chunk_vector@U?$pair@W4eSCRIPT_CODE@@PAUsSCRIPT_DATA_INFO_NODE_INTERNAL@@@std@@@util@@V?$_Vector_iterator@U?$pair@W4eSCRIPT_CODE@@PAUsSCRIPT_DATA_INFO_NODE_INTERNAL@@@std@@V?$CustomAllocator@U?$pair@W4eSCRIPT_CODE@@PAUsSCRIPT_DATA_INFO_NODE_INTERNAL@@@std@@@util@@@std@@1V?$binder1st@V?$mem_fun1_t@XUScriptDataManagerInternal@@U?$pair@$$CBW4eSCRIPT_CODE@@PAUsSCRIPT_DATA_INFO_NODE_INTERNAL@@@std@@@std@@@3@@Z 0041b870 f i servercommon:ScriptDataManager.obj
 0001:0001a8f0       ??$fill@PAU_List_position@?$_Hash@V?$_Hmap_traits@KPAVAbuseUser@@V?$hash_compare@KU?$less@K@std@@@stdext@@V?$CustomAllocator@PAVAbuseUser@@@util@@$0A@@stdext@@@stdext@@U123@@std@@YAXPAU_List_position@?$_Hash@V?$_Hmap_traits@KPAVAbuseUser@@V?$hash_compare@KU?$less@K@std@@@stdext@@V?$CustomAllocator@PAVAbuseUser@@@util@@$0A@@stdext@@@stdext@@0ABU123@@Z 0041b8f0 f i AbuseUserManager.obj
 0001:0001a8f0       ??$fill@PAU_List_position@?$_Hash@V?$_Hmap_traits@KPAVServerSession@@V?$hash_compare@KU?$less@K@std@@@stdext@@V?$CustomAllocator@PAVServerSession@@@util@@$0A@@stdext@@@stdext@@U123@@std@@YAXPAU_List_position@?$_Hash@V?$_Hmap_traits@KPAVServerSession@@V?$hash_compare@KU?$less@K@std@@@stdext@@V?$CustomAllocator@PAVServerSession@@@util@@$0A@@stdext@@@stdext@@0ABU123@@Z 0041b8f0 f i TempServerSessionEx.obj
 0001:0001a8f0       ??$fill@PAU_List_position@?$_Hash@V?$_Hmap_traits@KV?$chunk_set@KU?$less@K@std@@@util@@V?$hash_compare@KU?$less@K@std@@@stdext@@V?$CustomAllocator@V?$chunk_set@KU?$less@K@std@@@util@@@2@$0A@@stdext@@@stdext@@U123@@std@@YAXPAU_List_position@?$_Hash@V?$_Hmap_traits@KV?$chunk_set@KU?$less@K@std@@@util@@V?$hash_compare@KU?$less@K@std@@@stdext@@V?$CustomAllocator@V?$chunk_set@KU?$less@K@std@@@util@@@2@$0A@@stdext@@@stdext@@0ABU123@@Z 0041b8f0 f i AbuseUserManager.obj
 0001:0001a8f0       ??$fill@PAU_List_position@?$_Hash@V?$_Hmap_traits@KPAVBASE_FUNC@util@@V?$hash_compare@KU?$less@K@std@@@stdext@@V?$allocator@U?$pair@$$CBKPAVBASE_FUNC@util@@@std@@@std@@$0A@@stdext@@@stdext@@U123@@std@@YAXPAU_List_position@?$_Hash@V?$_Hmap_traits@KPAVBASE_FUNC@util@@V?$hash_compare@KU?$less@K@std@@@stdext@@V?$allocator@U?$pair@$$CBKPAVBASE_FUNC@util@@@std@@@std@@$0A@@stdext@@@stdext@@0ABU123@@Z 0041b8f0 f i PacketHandler.obj
 0001:0001a8f0       ??$fill@PAU_List_position@?$_Hash@V?$_Hmap_traits@W4eSCRIPT_CODE@@PAUsSCRIPT_DATA_INFO_NODE_INTERNAL@@V?$hash_compare@W4eSCRIPT_CODE@@U?$less@W4eSCRIPT_CODE@@@std@@@stdext@@V?$CustomAllocator@PAUsSCRIPT_DATA_INFO_NODE_INTERNAL@@@util@@$0A@@stdext@@@stdext@@U123@@std@@YAXPAU_List_position@?$_Hash@V?$_Hmap_traits@W4eSCRIPT_CODE@@PAUsSCRIPT_DATA_INFO_NODE_INTERNAL@@V?$hash_compare@W4eSCRIPT_CODE@@U?$less@W4eSCRIPT_CODE@@@std@@@stdext@@V?$CustomAllocator@PAUsSCRIPT_DATA_INFO_NODE_INTERNAL@@@util@@$0A@@stdext@@@stdext@@0ABU123@@Z 0041b8f0 f i servercommon:ScriptDataManager.obj
 0001:0001a8f0       ??$fill@PAU?$pair@W4eSCRIPT_CODE@@PAUsSCRIPT_DATA_INFO_NODE_INTERNAL@@@std@@U12@@std@@YAXPAU?$pair@W4eSCRIPT_CODE@@PAUsSCRIPT_DATA_INFO_NODE_INTERNAL@@@0@0ABU10@@Z 0041b8f0 f i servercommon:ScriptDataManager.obj
 0001:0001a920       ?_Ufill@?$vector@U_List_position@?$_Hash@V?$_Hmap_traits@KPAVServerSession@@V?$hash_compare@KU?$less@K@std@@@stdext@@V?$CustomAllocator@PAVServerSession@@@util@@$0A@@stdext@@@stdext@@V?$CustomAllocator@U_List_position@?$_Hash@V?$_Hmap_traits@KPAVServerSession@@V?$hash_compare@KU?$less@K@std@@@stdext@@V?$CustomAllocator@PAVServerSession@@@util@@$0A@@stdext@@@stdext@@@util@@@std@@IAEPAU_List_position@?$_Hash@V?$_Hmap_traits@KPAVServerSession@@V?$hash_compare@KU?$less@K@std@@@stdext@@V?$CustomAllocator@PAVServerSession@@@util@@$0A@@stdext@@@stdext@@PAU345@IABU345@@Z 0041b920 f i TempServerSessionEx.obj
 0001:0001a920       ?_Ufill@?$vector@U_List_position@?$_Hash@V?$_Hmap_traits@KV?$chunk_set@KU?$less@K@std@@@util@@V?$hash_compare@KU?$less@K@std@@@stdext@@V?$CustomAllocator@V?$chunk_set@KU?$less@K@std@@@util@@@2@$0A@@stdext@@@stdext@@V?$CustomAllocator@U_List_position@?$_Hash@V?$_Hmap_traits@KV?$chunk_set@KU?$less@K@std@@@util@@V?$hash_compare@KU?$less@K@std@@@stdext@@V?$CustomAllocator@V?$chunk_set@KU?$less@K@std@@@util@@@2@$0A@@stdext@@@stdext@@@util@@@std@@IAEPAU_List_position@?$_Hash@V?$_Hmap_traits@KV?$chunk_set@KU?$less@K@std@@@util@@V?$hash_compare@KU?$less@K@std@@@stdext@@V?$CustomAllocator@V?$chunk_set@KU?$less@K@std@@@util@@@2@$0A@@stdext@@@stdext@@PAU345@IABU345@@Z 0041b920 f i AbuseUserManager.obj
 0001:0001a920       ?_Ufill@?$vector@U_List_position@?$_Hash@V?$_Hmap_traits@KPAVAbuseUser@@V?$hash_compare@KU?$less@K@std@@@stdext@@V?$CustomAllocator@PAVAbuseUser@@@util@@$0A@@stdext@@@stdext@@V?$CustomAllocator@U_List_position@?$_Hash@V?$_Hmap_traits@KPAVAbuseUser@@V?$hash_compare@KU?$less@K@std@@@stdext@@V?$CustomAllocator@PAVAbuseUser@@@util@@$0A@@stdext@@@stdext@@@util@@@std@@IAEPAU_List_position@?$_Hash@V?$_Hmap_traits@KPAVAbuseUser@@V?$hash_compare@KU?$less@K@std@@@stdext@@V?$CustomAllocator@PAVAbuseUser@@@util@@$0A@@stdext@@@stdext@@PAU345@IABU345@@Z 0041b920 f i AbuseUserManager.obj
 0001:0001a920       ?_Ufill@?$vector@U_List_position@?$_Hash@V?$_Hmap_traits@W4eSCRIPT_CODE@@PAUsSCRIPT_DATA_INFO_NODE_INTERNAL@@V?$hash_compare@W4eSCRIPT_CODE@@U?$less@W4eSCRIPT_CODE@@@std@@@stdext@@V?$CustomAllocator@PAUsSCRIPT_DATA_INFO_NODE_INTERNAL@@@util@@$0A@@stdext@@@stdext@@V?$CustomAllocator@U_List_position@?$_Hash@V?$_Hmap_traits@W4eSCRIPT_CODE@@PAUsSCRIPT_DATA_INFO_NODE_INTERNAL@@V?$hash_compare@W4eSCRIPT_CODE@@U?$less@W4eSCRIPT_CODE@@@std@@@stdext@@V?$CustomAllocator@PAUsSCRIPT_DATA_INFO_NODE_INTERNAL@@@util@@$0A@@stdext@@@stdext@@@util@@@std@@IAEPAU_List_position@?$_Hash@V?$_Hmap_traits@W4eSCRIPT_CODE@@PAUsSCRIPT_DATA_INFO_NODE_INTERNAL@@V?$hash_compare@W4eSCRIPT_CODE@@U?$less@W4eSCRIPT_CODE@@@std@@@stdext@@V?$CustomAllocator@PAUsSCRIPT_DATA_INFO_NODE_INTERNAL@@@util@@$0A@@stdext@@@stdext@@PAU345@IABU345@@Z 0041b920 f i servercommon:ScriptDataManager.obj
 0001:0001a920       ?_Ufill@?$vector@U?$pair@W4eSCRIPT_CODE@@PAUsSCRIPT_DATA_INFO_NODE_INTERNAL@@@std@@V?$CustomAllocator@U?$pair@W4eSCRIPT_CODE@@PAUsSCRIPT_DATA_INFO_NODE_INTERNAL@@@std@@@util@@@std@@IAEPAU?$pair@W4eSCRIPT_CODE@@PAUsSCRIPT_DATA_INFO_NODE_INTERNAL@@@2@PAU32@IABU32@@Z 0041b920 f i servercommon:ScriptDataManager.obj
 0001:0001a920       ?_Ufill@?$vector@U_List_position@?$_Hash@V?$_Hmap_traits@KPAVBASE_FUNC@util@@V?$hash_compare@KU?$less@K@std@@@stdext@@V?$allocator@U?$pair@$$CBKPAVBASE_FUNC@util@@@std@@@std@@$0A@@stdext@@@stdext@@V?$allocator@U_List_position@?$_Hash@V?$_Hmap_traits@KPAVBASE_FUNC@util@@V?$hash_compare@KU?$less@K@std@@@stdext@@V?$allocator@U?$pair@$$CBKPAVBASE_FUNC@util@@@std@@@std@@$0A@@stdext@@@stdext@@@std@@@std@@IAEPAU_List_position@?$_Hash@V?$_Hmap_traits@KPAVBASE_FUNC@util@@V?$hash_compare@KU?$less@K@std@@@stdext@@V?$allocator@U?$pair@$$CBKPAVBASE_FUNC@util@@@std@@@std@@$0A@@stdext@@@stdext@@PAU345@IABU345@@Z 0041b920 f i PacketHandler.obj
 0001:0001a960       ?MoveAllEmptyToLoading@ScriptDataManagerInternal@@QAEXXZ 0041b960 f i servercommon:ScriptDataManager.obj
 0001:0001a9e0       ?erase@?$list@U?$pair@$$CBW4eSCRIPT_CODE@@PAUsSCRIPT_DATA_INFO_NODE_INTERNAL@@@std@@V?$CustomAllocator@U?$pair@$$CBW4eSCRIPT_CODE@@PAUsSCRIPT_DATA_INFO_NODE_INTERNAL@@@std@@@util@@@std@@QAE?AV?$_Iterator@$00@12@V?$_Const_iterator@$00@12@@Z 0041b9e0 f i servercommon:ScriptDataManager.obj
 0001:0001a9e0       ?erase@?$list@U?$pair@$$CBKPAVAbuseUser@@@std@@V?$CustomAllocator@U?$pair@$$CBKPAVAbuseUser@@@std@@@util@@@std@@QAE?AV?$_Iterator@$00@12@V?$_Const_iterator@$00@12@@Z 0041b9e0 f i AbuseUserManager.obj
 0001:0001a9e0       ?erase@?$list@W4eSCRIPT_CODE@@V?$CustomAllocator@W4eSCRIPT_CODE@@@util@@@std@@QAE?AV?$_Iterator@$00@12@V?$_Const_iterator@$00@12@@Z 0041b9e0 f i servercommon:ScriptDataManager.obj
 0001:0001a9e0       ?erase@?$list@U?$pair@$$CBKPAVServerSession@@@std@@V?$CustomAllocator@U?$pair@$$CBKPAVServerSession@@@std@@@util@@@std@@QAE?AV?$_Iterator@$00@12@V?$_Const_iterator@$00@12@@Z 0041b9e0 f i TempServerSessionEx.obj
 0001:0001a9e0       ?erase@?$list@KV?$CustomAllocator@K@util@@@std@@QAE?AV?$_Iterator@$00@12@V?$_Const_iterator@$00@12@@Z 0041b9e0 f i servercommon:WorkLoadManager.obj
 0001:0001aa60       ??0?$list@W4eSCRIPT_CODE@@V?$CustomAllocator@W4eSCRIPT_CODE@@@util@@@std@@QAE@ABV?$CustomAllocator@W4eSCRIPT_CODE@@@util@@@Z 0041ba60 f i servercommon:ScriptDataManager.obj
 0001:0001aa60       ??0?$list@KV?$CustomAllocator@K@util@@@std@@QAE@ABV?$CustomAllocator@K@util@@@Z 0041ba60 f i servercommon:WorkLoadManager.obj
 0001:0001aa60       ??0?$list@PAUSCRIPT_DATA@@V?$CustomAllocator@PAUSCRIPT_DATA@@@util@@@std@@QAE@ABV?$CustomAllocator@PAUSCRIPT_DATA@@@util@@@Z 0041ba60 f i programcommon_s:ScriptParserManager.obj
 0001:0001aad0       ?lower_bound@?$_Hash@V?$_Hmap_traits@W4eSCRIPT_CODE@@PAUsSCRIPT_DATA_INFO_NODE_INTERNAL@@V?$hash_compare@W4eSCRIPT_CODE@@U?$less@W4eSCRIPT_CODE@@@std@@@stdext@@V?$CustomAllocator@PAUsSCRIPT_DATA_INFO_NODE_INTERNAL@@@util@@$0A@@stdext@@@stdext@@QAE?AV?$_Iterator@$00@?$list@U?$pair@$$CBW4eSCRIPT_CODE@@PAUsSCRIPT_DATA_INFO_NODE_INTERNAL@@@std@@V?$CustomAllocator@U?$pair@$$CBW4eSCRIPT_CODE@@PAUsSCRIPT_DATA_INFO_NODE_INTERNAL@@@std@@@util@@@std@@ABW4eSCRIPT_CODE@@@Z 0041bad0 f i servercommon:ScriptDataManager.obj
 0001:0001ac20       ??1?$chunk_list@W4eSCRIPT_CODE@@@util@@QAE@XZ 0041bc20 f i servercommon:ScriptDataManager.obj
 0001:0001ac20       ??1?$list@U?$pair@$$CBKPAVServerSession@@@std@@V?$CustomAllocator@U?$pair@$$CBKPAVServerSession@@@std@@@util@@@std@@QAE@XZ 0041bc20 f i servercommon:ServerFrame.obj
 0001:0001ac20       ??1?$list@U?$pair@$$CBW4eSCRIPT_CODE@@PAUsSCRIPT_DATA_INFO_NODE_INTERNAL@@@std@@V?$CustomAllocator@U?$pair@$$CBW4eSCRIPT_CODE@@PAUsSCRIPT_DATA_INFO_NODE_INTERNAL@@@std@@@util@@@std@@QAE@XZ 0041bc20 f i servercommon:ScriptDataManager.obj
 0001:0001ac20       ??1?$chunk_list@K@util@@QAE@XZ 0041bc20 f i servercommon:WorkLoadManager.obj
 0001:0001ac20       ??1?$list@U?$pair@$$CBKPAVAbuseUser@@@std@@V?$CustomAllocator@U?$pair@$$CBKPAVAbuseUser@@@std@@@util@@@std@@QAE@XZ 0041bc20 f i AbuseUserManager.obj
 0001:0001ac40       ??0?$list@U?$pair@$$CBKPAVServerSession@@@std@@V?$CustomAllocator@U?$pair@$$CBKPAVServerSession@@@std@@@util@@@std@@QAE@ABV?$CustomAllocator@U?$pair@$$CBKPAVServerSession@@@std@@@util@@@Z 0041bc40 f i servercommon:ServerFrame.obj
 0001:0001ac40       ??0?$list@U?$pair@$$CBKPAVAbuseUser@@@std@@V?$CustomAllocator@U?$pair@$$CBKPAVAbuseUser@@@std@@@util@@@std@@QAE@ABV?$CustomAllocator@U?$pair@$$CBKPAVAbuseUser@@@std@@@util@@@Z 0041bc40 f i AbuseUserManager.obj
 0001:0001ac40       ??0?$list@U?$pair@$$CBW4eSCRIPT_CODE@@PAUsSCRIPT_DATA_INFO_NODE_INTERNAL@@@std@@V?$CustomAllocator@U?$pair@$$CBW4eSCRIPT_CODE@@PAUsSCRIPT_DATA_INFO_NODE_INTERNAL@@@std@@@util@@@std@@QAE@ABV?$CustomAllocator@U?$pair@$$CBW4eSCRIPT_CODE@@PAUsSCRIPT_DATA_INFO_NODE_INTERNAL@@@std@@@util@@@Z 0041bc40 f i servercommon:ScriptDataManager.obj
 0001:0001acb0       ?erase@?$vector@U_List_position@?$_Hash@V?$_Hmap_traits@KPAVServerSession@@V?$hash_compare@KU?$less@K@std@@@stdext@@V?$CustomAllocator@PAVServerSession@@@util@@$0A@@stdext@@@stdext@@V?$CustomAllocator@U_List_position@?$_Hash@V?$_Hmap_traits@KPAVServerSession@@V?$hash_compare@KU?$less@K@std@@@stdext@@V?$CustomAllocator@PAVServerSession@@@util@@$0A@@stdext@@@stdext@@@util@@@std@@QAE?AV?$_Vector_iterator@U_List_position@?$_Hash@V?$_Hmap_traits@KPAVServerSession@@V?$hash_compare@KU?$less@K@std@@@stdext@@V?$CustomAllocator@PAVServerSession@@@util@@$0A@@stdext@@@stdext@@V?$CustomAllocator@U_List_position@?$_Hash@V?$_Hmap_traits@KPAVServerSession@@V?$hash_compare@KU?$less@K@std@@@stdext@@V?$CustomAllocator@PAVServerSession@@@util@@$0A@@stdext@@@stdext@@@util@@@2@V?$_Vector_const_iterator@U_List_position@?$_Hash@V?$_Hmap_traits@KPAVServerSession@@V?$hash_compare@KU?$less@K@std@@@stdext@@V?$CustomAllocator@PAVServerSession@@@util@@$0A@@stdext@@@stdext@@V?$CustomAllocator@U_List_position@?$_Hash@V?$_Hmap_traits@KPAVServerSession@@V?$hash_compare@KU?$less@K@std@@@stdext@@V?$CustomAllocator@PAVServerSession@@@util@@$0A@@stdext@@@stdext@@@util@@@2@0@Z 0041bcb0 f i TempServerSessionEx.obj
 0001:0001acb0       ?erase@?$vector@U_List_position@?$_Hash@V?$_Hmap_traits@KPAVAbuseUser@@V?$hash_compare@KU?$less@K@std@@@stdext@@V?$CustomAllocator@PAVAbuseUser@@@util@@$0A@@stdext@@@stdext@@V?$CustomAllocator@U_List_position@?$_Hash@V?$_Hmap_traits@KPAVAbuseUser@@V?$hash_compare@KU?$less@K@std@@@stdext@@V?$CustomAllocator@PAVAbuseUser@@@util@@$0A@@stdext@@@stdext@@@util@@@std@@QAE?AV?$_Vector_iterator@U_List_position@?$_Hash@V?$_Hmap_traits@KPAVAbuseUser@@V?$hash_compare@KU?$less@K@std@@@stdext@@V?$CustomAllocator@PAVAbuseUser@@@util@@$0A@@stdext@@@stdext@@V?$CustomAllocator@U_List_position@?$_Hash@V?$_Hmap_traits@KPAVAbuseUser@@V?$hash_compare@KU?$less@K@std@@@stdext@@V?$CustomAllocator@PAVAbuseUser@@@util@@$0A@@stdext@@@stdext@@@util@@@2@V?$_Vector_const_iterator@U_List_position@?$_Hash@V?$_Hmap_traits@KPAVAbuseUser@@V?$hash_compare@KU?$less@K@std@@@stdext@@V?$CustomAllocator@PAVAbuseUser@@@util@@$0A@@stdext@@@stdext@@V?$CustomAllocator@U_List_position@?$_Hash@V?$_Hmap_traits@KPAVAbuseUser@@V?$hash_compare@KU?$less@K@std@@@stdext@@V?$CustomAllocator@PAVAbuseUser@@@util@@$0A@@stdext@@@stdext@@@util@@@2@0@Z 0041bcb0 f i AbuseUserManager.obj
 0001:0001acb0       ?erase@?$vector@U?$pair@W4eSCRIPT_CODE@@PAUsSCRIPT_DATA_INFO_NODE_INTERNAL@@@std@@V?$CustomAllocator@U?$pair@W4eSCRIPT_CODE@@PAUsSCRIPT_DATA_INFO_NODE_INTERNAL@@@std@@@util@@@std@@QAE?AV?$_Vector_iterator@U?$pair@W4eSCRIPT_CODE@@PAUsSCRIPT_DATA_INFO_NODE_INTERNAL@@@std@@V?$CustomAllocator@U?$pair@W4eSCRIPT_CODE@@PAUsSCRIPT_DATA_INFO_NODE_INTERNAL@@@std@@@util@@@2@V?$_Vector_const_iterator@U?$pair@W4eSCRIPT_CODE@@PAUsSCRIPT_DATA_INFO_NODE_INTERNAL@@@std@@V?$CustomAllocator@U?$pair@W4eSCRIPT_CODE@@PAUsSCRIPT_DATA_INFO_NODE_INTERNAL@@@std@@@util@@@2@0@Z 0041bcb0 f i servercommon:ScriptDataManager.obj
 0001:0001acb0       ?erase@?$vector@U_List_position@?$_Hash@V?$_Hmap_traits@KPAVBASE_FUNC@util@@V?$hash_compare@KU?$less@K@std@@@stdext@@V?$allocator@U?$pair@$$CBKPAVBASE_FUNC@util@@@std@@@std@@$0A@@stdext@@@stdext@@V?$allocator@U_List_position@?$_Hash@V?$_Hmap_traits@KPAVBASE_FUNC@util@@V?$hash_compare@KU?$less@K@std@@@stdext@@V?$allocator@U?$pair@$$CBKPAVBASE_FUNC@util@@@std@@@std@@$0A@@stdext@@@stdext@@@std@@@std@@QAE?AV?$_Vector_iterator@U_List_position@?$_Hash@V?$_Hmap_traits@KPAVBASE_FUNC@util@@V?$hash_compare@KU?$less@K@std@@@stdext@@V?$allocator@U?$pair@$$CBKPAVBASE_FUNC@util@@@std@@@std@@$0A@@stdext@@@stdext@@V?$allocator@U_List_position@?$_Hash@V?$_Hmap_traits@KPAVBASE_FUNC@util@@V?$hash_compare@KU?$less@K@std@@@stdext@@V?$allocator@U?$pair@$$CBKPAVBASE_FUNC@util@@@std@@@std@@$0A@@stdext@@@stdext@@@std@@@2@V?$_Vector_const_iterator@U_List_position@?$_Hash@V?$_Hmap_traits@KPAVBASE_FUNC@util@@V?$hash_compare@KU?$less@K@std@@@stdext@@V?$allocator@U?$pair@$$CBKPAVBASE_FUNC@util@@@std@@@std@@$0A@@stdext@@@stdext@@V?$allocator@U_List_position@?$_Hash@V?$_Hmap_traits@KPAVBASE_FUNC@util@@V?$hash_compare@KU?$less@K@std@@@stdext@@V?$allocator@U?$pair@$$CBKPAVBASE_FUNC@util@@@std@@@std@@$0A@@stdext@@@stdext@@@std@@@2@0@Z 0041bcb0 f i PacketHandler.obj
 0001:0001acb0       ?erase@?$vector@U_List_position@?$_Hash@V?$_Hmap_traits@KV?$chunk_set@KU?$less@K@std@@@util@@V?$hash_compare@KU?$less@K@std@@@stdext@@V?$CustomAllocator@V?$chunk_set@KU?$less@K@std@@@util@@@2@$0A@@stdext@@@stdext@@V?$CustomAllocator@U_List_position@?$_Hash@V?$_Hmap_traits@KV?$chunk_set@KU?$less@K@std@@@util@@V?$hash_compare@KU?$less@K@std@@@stdext@@V?$CustomAllocator@V?$chunk_set@KU?$less@K@std@@@util@@@2@$0A@@stdext@@@stdext@@@util@@@std@@QAE?AV?$_Vector_iterator@U_List_position@?$_Hash@V?$_Hmap_traits@KV?$chunk_set@KU?$less@K@std@@@util@@V?$hash_compare@KU?$less@K@std@@@stdext@@V?$CustomAllocator@V?$chunk_set@KU?$less@K@std@@@util@@@2@$0A@@stdext@@@stdext@@V?$CustomAllocator@U_List_position@?$_Hash@V?$_Hmap_traits@KV?$chunk_set@KU?$less@K@std@@@util@@V?$hash_compare@KU?$less@K@std@@@stdext@@V?$CustomAllocator@V?$chunk_set@KU?$less@K@std@@@util@@@2@$0A@@stdext@@@stdext@@@util@@@2@V?$_Vector_const_iterator@U_List_position@?$_Hash@V?$_Hmap_traits@KV?$chunk_set@KU?$less@K@std@@@util@@V?$hash_compare@KU?$less@K@std@@@stdext@@V?$CustomAllocator@V?$chunk_set@KU?$less@K@std@@@util@@@2@$0A@@stdext@@@stdext@@V?$CustomAllocator@U_List_position@?$_Hash@V?$_Hmap_traits@KV?$chunk_set@KU?$less@K@std@@@util@@V?$hash_compare@KU?$less@K@std@@@stdext@@V?$CustomAllocator@V?$chunk_set@KU?$less@K@std@@@util@@@2@$0A@@stdext@@@stdext@@@util@@@2@0@Z 0041bcb0 f i AbuseUserManager.obj
 0001:0001acb0       ?erase@?$vector@U_List_position@?$_Hash@V?$_Hmap_traits@W4eSCRIPT_CODE@@PAUsSCRIPT_DATA_INFO_NODE_INTERNAL@@V?$hash_compare@W4eSCRIPT_CODE@@U?$less@W4eSCRIPT_CODE@@@std@@@stdext@@V?$CustomAllocator@PAUsSCRIPT_DATA_INFO_NODE_INTERNAL@@@util@@$0A@@stdext@@@stdext@@V?$CustomAllocator@U_List_position@?$_Hash@V?$_Hmap_traits@W4eSCRIPT_CODE@@PAUsSCRIPT_DATA_INFO_NODE_INTERNAL@@V?$hash_compare@W4eSCRIPT_CODE@@U?$less@W4eSCRIPT_CODE@@@std@@@stdext@@V?$CustomAllocator@PAUsSCRIPT_DATA_INFO_NODE_INTERNAL@@@util@@$0A@@stdext@@@stdext@@@util@@@std@@QAE?AV?$_Vector_iterator@U_List_position@?$_Hash@V?$_Hmap_traits@W4eSCRIPT_CODE@@PAUsSCRIPT_DATA_INFO_NODE_INTERNAL@@V?$hash_compare@W4eSCRIPT_CODE@@U?$less@W4eSCRIPT_CODE@@@std@@@stdext@@V?$CustomAllocator@PAUsSCRIPT_DATA_INFO_NODE_INTERNAL@@@util@@$0A@@stdext@@@stdext@@V?$CustomAllocator@U_List_position@?$_Hash@V?$_Hmap_traits@W4eSCRIPT_CODE@@PAUsSCRIPT_DATA_INFO_NODE_INTERNAL@@V?$hash_compare@W4eSCRIPT_CODE@@U?$less@W4eSCRIPT_CODE@@@std@@@stdext@@V?$CustomAllocator@PAUsSCRIPT_DATA_INFO_NODE_INTERNAL@@@util@@$0A@@stdext@@@stdext@@@util@@@2@V?$_Vector_const_iterator@U_List_position@?$_Hash@V?$_Hmap_traits@W4eSCRIPT_CODE@@PAUsSCRIPT_DATA_INFO_NODE_INTERNAL@@V?$hash_compare@W4eSCRIPT_CODE@@U?$less@W4eSCRIPT_CODE@@@std@@@stdext@@V?$CustomAllocator@PAUsSCRIPT_DATA_INFO_NODE_INTERNAL@@@util@@$0A@@stdext@@@stdext@@V?$CustomAllocator@U_List_position@?$_Hash@V?$_Hmap_traits@W4eSCRIPT_CODE@@PAUsSCRIPT_DATA_INFO_NODE_INTERNAL@@V?$hash_compare@W4eSCRIPT_CODE@@U?$less@W4eSCRIPT_CODE@@@std@@@stdext@@V?$CustomAllocator@PAUsSCRIPT_DATA_INFO_NODE_INTERNAL@@@util@@$0A@@stdext@@@stdext@@@util@@@2@0@Z 0041bcb0 f i servercommon:ScriptDataManager.obj
 0001:0001ad50       ??1?$vector@U_List_position@?$_Hash@V?$_Hmap_traits@KV?$chunk_set@KU?$less@K@std@@@util@@V?$hash_compare@KU?$less@K@std@@@stdext@@V?$CustomAllocator@V?$chunk_set@KU?$less@K@std@@@util@@@2@$0A@@stdext@@@stdext@@V?$CustomAllocator@U_List_position@?$_Hash@V?$_Hmap_traits@KV?$chunk_set@KU?$less@K@std@@@util@@V?$hash_compare@KU?$less@K@std@@@stdext@@V?$CustomAllocator@V?$chunk_set@KU?$less@K@std@@@util@@@2@$0A@@stdext@@@stdext@@@util@@@std@@QAE@XZ 0041bd50 f i AbuseUserManager.obj
 0001:0001ad50       ??1?$chunk_vector@U?$pair@W4eSCRIPT_CODE@@PAUsSCRIPT_DATA_INFO_NODE_INTERNAL@@@std@@@util@@QAE@XZ 0041bd50 f i servercommon:ScriptDataManager.obj
 0001:0001ad50       ??1?$vector@U_List_position@?$_Hash@V?$_Hmap_traits@KPAVServerSession@@V?$hash_compare@KU?$less@K@std@@@stdext@@V?$CustomAllocator@PAVServerSession@@@util@@$0A@@stdext@@@stdext@@V?$CustomAllocator@U_List_position@?$_Hash@V?$_Hmap_traits@KPAVServerSession@@V?$hash_compare@KU?$less@K@std@@@stdext@@V?$CustomAllocator@PAVServerSession@@@util@@$0A@@stdext@@@stdext@@@util@@@std@@QAE@XZ 0041bd50 f i servercommon:ServerFrame.obj
 0001:0001ad50       ??1?$vector@U_List_position@?$_Hash@V?$_Hmap_traits@KPAVAbuseUser@@V?$hash_compare@KU?$less@K@std@@@stdext@@V?$CustomAllocator@PAVAbuseUser@@@util@@$0A@@stdext@@@stdext@@V?$CustomAllocator@U_List_position@?$_Hash@V?$_Hmap_traits@KPAVAbuseUser@@V?$hash_compare@KU?$less@K@std@@@stdext@@V?$CustomAllocator@PAVAbuseUser@@@util@@$0A@@stdext@@@stdext@@@util@@@std@@QAE@XZ 0041bd50 f i AbuseUserManager.obj
 0001:0001ad50       ??1?$vector@U_List_position@?$_Hash@V?$_Hmap_traits@W4eSCRIPT_CODE@@PAUsSCRIPT_DATA_INFO_NODE_INTERNAL@@V?$hash_compare@W4eSCRIPT_CODE@@U?$less@W4eSCRIPT_CODE@@@std@@@stdext@@V?$CustomAllocator@PAUsSCRIPT_DATA_INFO_NODE_INTERNAL@@@util@@$0A@@stdext@@@stdext@@V?$CustomAllocator@U_List_position@?$_Hash@V?$_Hmap_traits@W4eSCRIPT_CODE@@PAUsSCRIPT_DATA_INFO_NODE_INTERNAL@@V?$hash_compare@W4eSCRIPT_CODE@@U?$less@W4eSCRIPT_CODE@@@std@@@stdext@@V?$CustomAllocator@PAUsSCRIPT_DATA_INFO_NODE_INTERNAL@@@util@@$0A@@stdext@@@stdext@@@util@@@std@@QAE@XZ 0041bd50 f i servercommon:ScriptDataManager.obj
 0001:0001ad90       ?MoveEmptyToLoading@ScriptDataManagerInternal@@QAEXW4eSCRIPT_CODE@@@Z 0041bd90 f i servercommon:ScriptDataManager.obj
 0001:0001ae90       ?MoveLoadingToLoaded@ScriptDataManagerInternal@@QAEXW4eSCRIPT_CODE@@@Z 0041be90 f i servercommon:ScriptDataManager.obj
 0001:0001af40       ?_Incsize@?$list@KV?$CustomAllocator@K@util@@@std@@IAEXI@Z 0041bf40 f i servercommon:WorkLoadManager.obj
 0001:0001af40       ?_Incsize@?$list@PAUSCRIPT_DATA@@V?$CustomAllocator@PAUSCRIPT_DATA@@@util@@@std@@IAEXI@Z 0041bf40 f i programcommon_s:ScriptParserManager.obj
 0001:0001af40       ?_Incsize@?$list@W4eSCRIPT_CODE@@V?$CustomAllocator@W4eSCRIPT_CODE@@@util@@@std@@IAEXI@Z 0041bf40 f i servercommon:ScriptDataManager.obj
 0001:0001afe0       ?_Incsize@?$list@U?$pair@$$CBKPAVServerSession@@@std@@V?$CustomAllocator@U?$pair@$$CBKPAVServerSession@@@std@@@util@@@std@@IAEXI@Z 0041bfe0 f i servercommon:ServerFrame.obj
 0001:0001afe0       ?_Incsize@?$list@U?$pair@$$CBKPAVBASE_FUNC@util@@@std@@V?$allocator@U?$pair@$$CBKPAVBASE_FUNC@util@@@std@@@2@@std@@IAEXI@Z 0041bfe0 f i PacketHandler.obj
 0001:0001afe0       ?_Incsize@?$list@U?$pair@$$CBKPAVAbuseUser@@@std@@V?$CustomAllocator@U?$pair@$$CBKPAVAbuseUser@@@std@@@util@@@std@@IAEXI@Z 0041bfe0 f i AbuseUserManager.obj
 0001:0001afe0       ?_Incsize@?$list@U?$pair@$$CBW4eSCRIPT_CODE@@PAUsSCRIPT_DATA_INFO_NODE_INTERNAL@@@std@@V?$CustomAllocator@U?$pair@$$CBW4eSCRIPT_CODE@@PAUsSCRIPT_DATA_INFO_NODE_INTERNAL@@@std@@@util@@@std@@IAEXI@Z 0041bfe0 f i servercommon:ScriptDataManager.obj
 0001:0001b080       ??1?$chunk_hash_map@W4eSCRIPT_CODE@@PAUsSCRIPT_DATA_INFO_NODE_INTERNAL@@V?$hash_compare@W4eSCRIPT_CODE@@U?$less@W4eSCRIPT_CODE@@@std@@@stdext@@@util@@QAE@XZ 0041c080 f i servercommon:ScriptDataManager.obj
 0001:0001b080       ??1?$chunk_hash_map@KPAVServerSession@@V?$hash_compare@KU?$less@K@std@@@stdext@@@util@@QAE@XZ 0041c080 f i servercommon:ServerFrame.obj
 0001:0001b080       ??1?$chunk_hash_map@KPAVAbuseUser@@V?$hash_compare@KU?$less@K@std@@@stdext@@@util@@QAE@XZ 0041c080 f i AbuseUserManager.obj
 0001:0001b0d0       ?_Insert_n@?$vector@U_List_position@?$_Hash@V?$_Hmap_traits@W4eSCRIPT_CODE@@PAUsSCRIPT_DATA_INFO_NODE_INTERNAL@@V?$hash_compare@W4eSCRIPT_CODE@@U?$less@W4eSCRIPT_CODE@@@std@@@stdext@@V?$CustomAllocator@PAUsSCRIPT_DATA_INFO_NODE_INTERNAL@@@util@@$0A@@stdext@@@stdext@@V?$CustomAllocator@U_List_position@?$_Hash@V?$_Hmap_traits@W4eSCRIPT_CODE@@PAUsSCRIPT_DATA_INFO_NODE_INTERNAL@@V?$hash_compare@W4eSCRIPT_CODE@@U?$less@W4eSCRIPT_CODE@@@std@@@stdext@@V?$CustomAllocator@PAUsSCRIPT_DATA_INFO_NODE_INTERNAL@@@util@@$0A@@stdext@@@stdext@@@util@@@std@@IAEXV?$_Vector_const_iterator@U_List_position@?$_Hash@V?$_Hmap_traits@W4eSCRIPT_CODE@@PAUsSCRIPT_DATA_INFO_NODE_INTERNAL@@V?$hash_compare@W4eSCRIPT_CODE@@U?$less@W4eSCRIPT_CODE@@@std@@@stdext@@V?$CustomAllocator@PAUsSCRIPT_DATA_INFO_NODE_INTERNAL@@@util@@$0A@@stdext@@@stdext@@V?$CustomAllocator@U_List_position@?$_Hash@V?$_Hmap_traits@W4eSCRIPT_CODE@@PAUsSCRIPT_DATA_INFO_NODE_INTERNAL@@V?$hash_compare@W4eSCRIPT_CODE@@U?$less@W4eSCRIPT_CODE@@@std@@@stdext@@V?$CustomAllocator@PAUsSCRIPT_DATA_INFO_NODE_INTERNAL@@@util@@$0A@@stdext@@@stdext@@@util@@@2@IABU_List_position@?$_Hash@V?$_Hmap_traits@W4eSCRIPT_CODE@@PAUsSCRIPT_DATA_INFO_NODE_INTERNAL@@V?$hash_compare@W4eSCRIPT_CODE@@U?$less@W4eSCRIPT_CODE@@@std@@@stdext@@V?$CustomAllocator@PAUsSCRIPT_DATA_INFO_NODE_INTERNAL@@@util@@$0A@@stdext@@@stdext@@@Z 0041c0d0 f i servercommon:ScriptDataManager.obj
 0001:0001b0d0       ?_Insert_n@?$vector@U?$pair@W4eSCRIPT_CODE@@PAUsSCRIPT_DATA_INFO_NODE_INTERNAL@@@std@@V?$CustomAllocator@U?$pair@W4eSCRIPT_CODE@@PAUsSCRIPT_DATA_INFO_NODE_INTERNAL@@@std@@@util@@@std@@IAEXV?$_Vector_const_iterator@U?$pair@W4eSCRIPT_CODE@@PAUsSCRIPT_DATA_INFO_NODE_INTERNAL@@@std@@V?$CustomAllocator@U?$pair@W4eSCRIPT_CODE@@PAUsSCRIPT_DATA_INFO_NODE_INTERNAL@@@std@@@util@@@2@IABU?$pair@W4eSCRIPT_CODE@@PAUsSCRIPT_DATA_INFO_NODE_INTERNAL@@@2@@Z 0041c0d0 f i servercommon:ScriptDataManager.obj
 0001:0001b0d0       ?_Insert_n@?$vector@U_List_position@?$_Hash@V?$_Hmap_traits@KPAVAbuseUser@@V?$hash_compare@KU?$less@K@std@@@stdext@@V?$CustomAllocator@PAVAbuseUser@@@util@@$0A@@stdext@@@stdext@@V?$CustomAllocator@U_List_position@?$_Hash@V?$_Hmap_traits@KPAVAbuseUser@@V?$hash_compare@KU?$less@K@std@@@stdext@@V?$CustomAllocator@PAVAbuseUser@@@util@@$0A@@stdext@@@stdext@@@util@@@std@@IAEXV?$_Vector_const_iterator@U_List_position@?$_Hash@V?$_Hmap_traits@KPAVAbuseUser@@V?$hash_compare@KU?$less@K@std@@@stdext@@V?$CustomAllocator@PAVAbuseUser@@@util@@$0A@@stdext@@@stdext@@V?$CustomAllocator@U_List_position@?$_Hash@V?$_Hmap_traits@KPAVAbuseUser@@V?$hash_compare@KU?$less@K@std@@@stdext@@V?$CustomAllocator@PAVAbuseUser@@@util@@$0A@@stdext@@@stdext@@@util@@@2@IABU_List_position@?$_Hash@V?$_Hmap_traits@KPAVAbuseUser@@V?$hash_compare@KU?$less@K@std@@@stdext@@V?$CustomAllocator@PAVAbuseUser@@@util@@$0A@@stdext@@@stdext@@@Z 0041c0d0 f i AbuseUserManager.obj
 0001:0001b0d0       ?_Insert_n@?$vector@U_List_position@?$_Hash@V?$_Hmap_traits@KV?$chunk_set@KU?$less@K@std@@@util@@V?$hash_compare@KU?$less@K@std@@@stdext@@V?$CustomAllocator@V?$chunk_set@KU?$less@K@std@@@util@@@2@$0A@@stdext@@@stdext@@V?$CustomAllocator@U_List_position@?$_Hash@V?$_Hmap_traits@KV?$chunk_set@KU?$less@K@std@@@util@@V?$hash_compare@KU?$less@K@std@@@stdext@@V?$CustomAllocator@V?$chunk_set@KU?$less@K@std@@@util@@@2@$0A@@stdext@@@stdext@@@util@@@std@@IAEXV?$_Vector_const_iterator@U_List_position@?$_Hash@V?$_Hmap_traits@KV?$chunk_set@KU?$less@K@std@@@util@@V?$hash_compare@KU?$less@K@std@@@stdext@@V?$CustomAllocator@V?$chunk_set@KU?$less@K@std@@@util@@@2@$0A@@stdext@@@stdext@@V?$CustomAllocator@U_List_position@?$_Hash@V?$_Hmap_traits@KV?$chunk_set@KU?$less@K@std@@@util@@V?$hash_compare@KU?$less@K@std@@@stdext@@V?$CustomAllocator@V?$chunk_set@KU?$less@K@std@@@util@@@2@$0A@@stdext@@@stdext@@@util@@@2@IABU_List_position@?$_Hash@V?$_Hmap_traits@KV?$chunk_set@KU?$less@K@std@@@util@@V?$hash_compare@KU?$less@K@std@@@stdext@@V?$CustomAllocator@V?$chunk_set@KU?$less@K@std@@@util@@@2@$0A@@stdext@@@stdext@@@Z 0041c0d0 f i AbuseUserManager.obj
 0001:0001b0d0       ?_Insert_n@?$vector@U_List_position@?$_Hash@V?$_Hmap_traits@KPAVServerSession@@V?$hash_compare@KU?$less@K@std@@@stdext@@V?$CustomAllocator@PAVServerSession@@@util@@$0A@@stdext@@@stdext@@V?$CustomAllocator@U_List_position@?$_Hash@V?$_Hmap_traits@KPAVServerSession@@V?$hash_compare@KU?$less@K@std@@@stdext@@V?$CustomAllocator@PAVServerSession@@@util@@$0A@@stdext@@@stdext@@@util@@@std@@IAEXV?$_Vector_const_iterator@U_List_position@?$_Hash@V?$_Hmap_traits@KPAVServerSession@@V?$hash_compare@KU?$less@K@std@@@stdext@@V?$CustomAllocator@PAVServerSession@@@util@@$0A@@stdext@@@stdext@@V?$CustomAllocator@U_List_position@?$_Hash@V?$_Hmap_traits@KPAVServerSession@@V?$hash_compare@KU?$less@K@std@@@stdext@@V?$CustomAllocator@PAVServerSession@@@util@@$0A@@stdext@@@stdext@@@util@@@2@IABU_List_position@?$_Hash@V?$_Hmap_traits@KPAVServerSession@@V?$hash_compare@KU?$less@K@std@@@stdext@@V?$CustomAllocator@PAVServerSession@@@util@@$0A@@stdext@@@stdext@@@Z 0041c0d0 f i TempServerSessionEx.obj
 0001:0001b320       ?insert@?$list@W4eSCRIPT_CODE@@V?$CustomAllocator@W4eSCRIPT_CODE@@@util@@@std@@QAE?AV?$_Iterator@$00@12@V?$_Const_iterator@$00@12@ABW4eSCRIPT_CODE@@@Z 0041c320 f i servercommon:ScriptDataManager.obj
 0001:0001b3b0       ?insert@?$vector@U?$pair@W4eSCRIPT_CODE@@PAUsSCRIPT_DATA_INFO_NODE_INTERNAL@@@std@@V?$CustomAllocator@U?$pair@W4eSCRIPT_CODE@@PAUsSCRIPT_DATA_INFO_NODE_INTERNAL@@@std@@@util@@@std@@QAE?AV?$_Vector_iterator@U?$pair@W4eSCRIPT_CODE@@PAUsSCRIPT_DATA_INFO_NODE_INTERNAL@@@std@@V?$CustomAllocator@U?$pair@W4eSCRIPT_CODE@@PAUsSCRIPT_DATA_INFO_NODE_INTERNAL@@@std@@@util@@@2@V?$_Vector_const_iterator@U?$pair@W4eSCRIPT_CODE@@PAUsSCRIPT_DATA_INFO_NODE_INTERNAL@@@std@@V?$CustomAllocator@U?$pair@W4eSCRIPT_CODE@@PAUsSCRIPT_DATA_INFO_NODE_INTERNAL@@@std@@@util@@@2@ABU?$pair@W4eSCRIPT_CODE@@PAUsSCRIPT_DATA_INFO_NODE_INTERNAL@@@2@@Z 0041c3b0 f i servercommon:ScriptDataManager.obj
 0001:0001b460       ?MoveToEmpty@ScriptDataManagerInternal@@QAEXW4eSCRIPT_CODE@@@Z 0041c460 f i servercommon:ScriptDataManager.obj
 0001:0001b510       ?_MoveStatusChangeLoadingToEmpty@ScriptDataManagerInternal@@QAEXU?$pair@$$CBW4eSCRIPT_CODE@@PAUsSCRIPT_DATA_INFO_NODE_INTERNAL@@@std@@@Z 0041c510 f i servercommon:ScriptDataManager.obj
 0001:0001b550       ?_MoveStatusChangeToEmpty@ScriptDataManagerInternal@@QAEXU?$pair@$$CBW4eSCRIPT_CODE@@PAUsSCRIPT_DATA_INFO_NODE_INTERNAL@@@std@@@Z 0041c550 f i servercommon:ScriptDataManager.obj
 0001:0001b590       ?MoveAllLoadingToEmpty@ScriptDataManagerInternal@@QAEXXZ 0041c590 f i servercommon:ScriptDataManager.obj
 0001:0001b5f0       ?MoveAllToEmpty@ScriptDataManagerInternal@@QAEXXZ 0041c5f0 f i servercommon:ScriptDataManager.obj
 0001:0001b670       ?push_back@?$vector@U?$pair@W4eSCRIPT_CODE@@PAUsSCRIPT_DATA_INFO_NODE_INTERNAL@@@std@@V?$CustomAllocator@U?$pair@W4eSCRIPT_CODE@@PAUsSCRIPT_DATA_INFO_NODE_INTERNAL@@@std@@@util@@@std@@QAEXABU?$pair@W4eSCRIPT_CODE@@PAUsSCRIPT_DATA_INFO_NODE_INTERNAL@@@2@@Z 0041c670 f i servercommon:ScriptDataManager.obj
 0001:0001b6f0       ?_Splice@?$list@U?$pair@$$CBKPAVBASE_FUNC@util@@@std@@V?$allocator@U?$pair@$$CBKPAVBASE_FUNC@util@@@std@@@2@@std@@QAEXV?$_Const_iterator@$00@12@AAV12@00I_N@Z 0041c6f0 f i PacketHandler.obj
 0001:0001b6f0       ?_Splice@?$list@U?$pair@$$CBKPAVServerSession@@@std@@V?$CustomAllocator@U?$pair@$$CBKPAVServerSession@@@std@@@util@@@std@@QAEXV?$_Const_iterator@$00@12@AAV12@00I_N@Z 0041c6f0 f i servercommon:ServerFrame.obj
 0001:0001b6f0       ?_Splice@?$list@U?$pair@$$CBW4eSCRIPT_CODE@@PAUsSCRIPT_DATA_INFO_NODE_INTERNAL@@@std@@V?$CustomAllocator@U?$pair@$$CBW4eSCRIPT_CODE@@PAUsSCRIPT_DATA_INFO_NODE_INTERNAL@@@std@@@util@@@std@@QAEXV?$_Const_iterator@$00@12@AAV12@00I_N@Z 0041c6f0 f i servercommon:ScriptDataManager.obj
 0001:0001b6f0       ?_Splice@?$list@U?$pair@$$CBKPAVAbuseUser@@@std@@V?$CustomAllocator@U?$pair@$$CBKPAVAbuseUser@@@std@@@util@@@std@@QAEXV?$_Const_iterator@$00@12@AAV12@00I_N@Z 0041c6f0 f i AbuseUserManager.obj
 0001:0001b760       ?_Assign_n@?$vector@U_List_position@?$_Hash@V?$_Hmap_traits@KV?$chunk_set@KU?$less@K@std@@@util@@V?$hash_compare@KU?$less@K@std@@@stdext@@V?$CustomAllocator@V?$chunk_set@KU?$less@K@std@@@util@@@2@$0A@@stdext@@@stdext@@V?$CustomAllocator@U_List_position@?$_Hash@V?$_Hmap_traits@KV?$chunk_set@KU?$less@K@std@@@util@@V?$hash_compare@KU?$less@K@std@@@stdext@@V?$CustomAllocator@V?$chunk_set@KU?$less@K@std@@@util@@@2@$0A@@stdext@@@stdext@@@util@@@std@@IAEXIABU_List_position@?$_Hash@V?$_Hmap_traits@KV?$chunk_set@KU?$less@K@std@@@util@@V?$hash_compare@KU?$less@K@std@@@stdext@@V?$CustomAllocator@V?$chunk_set@KU?$less@K@std@@@util@@@2@$0A@@stdext@@@stdext@@@Z 0041c760 f i AbuseUserManager.obj
 0001:0001b760       ?_Assign_n@?$vector@U_List_position@?$_Hash@V?$_Hmap_traits@KPAVServerSession@@V?$hash_compare@KU?$less@K@std@@@stdext@@V?$CustomAllocator@PAVServerSession@@@util@@$0A@@stdext@@@stdext@@V?$CustomAllocator@U_List_position@?$_Hash@V?$_Hmap_traits@KPAVServerSession@@V?$hash_compare@KU?$less@K@std@@@stdext@@V?$CustomAllocator@PAVServerSession@@@util@@$0A@@stdext@@@stdext@@@util@@@std@@IAEXIABU_List_position@?$_Hash@V?$_Hmap_traits@KPAVServerSession@@V?$hash_compare@KU?$less@K@std@@@stdext@@V?$CustomAllocator@PAVServerSession@@@util@@$0A@@stdext@@@stdext@@@Z 0041c760 f i TempServerSessionEx.obj
 0001:0001b760       ?_Assign_n@?$vector@U_List_position@?$_Hash@V?$_Hmap_traits@KPAVAbuseUser@@V?$hash_compare@KU?$less@K@std@@@stdext@@V?$CustomAllocator@PAVAbuseUser@@@util@@$0A@@stdext@@@stdext@@V?$CustomAllocator@U_List_position@?$_Hash@V?$_Hmap_traits@KPAVAbuseUser@@V?$hash_compare@KU?$less@K@std@@@stdext@@V?$CustomAllocator@PAVAbuseUser@@@util@@$0A@@stdext@@@stdext@@@util@@@std@@IAEXIABU_List_position@?$_Hash@V?$_Hmap_traits@KPAVAbuseUser@@V?$hash_compare@KU?$less@K@std@@@stdext@@V?$CustomAllocator@PAVAbuseUser@@@util@@$0A@@stdext@@@stdext@@@Z 0041c760 f i AbuseUserManager.obj
 0001:0001b760       ?_Assign_n@?$vector@U_List_position@?$_Hash@V?$_Hmap_traits@W4eSCRIPT_CODE@@PAUsSCRIPT_DATA_INFO_NODE_INTERNAL@@V?$hash_compare@W4eSCRIPT_CODE@@U?$less@W4eSCRIPT_CODE@@@std@@@stdext@@V?$CustomAllocator@PAUsSCRIPT_DATA_INFO_NODE_INTERNAL@@@util@@$0A@@stdext@@@stdext@@V?$CustomAllocator@U_List_position@?$_Hash@V?$_Hmap_traits@W4eSCRIPT_CODE@@PAUsSCRIPT_DATA_INFO_NODE_INTERNAL@@V?$hash_compare@W4eSCRIPT_CODE@@U?$less@W4eSCRIPT_CODE@@@std@@@stdext@@V?$CustomAllocator@PAUsSCRIPT_DATA_INFO_NODE_INTERNAL@@@util@@$0A@@stdext@@@stdext@@@util@@@std@@IAEXIABU_List_position@?$_Hash@V?$_Hmap_traits@W4eSCRIPT_CODE@@PAUsSCRIPT_DATA_INFO_NODE_INTERNAL@@V?$hash_compare@W4eSCRIPT_CODE@@U?$less@W4eSCRIPT_CODE@@@std@@@stdext@@V?$CustomAllocator@PAUsSCRIPT_DATA_INFO_NODE_INTERNAL@@@util@@$0A@@stdext@@@stdext@@@Z 0041c760 f i servercommon:ScriptDataManager.obj
 0001:0001b7e0       ?splice@?$list@U?$pair@$$CBW4eSCRIPT_CODE@@PAUsSCRIPT_DATA_INFO_NODE_INTERNAL@@@std@@V?$CustomAllocator@U?$pair@$$CBW4eSCRIPT_CODE@@PAUsSCRIPT_DATA_INFO_NODE_INTERNAL@@@std@@@util@@@std@@QAEXV?$_Const_iterator@$00@12@AAV12@0@Z 0041c7e0 f i servercommon:ScriptDataManager.obj
 0001:0001b7e0       ?splice@?$list@U?$pair@$$CBKPAVServerSession@@@std@@V?$CustomAllocator@U?$pair@$$CBKPAVServerSession@@@std@@@util@@@std@@QAEXV?$_Const_iterator@$00@12@AAV12@0@Z 0041c7e0 f i servercommon:ServerFrame.obj
 0001:0001b7e0       ?splice@?$list@U?$pair@$$CBKPAVBASE_FUNC@util@@@std@@V?$allocator@U?$pair@$$CBKPAVBASE_FUNC@util@@@std@@@2@@std@@QAEXV?$_Const_iterator@$00@12@AAV12@0@Z 0041c7e0 f i PacketHandler.obj
 0001:0001b7e0       ?splice@?$list@U?$pair@$$CBKPAVAbuseUser@@@std@@V?$CustomAllocator@U?$pair@$$CBKPAVAbuseUser@@@std@@@util@@@std@@QAEXV?$_Const_iterator@$00@12@AAV12@0@Z 0041c7e0 f i AbuseUserManager.obj
 0001:0001b8a0       ?_Insert@?$_Hash@V?$_Hmap_traits@W4eSCRIPT_CODE@@PAUsSCRIPT_DATA_INFO_NODE_INTERNAL@@V?$hash_compare@W4eSCRIPT_CODE@@U?$less@W4eSCRIPT_CODE@@@std@@@stdext@@V?$CustomAllocator@PAUsSCRIPT_DATA_INFO_NODE_INTERNAL@@@util@@$0A@@stdext@@@stdext@@IAE?AU?$pair@V?$_Iterator@$00@?$list@U?$pair@$$CBW4eSCRIPT_CODE@@PAUsSCRIPT_DATA_INFO_NODE_INTERNAL@@@std@@V?$CustomAllocator@U?$pair@$$CBW4eSCRIPT_CODE@@PAUsSCRIPT_DATA_INFO_NODE_INTERNAL@@@std@@@util@@@std@@_N@std@@ABU?$pair@$$CBW4eSCRIPT_CODE@@PAUsSCRIPT_DATA_INFO_NODE_INTERNAL@@@4@V?$_Iterator@$00@?$list@U?$pair@$$CBW4eSCRIPT_CODE@@PAUsSCRIPT_DATA_INFO_NODE_INTERNAL@@@std@@V?$CustomAllocator@U?$pair@$$CBW4eSCRIPT_CODE@@PAUsSCRIPT_DATA_INFO_NODE_INTERNAL@@@std@@@util@@@4@@Z 0041c8a0 f i servercommon:ScriptDataManager.obj
 0001:0001bc20       ?_Reinsert@?$_Hash@V?$_Hmap_traits@W4eSCRIPT_CODE@@PAUsSCRIPT_DATA_INFO_NODE_INTERNAL@@V?$hash_compare@W4eSCRIPT_CODE@@U?$less@W4eSCRIPT_CODE@@@std@@@stdext@@V?$CustomAllocator@PAUsSCRIPT_DATA_INFO_NODE_INTERNAL@@@util@@$0A@@stdext@@@stdext@@IAEXXZ 0041cc20 f i servercommon:ScriptDataManager.obj
 0001:0001bcb0       ?clear@?$_Hash@V?$_Hmap_traits@KPAVServerSession@@V?$hash_compare@KU?$less@K@std@@@stdext@@V?$CustomAllocator@PAVServerSession@@@util@@$0A@@stdext@@@stdext@@QAEXXZ 0041ccb0 f i TempServerSessionEx.obj
 0001:0001bcb0       ?clear@?$_Hash@V?$_Hmap_traits@KPAVAbuseUser@@V?$hash_compare@KU?$less@K@std@@@stdext@@V?$CustomAllocator@PAVAbuseUser@@@util@@$0A@@stdext@@@stdext@@QAEXXZ 0041ccb0 f i AbuseUserManager.obj
 0001:0001bcb0       ?clear@?$_Hash@V?$_Hmap_traits@W4eSCRIPT_CODE@@PAUsSCRIPT_DATA_INFO_NODE_INTERNAL@@V?$hash_compare@W4eSCRIPT_CODE@@U?$less@W4eSCRIPT_CODE@@@std@@@stdext@@V?$CustomAllocator@PAUsSCRIPT_DATA_INFO_NODE_INTERNAL@@@util@@$0A@@stdext@@@stdext@@QAEXXZ 0041ccb0 f i servercommon:ScriptDataManager.obj
 0001:0001bd20       ??1ScriptDataManagerInternal@@QAE@XZ 0041cd20 f i servercommon:ScriptDataManager.obj
 0001:0001bf50       ??0ScriptDataManagerInternal@@QAE@XZ 0041cf50 f i servercommon:ScriptDataManager.obj
 0001:0001c050       ??0ReadyState@@QAE@XZ      0041d050 f   servercommon:ReadyState.obj
 0001:0001c060       ??1ReadyState@@QAE@XZ      0041d060 f   servercommon:ReadyState.obj
 0001:0001c080       ?Init@ReadyState@@QAEXE@Z  0041d080 f   servercommon:ReadyState.obj
 0001:0001c0c0       ?SetReadyState@ReadyState@@QAEXEH@Z 0041d0c0 f   servercommon:ReadyState.obj
 0001:0001c0e0       ?IsReady@ReadyState@@AAEHE@Z 0041d0e0 f   servercommon:ReadyState.obj
 0001:0001c100       ?IsAllReady@ReadyState@@AAE?AW4READY_STATE@@XZ 0041d100 f   servercommon:ReadyState.obj
 0001:0001c130       ?Update@ReadyState@@QAE?AW4READY_STATE@@XZ 0041d130 f   servercommon:ReadyState.obj
 0001:0001c170       ?IsCategoryPacked@CategoryConverter@nsPacket@@SAEE@Z 0041d170 f i servercommon:PacketControlS2S.obj
 0001:0001c2a0       ?Init@Environment@Server@nsPacket@@SAEXZ 0041d2a0 f   servercommon:PacketControlS2S.obj
 0001:0001c2c0       ?MakeStream@?$SubControl@$0BL@$00@PacketControl@Server@nsPacket@@SA?AUPacketInfo@4@QAUMSG_BASE@@G@Z 0041d2c0 f   servercommon:PacketControlS2S.obj
 0001:0001c400       ?_Tidy@?$list@U?$pair@$$CBKPAVAbuseUser@@@std@@V?$CustomAllocator@U?$pair@$$CBKPAVAbuseUser@@@std@@@util@@@std@@IAEXXZ 0041d400 f i AbuseUserManager.obj
 0001:0001c400       ?_Tidy@?$list@PAUSCRIPT_DATA@@V?$CustomAllocator@PAUSCRIPT_DATA@@@util@@@std@@IAEXXZ 0041d400 f i programcommon_s:ScriptParserManager.obj
 0001:0001c400       ?_Tidy@?$list@W4eSCRIPT_CODE@@V?$CustomAllocator@W4eSCRIPT_CODE@@@util@@@std@@IAEXXZ 0041d400 f i servercommon:ScriptDataManager.obj
 0001:0001c400       ?_Tidy@?$list@U?$pair@$$CBKPAVServerSession@@@std@@V?$CustomAllocator@U?$pair@$$CBKPAVServerSession@@@std@@@util@@@std@@IAEXXZ 0041d400 f i servercommon:ServerFrame.obj
 0001:0001c400       ?_Tidy@?$list@U?$pair@$$CBW4eSCRIPT_CODE@@PAUsSCRIPT_DATA_INFO_NODE_INTERNAL@@@std@@V?$CustomAllocator@U?$pair@$$CBW4eSCRIPT_CODE@@PAUsSCRIPT_DATA_INFO_NODE_INTERNAL@@@std@@@util@@@std@@IAEXXZ 0041d400 f i servercommon:ScriptDataManager.obj
 0001:0001c400       ?_Tidy@?$list@KV?$CustomAllocator@K@util@@@std@@IAEXXZ 0041d400 f i servercommon:WorkLoadManager.obj
 0001:0001c450       ??1ScriptParserManager@@UAE@XZ 0041d450 f   programcommon_s:ScriptParserManager.obj
 0001:0001c470       ?Load@ScriptParserManager@@QAEHXZ 0041d470 f   programcommon_s:ScriptParserManager.obj
 0001:0001c590       ?Release@ScriptParserManager@@QAEXXZ 0041d590 f   programcommon_s:ScriptParserManager.obj
 0001:0001c660       ?FindScript@ScriptParserManager@@QAEPAUSCRIPT_DATA@@W4eSCRIPT_CODE@@@Z 0041d660 f   programcommon_s:ScriptParserManager.obj
 0001:0001c6e0       ?FindScript@ScriptParserManager@@QAEPAUSCRIPT_DATA@@PBD@Z 0041d6e0 f   programcommon_s:ScriptParserManager.obj
 0001:0001c790       ?GetScriptDataNodeList@ScriptParserManager@@IAEHPAUsSCRIPT_DATA_INFO_NODE@@G@Z 0041d790 f   programcommon_s:ScriptParserManager.obj
 0001:0001c870       ??0ScriptParserManager@@QAE@XZ 0041d870 f   programcommon_s:ScriptParserManager.obj
 0001:0001c890       ?GetVersion@ScriptParserManager@@QAEPBDW4eSCRIPT_CODE@@@Z 0041d890 f   programcommon_s:ScriptParserManager.obj
 0001:0001c8b0       ?GetFileName@ScriptParserManager@@QAEPBDW4eSCRIPT_CODE@@@Z 0041d8b0 f   programcommon_s:ScriptParserManager.obj
 0001:0001c8d0       ?RegisterScriptData@ScriptParserManager@@IAEHW4eSCRIPT_CODE@@PBDQAVIParser@@W4eSEPERATOR_MODE@@1HQ6AXXZ@Z 0041d8d0 f   programcommon_s:ScriptParserManager.obj
 0001:0001ca20       ??_EScriptParserManager@@UAEPAXI@Z 0041da20 f i programcommon_s:ScriptParserManager.obj
 0001:0001ca20       ??_GScriptParserManager@@UAEPAXI@Z 0041da20 f i programcommon_s:ScriptParserManager.obj
 0001:0001ca60       ?Init@Environment@nsPacket@@SAEXZ 0041da60 f   programcommon_s:PacketControl.obj
 0001:0001ca90       ?MakeStream@PacketControl@nsPacket@@CA?AUPacketInfo@2@EQAUMSG_BASE@@G@Z 0041da90 f   programcommon_s:PacketControl.obj
 0001:0001cb40       ?Pack@PacketControl@nsPacket@@SA?AUPacketInfo@2@QAUMSG_BASE@@G@Z 0041db40 f   programcommon_s:PacketControl.obj
 0001:0001cb60       ?UnPack@PacketControl@nsPacket@@SA?AUPacketInfo@2@QAUMSG_BASE@@G@Z 0041db60 f   programcommon_s:PacketControl.obj
 0001:0001cb80       ?SetCurFileName@IParser@@QAEXPBD@Z 0041db80 f   programcommon_s:ScriptCode.IParser.Impl.obj
 0001:0001cbb0       ?SetPackFileName@IParser@@QAEXPBD@Z 0041dbb0 f   programcommon_s:ScriptCode.IParser.Impl.obj
 0001:0001cbf0       ?SetPackFileName@IParser@@QAEXPB_W@Z 0041dbf0 f   programcommon_s:ScriptCode.IParser.Impl.obj
 0001:0001cc90       ?GetINIDataString@IParser@@QAEPBDPBD0@Z 0041dc90 f   programcommon_s:ScriptCode.IParser.Impl.obj
 0001:0001ccf0       ?GetINIDataDouble@IParser@@QAENPBD0@Z 0041dcf0 f   programcommon_s:ScriptCode.IParser.Impl.obj
 0001:0001cd30       ?GetINIDataFloat@IParser@@QAEMPBD0@Z 0041dd30 f   programcommon_s:ScriptCode.IParser.Impl.obj
 0001:0001cd80       ?GetINIDataInt@IParser@@QAEHPBD0@Z 0041dd80 f   programcommon_s:ScriptCode.IParser.Impl.obj
 0001:0001cdc0       ?GetINIDataBYTE@IParser@@QAEEPBD0@Z 0041ddc0 f   programcommon_s:ScriptCode.IParser.Impl.obj
 0001:0001ce10       ?GetINIDataWORD@IParser@@QAEGPBD0@Z 0041de10 f   programcommon_s:ScriptCode.IParser.Impl.obj
 0001:0001ce60       ?GetINIDataDWORD@IParser@@QAEKPBD0@Z 0041de60 f   programcommon_s:ScriptCode.IParser.Impl.obj
 0001:0001cea0       ?GetINIDataNumber@IParser@@QAENPBD0@Z 0041dea0 f   programcommon_s:ScriptCode.IParser.Impl.obj
 0001:0001cee0       ?Load@IParser@@UAEHW4eSCRIPT_CODE@@PBDHW4eSEPERATOR_MODE@@1H@Z 0041dee0 f   programcommon_s:ScriptCode.IParser.Impl.obj
 0001:0001d1e0       ?OpenFile@IParser@@IAEHAAVSolarFileReader@util@@PBDW4eSEPERATOR_MODE@@@Z 0041e1e0 f   programcommon_s:ScriptCode.IParser.Impl.obj
 0001:0001d260       ?_LoadVersion@IParser@@IAEHAAVSolarFileReader@util@@@Z 0041e260 f   programcommon_s:ScriptCode.IParser.Impl.obj
 0001:0001d370       ?GetDataString@IParser@@QBEPBDPBDH@Z 0041e370 f   programcommon_s:ScriptCode.IParser.Impl.obj
 0001:0001d3c0       ?GetDataDouble@IParser@@QBENPBDH@Z 0041e3c0 f   programcommon_s:ScriptCode.IParser.Impl.obj
 0001:0001d420       ?GetDataFloat@IParser@@QBEMPBDH@Z 0041e420 f   programcommon_s:ScriptCode.IParser.Impl.obj
 0001:0001d490       ?GetDataInt@IParser@@QBEHPBDH@Z 0041e490 f   programcommon_s:ScriptCode.IParser.Impl.obj
 0001:0001d4f0       ?GetDataInt64@IParser@@QBE_JPBDH@Z 0041e4f0 f   programcommon_s:ScriptCode.IParser.Impl.obj
 0001:0001d550       ?GetDataBYTE@IParser@@QBEEPBDH@Z 0041e550 f   programcommon_s:ScriptCode.IParser.Impl.obj
 0001:0001d5b0       ?GetDataWORD@IParser@@QBEGPBDH@Z 0041e5b0 f   programcommon_s:ScriptCode.IParser.Impl.obj
 0001:0001d610       ?GetDataDWORD@IParser@@QBEKPBDH@Z 0041e610 f   programcommon_s:ScriptCode.IParser.Impl.obj
 0001:0001d670       ?GetDataDWORD64@IParser@@QBE_KPBDH@Z 0041e670 f   programcommon_s:ScriptCode.IParser.Impl.obj
 0001:0001d6d0       ?GetDataNumber@IParser@@QBENPBDH@Z 0041e6d0 f   programcommon_s:ScriptCode.IParser.Impl.obj
 0001:0001d730       ?GetDataBOOL@IParser@@QBE_NPBDH@Z 0041e730 f   programcommon_s:ScriptCode.IParser.Impl.obj
 0001:0001d7a0       ?GetData@IParser@@QAAHHHPADPBDZZ 0041e7a0 f   programcommon_s:ScriptCode.IParser.Impl.obj
 0001:0001d860       ?GetData@IParser@@QAAHHAAHPBDZZ 0041e860 f   programcommon_s:ScriptCode.IParser.Impl.obj
 0001:0001d8e0       ?GetData@IParser@@QAAHHAAEPBDZZ 0041e8e0 f   programcommon_s:ScriptCode.IParser.Impl.obj
 0001:0001d960       ?GetData@IParser@@QAAHHAAGPBDZZ 0041e960 f   programcommon_s:ScriptCode.IParser.Impl.obj
 0001:0001d9e0       ?GetData@IParser@@QAAHHAAKPBDZZ 0041e9e0 f   programcommon_s:ScriptCode.IParser.Impl.obj
 0001:0001da60       ?GetData@IParser@@QAAHHAAMPBDZZ 0041ea60 f   programcommon_s:ScriptCode.IParser.Impl.obj
 0001:0001dae0       ?GetData@IParser@@QAAHHAANPBDZZ 0041eae0 f   programcommon_s:ScriptCode.IParser.Impl.obj
 0001:0001db60       ?GetData64@IParser@@QAAHHAA_JPBDZZ 0041eb60 f   programcommon_s:ScriptCode.IParser.Impl.obj
 0001:0001dbe0       ?GetData64@IParser@@QAAHHAA_KPBDZZ 0041ebe0 f   programcommon_s:ScriptCode.IParser.Impl.obj
 0001:0001dc60       ?GetDataWZID@IParser@@QAAHHAAKPBDZZ 0041ec60 f   programcommon_s:ScriptCode.IParser.Impl.obj
 0001:0001dd10       ?FindFileName@IParser@@QAEPBDW4eSCRIPT_CODE@@@Z 0041ed10 f   programcommon_s:ScriptCode.IParser.Impl.obj
 0001:0001dd90       ?SolarLoad@IParser@@UAEHW4eSCRIPT_CODE@@PAEKH@Z 0041ed90 f   programcommon_s:ScriptCode.IParser.Impl.obj
 0001:0001e000       ?InsertFileName@IParser@@QAEHW4eSCRIPT_CODE@@PBD@Z 0041f000 f   programcommon_s:ScriptCode.IParser.Impl.obj
 0001:0001e0e0       ??1IParser@@UAE@XZ         0041f0e0 f   programcommon_s:ScriptCode.IParser.Impl.obj
 0001:0001e160       ??0IParser@@QAE@XZ         0041f160 f   programcommon_s:ScriptCode.IParser.Impl.obj
 0001:0001e1d0       ?_Rrotate@?$_Tree@V?$_Tmap_traits@W4eSCRIPT_CODE@@V?$basic_string@DU?$char_traits@D@std@@V?$allocator@D@2@@std@@U?$less@W4eSCRIPT_CODE@@@3@V?$CustomAllocator@V?$basic_string@DU?$char_traits@D@std@@V?$allocator@D@2@@std@@@util@@$0A@@std@@@std@@IAEXPAU_Node@?$_Tree_nod@V?$_Tmap_traits@W4eSCRIPT_CODE@@V?$basic_string@DU?$char_traits@D@std@@V?$allocator@D@2@@std@@U?$less@W4eSCRIPT_CODE@@@3@V?$CustomAllocator@V?$basic_string@DU?$char_traits@D@std@@V?$allocator@D@2@@std@@@util@@$0A@@std@@@2@@Z 0041f1d0 f i programcommon_s:ScriptCode.IParser.Impl.obj
 0001:0001e1d0       ?_Rrotate@?$_Tree@V?$_Tmap_traits@V?$basic_string@DU?$char_traits@D@std@@V?$allocator@D@2@@std@@PAV?$map@V?$basic_string@DU?$char_traits@D@std@@V?$allocator@D@2@@std@@V12@U?$less@V?$basic_string@DU?$char_traits@D@std@@V?$allocator@D@2@@std@@@2@V?$allocator@U?$pair@$$CBV?$basic_string@DU?$char_traits@D@std@@V?$allocator@D@2@@std@@V12@@std@@@2@@2@U?$less@V?$basic_string@DU?$char_traits@D@std@@V?$allocator@D@2@@std@@@2@V?$allocator@U?$pair@$$CBV?$basic_string@DU?$char_traits@D@std@@V?$allocator@D@2@@std@@PAV?$map@V?$basic_string@DU?$char_traits@D@std@@V?$allocator@D@2@@std@@V12@U?$less@V?$basic_string@DU?$char_traits@D@std@@V?$allocator@D@2@@std@@@2@V?$allocator@U?$pair@$$CBV?$basic_string@DU?$char_traits@D@std@@V?$allocator@D@2@@std@@V12@@std@@@2@@2@@std@@@2@$0A@@std@@@std@@IAEXPAU_Node@?$_Tree_nod@V?$_Tmap_traits@V?$basic_string@DU?$char_traits@D@std@@V?$allocator@D@2@@std@@PAV?$map@V?$basic_string@DU?$char_traits@D@std@@V?$allocator@D@2@@std@@V12@U?$less@V?$basic_string@DU?$char_traits@D@std@@V?$allocator@D@2@@std@@@2@V?$allocator@U?$pair@$$CBV?$basic_string@DU?$char_traits@D@std@@V?$allocator@D@2@@std@@V12@@std@@@2@@2@U?$less@V?$basic_string@DU?$char_traits@D@std@@V?$allocator@D@2@@std@@@2@V?$allocator@U?$pair@$$CBV?$basic_string@DU?$char_traits@D@std@@V?$allocator@D@2@@std@@PAV?$map@V?$basic_string@DU?$char_traits@D@std@@V?$allocator@D@2@@std@@V12@U?$less@V?$basic_string@DU?$char_traits@D@std@@V?$allocator@D@2@@std@@@2@V?$allocator@U?$pair@$$CBV?$basic_string@DU?$char_traits@D@std@@V?$allocator@D@2@@std@@V12@@std@@@2@@2@@std@@@2@$0A@@std@@@2@@Z 0041f1d0 f i utility_s:INIParser.obj
 0001:0001e230       ?_Dec@const_iterator@?$_Tree@V?$_Tmap_traits@W4eSCRIPT_CODE@@V?$basic_string@DU?$char_traits@D@std@@V?$allocator@D@2@@std@@U?$less@W4eSCRIPT_CODE@@@3@V?$CustomAllocator@V?$basic_string@DU?$char_traits@D@std@@V?$allocator@D@2@@std@@@util@@$0A@@std@@@std@@QAEXXZ 0041f230 f i programcommon_s:ScriptCode.IParser.Impl.obj
 0001:0001e230       ?_Dec@const_iterator@?$_Tree@V?$_Tmap_traits@V?$basic_string@DU?$char_traits@D@std@@V?$allocator@D@2@@std@@PAV?$map@V?$basic_string@DU?$char_traits@D@std@@V?$allocator@D@2@@std@@V12@U?$less@V?$basic_string@DU?$char_traits@D@std@@V?$allocator@D@2@@std@@@2@V?$allocator@U?$pair@$$CBV?$basic_string@DU?$char_traits@D@std@@V?$allocator@D@2@@std@@V12@@std@@@2@@2@U?$less@V?$basic_string@DU?$char_traits@D@std@@V?$allocator@D@2@@std@@@2@V?$allocator@U?$pair@$$CBV?$basic_string@DU?$char_traits@D@std@@V?$allocator@D@2@@std@@PAV?$map@V?$basic_string@DU?$char_traits@D@std@@V?$allocator@D@2@@std@@V12@U?$less@V?$basic_string@DU?$char_traits@D@std@@V?$allocator@D@2@@std@@@2@V?$allocator@U?$pair@$$CBV?$basic_string@DU?$char_traits@D@std@@V?$allocator@D@2@@std@@V12@@std@@@2@@2@@std@@@2@$0A@@std@@@std@@QAEXXZ 0041f230 f i utility_s:INIParser.obj
 0001:0001e2c0       ?_Buynode@?$_Tree@V?$_Tmap_traits@W4eSCRIPT_CODE@@V?$basic_string@DU?$char_traits@D@std@@V?$allocator@D@2@@std@@U?$less@W4eSCRIPT_CODE@@@3@V?$CustomAllocator@V?$basic_string@DU?$char_traits@D@std@@V?$allocator@D@2@@std@@@util@@$0A@@std@@@std@@IAEPAU_Node@?$_Tree_nod@V?$_Tmap_traits@W4eSCRIPT_CODE@@V?$basic_string@DU?$char_traits@D@std@@V?$allocator@D@2@@std@@U?$less@W4eSCRIPT_CODE@@@3@V?$CustomAllocator@V?$basic_string@DU?$char_traits@D@std@@V?$allocator@D@2@@std@@@util@@$0A@@std@@@2@XZ 0041f2c0 f i programcommon_s:ScriptCode.IParser.Impl.obj
 0001:0001e300       ??1?$pair@$$CBW4eSCRIPT_CODE@@V?$basic_string@DU?$char_traits@D@std@@V?$allocator@D@2@@std@@@std@@QAE@XZ 0041f300 f i programcommon_s:ScriptCode.IParser.Impl.obj
 0001:0001e330       ?find@?$_Tree@V?$_Tmap_traits@W4eSCRIPT_CODE@@V?$basic_string@DU?$char_traits@D@std@@V?$allocator@D@2@@std@@U?$less@W4eSCRIPT_CODE@@@3@V?$CustomAllocator@V?$basic_string@DU?$char_traits@D@std@@V?$allocator@D@2@@std@@@util@@$0A@@std@@@std@@QAE?AViterator@12@ABW4eSCRIPT_CODE@@@Z 0041f330 f i programcommon_s:ScriptCode.IParser.Impl.obj
 0001:0001e3c0       ?_Erase@?$_Tree@V?$_Tmap_traits@W4eSCRIPT_CODE@@V?$basic_string@DU?$char_traits@D@std@@V?$allocator@D@2@@std@@U?$less@W4eSCRIPT_CODE@@@3@V?$CustomAllocator@V?$basic_string@DU?$char_traits@D@std@@V?$allocator@D@2@@std@@@util@@$0A@@std@@@std@@IAEXPAU_Node@?$_Tree_nod@V?$_Tmap_traits@W4eSCRIPT_CODE@@V?$basic_string@DU?$char_traits@D@std@@V?$allocator@D@2@@std@@U?$less@W4eSCRIPT_CODE@@@3@V?$CustomAllocator@V?$basic_string@DU?$char_traits@D@std@@V?$allocator@D@2@@std@@@util@@$0A@@std@@@2@@Z 0041f3c0 f i programcommon_s:ScriptCode.IParser.Impl.obj
 0001:0001e420       ??0?$_Tree@V?$_Tmap_traits@W4eSCRIPT_CODE@@V?$basic_string@DU?$char_traits@D@std@@V?$allocator@D@2@@std@@U?$less@W4eSCRIPT_CODE@@@3@V?$CustomAllocator@V?$basic_string@DU?$char_traits@D@std@@V?$allocator@D@2@@std@@@util@@$0A@@std@@@std@@QAE@ABU?$less@W4eSCRIPT_CODE@@@1@ABV?$CustomAllocator@U?$pair@$$CBW4eSCRIPT_CODE@@V?$basic_string@DU?$char_traits@D@std@@V?$allocator@D@2@@std@@@std@@@util@@@Z 0041f420 f i programcommon_s:ScriptCode.IParser.Impl.obj
 0001:0001e4b0       ?erase@?$_Tree@V?$_Tmap_traits@W4eSCRIPT_CODE@@V?$basic_string@DU?$char_traits@D@std@@V?$allocator@D@2@@std@@U?$less@W4eSCRIPT_CODE@@@3@V?$CustomAllocator@V?$basic_string@DU?$char_traits@D@std@@V?$allocator@D@2@@std@@@util@@$0A@@std@@@std@@QAE?AViterator@12@Vconst_iterator@12@@Z 0041f4b0 f i programcommon_s:ScriptCode.IParser.Impl.obj
 0001:0001e7a0       ??0_Node@?$_Tree_nod@V?$_Tmap_traits@W4eSCRIPT_CODE@@V?$basic_string@DU?$char_traits@D@std@@V?$allocator@D@2@@std@@U?$less@W4eSCRIPT_CODE@@@3@V?$CustomAllocator@V?$basic_string@DU?$char_traits@D@std@@V?$allocator@D@2@@std@@@util@@$0A@@std@@@std@@QAE@PAU012@00ABU?$pair@$$CBW4eSCRIPT_CODE@@V?$basic_string@DU?$char_traits@D@std@@V?$allocator@D@2@@std@@@2@D@Z 0041f7a0 f i programcommon_s:ScriptCode.IParser.Impl.obj
 0001:0001e800       ?erase@?$_Tree@V?$_Tmap_traits@W4eSCRIPT_CODE@@V?$basic_string@DU?$char_traits@D@std@@V?$allocator@D@2@@std@@U?$less@W4eSCRIPT_CODE@@@3@V?$CustomAllocator@V?$basic_string@DU?$char_traits@D@std@@V?$allocator@D@2@@std@@@util@@$0A@@std@@@std@@QAE?AViterator@12@Vconst_iterator@12@0@Z 0041f800 f i programcommon_s:ScriptCode.IParser.Impl.obj
 0001:0001e8e0       ?_Buynode@?$_Tree@V?$_Tmap_traits@W4eSCRIPT_CODE@@V?$basic_string@DU?$char_traits@D@std@@V?$allocator@D@2@@std@@U?$less@W4eSCRIPT_CODE@@@3@V?$CustomAllocator@V?$basic_string@DU?$char_traits@D@std@@V?$allocator@D@2@@std@@@util@@$0A@@std@@@std@@IAEPAU_Node@?$_Tree_nod@V?$_Tmap_traits@W4eSCRIPT_CODE@@V?$basic_string@DU?$char_traits@D@std@@V?$allocator@D@2@@std@@U?$less@W4eSCRIPT_CODE@@@3@V?$CustomAllocator@V?$basic_string@DU?$char_traits@D@std@@V?$allocator@D@2@@std@@@util@@$0A@@std@@@2@PAU342@00ABU?$pair@$$CBW4eSCRIPT_CODE@@V?$basic_string@DU?$char_traits@D@std@@V?$allocator@D@2@@std@@@2@D@Z 0041f8e0 f i programcommon_s:ScriptCode.IParser.Impl.obj
 0001:0001e980       ?_Insert@?$_Tree@V?$_Tmap_traits@W4eSCRIPT_CODE@@V?$basic_string@DU?$char_traits@D@std@@V?$allocator@D@2@@std@@U?$less@W4eSCRIPT_CODE@@@3@V?$CustomAllocator@V?$basic_string@DU?$char_traits@D@std@@V?$allocator@D@2@@std@@@util@@$0A@@std@@@std@@IAE?AViterator@12@_NPAU_Node@?$_Tree_nod@V?$_Tmap_traits@W4eSCRIPT_CODE@@V?$basic_string@DU?$char_traits@D@std@@V?$allocator@D@2@@std@@U?$less@W4eSCRIPT_CODE@@@3@V?$CustomAllocator@V?$basic_string@DU?$char_traits@D@std@@V?$allocator@D@2@@std@@@util@@$0A@@std@@@2@ABU?$pair@$$CBW4eSCRIPT_CODE@@V?$basic_string@DU?$char_traits@D@std@@V?$allocator@D@2@@std@@@2@@Z 0041f980 f i programcommon_s:ScriptCode.IParser.Impl.obj
 0001:0001eb80       ??1?$_Tree@V?$_Tmap_traits@W4eSCRIPT_CODE@@V?$basic_string@DU?$char_traits@D@std@@V?$allocator@D@2@@std@@U?$less@W4eSCRIPT_CODE@@@3@V?$CustomAllocator@V?$basic_string@DU?$char_traits@D@std@@V?$allocator@D@2@@std@@@util@@$0A@@std@@@std@@QAE@XZ 0041fb80 f i programcommon_s:ScriptCode.IParser.Impl.obj
 0001:0001ec00       ?insert@?$_Tree@V?$_Tmap_traits@W4eSCRIPT_CODE@@V?$basic_string@DU?$char_traits@D@std@@V?$allocator@D@2@@std@@U?$less@W4eSCRIPT_CODE@@@3@V?$CustomAllocator@V?$basic_string@DU?$char_traits@D@std@@V?$allocator@D@2@@std@@@util@@$0A@@std@@@std@@QAE?AU?$pair@Viterator@?$_Tree@V?$_Tmap_traits@W4eSCRIPT_CODE@@V?$basic_string@DU?$char_traits@D@std@@V?$allocator@D@2@@std@@U?$less@W4eSCRIPT_CODE@@@3@V?$CustomAllocator@V?$basic_string@DU?$char_traits@D@std@@V?$allocator@D@2@@std@@@util@@$0A@@std@@@std@@_N@2@ABU?$pair@$$CBW4eSCRIPT_CODE@@V?$basic_string@DU?$char_traits@D@std@@V?$allocator@D@2@@std@@@2@@Z 0041fc00 f i programcommon_s:ScriptCode.IParser.Impl.obj
 0001:0001ecf0       ??1?$chunk_map@W4eSCRIPT_CODE@@V?$basic_string@DU?$char_traits@D@std@@V?$allocator@D@2@@std@@U?$less@W4eSCRIPT_CODE@@@3@@util@@QAE@XZ 0041fcf0 f i programcommon_s:ScriptCode.IParser.Impl.obj
 0001:0001ed00       ??_GIParser@@UAEPAXI@Z     0041fd00 f i programcommon_s:ScriptCode.IParser.Impl.obj
 0001:0001ed00       ??_EIParser@@UAEPAXI@Z     0041fd00 f i programcommon_s:ScriptCode.IParser.Impl.obj
 0001:0001ed20       ?SetPackInfo@CategoryConverter@nsPacket@@SAEQAUMSG_BASE@@@Z 0041fd20 f i programcommon_s:PacketControl_Compress.obj
 0001:0001efc0       ?MakeStream@CompressUtil@nsPacket@@SA?AUPacketInfo@2@EPAEQAUMSG_BASE@@G@Z 0041ffc0 f   programcommon_s:PacketControl_Compress.obj
 0001:0001f090       ?memfree_handler@CompressUtil@nsPacket@@CAXPAXH@Z 00420090 f   programcommon_s:PacketControl_Compress.obj
 0001:0001f0a0       ?memalloc_handler@CompressUtil@nsPacket@@CAPAXIH@Z 004200a0 f   programcommon_s:PacketControl_Compress.obj
 0001:0001f1f0       ??0TableData@@QAE@XZ       004201f0 f   programcommon_s:TableData.obj
 0001:0001f210       ?RegisterColumnDelimiters@TableData@@QAEXPBD@Z 00420210 f   programcommon_s:TableData.obj
 0001:0001f270       ?_OpenFileAndReadBuffer@TableData@@AAEEPBDE0@Z 00420270 f   programcommon_s:TableData.obj
 0001:0001f470       ?_UnLoad@TableData@@AAEEXZ 00420470 f   programcommon_s:TableData.obj
 0001:0001f4a0       ?CreateEnvironment@TableData@@SAEXZ 004204a0 f   programcommon_s:TableData.obj
 0001:0001f590       ?DestroyEnvironment@TableData@@SAEXZ 00420590 f   programcommon_s:TableData.obj
 0001:0001f620       ?_BuildDictionary@TableData@@AAEEW4eSCRIPT_CODE@@@Z 00420620 f   programcommon_s:TableData.obj
 0001:0001fc90       ?Load@TableData@@QAEEW4eSCRIPT_CODE@@PBDE1@Z 00420c90 f   programcommon_s:TableData.obj
 0001:0001fcd0       ?LoadBuffer@TableData@@QAEEW4eSCRIPT_CODE@@PBEK@Z 00420cd0 f   programcommon_s:TableData.obj
 0001:0001fd50       ?Initialize@?$SolarHashTable@HK@util@@QAE_NK@Z 00420d50 f i programcommon_s:TableData.obj
 0001:0001fdf0       ?CreateInstance@TimeSync@util@@CAPAV12@XZ 00420df0 f   utility_s:SolarDateTime.obj
 0001:0001fe70       ?Command_ClientRecv@TimeSync@util@@SA_NABUTimeSyncNode@2@@Z 00420e70 f   utility_s:SolarDateTime.obj
 0001:0001ffd0       ?Command_Standalone@TimeSync@util@@SAXXZ 00420fd0 f   utility_s:SolarDateTime.obj
 0001:00020060       ?CalculateTime@TimeSync@util@@AAEXXZ 00421060 f   utility_s:SolarDateTime.obj
 0001:00020100       ?GetLocalTime@TimeSync@util@@SAXPAU_SYSTEMTIME@@@Z 00421100 f   utility_s:SolarDateTime.obj
 0001:000201a0       ?UpdateTimeInfoPerFrame@TimeSync@util@@SAXPAUTimeInfoPerFrame@2@@Z 004211a0 f   utility_s:SolarDateTime.obj
 0001:00020280       ?GetDateTime_YYYYMMDDHHMMSS@util@@YAAB_KAA_K@Z 00421280 f   utility_s:SolarDateTime.obj
 0001:00020320       ??1IVMemoryPool@util@@UAE@XZ 00421320 f   utility_s:MemoryPoolFactory.obj
 0001:00020330       ??0MemoryPoolSizeBased@internal@util@@QAE@IP6AXPAX@Z1@Z 00421330 f   utility_s:MemoryPoolFactory.obj
 0001:00020380       ?AddBlock@MemoryPoolSizeBased@internal@util@@AAEXI@Z 00421380 f   utility_s:MemoryPoolFactory.obj
 0001:00020420       ?Initialize@MemoryPoolSizeBased@internal@util@@QAEXIIPBD@Z 00421420 f   utility_s:MemoryPoolFactory.obj
 0001:00020460       ?Allocate@MemoryPoolSizeBased@internal@util@@QAEPAXXZ 00421460 f   utility_s:MemoryPoolFactory.obj
 0001:000204b0       ?Deallocate@MemoryPoolSizeBased@internal@util@@QAEXPAX@Z 004214b0 f   utility_s:MemoryPoolFactory.obj
 0001:00020560       ?FreeAllElements@MemoryPoolSizeBased@internal@util@@QAEXXZ 00421560 f   utility_s:MemoryPoolFactory.obj
 0001:000206d0       ??1MemoryPoolSizeBased@internal@util@@QAE@XZ 004216d0 f   utility_s:MemoryPoolFactory.obj
 0001:00020700       ?CheckNodeHeader@SharedMemoryPoolSizeBased@memory@util@@SAPAUMemoryForUse@123@PAXQAW4eCheckMemoryNodeResult@23@@Z 00421700 f   utility_s:SharedMemoryPool.obj
 0001:000207e0       ?_SetSharedMemoryLeakDetect@@YAXP6AXK@Z@Z 004217e0 f   utility_s:SharedMemoryPool.obj
 0001:000207f0       ?ReportMemoryLeaks@SharedMemoryTable@memory@util@@QAE_NPBD@Z 004217f0 f   utility_s:SharedMemoryPool.obj
 0001:00020ad0       ?AddBlock@SharedMemoryPoolSizeBased@memory@util@@AAEXQAUSharedMemoryTable@23@@Z 00421ad0 f   utility_s:SharedMemoryPool.obj
 0001:00020bb0       ??0SharedMemoryTable@memory@util@@QAE@XZ 00421bb0 f   utility_s:SharedMemoryPool.obj
 0001:00021380       ?TraceShareMemoryLeak@@YAHQBD@Z 00422380 f   utility_s:SharedMemoryPool.obj
 0001:000213d0       ?ReportRuntimeFailedObject@SharedMemoryTable@memory@util@@SAXW4eCheckMemoryNodeResult@23@PAXPAUMemoryForUse@SharedMemoryPoolSizeBased@23@@Z 004223d0 f   utility_s:SharedMemoryPool.obj
 0001:00021580       ??0SharedMemoryPool@@AAE@XZ 00422580 f   utility_s:SharedMemoryPool.obj
 0001:000215c0       ?Allocate@SharedMemoryPoolSizeBased@memory@util@@QAEPAXQAUSharedMemoryTable@23@IPBDH@Z 004225c0 f   utility_s:SharedMemoryPool.obj
 0001:00021670       ?Deallocate@SharedMemoryPoolSizeBased@memory@util@@QAEXQAUSharedMemoryTable@23@PAUMemoryForUse@123@@Z 00422670 f   utility_s:SharedMemoryPool.obj
 0001:00021760       ?FreeAllElements@SharedMemoryPoolSizeBased@memory@util@@QAEXQAUSharedMemoryTable@23@@Z 00422760 f   utility_s:SharedMemoryPool.obj
 0001:00021830       ?Allocate@SharedMemoryTable@memory@util@@QAEPAXIPBDH@Z 00422830 f   utility_s:SharedMemoryPool.obj
 0001:00021980       ?Deallocate@SharedMemoryTable@memory@util@@QAEXPAX@Z 00422980 f   utility_s:SharedMemoryPool.obj
 0001:00021a50       ??1SharedMemoryTable@memory@util@@QAE@XZ 00422a50 f   utility_s:SharedMemoryPool.obj
 0001:00021c50       ?CreateInstance@SharedMemoryPool@@SA_NXZ 00422c50 f   utility_s:SharedMemoryPool.obj
 0001:00021c70       ?MemoryAllocate@SharedMemoryPool@@SAPAXIPBDH@Z 00422c70 f   utility_s:SharedMemoryPool.obj
 0001:00021cb0       ?CheckValidAllocatedMemory@SharedMemoryPool@@SA_NPAX@Z 00422cb0 f   utility_s:SharedMemoryPool.obj
 0001:00021d00       ?MemoryDeAllocate@SharedMemoryPool@@SAXPAX@Z 00422d00 f   utility_s:SharedMemoryPool.obj
 0001:00021d70       ??0SolarSimpleConsole@@QAE@XZ 00422d70 f   utility_s:SolarSimpleConsole.obj
 0001:00021d90       ?Print@SolarSimpleConsole@@QAAXPADZZ 00422d90 f   utility_s:SolarSimpleConsole.obj
 0001:00021e10       ?Release@SolarSimpleConsole@@QAEHXZ 00422e10 f   utility_s:SolarSimpleConsole.obj
 0001:00021e40       ?_redirectToConsole@SolarSimpleConsole@@AAEXXZ 00422e40 f   utility_s:SolarSimpleConsole.obj
 0001:00022020       ?Init@SolarSimpleConsole@@QAEHPAUtagCONSOLE_DESC@@@Z 00423020 f   utility_s:SolarSimpleConsole.obj
 0001:00022160       ?NewHandler@SolarDump@@CAHI@Z 00423160 f   utility_s:SolarDump.obj
 0001:00022170       ?PureCallHandler@SolarDump@@CAXXZ 00423170 f   utility_s:SolarDump.obj
 0001:00022180       ?ExceptionFilter@SolarDump@@CGJPAU_EXCEPTION_POINTERS@@@Z 00423180 f   utility_s:SolarDump.obj
 0001:00022330       ??0SolarDump@@QAE@PADW4_MINIDUMP_TYPE@@@Z 00423330 f   utility_s:SolarDump.obj
 0001:00022400       ?RegisterLoggingHandler@SafeMemoryPoolFactoryShared@util@@SAXP6AXPBDPAXI@Z@Z 00423400 f   utility_s:SafeMemoryPoolFactory.obj
 0001:00022410       ?OpenFile@INIParser@util@@QAE_NPBD0@Z 00423410 f   utility_s:INIParser.obj
 0001:000225d0       ?SetBuffer@INIParser@util@@QAE_NPBDK@Z 004235d0 f   utility_s:INIParser.obj
 0001:00022620       ?_getchar@INIParser@util@@AAEDXZ 00423620 f   utility_s:INIParser.obj
 0001:00022640       ?_skipComment@INIParser@util@@AAE?AW4INIToken@12@XZ 00423640 f   utility_s:INIParser.obj
 0001:000226b0       ?_IsSpace@INIParser@util@@AAE_ND@Z 004236b0 f   utility_s:INIParser.obj
 0001:000226d0       ?_IsCRLF@INIParser@util@@AAE_ND@Z 004236d0 f   utility_s:INIParser.obj
 0001:00022700       ?compare@?$char_traits@D@std@@SAHPBD0I@Z 00423700 f i utility_s:INIParser.obj
 0001:00022780       ?_Min@?$_Tree@V?$_Tmap_traits@V?$basic_string@DU?$char_traits@D@std@@V?$allocator@D@2@@std@@PAV?$map@V?$basic_string@DU?$char_traits@D@std@@V?$allocator@D@2@@std@@V12@U?$less@V?$basic_string@DU?$char_traits@D@std@@V?$allocator@D@2@@std@@@2@V?$allocator@U?$pair@$$CBV?$basic_string@DU?$char_traits@D@std@@V?$allocator@D@2@@std@@V12@@std@@@2@@2@U?$less@V?$basic_string@DU?$char_traits@D@std@@V?$allocator@D@2@@std@@@2@V?$allocator@U?$pair@$$CBV?$basic_string@DU?$char_traits@D@std@@V?$allocator@D@2@@std@@PAV?$map@V?$basic_string@DU?$char_traits@D@std@@V?$allocator@D@2@@std@@V12@U?$less@V?$basic_string@DU?$char_traits@D@std@@V?$allocator@D@2@@std@@@2@V?$allocator@U?$pair@$$CBV?$basic_string@DU?$char_traits@D@std@@V?$allocator@D@2@@std@@V12@@std@@@2@@2@@std@@@2@$0A@@std@@@std@@KAPAU_Node@?$_Tree_nod@V?$_Tmap_traits@V?$basic_string@DU?$char_traits@D@std@@V?$allocator@D@2@@std@@PAV?$map@V?$basic_string@DU?$char_traits@D@std@@V?$allocator@D@2@@std@@V12@U?$less@V?$basic_string@DU?$char_traits@D@std@@V?$allocator@D@2@@std@@@2@V?$allocator@U?$pair@$$CBV?$basic_string@DU?$char_traits@D@std@@V?$allocator@D@2@@std@@V12@@std@@@2@@2@U?$less@V?$basic_string@DU?$char_traits@D@std@@V?$allocator@D@2@@std@@@2@V?$allocator@U?$pair@$$CBV?$basic_string@DU?$char_traits@D@std@@V?$allocator@D@2@@std@@PAV?$map@V?$basic_string@DU?$char_traits@D@std@@V?$allocator@D@2@@std@@V12@U?$less@V?$basic_string@DU?$char_traits@D@std@@V?$allocator@D@2@@std@@@2@V?$allocator@U?$pair@$$CBV?$basic_string@DU?$char_traits@D@std@@V?$allocator@D@2@@std@@V12@@std@@@2@@2@@std@@@2@$0A@@std@@@2@PAU342@@Z 00423780 f i utility_s:INIParser.obj
 0001:00022780       ?_Min@?$_Tree@V?$_Tmap_traits@W4eSCRIPT_CODE@@V?$basic_string@DU?$char_traits@D@std@@V?$allocator@D@2@@std@@U?$less@W4eSCRIPT_CODE@@@3@V?$CustomAllocator@V?$basic_string@DU?$char_traits@D@std@@V?$allocator@D@2@@std@@@util@@$0A@@std@@@std@@KAPAU_Node@?$_Tree_nod@V?$_Tmap_traits@W4eSCRIPT_CODE@@V?$basic_string@DU?$char_traits@D@std@@V?$allocator@D@2@@std@@U?$less@W4eSCRIPT_CODE@@@3@V?$CustomAllocator@V?$basic_string@DU?$char_traits@D@std@@V?$allocator@D@2@@std@@@util@@$0A@@std@@@2@PAU342@@Z 00423780 f i programcommon_s:ScriptCode.IParser.Impl.obj
 0001:000227a0       ?_Max@?$_Tree@V?$_Tmap_traits@W4eSCRIPT_CODE@@V?$basic_string@DU?$char_traits@D@std@@V?$allocator@D@2@@std@@U?$less@W4eSCRIPT_CODE@@@3@V?$CustomAllocator@V?$basic_string@DU?$char_traits@D@std@@V?$allocator@D@2@@std@@@util@@$0A@@std@@@std@@KAPAU_Node@?$_Tree_nod@V?$_Tmap_traits@W4eSCRIPT_CODE@@V?$basic_string@DU?$char_traits@D@std@@V?$allocator@D@2@@std@@U?$less@W4eSCRIPT_CODE@@@3@V?$CustomAllocator@V?$basic_string@DU?$char_traits@D@std@@V?$allocator@D@2@@std@@@util@@$0A@@std@@@2@PAU342@@Z 004237a0 f i programcommon_s:ScriptCode.IParser.Impl.obj
 0001:000227a0       ?_Max@?$_Tree@V?$_Tmap_traits@V?$basic_string@DU?$char_traits@D@std@@V?$allocator@D@2@@std@@PAV?$map@V?$basic_string@DU?$char_traits@D@std@@V?$allocator@D@2@@std@@V12@U?$less@V?$basic_string@DU?$char_traits@D@std@@V?$allocator@D@2@@std@@@2@V?$allocator@U?$pair@$$CBV?$basic_string@DU?$char_traits@D@std@@V?$allocator@D@2@@std@@V12@@std@@@2@@2@U?$less@V?$basic_string@DU?$char_traits@D@std@@V?$allocator@D@2@@std@@@2@V?$allocator@U?$pair@$$CBV?$basic_string@DU?$char_traits@D@std@@V?$allocator@D@2@@std@@PAV?$map@V?$basic_string@DU?$char_traits@D@std@@V?$allocator@D@2@@std@@V12@U?$less@V?$basic_string@DU?$char_traits@D@std@@V?$allocator@D@2@@std@@@2@V?$allocator@U?$pair@$$CBV?$basic_string@DU?$char_traits@D@std@@V?$allocator@D@2@@std@@V12@@std@@@2@@2@@std@@@2@$0A@@std@@@std@@KAPAU_Node@?$_Tree_nod@V?$_Tmap_traits@V?$basic_string@DU?$char_traits@D@std@@V?$allocator@D@2@@std@@PAV?$map@V?$basic_string@DU?$char_traits@D@std@@V?$allocator@D@2@@std@@V12@U?$less@V?$basic_string@DU?$char_traits@D@std@@V?$allocator@D@2@@std@@@2@V?$allocator@U?$pair@$$CBV?$basic_string@DU?$char_traits@D@std@@V?$allocator@D@2@@std@@V12@@std@@@2@@2@U?$less@V?$basic_string@DU?$char_traits@D@std@@V?$allocator@D@2@@std@@@2@V?$allocator@U?$pair@$$CBV?$basic_string@DU?$char_traits@D@std@@V?$allocator@D@2@@std@@PAV?$map@V?$basic_string@DU?$char_traits@D@std@@V?$allocator@D@2@@std@@V12@U?$less@V?$basic_string@DU?$char_traits@D@std@@V?$allocator@D@2@@std@@@2@V?$allocator@U?$pair@$$CBV?$basic_string@DU?$char_traits@D@std@@V?$allocator@D@2@@std@@V12@@std@@@2@@2@@std@@@2@$0A@@std@@@2@PAU342@@Z 004237a0 f i utility_s:INIParser.obj
 0001:000227c0       ?_Max@?$_Tree@V?$_Tmap_traits@V?$basic_string@DU?$char_traits@D@std@@V?$allocator@D@2@@std@@V12@U?$less@V?$basic_string@DU?$char_traits@D@std@@V?$allocator@D@2@@std@@@2@V?$allocator@U?$pair@$$CBV?$basic_string@DU?$char_traits@D@std@@V?$allocator@D@2@@std@@V12@@std@@@2@$0A@@std@@@std@@KAPAU_Node@?$_Tree_nod@V?$_Tmap_traits@V?$basic_string@DU?$char_traits@D@std@@V?$allocator@D@2@@std@@V12@U?$less@V?$basic_string@DU?$char_traits@D@std@@V?$allocator@D@2@@std@@@2@V?$allocator@U?$pair@$$CBV?$basic_string@DU?$char_traits@D@std@@V?$allocator@D@2@@std@@V12@@std@@@2@$0A@@std@@@2@PAU342@@Z 004237c0 f i utility_s:INIParser.obj
 0001:000227e0       ?_Min@?$_Tree@V?$_Tmap_traits@V?$basic_string@DU?$char_traits@D@std@@V?$allocator@D@2@@std@@V12@U?$less@V?$basic_string@DU?$char_traits@D@std@@V?$allocator@D@2@@std@@@2@V?$allocator@U?$pair@$$CBV?$basic_string@DU?$char_traits@D@std@@V?$allocator@D@2@@std@@V12@@std@@@2@$0A@@std@@@std@@KAPAU_Node@?$_Tree_nod@V?$_Tmap_traits@V?$basic_string@DU?$char_traits@D@std@@V?$allocator@D@2@@std@@V12@U?$less@V?$basic_string@DU?$char_traits@D@std@@V?$allocator@D@2@@std@@@2@V?$allocator@U?$pair@$$CBV?$basic_string@DU?$char_traits@D@std@@V?$allocator@D@2@@std@@V12@@std@@@2@$0A@@std@@@2@PAU342@@Z 004237e0 f i utility_s:INIParser.obj
 0001:00022800       ?_Inc@const_iterator@?$_Tree@V?$_Tmap_traits@V?$basic_string@DU?$char_traits@D@std@@V?$allocator@D@2@@std@@V12@U?$less@V?$basic_string@DU?$char_traits@D@std@@V?$allocator@D@2@@std@@@2@V?$allocator@U?$pair@$$CBV?$basic_string@DU?$char_traits@D@std@@V?$allocator@D@2@@std@@V12@@std@@@2@$0A@@std@@@std@@QAEXXZ 00423800 f i utility_s:INIParser.obj
 0001:00022870       ?_skipSpace@INIParser@util@@AAE?AW4INIToken@12@XZ 00423870 f   utility_s:INIParser.obj
 0001:000228b0       ?_Lrotate@?$_Tree@V?$_Tmap_traits@V?$basic_string@DU?$char_traits@D@std@@V?$allocator@D@2@@std@@PAV?$map@V?$basic_string@DU?$char_traits@D@std@@V?$allocator@D@2@@std@@V12@U?$less@V?$basic_string@DU?$char_traits@D@std@@V?$allocator@D@2@@std@@@2@V?$allocator@U?$pair@$$CBV?$basic_string@DU?$char_traits@D@std@@V?$allocator@D@2@@std@@V12@@std@@@2@@2@U?$less@V?$basic_string@DU?$char_traits@D@std@@V?$allocator@D@2@@std@@@2@V?$allocator@U?$pair@$$CBV?$basic_string@DU?$char_traits@D@std@@V?$allocator@D@2@@std@@PAV?$map@V?$basic_string@DU?$char_traits@D@std@@V?$allocator@D@2@@std@@V12@U?$less@V?$basic_string@DU?$char_traits@D@std@@V?$allocator@D@2@@std@@@2@V?$allocator@U?$pair@$$CBV?$basic_string@DU?$char_traits@D@std@@V?$allocator@D@2@@std@@V12@@std@@@2@@2@@std@@@2@$0A@@std@@@std@@IAEXPAU_Node@?$_Tree_nod@V?$_Tmap_traits@V?$basic_string@DU?$char_traits@D@std@@V?$allocator@D@2@@std@@PAV?$map@V?$basic_string@DU?$char_traits@D@std@@V?$allocator@D@2@@std@@V12@U?$less@V?$basic_string@DU?$char_traits@D@std@@V?$allocator@D@2@@std@@@2@V?$allocator@U?$pair@$$CBV?$basic_string@DU?$char_traits@D@std@@V?$allocator@D@2@@std@@V12@@std@@@2@@2@U?$less@V?$basic_string@DU?$char_traits@D@std@@V?$allocator@D@2@@std@@@2@V?$allocator@U?$pair@$$CBV?$basic_string@DU?$char_traits@D@std@@V?$allocator@D@2@@std@@PAV?$map@V?$basic_string@DU?$char_traits@D@std@@V?$allocator@D@2@@std@@V12@U?$less@V?$basic_string@DU?$char_traits@D@std@@V?$allocator@D@2@@std@@@2@V?$allocator@U?$pair@$$CBV?$basic_string@DU?$char_traits@D@std@@V?$allocator@D@2@@std@@V12@@std@@@2@@2@@std@@@2@$0A@@std@@@2@@Z 004238b0 f i utility_s:INIParser.obj
 0001:000228b0       ?_Lrotate@?$_Tree@V?$_Tmap_traits@W4eSCRIPT_CODE@@V?$basic_string@DU?$char_traits@D@std@@V?$allocator@D@2@@std@@U?$less@W4eSCRIPT_CODE@@@3@V?$CustomAllocator@V?$basic_string@DU?$char_traits@D@std@@V?$allocator@D@2@@std@@@util@@$0A@@std@@@std@@IAEXPAU_Node@?$_Tree_nod@V?$_Tmap_traits@W4eSCRIPT_CODE@@V?$basic_string@DU?$char_traits@D@std@@V?$allocator@D@2@@std@@U?$less@W4eSCRIPT_CODE@@@3@V?$CustomAllocator@V?$basic_string@DU?$char_traits@D@std@@V?$allocator@D@2@@std@@@util@@$0A@@std@@@2@@Z 004238b0 f i programcommon_s:ScriptCode.IParser.Impl.obj
 0001:00022900       ?_Inc@const_iterator@?$_Tree@V?$_Tmap_traits@W4eSCRIPT_CODE@@V?$basic_string@DU?$char_traits@D@std@@V?$allocator@D@2@@std@@U?$less@W4eSCRIPT_CODE@@@3@V?$CustomAllocator@V?$basic_string@DU?$char_traits@D@std@@V?$allocator@D@2@@std@@@util@@$0A@@std@@@std@@QAEXXZ 00423900 f i programcommon_s:ScriptCode.IParser.Impl.obj
 0001:00022900       ?_Inc@const_iterator@?$_Tree@V?$_Tmap_traits@V?$basic_string@DU?$char_traits@D@std@@V?$allocator@D@2@@std@@PAV?$map@V?$basic_string@DU?$char_traits@D@std@@V?$allocator@D@2@@std@@V12@U?$less@V?$basic_string@DU?$char_traits@D@std@@V?$allocator@D@2@@std@@@2@V?$allocator@U?$pair@$$CBV?$basic_string@DU?$char_traits@D@std@@V?$allocator@D@2@@std@@V12@@std@@@2@@2@U?$less@V?$basic_string@DU?$char_traits@D@std@@V?$allocator@D@2@@std@@@2@V?$allocator@U?$pair@$$CBV?$basic_string@DU?$char_traits@D@std@@V?$allocator@D@2@@std@@PAV?$map@V?$basic_string@DU?$char_traits@D@std@@V?$allocator@D@2@@std@@V12@U?$less@V?$basic_string@DU?$char_traits@D@std@@V?$allocator@D@2@@std@@@2@V?$allocator@U?$pair@$$CBV?$basic_string@DU?$char_traits@D@std@@V?$allocator@D@2@@std@@V12@@std@@@2@@2@@std@@@2@$0A@@std@@@std@@QAEXXZ 00423900 f i utility_s:INIParser.obj
 0001:00022970       ?_Lrotate@?$_Tree@V?$_Tmap_traits@V?$basic_string@DU?$char_traits@D@std@@V?$allocator@D@2@@std@@V12@U?$less@V?$basic_string@DU?$char_traits@D@std@@V?$allocator@D@2@@std@@@2@V?$allocator@U?$pair@$$CBV?$basic_string@DU?$char_traits@D@std@@V?$allocator@D@2@@std@@V12@@std@@@2@$0A@@std@@@std@@IAEXPAU_Node@?$_Tree_nod@V?$_Tmap_traits@V?$basic_string@DU?$char_traits@D@std@@V?$allocator@D@2@@std@@V12@U?$less@V?$basic_string@DU?$char_traits@D@std@@V?$allocator@D@2@@std@@@2@V?$allocator@U?$pair@$$CBV?$basic_string@DU?$char_traits@D@std@@V?$allocator@D@2@@std@@V12@@std@@@2@$0A@@std@@@2@@Z 00423970 f i utility_s:INIParser.obj
 0001:000229c0       ?_Rrotate@?$_Tree@V?$_Tmap_traits@V?$basic_string@DU?$char_traits@D@std@@V?$allocator@D@2@@std@@V12@U?$less@V?$basic_string@DU?$char_traits@D@std@@V?$allocator@D@2@@std@@@2@V?$allocator@U?$pair@$$CBV?$basic_string@DU?$char_traits@D@std@@V?$allocator@D@2@@std@@V12@@std@@@2@$0A@@std@@@std@@IAEXPAU_Node@?$_Tree_nod@V?$_Tmap_traits@V?$basic_string@DU?$char_traits@D@std@@V?$allocator@D@2@@std@@V12@U?$less@V?$basic_string@DU?$char_traits@D@std@@V?$allocator@D@2@@std@@@2@V?$allocator@U?$pair@$$CBV?$basic_string@DU?$char_traits@D@std@@V?$allocator@D@2@@std@@V12@@std@@@2@$0A@@std@@@2@@Z 004239c0 f i utility_s:INIParser.obj
 0001:00022a20       ?_Dec@const_iterator@?$_Tree@V?$_Tmap_traits@V?$basic_string@DU?$char_traits@D@std@@V?$allocator@D@2@@std@@V12@U?$less@V?$basic_string@DU?$char_traits@D@std@@V?$allocator@D@2@@std@@@2@V?$allocator@U?$pair@$$CBV?$basic_string@DU?$char_traits@D@std@@V?$allocator@D@2@@std@@V12@@std@@@2@$0A@@std@@@std@@QAEXXZ 00423a20 f i utility_s:INIParser.obj
 0001:00022ab0       ?compare@?$basic_string@DU?$char_traits@D@std@@V?$allocator@D@2@@std@@QBEHIIPBDI@Z 00423ab0 f i utility_s:INIParser.obj
 0001:00022b20       ?GetToken@INIParser@util@@AAE?AW4INIToken@12@XZ 00423b20 f   utility_s:INIParser.obj
 0001:00022d80       ?_Buynode@?$_Tree@V?$_Tmap_traits@V?$basic_string@DU?$char_traits@D@std@@V?$allocator@D@2@@std@@PAV?$map@V?$basic_string@DU?$char_traits@D@std@@V?$allocator@D@2@@std@@V12@U?$less@V?$basic_string@DU?$char_traits@D@std@@V?$allocator@D@2@@std@@@2@V?$allocator@U?$pair@$$CBV?$basic_string@DU?$char_traits@D@std@@V?$allocator@D@2@@std@@V12@@std@@@2@@2@U?$less@V?$basic_string@DU?$char_traits@D@std@@V?$allocator@D@2@@std@@@2@V?$allocator@U?$pair@$$CBV?$basic_string@DU?$char_traits@D@std@@V?$allocator@D@2@@std@@PAV?$map@V?$basic_string@DU?$char_traits@D@std@@V?$allocator@D@2@@std@@V12@U?$less@V?$basic_string@DU?$char_traits@D@std@@V?$allocator@D@2@@std@@@2@V?$allocator@U?$pair@$$CBV?$basic_string@DU?$char_traits@D@std@@V?$allocator@D@2@@std@@V12@@std@@@2@@2@@std@@@2@$0A@@std@@@std@@IAEPAU_Node@?$_Tree_nod@V?$_Tmap_traits@V?$basic_string@DU?$char_traits@D@std@@V?$allocator@D@2@@std@@PAV?$map@V?$basic_string@DU?$char_traits@D@std@@V?$allocator@D@2@@std@@V12@U?$less@V?$basic_string@DU?$char_traits@D@std@@V?$allocator@D@2@@std@@@2@V?$allocator@U?$pair@$$CBV?$basic_string@DU?$char_traits@D@std@@V?$allocator@D@2@@std@@V12@@std@@@2@@2@U?$less@V?$basic_string@DU?$char_traits@D@std@@V?$allocator@D@2@@std@@@2@V?$allocator@U?$pair@$$CBV?$basic_string@DU?$char_traits@D@std@@V?$allocator@D@2@@std@@PAV?$map@V?$basic_string@DU?$char_traits@D@std@@V?$allocator@D@2@@std@@V12@U?$less@V?$basic_string@DU?$char_traits@D@std@@V?$allocator@D@2@@std@@@2@V?$allocator@U?$pair@$$CBV?$basic_string@DU?$char_traits@D@std@@V?$allocator@D@2@@std@@V12@@std@@@2@@2@@std@@@2@$0A@@std@@@2@XZ 00423d80 f i utility_s:INIParser.obj
 0001:00022dc0       ?_Buynode@?$_Tree@V?$_Tmap_traits@V?$basic_string@DU?$char_traits@D@std@@V?$allocator@D@2@@std@@V12@U?$less@V?$basic_string@DU?$char_traits@D@std@@V?$allocator@D@2@@std@@@2@V?$allocator@U?$pair@$$CBV?$basic_string@DU?$char_traits@D@std@@V?$allocator@D@2@@std@@V12@@std@@@2@$0A@@std@@@std@@IAEPAU_Node@?$_Tree_nod@V?$_Tmap_traits@V?$basic_string@DU?$char_traits@D@std@@V?$allocator@D@2@@std@@V12@U?$less@V?$basic_string@DU?$char_traits@D@std@@V?$allocator@D@2@@std@@@2@V?$allocator@U?$pair@$$CBV?$basic_string@DU?$char_traits@D@std@@V?$allocator@D@2@@std@@V12@@std@@@2@$0A@@std@@@2@XZ 00423dc0 f i utility_s:INIParser.obj
 0001:00022e00       ??1?$pair@$$CBV?$basic_string@DU?$char_traits@D@std@@V?$allocator@D@2@@std@@PAV?$map@V?$basic_string@DU?$char_traits@D@std@@V?$allocator@D@2@@std@@V12@U?$less@V?$basic_string@DU?$char_traits@D@std@@V?$allocator@D@2@@std@@@2@V?$allocator@U?$pair@$$CBV?$basic_string@DU?$char_traits@D@std@@V?$allocator@D@2@@std@@V12@@std@@@2@@2@@std@@QAE@XZ 00423e00 f i utility_s:INIParser.obj
 0001:00022e00       ??1?$pair@V?$basic_string@DU?$char_traits@D@std@@V?$allocator@D@2@@std@@PAV?$map@V?$basic_string@DU?$char_traits@D@std@@V?$allocator@D@2@@std@@V12@U?$less@V?$basic_string@DU?$char_traits@D@std@@V?$allocator@D@2@@std@@@2@V?$allocator@U?$pair@$$CBV?$basic_string@DU?$char_traits@D@std@@V?$allocator@D@2@@std@@V12@@std@@@2@@2@@std@@QAE@XZ 00423e00 f i utility_s:INIParser.obj
 0001:00022e00       ??1?$basic_string@DU?$char_traits@D@std@@V?$allocator@D@2@@std@@QAE@XZ 00423e00 f i AbuseUserManager.obj
 0001:00022e30       ??1?$pair@$$CBV?$basic_string@DU?$char_traits@D@std@@V?$allocator@D@2@@std@@V12@@std@@QAE@XZ 00423e30 f i utility_s:INIParser.obj
 0001:00022e80       ?_Lbound@?$_Tree@V?$_Tmap_traits@V?$basic_string@DU?$char_traits@D@std@@V?$allocator@D@2@@std@@PAV?$map@V?$basic_string@DU?$char_traits@D@std@@V?$allocator@D@2@@std@@V12@U?$less@V?$basic_string@DU?$char_traits@D@std@@V?$allocator@D@2@@std@@@2@V?$allocator@U?$pair@$$CBV?$basic_string@DU?$char_traits@D@std@@V?$allocator@D@2@@std@@V12@@std@@@2@@2@U?$less@V?$basic_string@DU?$char_traits@D@std@@V?$allocator@D@2@@std@@@2@V?$allocator@U?$pair@$$CBV?$basic_string@DU?$char_traits@D@std@@V?$allocator@D@2@@std@@PAV?$map@V?$basic_string@DU?$char_traits@D@std@@V?$allocator@D@2@@std@@V12@U?$less@V?$basic_string@DU?$char_traits@D@std@@V?$allocator@D@2@@std@@@2@V?$allocator@U?$pair@$$CBV?$basic_string@DU?$char_traits@D@std@@V?$allocator@D@2@@std@@V12@@std@@@2@@2@@std@@@2@$0A@@std@@@std@@IBEPAU_Node@?$_Tree_nod@V?$_Tmap_traits@V?$basic_string@DU?$char_traits@D@std@@V?$allocator@D@2@@std@@PAV?$map@V?$basic_string@DU?$char_traits@D@std@@V?$allocator@D@2@@std@@V12@U?$less@V?$basic_string@DU?$char_traits@D@std@@V?$allocator@D@2@@std@@@2@V?$allocator@U?$pair@$$CBV?$basic_string@DU?$char_traits@D@std@@V?$allocator@D@2@@std@@V12@@std@@@2@@2@U?$less@V?$basic_string@DU?$char_traits@D@std@@V?$allocator@D@2@@std@@@2@V?$allocator@U?$pair@$$CBV?$basic_string@DU?$char_traits@D@std@@V?$allocator@D@2@@std@@PAV?$map@V?$basic_string@DU?$char_traits@D@std@@V?$allocator@D@2@@std@@V12@U?$less@V?$basic_string@DU?$char_traits@D@std@@V?$allocator@D@2@@std@@@2@V?$allocator@U?$pair@$$CBV?$basic_string@DU?$char_traits@D@std@@V?$allocator@D@2@@std@@V12@@std@@@2@@2@@std@@@2@$0A@@std@@@2@ABV?$basic_string@DU?$char_traits@D@std@@V?$allocator@D@2@@2@@Z 00423e80 f i utility_s:INIParser.obj
 0001:00022f10       ?_Lbound@?$_Tree@V?$_Tmap_traits@V?$basic_string@DU?$char_traits@D@std@@V?$allocator@D@2@@std@@V12@U?$less@V?$basic_string@DU?$char_traits@D@std@@V?$allocator@D@2@@std@@@2@V?$allocator@U?$pair@$$CBV?$basic_string@DU?$char_traits@D@std@@V?$allocator@D@2@@std@@V12@@std@@@2@$0A@@std@@@std@@IBEPAU_Node@?$_Tree_nod@V?$_Tmap_traits@V?$basic_string@DU?$char_traits@D@std@@V?$allocator@D@2@@std@@V12@U?$less@V?$basic_string@DU?$char_traits@D@std@@V?$allocator@D@2@@std@@@2@V?$allocator@U?$pair@$$CBV?$basic_string@DU?$char_traits@D@std@@V?$allocator@D@2@@std@@V12@@std@@@2@$0A@@std@@@2@ABV?$basic_string@DU?$char_traits@D@std@@V?$allocator@D@2@@2@@Z 00423f10 f i utility_s:INIParser.obj
 0001:00022fa0       ?find@?$_Tree@V?$_Tmap_traits@V?$basic_string@DU?$char_traits@D@std@@V?$allocator@D@2@@std@@PAV?$map@V?$basic_string@DU?$char_traits@D@std@@V?$allocator@D@2@@std@@V12@U?$less@V?$basic_string@DU?$char_traits@D@std@@V?$allocator@D@2@@std@@@2@V?$allocator@U?$pair@$$CBV?$basic_string@DU?$char_traits@D@std@@V?$allocator@D@2@@std@@V12@@std@@@2@@2@U?$less@V?$basic_string@DU?$char_traits@D@std@@V?$allocator@D@2@@std@@@2@V?$allocator@U?$pair@$$CBV?$basic_string@DU?$char_traits@D@std@@V?$allocator@D@2@@std@@PAV?$map@V?$basic_string@DU?$char_traits@D@std@@V?$allocator@D@2@@std@@V12@U?$less@V?$basic_string@DU?$char_traits@D@std@@V?$allocator@D@2@@std@@@2@V?$allocator@U?$pair@$$CBV?$basic_string@DU?$char_traits@D@std@@V?$allocator@D@2@@std@@V12@@std@@@2@@2@@std@@@2@$0A@@std@@@std@@QBE?AVconst_iterator@12@ABV?$basic_string@DU?$char_traits@D@std@@V?$allocator@D@2@@2@@Z 00423fa0 f i utility_s:INIParser.obj
 0001:00023030       ?find@?$_Tree@V?$_Tmap_traits@V?$basic_string@DU?$char_traits@D@std@@V?$allocator@D@2@@std@@V12@U?$less@V?$basic_string@DU?$char_traits@D@std@@V?$allocator@D@2@@std@@@2@V?$allocator@U?$pair@$$CBV?$basic_string@DU?$char_traits@D@std@@V?$allocator@D@2@@std@@V12@@std@@@2@$0A@@std@@@std@@QBE?AVconst_iterator@12@ABV?$basic_string@DU?$char_traits@D@std@@V?$allocator@D@2@@2@@Z 00424030 f i utility_s:INIParser.obj
 0001:000230c0       ??0?$pair@$$CBV?$basic_string@DU?$char_traits@D@std@@V?$allocator@D@2@@std@@V12@@std@@QAE@ABU01@@Z 004240c0 f i utility_s:INIParser.obj
 0001:00023140       ?GetData@INIParser@util@@QBEPBDPBD0@Z 00424140 f   utility_s:INIParser.obj
 0001:000232d0       ??0?$_Tree@V?$_Tmap_traits@V?$basic_string@DU?$char_traits@D@std@@V?$allocator@D@2@@std@@PAV?$map@V?$basic_string@DU?$char_traits@D@std@@V?$allocator@D@2@@std@@V12@U?$less@V?$basic_string@DU?$char_traits@D@std@@V?$allocator@D@2@@std@@@2@V?$allocator@U?$pair@$$CBV?$basic_string@DU?$char_traits@D@std@@V?$allocator@D@2@@std@@V12@@std@@@2@@2@U?$less@V?$basic_string@DU?$char_traits@D@std@@V?$allocator@D@2@@std@@@2@V?$allocator@U?$pair@$$CBV?$basic_string@DU?$char_traits@D@std@@V?$allocator@D@2@@std@@PAV?$map@V?$basic_string@DU?$char_traits@D@std@@V?$allocator@D@2@@std@@V12@U?$less@V?$basic_string@DU?$char_traits@D@std@@V?$allocator@D@2@@std@@@2@V?$allocator@U?$pair@$$CBV?$basic_string@DU?$char_traits@D@std@@V?$allocator@D@2@@std@@V12@@std@@@2@@2@@std@@@2@$0A@@std@@@std@@QAE@ABU?$less@V?$basic_string@DU?$char_traits@D@std@@V?$allocator@D@2@@std@@@1@ABV?$allocator@U?$pair@$$CBV?$basic_string@DU?$char_traits@D@std@@V?$allocator@D@2@@std@@PAV?$map@V?$basic_string@DU?$char_traits@D@std@@V?$allocator@D@2@@std@@V12@U?$less@V?$basic_string@DU?$char_traits@D@std@@V?$allocator@D@2@@std@@@2@V?$allocator@U?$pair@$$CBV?$basic_string@DU?$char_traits@D@std@@V?$allocator@D@2@@std@@V12@@std@@@2@@2@@std@@@1@@Z 004242d0 f i utility_s:INIParser.obj
 0001:00023360       ??0?$_Tree@V?$_Tmap_traits@V?$basic_string@DU?$char_traits@D@std@@V?$allocator@D@2@@std@@V12@U?$less@V?$basic_string@DU?$char_traits@D@std@@V?$allocator@D@2@@std@@@2@V?$allocator@U?$pair@$$CBV?$basic_string@DU?$char_traits@D@std@@V?$allocator@D@2@@std@@V12@@std@@@2@$0A@@std@@@std@@QAE@ABU?$less@V?$basic_string@DU?$char_traits@D@std@@V?$allocator@D@2@@std@@@1@ABV?$allocator@U?$pair@$$CBV?$basic_string@DU?$char_traits@D@std@@V?$allocator@D@2@@std@@V12@@std@@@1@@Z 00424360 f i utility_s:INIParser.obj
 0001:000233f0       ?erase@?$_Tree@V?$_Tmap_traits@V?$basic_string@DU?$char_traits@D@std@@V?$allocator@D@2@@std@@PAV?$map@V?$basic_string@DU?$char_traits@D@std@@V?$allocator@D@2@@std@@V12@U?$less@V?$basic_string@DU?$char_traits@D@std@@V?$allocator@D@2@@std@@@2@V?$allocator@U?$pair@$$CBV?$basic_string@DU?$char_traits@D@std@@V?$allocator@D@2@@std@@V12@@std@@@2@@2@U?$less@V?$basic_string@DU?$char_traits@D@std@@V?$allocator@D@2@@std@@@2@V?$allocator@U?$pair@$$CBV?$basic_string@DU?$char_traits@D@std@@V?$allocator@D@2@@std@@PAV?$map@V?$basic_string@DU?$char_traits@D@std@@V?$allocator@D@2@@std@@V12@U?$less@V?$basic_string@DU?$char_traits@D@std@@V?$allocator@D@2@@std@@@2@V?$allocator@U?$pair@$$CBV?$basic_string@DU?$char_traits@D@std@@V?$allocator@D@2@@std@@V12@@std@@@2@@2@@std@@@2@$0A@@std@@@std@@QAE?AViterator@12@Vconst_iterator@12@@Z 004243f0 f i utility_s:INIParser.obj
 0001:000236e0       ?erase@?$_Tree@V?$_Tmap_traits@V?$basic_string@DU?$char_traits@D@std@@V?$allocator@D@2@@std@@V12@U?$less@V?$basic_string@DU?$char_traits@D@std@@V?$allocator@D@2@@std@@@2@V?$allocator@U?$pair@$$CBV?$basic_string@DU?$char_traits@D@std@@V?$allocator@D@2@@std@@V12@@std@@@2@$0A@@std@@@std@@QAE?AViterator@12@Vconst_iterator@12@@Z 004246e0 f i utility_s:INIParser.obj
 0001:000239e0       ??0_Node@?$_Tree_nod@V?$_Tmap_traits@V?$basic_string@DU?$char_traits@D@std@@V?$allocator@D@2@@std@@PAV?$map@V?$basic_string@DU?$char_traits@D@std@@V?$allocator@D@2@@std@@V12@U?$less@V?$basic_string@DU?$char_traits@D@std@@V?$allocator@D@2@@std@@@2@V?$allocator@U?$pair@$$CBV?$basic_string@DU?$char_traits@D@std@@V?$allocator@D@2@@std@@V12@@std@@@2@@2@U?$less@V?$basic_string@DU?$char_traits@D@std@@V?$allocator@D@2@@std@@@2@V?$allocator@U?$pair@$$CBV?$basic_string@DU?$char_traits@D@std@@V?$allocator@D@2@@std@@PAV?$map@V?$basic_string@DU?$char_traits@D@std@@V?$allocator@D@2@@std@@V12@U?$less@V?$basic_string@DU?$char_traits@D@std@@V?$allocator@D@2@@std@@@2@V?$allocator@U?$pair@$$CBV?$basic_string@DU?$char_traits@D@std@@V?$allocator@D@2@@std@@V12@@std@@@2@@2@@std@@@2@$0A@@std@@@std@@QAE@PAU012@00ABU?$pair@$$CBV?$basic_string@DU?$char_traits@D@std@@V?$allocator@D@2@@std@@PAV?$map@V?$basic_string@DU?$char_traits@D@std@@V?$allocator@D@2@@std@@V12@U?$less@V?$basic_string@DU?$char_traits@D@std@@V?$allocator@D@2@@std@@@2@V?$allocator@U?$pair@$$CBV?$basic_string@DU?$char_traits@D@std@@V?$allocator@D@2@@std@@V12@@std@@@2@@2@@2@D@Z 004249e0 f i utility_s:INIParser.obj
 0001:00023a40       ??$make_pair@V?$basic_string@DU?$char_traits@D@std@@V?$allocator@D@2@@std@@PAV?$map@V?$basic_string@DU?$char_traits@D@std@@V?$allocator@D@2@@std@@V12@U?$less@V?$basic_string@DU?$char_traits@D@std@@V?$allocator@D@2@@std@@@2@V?$allocator@U?$pair@$$CBV?$basic_string@DU?$char_traits@D@std@@V?$allocator@D@2@@std@@V12@@std@@@2@@2@@std@@YA?AU?$pair@V?$basic_string@DU?$char_traits@D@std@@V?$allocator@D@2@@std@@PAV?$map@V?$basic_string@DU?$char_traits@D@std@@V?$allocator@D@2@@std@@V12@U?$less@V?$basic_string@DU?$char_traits@D@std@@V?$allocator@D@2@@std@@@2@V?$allocator@U?$pair@$$CBV?$basic_string@DU?$char_traits@D@std@@V?$allocator@D@2@@std@@V12@@std@@@2@@2@@0@V?$basic_string@DU?$char_traits@D@std@@V?$allocator@D@2@@0@PAV?$map@V?$basic_string@DU?$char_traits@D@std@@V?$allocator@D@2@@std@@V12@U?$less@V?$basic_string@DU?$char_traits@D@std@@V?$allocator@D@2@@std@@@2@V?$allocator@U?$pair@$$CBV?$basic_string@DU?$char_traits@D@std@@V?$allocator@D@2@@std@@V12@@std@@@2@@0@@Z 00424a40 f i utility_s:INIParser.obj
 0001:00023ac0       ??$?0PADPAD@?$pair@$$CBV?$basic_string@DU?$char_traits@D@std@@V?$allocator@D@2@@std@@V12@@std@@QAE@ABU?$pair@PADPAD@1@@Z 00424ac0 f i utility_s:INIParser.obj
 0001:00023b60       ?_Erase@?$_Tree@V?$_Tmap_traits@V?$basic_string@DU?$char_traits@D@std@@V?$allocator@D@2@@std@@PAV?$map@V?$basic_string@DU?$char_traits@D@std@@V?$allocator@D@2@@std@@V12@U?$less@V?$basic_string@DU?$char_traits@D@std@@V?$allocator@D@2@@std@@@2@V?$allocator@U?$pair@$$CBV?$basic_string@DU?$char_traits@D@std@@V?$allocator@D@2@@std@@V12@@std@@@2@@2@U?$less@V?$basic_string@DU?$char_traits@D@std@@V?$allocator@D@2@@std@@@2@V?$allocator@U?$pair@$$CBV?$basic_string@DU?$char_traits@D@std@@V?$allocator@D@2@@std@@PAV?$map@V?$basic_string@DU?$char_traits@D@std@@V?$allocator@D@2@@std@@V12@U?$less@V?$basic_string@DU?$char_traits@D@std@@V?$allocator@D@2@@std@@@2@V?$allocator@U?$pair@$$CBV?$basic_string@DU?$char_traits@D@std@@V?$allocator@D@2@@std@@V12@@std@@@2@@2@@std@@@2@$0A@@std@@@std@@IAEXPAU_Node@?$_Tree_nod@V?$_Tmap_traits@V?$basic_string@DU?$char_traits@D@std@@V?$allocator@D@2@@std@@PAV?$map@V?$basic_string@DU?$char_traits@D@std@@V?$allocator@D@2@@std@@V12@U?$less@V?$basic_string@DU?$char_traits@D@std@@V?$allocator@D@2@@std@@@2@V?$allocator@U?$pair@$$CBV?$basic_string@DU?$char_traits@D@std@@V?$allocator@D@2@@std@@V12@@std@@@2@@2@U?$less@V?$basic_string@DU?$char_traits@D@std@@V?$allocator@D@2@@std@@@2@V?$allocator@U?$pair@$$CBV?$basic_string@DU?$char_traits@D@std@@V?$allocator@D@2@@std@@PAV?$map@V?$basic_string@DU?$char_traits@D@std@@V?$allocator@D@2@@std@@V12@U?$less@V?$basic_string@DU?$char_traits@D@std@@V?$allocator@D@2@@std@@@2@V?$allocator@U?$pair@$$CBV?$basic_string@DU?$char_traits@D@std@@V?$allocator@D@2@@std@@V12@@std@@@2@@2@@std@@@2@$0A@@std@@@2@@Z 00424b60 f i utility_s:INIParser.obj
 0001:00023bc0       ?_Erase@?$_Tree@V?$_Tmap_traits@V?$basic_string@DU?$char_traits@D@std@@V?$allocator@D@2@@std@@V12@U?$less@V?$basic_string@DU?$char_traits@D@std@@V?$allocator@D@2@@std@@@2@V?$allocator@U?$pair@$$CBV?$basic_string@DU?$char_traits@D@std@@V?$allocator@D@2@@std@@V12@@std@@@2@$0A@@std@@@std@@IAEXPAU_Node@?$_Tree_nod@V?$_Tmap_traits@V?$basic_string@DU?$char_traits@D@std@@V?$allocator@D@2@@std@@V12@U?$less@V?$basic_string@DU?$char_traits@D@std@@V?$allocator@D@2@@std@@@2@V?$allocator@U?$pair@$$CBV?$basic_string@DU?$char_traits@D@std@@V?$allocator@D@2@@std@@V12@@std@@@2@$0A@@std@@@2@@Z 00424bc0 f i utility_s:INIParser.obj
 0001:00023c40       ?_Buynode@?$_Tree@V?$_Tmap_traits@V?$basic_string@DU?$char_traits@D@std@@V?$allocator@D@2@@std@@PAV?$map@V?$basic_string@DU?$char_traits@D@std@@V?$allocator@D@2@@std@@V12@U?$less@V?$basic_string@DU?$char_traits@D@std@@V?$allocator@D@2@@std@@@2@V?$allocator@U?$pair@$$CBV?$basic_string@DU?$char_traits@D@std@@V?$allocator@D@2@@std@@V12@@std@@@2@@2@U?$less@V?$basic_string@DU?$char_traits@D@std@@V?$allocator@D@2@@std@@@2@V?$allocator@U?$pair@$$CBV?$basic_string@DU?$char_traits@D@std@@V?$allocator@D@2@@std@@PAV?$map@V?$basic_string@DU?$char_traits@D@std@@V?$allocator@D@2@@std@@V12@U?$less@V?$basic_string@DU?$char_traits@D@std@@V?$allocator@D@2@@std@@@2@V?$allocator@U?$pair@$$CBV?$basic_string@DU?$char_traits@D@std@@V?$allocator@D@2@@std@@V12@@std@@@2@@2@@std@@@2@$0A@@std@@@std@@IAEPAU_Node@?$_Tree_nod@V?$_Tmap_traits@V?$basic_string@DU?$char_traits@D@std@@V?$allocator@D@2@@std@@PAV?$map@V?$basic_string@DU?$char_traits@D@std@@V?$allocator@D@2@@std@@V12@U?$less@V?$basic_string@DU?$char_traits@D@std@@V?$allocator@D@2@@std@@@2@V?$allocator@U?$pair@$$CBV?$basic_string@DU?$char_traits@D@std@@V?$allocator@D@2@@std@@V12@@std@@@2@@2@U?$less@V?$basic_string@DU?$char_traits@D@std@@V?$allocator@D@2@@std@@@2@V?$allocator@U?$pair@$$CBV?$basic_string@DU?$char_traits@D@std@@V?$allocator@D@2@@std@@PAV?$map@V?$basic_string@DU?$char_traits@D@std@@V?$allocator@D@2@@std@@V12@U?$less@V?$basic_string@DU?$char_traits@D@std@@V?$allocator@D@2@@std@@@2@V?$allocator@U?$pair@$$CBV?$basic_string@DU?$char_traits@D@std@@V?$allocator@D@2@@std@@V12@@std@@@2@@2@@std@@@2@$0A@@std@@@2@PAU342@00ABU?$pair@$$CBV?$basic_string@DU?$char_traits@D@std@@V?$allocator@D@2@@std@@PAV?$map@V?$basic_string@DU?$char_traits@D@std@@V?$allocator@D@2@@std@@V12@U?$less@V?$basic_string@DU?$char_traits@D@std@@V?$allocator@D@2@@std@@@2@V?$allocator@U?$pair@$$CBV?$basic_string@DU?$char_traits@D@std@@V?$allocator@D@2@@std@@V12@@std@@@2@@2@@2@D@Z 00424c40 f i utility_s:INIParser.obj
 0001:00023ce0       ?_Buynode@?$_Tree@V?$_Tmap_traits@V?$basic_string@DU?$char_traits@D@std@@V?$allocator@D@2@@std@@V12@U?$less@V?$basic_string@DU?$char_traits@D@std@@V?$allocator@D@2@@std@@@2@V?$allocator@U?$pair@$$CBV?$basic_string@DU?$char_traits@D@std@@V?$allocator@D@2@@std@@V12@@std@@@2@$0A@@std@@@std@@IAEPAU_Node@?$_Tree_nod@V?$_Tmap_traits@V?$basic_string@DU?$char_traits@D@std@@V?$allocator@D@2@@std@@V12@U?$less@V?$basic_string@DU?$char_traits@D@std@@V?$allocator@D@2@@std@@@2@V?$allocator@U?$pair@$$CBV?$basic_string@DU?$char_traits@D@std@@V?$allocator@D@2@@std@@V12@@std@@@2@$0A@@std@@@2@PAU342@00ABU?$pair@$$CBV?$basic_string@DU?$char_traits@D@std@@V?$allocator@D@2@@std@@V12@@2@D@Z 00424ce0 f i utility_s:INIParser.obj
 0001:00023d80       ?_Insert@?$_Tree@V?$_Tmap_traits@V?$basic_string@DU?$char_traits@D@std@@V?$allocator@D@2@@std@@PAV?$map@V?$basic_string@DU?$char_traits@D@std@@V?$allocator@D@2@@std@@V12@U?$less@V?$basic_string@DU?$char_traits@D@std@@V?$allocator@D@2@@std@@@2@V?$allocator@U?$pair@$$CBV?$basic_string@DU?$char_traits@D@std@@V?$allocator@D@2@@std@@V12@@std@@@2@@2@U?$less@V?$basic_string@DU?$char_traits@D@std@@V?$allocator@D@2@@std@@@2@V?$allocator@U?$pair@$$CBV?$basic_string@DU?$char_traits@D@std@@V?$allocator@D@2@@std@@PAV?$map@V?$basic_string@DU?$char_traits@D@std@@V?$allocator@D@2@@std@@V12@U?$less@V?$basic_string@DU?$char_traits@D@std@@V?$allocator@D@2@@std@@@2@V?$allocator@U?$pair@$$CBV?$basic_string@DU?$char_traits@D@std@@V?$allocator@D@2@@std@@V12@@std@@@2@@2@@std@@@2@$0A@@std@@@std@@IAE?AViterator@12@_NPAU_Node@?$_Tree_nod@V?$_Tmap_traits@V?$basic_string@DU?$char_traits@D@std@@V?$allocator@D@2@@std@@PAV?$map@V?$basic_string@DU?$char_traits@D@std@@V?$allocator@D@2@@std@@V12@U?$less@V?$basic_string@DU?$char_traits@D@std@@V?$allocator@D@2@@std@@@2@V?$allocator@U?$pair@$$CBV?$basic_string@DU?$char_traits@D@std@@V?$allocator@D@2@@std@@V12@@std@@@2@@2@U?$less@V?$basic_string@DU?$char_traits@D@std@@V?$allocator@D@2@@std@@@2@V?$allocator@U?$pair@$$CBV?$basic_string@DU?$char_traits@D@std@@V?$allocator@D@2@@std@@PAV?$map@V?$basic_string@DU?$char_traits@D@std@@V?$allocator@D@2@@std@@V12@U?$less@V?$basic_string@DU?$char_traits@D@std@@V?$allocator@D@2@@std@@@2@V?$allocator@U?$pair@$$CBV?$basic_string@DU?$char_traits@D@std@@V?$allocator@D@2@@std@@V12@@std@@@2@@2@@std@@@2@$0A@@std@@@2@ABU?$pair@$$CBV?$basic_string@DU?$char_traits@D@std@@V?$allocator@D@2@@std@@PAV?$map@V?$basic_string@DU?$char_traits@D@std@@V?$allocator@D@2@@std@@V12@U?$less@V?$basic_string@DU?$char_traits@D@std@@V?$allocator@D@2@@std@@@2@V?$allocator@U?$pair@$$CBV?$basic_string@DU?$char_traits@D@std@@V?$allocator@D@2@@std@@V12@@std@@@2@@2@@2@@Z 00424d80 f i utility_s:INIParser.obj
 0001:00023f80       ?_Insert@?$_Tree@V?$_Tmap_traits@V?$basic_string@DU?$char_traits@D@std@@V?$allocator@D@2@@std@@V12@U?$less@V?$basic_string@DU?$char_traits@D@std@@V?$allocator@D@2@@std@@@2@V?$allocator@U?$pair@$$CBV?$basic_string@DU?$char_traits@D@std@@V?$allocator@D@2@@std@@V12@@std@@@2@$0A@@std@@@std@@IAE?AViterator@12@_NPAU_Node@?$_Tree_nod@V?$_Tmap_traits@V?$basic_string@DU?$char_traits@D@std@@V?$allocator@D@2@@std@@V12@U?$less@V?$basic_string@DU?$char_traits@D@std@@V?$allocator@D@2@@std@@@2@V?$allocator@U?$pair@$$CBV?$basic_string@DU?$char_traits@D@std@@V?$allocator@D@2@@std@@V12@@std@@@2@$0A@@std@@@2@ABU?$pair@$$CBV?$basic_string@DU?$char_traits@D@std@@V?$allocator@D@2@@std@@V12@@2@@Z 00424f80 f i utility_s:INIParser.obj
 0001:00024180       ?erase@?$_Tree@V?$_Tmap_traits@V?$basic_string@DU?$char_traits@D@std@@V?$allocator@D@2@@std@@PAV?$map@V?$basic_string@DU?$char_traits@D@std@@V?$allocator@D@2@@std@@V12@U?$less@V?$basic_string@DU?$char_traits@D@std@@V?$allocator@D@2@@std@@@2@V?$allocator@U?$pair@$$CBV?$basic_string@DU?$char_traits@D@std@@V?$allocator@D@2@@std@@V12@@std@@@2@@2@U?$less@V?$basic_string@DU?$char_traits@D@std@@V?$allocator@D@2@@std@@@2@V?$allocator@U?$pair@$$CBV?$basic_string@DU?$char_traits@D@std@@V?$allocator@D@2@@std@@PAV?$map@V?$basic_string@DU?$char_traits@D@std@@V?$allocator@D@2@@std@@V12@U?$less@V?$basic_string@DU?$char_traits@D@std@@V?$allocator@D@2@@std@@@2@V?$allocator@U?$pair@$$CBV?$basic_string@DU?$char_traits@D@std@@V?$allocator@D@2@@std@@V12@@std@@@2@@2@@std@@@2@$0A@@std@@@std@@QAE?AViterator@12@Vconst_iterator@12@0@Z 00425180 f i utility_s:INIParser.obj
 0001:00024260       ?erase@?$_Tree@V?$_Tmap_traits@V?$basic_string@DU?$char_traits@D@std@@V?$allocator@D@2@@std@@V12@U?$less@V?$basic_string@DU?$char_traits@D@std@@V?$allocator@D@2@@std@@@2@V?$allocator@U?$pair@$$CBV?$basic_string@DU?$char_traits@D@std@@V?$allocator@D@2@@std@@V12@@std@@@2@$0A@@std@@@std@@QAE?AViterator@12@Vconst_iterator@12@0@Z 00425260 f i utility_s:INIParser.obj
 0001:00024340       ?insert@?$_Tree@V?$_Tmap_traits@V?$basic_string@DU?$char_traits@D@std@@V?$allocator@D@2@@std@@PAV?$map@V?$basic_string@DU?$char_traits@D@std@@V?$allocator@D@2@@std@@V12@U?$less@V?$basic_string@DU?$char_traits@D@std@@V?$allocator@D@2@@std@@@2@V?$allocator@U?$pair@$$CBV?$basic_string@DU?$char_traits@D@std@@V?$allocator@D@2@@std@@V12@@std@@@2@@2@U?$less@V?$basic_string@DU?$char_traits@D@std@@V?$allocator@D@2@@std@@@2@V?$allocator@U?$pair@$$CBV?$basic_string@DU?$char_traits@D@std@@V?$allocator@D@2@@std@@PAV?$map@V?$basic_string@DU?$char_traits@D@std@@V?$allocator@D@2@@std@@V12@U?$less@V?$basic_string@DU?$char_traits@D@std@@V?$allocator@D@2@@std@@@2@V?$allocator@U?$pair@$$CBV?$basic_string@DU?$char_traits@D@std@@V?$allocator@D@2@@std@@V12@@std@@@2@@2@@std@@@2@$0A@@std@@@std@@QAE?AU?$pair@Viterator@?$_Tree@V?$_Tmap_traits@V?$basic_string@DU?$char_traits@D@std@@V?$allocator@D@2@@std@@PAV?$map@V?$basic_string@DU?$char_traits@D@std@@V?$allocator@D@2@@std@@V12@U?$less@V?$basic_string@DU?$char_traits@D@std@@V?$allocator@D@2@@std@@@2@V?$allocator@U?$pair@$$CBV?$basic_string@DU?$char_traits@D@std@@V?$allocator@D@2@@std@@V12@@std@@@2@@2@U?$less@V?$basic_string@DU?$char_traits@D@std@@V?$allocator@D@2@@std@@@2@V?$allocator@U?$pair@$$CBV?$basic_string@DU?$char_traits@D@std@@V?$allocator@D@2@@std@@PAV?$map@V?$basic_string@DU?$char_traits@D@std@@V?$allocator@D@2@@std@@V12@U?$less@V?$basic_string@DU?$char_traits@D@std@@V?$allocator@D@2@@std@@@2@V?$allocator@U?$pair@$$CBV?$basic_string@DU?$char_traits@D@std@@V?$allocator@D@2@@std@@V12@@std@@@2@@2@@std@@@2@$0A@@std@@@std@@_N@2@ABU?$pair@$$CBV?$basic_string@DU?$char_traits@D@std@@V?$allocator@D@2@@std@@PAV?$map@V?$basic_string@DU?$char_traits@D@std@@V?$allocator@D@2@@std@@V12@U?$less@V?$basic_string@DU?$char_traits@D@std@@V?$allocator@D@2@@std@@@2@V?$allocator@U?$pair@$$CBV?$basic_string@DU?$char_traits@D@std@@V?$allocator@D@2@@std@@V12@@std@@@2@@2@@2@@Z 00425340 f i utility_s:INIParser.obj
 0001:000244a0       ?insert@?$_Tree@V?$_Tmap_traits@V?$basic_string@DU?$char_traits@D@std@@V?$allocator@D@2@@std@@V12@U?$less@V?$basic_string@DU?$char_traits@D@std@@V?$allocator@D@2@@std@@@2@V?$allocator@U?$pair@$$CBV?$basic_string@DU?$char_traits@D@std@@V?$allocator@D@2@@std@@V12@@std@@@2@$0A@@std@@@std@@QAE?AU?$pair@Viterator@?$_Tree@V?$_Tmap_traits@V?$basic_string@DU?$char_traits@D@std@@V?$allocator@D@2@@std@@V12@U?$less@V?$basic_string@DU?$char_traits@D@std@@V?$allocator@D@2@@std@@@2@V?$allocator@U?$pair@$$CBV?$basic_string@DU?$char_traits@D@std@@V?$allocator@D@2@@std@@V12@@std@@@2@$0A@@std@@@std@@_N@2@ABU?$pair@$$CBV?$basic_string@DU?$char_traits@D@std@@V?$allocator@D@2@@std@@V12@@2@@Z 004254a0 f i utility_s:INIParser.obj
 0001:00024600       ??1?$_Tree@V?$_Tmap_traits@V?$basic_string@DU?$char_traits@D@std@@V?$allocator@D@2@@std@@PAV?$map@V?$basic_string@DU?$char_traits@D@std@@V?$allocator@D@2@@std@@V12@U?$less@V?$basic_string@DU?$char_traits@D@std@@V?$allocator@D@2@@std@@@2@V?$allocator@U?$pair@$$CBV?$basic_string@DU?$char_traits@D@std@@V?$allocator@D@2@@std@@V12@@std@@@2@@2@U?$less@V?$basic_string@DU?$char_traits@D@std@@V?$allocator@D@2@@std@@@2@V?$allocator@U?$pair@$$CBV?$basic_string@DU?$char_traits@D@std@@V?$allocator@D@2@@std@@PAV?$map@V?$basic_string@DU?$char_traits@D@std@@V?$allocator@D@2@@std@@V12@U?$less@V?$basic_string@DU?$char_traits@D@std@@V?$allocator@D@2@@std@@@2@V?$allocator@U?$pair@$$CBV?$basic_string@DU?$char_traits@D@std@@V?$allocator@D@2@@std@@V12@@std@@@2@@2@@std@@@2@$0A@@std@@@std@@QAE@XZ 00425600 f i utility_s:INIParser.obj
 0001:00024680       ??1?$_Tree@V?$_Tmap_traits@V?$basic_string@DU?$char_traits@D@std@@V?$allocator@D@2@@std@@V12@U?$less@V?$basic_string@DU?$char_traits@D@std@@V?$allocator@D@2@@std@@@2@V?$allocator@U?$pair@$$CBV?$basic_string@DU?$char_traits@D@std@@V?$allocator@D@2@@std@@V12@@std@@@2@$0A@@std@@@std@@QAE@XZ 00425680 f i utility_s:INIParser.obj
 0001:00024700       ??1?$map@V?$basic_string@DU?$char_traits@D@std@@V?$allocator@D@2@@std@@PAV?$map@V?$basic_string@DU?$char_traits@D@std@@V?$allocator@D@2@@std@@V12@U?$less@V?$basic_string@DU?$char_traits@D@std@@V?$allocator@D@2@@std@@@2@V?$allocator@U?$pair@$$CBV?$basic_string@DU?$char_traits@D@std@@V?$allocator@D@2@@std@@V12@@std@@@2@@2@U?$less@V?$basic_string@DU?$char_traits@D@std@@V?$allocator@D@2@@std@@@2@V?$allocator@U?$pair@$$CBV?$basic_string@DU?$char_traits@D@std@@V?$allocator@D@2@@std@@PAV?$map@V?$basic_string@DU?$char_traits@D@std@@V?$allocator@D@2@@std@@V12@U?$less@V?$basic_string@DU?$char_traits@D@std@@V?$allocator@D@2@@std@@@2@V?$allocator@U?$pair@$$CBV?$basic_string@DU?$char_traits@D@std@@V?$allocator@D@2@@std@@V12@@std@@@2@@2@@std@@@2@@std@@QAE@XZ 00425700 f i utility_s:INIParser.obj
 0001:00024710       ??0INIParser@util@@QAE@XZ  00425710 f   utility_s:INIParser.obj
 0001:00024790       ?INILoad@INIParser@util@@QAE_NXZ 00425790 f   utility_s:INIParser.obj
 0001:00024ae0       ?Release@INIParser@util@@QAEXXZ 00425ae0 f   utility_s:INIParser.obj
 0001:00024be0       ??1INIParser@util@@QAE@XZ  00425be0 f   utility_s:INIParser.obj
 0001:00024c40       ?find@WxHashTableBase@internal@util@@QBEPAUWxHashNode@123@PAE@Z 00425c40 f   utility_s:SolarHashTable.obj
 0001:00024c90       ??0WxHashTableBase@internal@util@@QAE@XZ 00425c90 f   utility_s:SolarHashTable.obj
 0001:00024cf0       ?Initialize@WxHashTableBase@internal@util@@QAE_NK@Z 00425cf0 f   utility_s:SolarHashTable.obj
 0001:00024da0       ??0WxHashTableBase@internal@util@@QAE@K@Z 00425da0 f   utility_s:SolarHashTable.obj
 0001:00024de0       ??1WxHashTableBase@internal@util@@QAE@XZ 00425de0 f   utility_s:SolarHashTable.obj
 0001:00024e50       ?clear@WxHashTableBase@internal@util@@QAEXXZ 00425e50 f   utility_s:SolarHashTable.obj
 0001:00024eb0       ?make_balanced_buckets@WxHashTableBase@internal@util@@SAXPAV123@@Z 00425eb0 f   utility_s:SolarHashTable.obj
 0001:000250f0       ?insert@WxHashTableBase@internal@util@@QAE_NPAE0@Z 004260f0 f   utility_s:SolarHashTable.obj
 0001:00025220       ??0SolarFileReader@util@@QAE@XZ 00426220 f   utility_s:SolarFileReader.obj
 0001:00025260       ?OpenFile@SolarFileReader@util@@QAEHPBDW4eSEPERATOR_MODE@@@Z 00426260 f   utility_s:SolarFileReader.obj
 0001:00025320       ?_getchar@SolarFileReader@util@@AAEDPAK@Z 00426320 f   utility_s:SolarFileReader.obj
 0001:00025360       ?_getcurchar@SolarFileReader@util@@AAEDPAK@Z 00426360 f   utility_s:SolarFileReader.obj
 0001:00025390       ?_skipComment@SolarFileReader@util@@AAEDPAK@Z 00426390 f   utility_s:SolarFileReader.obj
 0001:000254d0       ?_getNextTokenType_whitespace@SolarFileReader@util@@AAE?AW4eTOKEN_TYPE@@W43@@Z 004264d0 f   utility_s:SolarFileReader.obj
 0001:00025590       ?_getNextTokenType_quotationForStr@SolarFileReader@util@@AAE?AW4eTOKEN_TYPE@@W43@@Z 00426590 f   utility_s:SolarFileReader.obj
 0001:00025760       ?_getNextTokenType_newline@SolarFileReader@util@@AAE?AW4eTOKEN_TYPE@@W43@@Z 00426760 f   utility_s:SolarFileReader.obj
 0001:000257d0       ?_getNextTokenType_whitespace_onlystring@SolarFileReader@util@@AAE?AW4eTOKEN_TYPE@@W43@@Z 004267d0 f   utility_s:SolarFileReader.obj
 0001:00025850       ?_skipNotComment@SolarFileReader@util@@AAEDPAK@Z 00426850 f   utility_s:SolarFileReader.obj
 0001:00025920       ?Instance@?$Singleton@VFilePackerManager@util@@$00@util@@SAPAVFilePackerManager@2@XZ 00426920 f i utility_s:SolarFileReader.obj
 0001:000259a0       ?CloseFile@SolarFileReader@util@@QAEXXZ 004269a0 f   utility_s:SolarFileReader.obj
 0001:000259d0       ?_getNextTokenType_whitespace_forComments@SolarFileReader@util@@AAE?AW4eTOKEN_TYPE@@W43@@Z 004269d0 f   utility_s:SolarFileReader.obj
 0001:00025ae0       ?OpenFileFromPack@SolarFileReader@util@@QAEHPADPBDW4eSEPERATOR_MODE@@@Z 00426ae0 f   utility_s:SolarFileReader.obj
 0001:00025bf0       ?GetNextTokenType@SolarFileReader@util@@QAE?AW4eTOKEN_TYPE@@W43@@Z 00426bf0 f   utility_s:SolarFileReader.obj
 0001:00025c40       ?GetStringHashKey@StreamHashKey@util@@SAKPBD@Z 00426c40 f   utility_s:StreamHashKey.obj
 0001:00025c80       ?OpenFile@CPackFile@@QAEPAXPBDK@Z 00426c80 f   utility_s:FilePackerManager.obj
 0001:00025c90       ?ReadFile@CPackFile@@QAEHPAX0K@Z 00426c90 f   utility_s:FilePackerManager.obj
 0001:00025ca0       ?LoadScript@IParserInMaster@@UAEHW4eSCRIPT_CODE@@H@Z 00426ca0 f   MasterScriptParserManager.obj
 0001:00025ca0       ?GetFileSize@CPackFile@@QAEHPAXPA_K@Z 00426ca0 f   utility_s:FilePackerManager.obj
 0001:00025ca0       ?LoadScript@ICompressConverter@@UAEHW4eSCRIPT_CODE@@H@Z 00426ca0 f   MasterScriptParserManager.obj
 0001:00025cb0       ??0FilePackerManager@util@@QAE@XZ 00426cb0 f   utility_s:FilePackerManager.obj
 0001:00025ce0       ?OpenPackFile@FilePackerManager@util@@QAEHPAD@Z 00426ce0 f   utility_s:FilePackerManager.obj
 0001:00025d60       ?GetPackFile@FilePackerManager@util@@QAEPAVCPackFile@@PADPBD@Z 00426d60 f   utility_s:FilePackerManager.obj
 0001:00025db9       ?_Xlen@_String_base@std@@SAXXZ 00426db9 f   libcpmt:string.obj
 0001:00025df1       ?_Xran@_String_base@std@@SAXXZ 00426df1 f   libcpmt:string.obj
 0001:00025e29       ??_U@YAPAXI@Z              00426e29 f   libcpmt:newaop.obj
 0001:00025e34       ??0_Init_locks@std@@QAE@XZ 00426e34 f   libcpmt:xlock.obj
 0001:00025e65       ??1_Init_locks@std@@QAE@XZ 00426e65 f   libcpmt:xlock.obj
 0001:00025e8e       ??0_Lockit@std@@QAE@H@Z    00426e8e f   libcpmt:xlock.obj
 0001:00025eb6       ??1_Lockit@std@@QAE@XZ     00426eb6 f   libcpmt:xlock.obj
 0001:00025ecd       __Mtxinit                  00426ecd f   libcpmt:xmtx.obj
 0001:00025edd       __Mtxdst                   00426edd f   libcpmt:xmtx.obj
 0001:00025eed       __Mtxlock                  00426eed f   libcpmt:xmtx.obj
 0001:00025efd       __Mtxunlock                00426efd f   libcpmt:xmtx.obj
 0001:00025f10       ?default_error_condition@error_category@system@boost@@UBE?AVerror_condition@23@H@Z 00426f10 f i libboost_system-vc90-mt-s-1_60:error_code.obj
 0001:00025f20       ?equivalent@error_category@system@boost@@UBE_NHABVerror_condition@23@@Z 00426f20 f i libboost_system-vc90-mt-s-1_60:error_code.obj
 0001:00025f60       ?equivalent@error_category@system@boost@@UBE_NABVerror_code@23@H@Z 00426f60 f i libboost_system-vc90-mt-s-1_60:error_code.obj
 0001:00025f80       ??1local_free_on_destruction@detail@system@boost@@QAE@XZ 00426f80 f i libboost_system-vc90-mt-s-1_60:error_code.obj
 0001:00025f90       ?name@generic_error_category@?A0xa00a0bbd@system@boost@@UBEPBDXZ 00426f90 f   libboost_system-vc90-mt-s-1_60:error_code.obj
 0001:00025fa0       ?name@system_error_category@?A0xa00a0bbd@system@boost@@UBEPBDXZ 00426fa0 f   libboost_system-vc90-mt-s-1_60:error_code.obj
 0001:00025fb0       ??_Esystem_error_category@?A0xa00a0bbd@system@boost@@UAEPAXI@Z 00426fb0 f i libboost_system-vc90-mt-s-1_60:error_code.obj
 0001:00025fb0       ??_Gsystem_error_category@?A0xa00a0bbd@system@boost@@UAEPAXI@Z 00426fb0 f i libboost_system-vc90-mt-s-1_60:error_code.obj
 0001:00025fb0       ??_Egeneric_error_category@?A0xa00a0bbd@system@boost@@UAEPAXI@Z 00426fb0 f i libboost_system-vc90-mt-s-1_60:error_code.obj
 0001:00025fb0       ??_Ggeneric_error_category@?A0xa00a0bbd@system@boost@@UAEPAXI@Z 00426fb0 f i libboost_system-vc90-mt-s-1_60:error_code.obj
 0001:00025fb0       ??_Eerror_category@system@boost@@UAEPAXI@Z 00426fb0 f i libboost_system-vc90-mt-s-1_60:error_code.obj
 0001:00025fb0       ??_Gerror_category@system@boost@@UAEPAXI@Z 00426fb0 f i libboost_system-vc90-mt-s-1_60:error_code.obj
 0001:00025fd0       ?system_category@system@boost@@YAABVerror_category@12@XZ 00426fd0 f   libboost_system-vc90-mt-s-1_60:error_code.obj
 0001:00026040       ?generic_category@system@boost@@YAABVerror_category@12@XZ 00427040 f   libboost_system-vc90-mt-s-1_60:error_code.obj
 0001:000260b0       ?default_error_condition@system_error_category@?A0xa00a0bbd@system@boost@@UBE?AVerror_condition@34@H@Z 004270b0 f   libboost_system-vc90-mt-s-1_60:error_code.obj
 0001:000267a0       ?message@generic_error_category@?A0xa00a0bbd@system@boost@@UBE?AV?$basic_string@DU?$char_traits@D@std@@V?$allocator@D@2@@std@@H@Z 004277a0 f   libboost_system-vc90-mt-s-1_60:error_code.obj
 0001:000268d0       ?message@system_error_category@?A0xa00a0bbd@system@boost@@UBE?AV?$basic_string@DU?$char_traits@D@std@@V?$allocator@D@2@@std@@H@Z 004278d0 f   libboost_system-vc90-mt-s-1_60:error_code.obj
 0001:00026ab0       _compress2                 00427ab0 f   zlib:compress.obj
 0001:00026b70       _uncompress                00427b70 f   zlib:uncompr.obj
 0001:00026c20       _zcalloc                   00427c20 f   zlib:zutil.obj
 0001:00026c60       _zcfree                    00427c60 f   zlib:zutil.obj
 0001:00026c90       ___zlib_register_malloc    00427c90 f   zlib:zutil.obj
 0001:00026ca0       ___zlib_register_free      00427ca0 f   zlib:zutil.obj
 0001:00026d30       _deflate                   00427d30 f   zlib:deflate.obj
 0001:00026fa0       _deflateEnd                00427fa0 f   zlib:deflate.obj
 0001:00027ce0       _deflateReset              00428ce0 f   zlib:deflate.obj
 0001:00027d50       _deflateInit2_             00428d50 f   zlib:deflate.obj
 0001:00027f50       _deflateInit_              00428f50 f   zlib:deflate.obj
 0001:00027f80       _inflateReset              00428f80 f   zlib:inflate.obj
 0001:00027fd0       _inflateEnd                00428fd0 f   zlib:inflate.obj
 0001:00028020       _inflateInit2_             00429020 f   zlib:inflate.obj
 0001:00028120       _inflateInit_              00429120 f   zlib:inflate.obj
 0001:00028140       _inflate                   00429140 f   zlib:inflate.obj
 0001:000284f0       _adler32                   004294f0 f   zlib:adler32.obj
 0001:00029820       __tr_init                  0042a820 f   zlib:trees.obj
 0001:00029bf0       __tr_stored_block          0042abf0 f   zlib:trees.obj
 0001:00029ca0       __tr_align                 0042aca0 f   zlib:trees.obj
 0001:00029e90       __tr_flush_block           0042ae90 f   zlib:trees.obj
 0001:0002a080       _inflate_blocks_reset      0042b080 f   zlib:infblock.obj
 0001:0002a100       _inflate_blocks_new        0042b100 f   zlib:infblock.obj
 0001:0002a1b0       _inflate_blocks            0042b1b0 f   zlib:infblock.obj
 0001:0002ac60       _inflate_blocks_free       0042bc60 f   zlib:infblock.obj
 0001:0002acf0       _inflate_codes_new         0042bcf0 f   zlib:infcodes.obj
 0001:0002ad30       _inflate_codes             0042bd30 f   zlib:infcodes.obj
 0001:0002b3b0       _inflate_codes_free        0042c3b0 f   zlib:infcodes.obj
 0001:0002b850       _inflate_trees_bits        0042c850 f   zlib:inftrees.obj
 0001:0002b8f0       _inflate_trees_dynamic     0042c8f0 f   zlib:inftrees.obj
 0001:0002ba70       _inflate_trees_fixed       0042ca70 f   zlib:inftrees.obj
 0001:0002baa0       _inflate_flush             0042caa0 f   zlib:infutil.obj
 0001:0002bb90       _inflate_fast              0042cb90 f   zlib:inffast.obj
 0001:0002bf00       ??0NetworkObject@@QAE@XZ   0042cf00 f   Network:NetworkObject.obj
 0001:0002bf20       ?OnLogString@NetworkObject@@EAEXPAD@Z 0042cf20 f i Network:NetworkObject.obj
 0001:0002bf30       ??1NetworkObject@@UAE@XZ   0042cf30 f   Network:NetworkObject.obj
 0001:0002bf40       ?Disconnect@NetworkObject@@QAEXH@Z 0042cf40 f   Network:NetworkObject.obj
 0001:0002bf60       ?OnDisconnect@NetworkObject@@MAEXXZ 0042cf60 f   Network:NetworkObject.obj
 0001:0002bf70       ?Send@NetworkObject@@QAEHPAEG@Z 0042cf70 f   Network:NetworkObject.obj
 0001:0002bfa0       ?Redirect@NetworkObject@@QAEXPAV1@@Z 0042cfa0 f   Network:NetworkObject.obj
 0001:0002bfb0       ?GetIP@NetworkObject@@QAEPADXZ 0042cfb0 f   Network:NetworkObject.obj
 0001:0002bfd0       ?GetIPAddress@NetworkObject@@QAEKXZ 0042cfd0 f   Network:NetworkObject.obj
 0001:0002bff0       ?GetPort@NetworkObject@@QAEGXZ 0042cff0 f   Network:NetworkObject.obj
 0001:0002c010       ?SetSession@NetworkObject@@AAEXPAVSession@@@Z 0042d010 f   Network:NetworkObject.obj
 0001:0002c030       ??_ENetworkObject@@UAEPAXI@Z 0042d030 f i Network:NetworkObject.obj
 0001:0002c030       ??_GNetworkObject@@UAEPAXI@Z 0042d030 f i Network:NetworkObject.obj
 0001:0002c050       ?InitWinsock@IOCPServer@@AAEHXZ 0042d050 f   Network:IOCPServer.obj
 0001:0002c0c0       ?_Min@?$_Tree@V?$_Tmap_traits@KPAVIoHandler@@U?$less@K@std@@V?$RedirectedAllocator@PAVIoHandler@@@module@@$0A@@std@@@std@@KAPAU_Node@?$_Tree_nod@V?$_Tmap_traits@KPAVIoHandler@@U?$less@K@std@@V?$RedirectedAllocator@PAVIoHandler@@@module@@$0A@@std@@@2@PAU342@@Z 0042d0c0 f i Network:IOCPServer.obj
 0001:0002c0e0       ?_Max@?$_Tree@V?$_Tmap_traits@KPAVIoHandler@@U?$less@K@std@@V?$RedirectedAllocator@PAVIoHandler@@@module@@$0A@@std@@@std@@KAPAU_Node@?$_Tree_nod@V?$_Tmap_traits@KPAVIoHandler@@U?$less@K@std@@V?$RedirectedAllocator@PAVIoHandler@@@module@@$0A@@std@@@2@PAU342@@Z 0042d0e0 f i Network:IOCPServer.obj
 0001:0002c100       ?_Erase@?$_Tree@V?$_Tmap_traits@KPAVIoHandler@@U?$less@K@std@@V?$RedirectedAllocator@PAVIoHandler@@@module@@$0A@@std@@@std@@IAEXPAU_Node@?$_Tree_nod@V?$_Tmap_traits@KPAVIoHandler@@U?$less@K@std@@V?$RedirectedAllocator@PAVIoHandler@@@module@@$0A@@std@@@2@@Z 0042d100 f i Network:IOCPServer.obj
 0001:0002c140       ?_Inc@const_iterator@?$_Tree@V?$_Tmap_traits@KPAVIoHandler@@U?$less@K@std@@V?$RedirectedAllocator@PAVIoHandler@@@module@@$0A@@std@@@std@@QAEXXZ 0042d140 f i Network:IOCPServer.obj
 0001:0002c1a0       ?_Lrotate@?$_Tree@V?$_Tmap_traits@KPAVIoHandler@@U?$less@K@std@@V?$RedirectedAllocator@PAVIoHandler@@@module@@$0A@@std@@@std@@IAEXPAU_Node@?$_Tree_nod@V?$_Tmap_traits@KPAVIoHandler@@U?$less@K@std@@V?$RedirectedAllocator@PAVIoHandler@@@module@@$0A@@std@@@2@@Z 0042d1a0 f i Network:IOCPServer.obj
 0001:0002c200       ?_Rrotate@?$_Tree@V?$_Tmap_traits@KPAVIoHandler@@U?$less@K@std@@V?$RedirectedAllocator@PAVIoHandler@@@module@@$0A@@std@@@std@@IAEXPAU_Node@?$_Tree_nod@V?$_Tmap_traits@KPAVIoHandler@@U?$less@K@std@@V?$RedirectedAllocator@PAVIoHandler@@@module@@$0A@@std@@@2@@Z 0042d200 f i Network:IOCPServer.obj
 0001:0002c260       ?_Buynode@?$_Tree@V?$_Tmap_traits@KPAVIoHandler@@U?$less@K@std@@V?$RedirectedAllocator@PAVIoHandler@@@module@@$0A@@std@@@std@@IAEPAU_Node@?$_Tree_nod@V?$_Tmap_traits@KPAVIoHandler@@U?$less@K@std@@V?$RedirectedAllocator@PAVIoHandler@@@module@@$0A@@std@@@2@PAU342@00ABU?$pair@$$CBKPAVIoHandler@@@2@D@Z 0042d260 f i Network:IOCPServer.obj
 0001:0002c2a0       ?_Buynode@?$_Tree@V?$_Tmap_traits@KPAVIoHandler@@U?$less@K@std@@V?$RedirectedAllocator@PAVIoHandler@@@module@@$0A@@std@@@std@@IAEPAU_Node@?$_Tree_nod@V?$_Tmap_traits@KPAVIoHandler@@U?$less@K@std@@V?$RedirectedAllocator@PAVIoHandler@@@module@@$0A@@std@@@2@XZ 0042d2a0 f i Network:IOCPServer.obj
 0001:0002c2e0       ?_Dec@const_iterator@?$_Tree@V?$_Tmap_traits@KPAVIoHandler@@U?$less@K@std@@V?$RedirectedAllocator@PAVIoHandler@@@module@@$0A@@std@@@std@@QAEXXZ 0042d2e0 f i Network:IOCPServer.obj
 0001:0002c340       ?send_thread@@YGIPAX@Z     0042d340 f   Network:IOCPServer.obj
 0001:0002c3d0       ?Shutdown@IOCPServer@@QAEXXZ 0042d3d0 f   Network:IOCPServer.obj
 0001:0002c480       ?Update@IOCPServer@@QAEXXZ 0042d480 f   Network:IOCPServer.obj
 0001:0002c4b0       ?find@?$_Tree@V?$_Tmap_traits@KPAVIoHandler@@U?$less@K@std@@V?$RedirectedAllocator@PAVIoHandler@@@module@@$0A@@std@@@std@@QAE?AViterator@12@ABK@Z 0042d4b0 f i Network:IOCPServer.obj
 0001:0002c520       ?StartListen@IOCPServer@@QAEHKPADG@Z 0042d520 f   Network:IOCPServer.obj
 0001:0002c560       ?Connect@IOCPServer@@QAEKKPAVNetworkObject@@PADG@Z 0042d560 f   Network:IOCPServer.obj
 0001:0002c5b0       ?IsListening@IOCPServer@@QAEHK@Z 0042d5b0 f   Network:IOCPServer.obj
 0001:0002c5f0       ?SuspendListenThread@IOCPServer@@QAEXK@Z 0042d5f0 f   Network:IOCPServer.obj
 0001:0002c620       ?ResumeListenThread@IOCPServer@@QAEXK@Z 0042d620 f   Network:IOCPServer.obj
 0001:0002c650       ?GetNumberOfConnections@IOCPServer@@QAEKK@Z 0042d650 f   Network:IOCPServer.obj
 0001:0002c690       ?erase@?$_Tree@V?$_Tmap_traits@KPAVIoHandler@@U?$less@K@std@@V?$RedirectedAllocator@PAVIoHandler@@@module@@$0A@@std@@@std@@QAE?AViterator@12@V312@@Z 0042d690 f i Network:IOCPServer.obj
 0001:0002c950       ?_Insert@?$_Tree@V?$_Tmap_traits@KPAVIoHandler@@U?$less@K@std@@V?$RedirectedAllocator@PAVIoHandler@@@module@@$0A@@std@@@std@@IAE?AViterator@12@_NPAU_Node@?$_Tree_nod@V?$_Tmap_traits@KPAVIoHandler@@U?$less@K@std@@V?$RedirectedAllocator@PAVIoHandler@@@module@@$0A@@std@@@2@ABU?$pair@$$CBKPAVIoHandler@@@2@@Z 0042d950 f i Network:IOCPServer.obj
 0001:0002cb00       ?erase@?$_Tree@V?$_Tmap_traits@KPAVIoHandler@@U?$less@K@std@@V?$RedirectedAllocator@PAVIoHandler@@@module@@$0A@@std@@@std@@QAE?AViterator@12@V312@0@Z 0042db00 f i Network:IOCPServer.obj
 0001:0002cbc0       ?insert@?$_Tree@V?$_Tmap_traits@KPAVIoHandler@@U?$less@K@std@@V?$RedirectedAllocator@PAVIoHandler@@@module@@$0A@@std@@@std@@QAE?AU?$pair@Viterator@?$_Tree@V?$_Tmap_traits@KPAVIoHandler@@U?$less@K@std@@V?$RedirectedAllocator@PAVIoHandler@@@module@@$0A@@std@@@std@@_N@2@ABU?$pair@$$CBKPAVIoHandler@@@2@@Z 0042dbc0 f i Network:IOCPServer.obj
 0001:0002cc80       ?CreateIoHandler@IOCPServer@@AAEXPAUtagIOHANDLER_DESC@@@Z 0042dc80 f   Network:IOCPServer.obj
 0001:0002cd10       ??1InPimpl@IOCPServer@@QAE@XZ 0042dd10 f i Network:IOCPServer.obj
 0001:0002cd40       ?Init@IOCPServer@@QAEHPAUtagIOHANDLER_DESC@@K@Z 0042dd40 f   Network:IOCPServer.obj
 0001:0002cda0       ??0IOCPServer@@QAE@XZ      0042dda0 f   Network:IOCPServer.obj
 0001:0002ce30       ??1IOCPServer@@UAE@XZ      0042de30 f   Network:IOCPServer.obj
 0001:0002ce90       ??_EIOCPServer@@UAEPAXI@Z  0042de90 f i Network:IOCPServer.obj
 0001:0002ce90       ??_GIOCPServer@@UAEPAXI@Z  0042de90 f i Network:IOCPServer.obj
 0001:0002ceb0       ?Init@Session@@QAEXXZ      0042deb0 f   Network:Session.obj
 0001:0002cef0       ?Reuse@Session@@QAEXPAX@Z  0042def0 f   Network:Session.obj
 0001:0002cf70       ?PreSend@Session@@QAE_NXZ  0042df70 f   Network:Session.obj
 0001:0002d000       ?BindNetworkObject@Session@@QAEXPAVNetworkObject@@@Z 0042e000 f   Network:Session.obj
 0001:0002d020       ?UnbindNetworkObject@Session@@QAEXXZ 0042e020 f   Network:Session.obj
 0001:0002d040       ?OnAccept@Session@@QAEXXZ  0042e040 f   Network:Session.obj
 0001:0002d080       ?OnConnect@Session@@QAEX_N@Z 0042e080 f   Network:Session.obj
 0001:0002d0c0       ?OnLogString@Session@@QAAXPBDZZ 0042e0c0 f   Network:Session.obj
 0001:0002d130       ?Disconnect@Session@@QAEX_N@Z 0042e130 f   Network:Session.obj
 0001:0002d150       ?Allocate@?$TAllocator@VSendBuffer@@@module@@SAPAVSendBuffer@@XZ 0042e150 f i Network:Session.obj
 0001:0002d1b0       ?Allocate@?$TAllocator@VRecvBuffer@@@module@@SAPAVRecvBuffer@@XZ 0042e1b0 f i Network:Session.obj
 0001:0002d210       ??0Session@@QAE@KKKK@Z     0042e210 f   Network:Session.obj
 0001:0002d270       ??1Session@@UAE@XZ         0042e270 f   Network:Session.obj
 0001:0002d2d0       ?Send@Session@@QAE_NPAEG@Z 0042e2d0 f   Network:Session.obj
 0001:0002d340       ?ProcessReceivedPacket@Session@@QAE_NH@Z 0042e340 f   Network:Session.obj
 0001:0002d440       ?PreRecv@Session@@QAE_NXZ  0042e440 f   Network:Session.obj
 0001:0002d4e0       ?PreAccept@Session@@QAE_NI@Z 0042e4e0 f   Network:Session.obj
 0001:0002d5c0       ??_ESession@@UAEPAXI@Z     0042e5c0 f i Network:Session.obj
 0001:0002d5c0       ??_GSession@@UAEPAXI@Z     0042e5c0 f i Network:Session.obj
 0001:0002d5e0       ??0SendBuffer@@QAE@XZ      0042e5e0 f   Network:SendBuffer.obj
 0001:0002d600       ?PumpPendingBuffer@SendBuffer@@AAEXXZ 0042e600 f   Network:SendBuffer.obj
 0001:0002d6a0       ?WriteMessages@SendBuffer@@QAE_NPAPBEPAGKW4HEADER_SIZE_TYPE@@@Z 0042e6a0 f   Network:SendBuffer.obj
 0001:0002d780       ??1SendBuffer@@QAE@XZ      0042e780 f   Network:SendBuffer.obj
 0001:0002d7d0       ?Create@SendBuffer@@QAEXKK@Z 0042e7d0 f   Network:SendBuffer.obj
 0001:0002d850       ?Clear@SendBuffer@@QAEXXZ  0042e850 f   Network:SendBuffer.obj
 0001:0002d890       ?PrepareSend@SendBuffer@@QAE_NQAURingBufferInfo@module@@@Z 0042e890 f   Network:SendBuffer.obj
 0001:0002d950       ?IsEmpty@SendBuffer@@QBE_NXZ 0042e950 f   Network:SendBuffer.obj
 0001:0002d970       ??0RecvBuffer@@QAE@XZ      0042e970 f   Network:RecvBuffer.obj
 0001:0002d990       ??1Interlock@?4??PrepareSend@SendBuffer@@QAE_NQAURingBufferInfo@module@@@Z@QAE@XZ 0042e990 f   Network:SendBuffer.obj
 0001:0002d990       ??1Interlock@?4??PrepareRecv@RecvBuffer@@QAE_NQAURingBufferInfo@module@@@Z@QAE@XZ 0042e990 f   Network:RecvBuffer.obj
 0001:0002d9a0       ?PumpTo2ndBuffer@RecvBuffer@@AAEXXZ 0042e9a0 f   Network:RecvBuffer.obj
 0001:0002da40       ?GetRecvParam@RecvBuffer@@QAEXPAPAEAAH@Z 0042ea40 f   Network:RecvBuffer.obj
 0001:0002da70       ?PopHeadMessage@RecvBuffer@@QAE_NH@Z 0042ea70 f   Network:RecvBuffer.obj
 0001:0002dab0       ?GetFirstPacketPtr@RecvBuffer@@QAEPAEW4HEADER_SIZE_TYPE@@PAK@Z 0042eab0 f   Network:RecvBuffer.obj
 0001:0002db70       ??1RecvBuffer@@QAE@XZ      0042eb70 f   Network:RecvBuffer.obj
 0001:0002dbe0       ?Create@RecvBuffer@@QAEXHK@Z 0042ebe0 f   Network:RecvBuffer.obj
 0001:0002dc60       ?Clear@RecvBuffer@@QAEXXZ  0042ec60 f   Network:RecvBuffer.obj
 0001:0002dcb0       ?GetReceivableInfo@RecvBuffer@@AAE_NQAURingBufferInfo@module@@@Z 0042ecb0 f   Network:RecvBuffer.obj
 0001:0002dd20       ?PrepareRecv@RecvBuffer@@QAE_NQAURingBufferInfo@module@@@Z 0042ed20 f   Network:RecvBuffer.obj
 0001:0002ddd0       ??0IoHandler@@QAE@XZ       0042edd0 f   Network:IoHandler.obj
 0001:0002ddf0       ?Init@IoHandler@@QAEXPAVIOCPServer@@PAUtagIOHANDLER_DESC@@@Z 0042edf0 f   Network:IoHandler.obj
 0001:0002e140       ?IsListening@IoHandler@@QAEHXZ 0042f140 f   Network:IoHandler.obj
 0001:0002e160       ?SuspendListenThread@IoHandler@@QAEXXZ 0042f160 f   Network:IoHandler.obj
 0001:0002e170       ?ResumeListenThread@IoHandler@@QAEXXZ 0042f170 f   Network:IoHandler.obj
 0001:0002e180       ?ProcessSend@IoHandler@@AAEXXZ 0042f180 f   Network:IoHandler.obj
 0001:0002e1d0       ?Connect@IoHandler@@QAEKPAVNetworkObject@@PADG@Z 0042f1d0 f   Network:IoHandler.obj
 0001:0002e2b0       ?StartListen@IoHandler@@QAEHPADG@Z 0042f2b0 f   Network:IoHandler.obj
 0001:0002e310       ?clear@?$list@PAVSession@@V?$RedirectedAllocator@PAVSession@@@module@@@std@@QAEXXZ 0042f310 f i Network:IoHandler.obj
 0001:0002e350       ?_Buynode@?$list@PAVSession@@V?$RedirectedAllocator@PAVSession@@@module@@@std@@IAEPAU_Node@?$_List_nod@PAVSession@@V?$RedirectedAllocator@PAVSession@@@module@@@2@PAU342@0ABQAVSession@@@Z 0042f350 f i Network:IoHandler.obj
 0001:0002e380       ?erase@?$list@PAVSession@@V?$RedirectedAllocator@PAVSession@@@module@@@std@@QAE?AViterator@12@V312@@Z 0042f380 f i Network:IoHandler.obj
 0001:0002e3c0       ?erase@?$list@PAVSession@@V?$RedirectedAllocator@PAVSession@@@module@@@std@@QAE?AViterator@12@V312@0@Z 0042f3c0 f i Network:IoHandler.obj
 0001:0002e430       ?ProcessConnectFailList@IoHandler@@AAEXXZ 0042f430 f   Network:IoHandler.obj
 0001:0002e4d0       ?ProcessActiveSessionList@IoHandler@@AAEXXZ 0042f4d0 f   Network:IoHandler.obj
 0001:0002e580       ?_Incsize@?$list@PAVSession@@V?$RedirectedAllocator@PAVSession@@@module@@@std@@IAEXI@Z 0042f580 f i Network:IoHandler.obj
 0001:0002e620       ??$_Insert@Viterator@?$list@PAVSession@@V?$RedirectedAllocator@PAVSession@@@module@@@std@@@?$list@PAVSession@@V?$RedirectedAllocator@PAVSession@@@module@@@std@@QAEXViterator@01@00Uforward_iterator_tag@1@@Z 0042f620 f i Network:IoHandler.obj
 0001:0002e6d0       ?_Splice@?$list@PAVSession@@V?$RedirectedAllocator@PAVSession@@@module@@@std@@QAEXViterator@12@AAV12@00I@Z 0042f6d0 f i Network:IoHandler.obj
 0001:0002e760       ?ProcessConnectSuccessList@IoHandler@@AAEXXZ 0042f760 f   Network:IoHandler.obj
 0001:0002e8d0       ?ProcessAcceptedSessionList@IoHandler@@AAEXXZ 0042f8d0 f   Network:IoHandler.obj
 0001:0002ea30       ?KickDeadSessions@IoHandler@@AAEXXZ 0042fa30 f   Network:IoHandler.obj
 0001:0002ec30       ?Update@IoHandler@@QAEXXZ  0042fc30 f   Network:IoHandler.obj
 0001:0002ec80       ?Shutdown@IoHandler@@QAEXXZ 0042fc80 f   Network:IoHandler.obj
 0001:0002ed10       ??1IoHandler@@QAE@XZ       0042fd10 f   Network:IoHandler.obj
 0001:0002ee80       ?LoadExtensionFunction@MsWinsockUtil@@CA_NIU_GUID@@PAPAX@Z 0042fe80 f   Network:MsWinsockUtil.obj
 0001:0002ef00       ?LoadExtensionFunction@MsWinsockUtil@@SAXI@Z 0042ff00 f   Network:MsWinsockUtil.obj
 0001:0002f0c0       ??0WxRingBuffer@module@@QAE@KK@Z 004300c0 f   Network:WxRingBuffer.obj
 0001:0002f100       ??0WxRingBuffer@module@@QAE@KPAEK@Z 00430100 f   Network:WxRingBuffer.obj
 0001:0002f130       ??1WxRingBuffer@module@@UAE@XZ 00430130 f   Network:WxRingBuffer.obj
 0001:0002f160       ?Reset@WxRingBuffer@module@@QAEXXZ 00430160 f   Network:WxRingBuffer.obj
 0001:0002f170       ?Enqueue@WxRingBuffer@module@@QAEEPBEK@Z 00430170 f   Network:WxRingBuffer.obj
 0001:0002f2b0       ?Dequeue@WxRingBuffer@module@@QAEEPAEK@Z 004302b0 f   Network:WxRingBuffer.obj
 0001:0002f3f0       ?Peek@WxRingBuffer@module@@QAEEPAEK@Z 004303f0 f   Network:WxRingBuffer.obj
 0001:0002f4b0       ?WritableInfo@WxRingBuffer@module@@QBEEPAURingBufferInfo@2@@Z 004304b0 f   Network:WxRingBuffer.obj
 0001:0002f570       ?ReadableInfo@WxRingBuffer@module@@QBEEPAURingBufferInfo@2@@Z 00430570 f   Network:WxRingBuffer.obj
 0001:0002f610       ??_EWxRingBuffer@module@@UAEPAXI@Z 00430610 f i Network:WxRingBuffer.obj
 0001:0002f610       ??_GWxRingBuffer@module@@UAEPAXI@Z 00430610 f i Network:WxRingBuffer.obj
 0001:0002f650       ??1SessionPool@@QAE@XZ     00430650 f   Network:SessionPool.obj
 0001:0002f680       ?GetLength@SessionPool@@QAEHXZ 00430680 f   Network:SessionPool.obj
 0001:0002f6b0       ?Allocate@?$TAllocator@VSessionList@@@module@@SAPAVSessionList@@XZ 004306b0 f i Network:SessionPool.obj
 0001:0002f710       ?Alloc@SessionPool@@QAEPAVSession@@XZ 00430710 f   Network:SessionPool.obj
 0001:0002f780       ?Create@SessionPool@@AAEXKKKKKKH@Z 00430780 f   Network:SessionPool.obj
 0001:0002f870       ?Free@SessionPool@@QAEXPAVSession@@@Z 00430870 f   Network:SessionPool.obj
 0001:0002f8d0       ??0SessionPool@@QAE@KKKKKKH@Z 004308d0 f   Network:SessionPool.obj
 0001:0002f910       ??0Acceptor@@QAE@XZ        00430910 f   Network:Acceptor.obj
 0001:0002f960       ?Init@Acceptor@@QAEXPAVIoHandler@@K@Z 00430960 f   Network:Acceptor.obj
 0001:0002f9c0       ?CreateListenSocket@Acceptor@@AAEHPBDG@Z 004309c0 f   Network:Acceptor.obj
 0001:0002faa0       ?SuspendListenThread@Acceptor@@QAEXXZ 00430aa0 f   Network:Acceptor.obj
 0001:0002fad0       ?ResumeListenThread@Acceptor@@QAEXXZ 00430ad0 f   Network:Acceptor.obj
 0001:0002fb00       ?Shutdown@Acceptor@@QAEXXZ 00430b00 f   Network:Acceptor.obj
 0001:0002fb80       ??1Acceptor@@QAE@XZ        00430b80 f   Network:Acceptor.obj
 0001:0002fbd0       ?StartListen@Acceptor@@QAEHPBDG@Z 00430bd0 f   Network:Acceptor.obj
 0001:0002fc40       ??0Connector@@QAE@XZ       00430c40 f   Network:Connector.obj
 0001:0002fcc0       ?Init@Connector@@QAEXPAVIoHandler@@K@Z 00430cc0 f   Network:Connector.obj
 0001:0002fd80       ?Shutdown@Connector@@QAEXXZ 00430d80 f   Network:Connector.obj
 0001:0002fdc0       ??1Connector@@QAE@XZ       00430dc0 f   Network:Connector.obj
 0001:0002fe30       ?Connect@Connector@@QAEXPAVSession@@@Z 00430e30 f   Network:Connector.obj
 0001:0002fe90       ?_Buynode@?$list@PAVSession@@V?$RedirectedAllocator@PAVSession@@@module@@@std@@IAEPAU_Node@?$_List_nod@PAVSession@@V?$RedirectedAllocator@PAVSession@@@module@@@2@XZ 00430e90 f i Network:SessionList.obj
 0001:0002feb0       ??1?$list@PAVSession@@V?$RedirectedAllocator@PAVSession@@@module@@@std@@QAE@XZ 00430eb0 f i Network:SessionList.obj
 0001:0002fed0       ?Clear@SessionList@@QAEXXZ 00430ed0 f   Network:SessionList.obj
 0001:0002ff50       ??1SessionList@@QAE@XZ     00430f50 f   Network:SessionList.obj
 0001:0002ffb0       ??0SessionList@@QAE@XZ     00430fb0 f   Network:SessionList.obj
 0001:0002ffe0       ?io_thread@@YGIPAX@Z       00430fe0 f   Network:IoHandler_Worker.obj
 0001:00030100       ?accept_thread@@YGIPAX@Z   00431100 f   Network:Acceptor_Worker.obj
 0001:00030280       ?connect_thread@@YGIPAX@Z  00431280 f   Network:Connector_Worker.obj
 0001:000303e0       ?Encrypt@CryptManagerS2S@@QAEHPAEHAAE@Z 004313e0 f   MOLA_DDA:CryptManagerS2S.obj
 0001:00030420       ?Decrypt@CryptManagerS2S@@QAEHPAEHE@Z 00431420 f   MOLA_DDA:CryptManagerS2S.obj
 0001:00030440       ?StartLogic@CryptManagerS2S@@QAEHH@Z 00431440 f   MOLA_DDA:CryptManagerS2S.obj
 0001:00030470       ?ExtractUserKeyFromCryptKeyStream@CryptManagerS2S@@SAKPAUsCRYPT_KEY_STREAM@@@Z 00431470 f   MOLA_DDA:CryptManagerS2S.obj
 0001:000304f0       ?CreateCryptManagerFromCryptKeyStream@CryptManagerS2S@@SAPAV1@EPAUsCRYPT_KEY_STREAM@@E@Z 004314f0 f   MOLA_DDA:CryptManagerS2S.obj
 0001:000305c0       ??1CryptManagerS2S@@QAE@XZ 004315c0 f   MOLA_DDA:CryptManagerS2S.obj
 0001:000305f0       ??0RandomSNKey@@QAE@XZ     004315f0 f   MOLA_DDA:RandomSNKey.obj
 0001:00030600       ?NextRoundSNKey4Solar@RandomSNKey@@QAEXXZ 00431600 f   MOLA_DDA:RandomSNKey.obj
 0001:000306c0       ?NextRoundSNKey4Lunar@RandomSNKey@@QAEXXZ 004316c0 f   MOLA_DDA:RandomSNKey.obj
 0001:00030780       ?Initialize@RandomSNKey@@QAEXKEE@Z 00431780 f   MOLA_DDA:RandomSNKey.obj
 0001:00030810       ?PostRecv_SM_CONNECTION_ACK_1st@MakePacket@CryptFlowPolicy@@SAKPAEK@Z 00431810 f   MOLA_DDA:CryptFlowPolicy.SolarAuth.obj
 0001:00030830       ?PostRecv_DefConverter@MakePacket@CryptFlowPolicy@@SAKPAEKK@Z 00431830 f   MOLA_DDA:CryptFlowPolicy.SolarAuth.obj
 0001:00030860       ?PreSend_DefConverter@MakePacket@CryptFlowPolicy@@SAKPAEKK@Z 00431860 f   MOLA_DDA:CryptFlowPolicy.SolarAuth.obj
 0001:00030880       ?CreateObjectChanger@sOBJECT_CHANGER@@SAPAV1@K@Z 00431880 f   MOLA_DDA:CryptFlowPolicy.SolarAuth.obj
 0001:000308e0       ?ObjectChangeTo@sOBJECT_CHANGER@@QAEHPAXK@Z 004318e0 f   MOLA_DDA:CryptFlowPolicy.SolarAuth.obj
 0001:00030910       ?_RegisterObject@sOBJECT_CHANGER@@AAEHKPAX@Z 00431910 f   MOLA_DDA:CryptFlowPolicy.SolarAuth.obj
 0001:00030940       ??0CryptHSEL@@QAE@XZ       00431940 f   MOLA_DDA:CryptHSEL.obj
 0001:000309a0       ??1CryptHSEL@@UAE@XZ       004319a0 f   MOLA_DDA:CryptHSEL.obj
 0001:00030a00       ?Init@CryptHSEL@@QAEHUHSEL_INITIAL@@0@Z 00431a00 f   MOLA_DDA:CryptHSEL.obj
 0001:00030a80       ?Encrypt@CryptHSEL@@QAEHPADH@Z 00431a80 f   MOLA_DDA:CryptHSEL.obj
 0001:00030ac0       ?Decrypt@CryptHSEL@@QAEHPADH@Z 00431ac0 f   MOLA_DDA:CryptHSEL.obj
 0001:00030b00       ?GetEnCRCConvertChar@CryptHSEL@@QAEDXZ 00431b00 f   MOLA_DDA:CryptHSEL.obj
 0001:00030b20       ??_ECryptHSEL@@UAEPAXI@Z   00431b20 f i MOLA_DDA:CryptHSEL.obj
 0001:00030b20       ??_GCryptHSEL@@UAEPAXI@Z   00431b20 f i MOLA_DDA:CryptHSEL.obj
 0001:00030b40       ?ConvertDWORD@BitOp@@SAKKK@Z 00431b40 f i MOLA_DDA:BitOperation.obj
 0001:00030bd0       ??1CHSEL_STREAM@@QAE@XZ    00431bd0 f   MOLA_DDA:HSEL_STREAM.obj
 0001:00030be0       ?GetVersion@CHSEL_STREAM@@UAEHXZ 00431be0 f i MOLA_DDA:HSEL_STREAM.obj
 0001:00030bf0       ?GetHSELType@CHSEL_STREAM@@UAEHXZ 00431bf0 f i MOLA_DDA:HSEL_STREAM.obj
 0001:00030c00       ?SetKeyCustom@CHSEL_STREAM@@UAEXUHSEL_KEY@@@Z 00431c00 f   MOLA_DDA:HSEL_STREAM.obj
 0001:00030c20       ?GenerateKeys@CHSEL_STREAM@@UAEXAAUHSEL_KEY@@@Z 00431c20 f   MOLA_DDA:HSEL_STREAM.obj
 0001:00030e80       ?SetNextKey@CHSEL_STREAM@@UAEXXZ 00431e80 f   MOLA_DDA:HSEL_STREAM.obj
 0001:00030ed0       ?DESSingleEncode@CHSEL_STREAM@@AAEXPADH@Z 00431ed0 f   MOLA_DDA:HSEL_STREAM.obj
 0001:00030ee0       ?DESSingleDecode@CHSEL_STREAM@@AAEXPADH@Z 00431ee0 f   MOLA_DDA:HSEL_STREAM.obj
 0001:00030ef0       ?DESTripleEncode@CHSEL_STREAM@@AAEXPADH@Z 00431ef0 f   MOLA_DDA:HSEL_STREAM.obj
 0001:00030f20       ?DESTripleDecode@CHSEL_STREAM@@AAEXPADH@Z 00431f20 f   MOLA_DDA:HSEL_STREAM.obj
 0001:00030f50       ?GetCRC@CHSEL_STREAM@@AAEXPADH@Z 00431f50 f   MOLA_DDA:HSEL_STREAM.obj
 0001:00030fd0       ?GetCRCConvertInt@CHSEL_STREAM@@UBEHXZ 00431fd0 f   MOLA_DDA:HSEL_STREAM.obj
 0001:00030fe0       ?GetCRCConvertChar@CHSEL_STREAM@@UBEDXZ 00431fe0 f   MOLA_DDA:HSEL_STREAM.obj
 0001:00031000       ?GetCRCConvertShort@CHSEL_STREAM@@UBEFXZ 00432000 f   MOLA_DDA:HSEL_STREAM.obj
 0001:00031010       ?NoSwapDecrypt@CHSEL_STREAM@@AAEXPADH@Z 00432010 f   MOLA_DDA:HSEL_STREAM.obj
 0001:00031010       ?NoSwapEncrypt@CHSEL_STREAM@@AAEXPADH@Z 00432010 f   MOLA_DDA:HSEL_STREAM.obj
 0001:00031020       ?SwapEncrypt@CHSEL_STREAM@@AAEXPADH@Z 00432020 f   MOLA_DDA:HSEL_STREAM.obj
 0001:000312a0       ?SwapDecrypt@CHSEL_STREAM@@AAEXPADH@Z 004322a0 f   MOLA_DDA:HSEL_STREAM.obj
 0001:00031520       ?DESLeftEncode_Type_1@CHSEL_STREAM@@AAEXPADH@Z 00432520 f   MOLA_DDA:HSEL_STREAM.obj
 0001:000315b0       ?DESLeftDecode_Type_1@CHSEL_STREAM@@AAEXPADH@Z 004325b0 f   MOLA_DDA:HSEL_STREAM.obj
 0001:00031650       ?DESRightEncode_Type_1@CHSEL_STREAM@@AAEXPADH@Z 00432650 f   MOLA_DDA:HSEL_STREAM.obj
 0001:000316c0       ?DESRightDecode_Type_1@CHSEL_STREAM@@AAEXPADH@Z 004326c0 f   MOLA_DDA:HSEL_STREAM.obj
 0001:00031750       ?DESMiddleEncode_Type_1@CHSEL_STREAM@@AAEXPADH@Z 00432750 f   MOLA_DDA:HSEL_STREAM.obj
 0001:00031750       ?DESMiddleDecode_Type_1@CHSEL_STREAM@@AAEXPADH@Z 00432750 f   MOLA_DDA:HSEL_STREAM.obj
 0001:000317d0       ?DESLeftEncode_Type_2@CHSEL_STREAM@@AAEXPADH@Z 004327d0 f   MOLA_DDA:HSEL_STREAM.obj
 0001:00031860       ?DESLeftDecode_Type_2@CHSEL_STREAM@@AAEXPADH@Z 00432860 f   MOLA_DDA:HSEL_STREAM.obj
 0001:00031900       ?DESRightEncode_Type_2@CHSEL_STREAM@@AAEXPADH@Z 00432900 f   MOLA_DDA:HSEL_STREAM.obj
 0001:00031970       ?DESRightDecode_Type_2@CHSEL_STREAM@@AAEXPADH@Z 00432970 f   MOLA_DDA:HSEL_STREAM.obj
 0001:00031a00       ?DESMiddleDecode_Type_2@CHSEL_STREAM@@AAEXPADH@Z 00432a00 f   MOLA_DDA:HSEL_STREAM.obj
 0001:00031a00       ?DESMiddleEncode_Type_3@CHSEL_STREAM@@AAEXPADH@Z 00432a00 f   MOLA_DDA:HSEL_STREAM.obj
 0001:00031a80       ?DESLeftEncode_Type_3@CHSEL_STREAM@@AAEXPADH@Z 00432a80 f   MOLA_DDA:HSEL_STREAM.obj
 0001:00031b10       ?DESLeftDecode_Type_3@CHSEL_STREAM@@AAEXPADH@Z 00432b10 f   MOLA_DDA:HSEL_STREAM.obj
 0001:00031bb0       ?DESRightEncode_Type_3@CHSEL_STREAM@@AAEXPADH@Z 00432bb0 f   MOLA_DDA:HSEL_STREAM.obj
 0001:00031c20       ?DESRightDecode_Type_3@CHSEL_STREAM@@AAEXPADH@Z 00432c20 f   MOLA_DDA:HSEL_STREAM.obj
 0001:00031cb0       ?DESMiddleEncode_Type_2@CHSEL_STREAM@@AAEXPADH@Z 00432cb0 f   MOLA_DDA:HSEL_STREAM.obj
 0001:00031cb0       ?DESMiddleDecode_Type_3@CHSEL_STREAM@@AAEXPADH@Z 00432cb0 f   MOLA_DDA:HSEL_STREAM.obj
 0001:00031d30       ?DESLeftEncode_Type_4@CHSEL_STREAM@@AAEXPADH@Z 00432d30 f   MOLA_DDA:HSEL_STREAM.obj
 0001:00031dc0       ?DESLeftDecode_Type_4@CHSEL_STREAM@@AAEXPADH@Z 00432dc0 f   MOLA_DDA:HSEL_STREAM.obj
 0001:00031e60       ?DESRightEncode_Type_4@CHSEL_STREAM@@AAEXPADH@Z 00432e60 f   MOLA_DDA:HSEL_STREAM.obj
 0001:00031ed0       ?DESRightDecode_Type_4@CHSEL_STREAM@@AAEXPADH@Z 00432ed0 f   MOLA_DDA:HSEL_STREAM.obj
 0001:00031f60       ?DESMiddleEncode_Type_4@CHSEL_STREAM@@AAEXPADH@Z 00432f60 f   MOLA_DDA:HSEL_STREAM.obj
 0001:00031fe0       ?DESMiddleDecode_Type_4@CHSEL_STREAM@@AAEXPADH@Z 00432fe0 f   MOLA_DDA:HSEL_STREAM.obj
 0001:00032060       ??0CHSEL_STREAM@@QAE@XZ    00433060 f   MOLA_DDA:HSEL_STREAM.obj
 0001:00032090       ?Initial@CHSEL_STREAM@@QAEHUHSEL_INITIAL@@@Z 00433090 f   MOLA_DDA:HSEL_STREAM.obj
 0001:00032390       ?Encrypt@CHSEL_STREAM@@UAE_NPADH@Z 00433390 f   MOLA_DDA:HSEL_STREAM.obj
 0001:000323e0       ?Decrypt@CHSEL_STREAM@@UAE_NPADH@Z 004333e0 f   MOLA_DDA:HSEL_STREAM.obj
 0001:00032422       ??3@YAXPAX@Z               00433422 f   LIBCMT:delete.obj
 0001:0003242d       ??0bad_alloc@std@@QAE@XZ   0043342d f i LIBCMT:new.obj
 0001:00032448       ??2@YAPAXI@Z               00433448 f   LIBCMT:new.obj
 0001:000324ad       ?_JumpToContinuation@@YGXPAXPAUEHRegistrationNode@@@Z 004334ad f   LIBCMT:_trnsctrl_.obj
 0001:000324df       ?_CallMemberFunction1@@YGXPAX00@Z 004334df f   LIBCMT:_trnsctrl_.obj
 0001:000324df       ?_CallMemberFunction2@@YGXPAX00H@Z 004334df f   LIBCMT:_trnsctrl_.obj
 0001:000324df       ?_CallMemberFunction0@@YGXPAX0@Z 004334df f   LIBCMT:_trnsctrl_.obj
 0001:000324e6       ?_UnwindNestedFrames@@YGXPAUEHRegistrationNode@@PAUEHExceptionRecord@@@Z 004334e6 f   LIBCMT:_trnsctrl_.obj
 0001:0003253a       ___CxxFrameHandler         0043353a f   LIBCMT:_trnsctrl_.obj
 0001:0003253a       ___CxxFrameHandler3        0043353a f   LIBCMT:_trnsctrl_.obj
 0001:000325a3       ?_CallSETranslator@@YAHPAUEHExceptionRecord@@PAUEHRegistrationNode@@PAX2PBU_s_FuncInfo@@H1@Z 004335a3 f   LIBCMT:_trnsctrl_.obj
 0001:00032719       ?_GetRangeOfTrysToCheck@@YAPBU_s_TryBlockMapEntry@@PBU_s_FuncInfo@@HHPAI1@Z 00433719 f   LIBCMT:_trnsctrl_.obj
 0001:0003278e       __CreateFrameInfo          0043378e f   LIBCMT:_trnsctrl_.obj
 0001:000327ba       __IsExceptionObjectToBeDestroyed 004337ba f   LIBCMT:_trnsctrl_.obj
 0001:000327e1       __FindAndUnlinkFrame       004337e1 f   LIBCMT:_trnsctrl_.obj
 0001:00032833       ?_CallCatchBlock2@@YAPAXPAUEHRegistrationNode@@PBU_s_FuncInfo@@PAXHK@Z 00433833 f   LIBCMT:_trnsctrl_.obj
 0001:00032893       @__security_check_cookie@4 00433893 f   LIBCMT:secchk.obj
 0001:000328a2       ??0_LocaleUpdate@@QAE@PAUlocaleinfo_struct@@@Z 004338a2 f i LIBCMT:mbsnbcpy.obj
 0001:00032929       __mbsnbcpy_l               00433929 f   LIBCMT:mbsnbcpy.obj
 0001:00032a0c       __mbsnbcpy                 00433a0c f   LIBCMT:mbsnbcpy.obj
 0001:00032a26       __snprintf                 00433a26 f   LIBCMT:snprintf.obj
 0001:00032ad5       ??0exception@@QAE@XZ       00433ad5 f   LIBCMT:stdexcpt.obj
 0001:00032ad5       ??0exception@std@@QAE@XZ   00433ad5 f   LIBCMT:stdexcpt.obj
 0001:00032ae6       ??0exception@std@@QAE@ABQBD@Z 00433ae6 f   LIBCMT:stdexcpt.obj
 0001:00032b39       ??0exception@std@@QAE@ABQBDH@Z 00433b39 f   LIBCMT:stdexcpt.obj
 0001:00032b56       ??0exception@std@@QAE@ABV01@@Z 00433b56 f   LIBCMT:stdexcpt.obj
 0001:00032b56       ??0exception@@QAE@ABV0@@Z  00433b56 f   LIBCMT:stdexcpt.obj
 0001:00032bb3       ??1exception@std@@UAE@XZ   00433bb3 f   LIBCMT:stdexcpt.obj
 0001:00032bb3       ??1exception@@UAE@XZ       00433bb3 f   LIBCMT:stdexcpt.obj
 0001:00032bc9       ?what@exception@std@@UBEPBDXZ 00433bc9 f   LIBCMT:stdexcpt.obj
 0001:00032bd6       ??_Eexception@std@@UAEPAXI@Z 00433bd6 f i LIBCMT:stdexcpt.obj
 0001:00032bd6       ??_Gexception@std@@UAEPAXI@Z 00433bd6 f i LIBCMT:stdexcpt.obj
 0001:00032bf7       ??1type_info@@UAE@XZ       00433bf7 f   LIBCMT:typinfo.obj
 0001:00032c07       ??_Gtype_info@@UAEPAXI@Z   00433c07 f i LIBCMT:typinfo.obj
 0001:00032c07       ??_Etype_info@@UAEPAXI@Z   00433c07 f i LIBCMT:typinfo.obj
 0001:00032c28       ??8type_info@@QBE_NABV0@@Z 00433c28 f   LIBCMT:typinfo.obj
 0001:00032c48       _memcpy_s                  00433c48 f   LIBCMT:memcpy_s.obj
 0001:00032cc5       _memmove_s                 00433cc5 f   LIBCMT:memmove_s.obj
 0001:00032d22       __purecall                 00433d22 f   LIBCMT:purevirt.obj
 0001:00032d4c       __set_purecall_handler     00433d4c f   LIBCMT:purevirt.obj
 0001:00032d73       __initp_misc_invarg        00433d73 f   LIBCMT:invarg.obj
 0001:00032d82       __invoke_watson            00433d82 f   LIBCMT:invarg.obj
 0001:00032eaa       __invalid_parameter        00433eaa f   LIBCMT:invarg.obj
 0001:00032ed0       __invalid_parameter_noinfo 00433ed0 f   LIBCMT:invarg.obj
 0001:00032ee0       __cfltcvt_init             00433ee0 f   LIBCMT:_fpinit_.obj
 0001:00032f40       __fpmath                   00433f40 f   LIBCMT:_fpinit_.obj
 0001:00032f63       _V6_HeapAlloc              00433f63 f   LIBCMT:malloc.obj
 0001:00032fb2       _malloc                    00433fb2 f   LIBCMT:malloc.obj
 0001:0003307c       _free                      0043407c f   LIBCMT:free.obj
 0001:0003310a       __CxxThrowException@8      0043410a f   LIBCMT:throw.obj
 0001:00033156       ?__ArrayUnwind@@YGXPAXIHP6EX0@Z@Z 00434156 f   LIBCMT:ehvecdtr.obj
 0001:000331b4       ??_M@YGXPAXIHP6EX0@Z@Z     004341b4 f   LIBCMT:ehvecdtr.obj
 0001:00033217       ??_L@YGXPAXIHP6EX0@Z1@Z    00434217 f   LIBCMT:ehvecctr.obj
 0001:0003327c       _ldiv                      0043427c f   LIBCMT:ldiv.obj
 0001:0003328a       ??_V@YAXPAX@Z              0043428a f   LIBCMT:delete2.obj
 0001:00033295       ??_U@YAPAXIABUnothrow_t@std@@@Z 00434295 f   LIBCMT:newaopnt.obj
 0001:000332a0       _memset                    004342a0 f   LIBCMT:memset.obj
 0001:00033320       _memcpy                    00434320 f   LIBCMT:memcpy.obj
 0001:00033690       __chkstk                   00434690 f   LIBCMT:chkstk.obj
 0001:00033690       __alloca_probe             00434690     LIBCMT:chkstk.obj
 0001:000336bb       _strncmp                   004346bb f   LIBCMT:strncmp.obj
 0001:00033780       _strncpy                   00434780 f   LIBCMT:strncpy.obj
 0001:0003395e       ___onexitinit              0043495e f   LIBCMT:onexit.obj
 0001:0003398f       __onexit                   0043498f f   LIBCMT:onexit.obj
 0001:000339cb       _atexit                    004349cb f   LIBCMT:onexit.obj
 0001:00033b89       _WinMainCRTStartup         00434b89 f   LIBCMT:wincrt0.obj
 0001:00033b93       _system                    00434b93 f   LIBCMT:system.obj
 0001:00033c73       _printf                    00434c73 f   LIBCMT:printf.obj
 0001:00033d22       __get_printf_count_output  00434d22 f   LIBCMT:printf.obj
 0001:00033d38       _puts                      00434d38 f   LIBCMT:puts.obj
 0001:00033e97       __vsnprintf_l              00434e97 f   LIBCMT:vsnprint.obj
 0001:00033f4a       __vsnprintf                00434f4a f   LIBCMT:vsnprint.obj
 0001:00033f67       _strtok                    00434f67 f   LIBCMT:strtok.obj
 0001:00034030       _strrchr                   00435030 f   LIBCMT:strrchr.obj
 0001:00034060       __aulldiv                  00435060 f   LIBCMT:ulldiv.obj
 0001:000340d0       __aulldvrm                 004350d0 f   LIBCMT:ulldvrm.obj
 0001:00034170       __allmul                   00435170 f   LIBCMT:llmul.obj
 0001:000341a4       __time32                   004351a4 f   LIBCMT:time.obj
 0001:000341f2       __toupper_l                004351f2 f   LIBCMT:toupper.obj
 0001:00034308       _toupper                   00435308 f   LIBCMT:toupper.obj
 0001:00034334       __freea                    00435334 f i LIBCMT:getch.obj
 0001:00034354       __getextendedkeycode       00435354 f   LIBCMT:getch.obj
 0001:00034407       __getch_nolock             00435407 f   LIBCMT:getch.obj
 0001:000344cc       __kbhit_nolock             004354cc f   LIBCMT:getch.obj
 0001:000345f6       __getch                    004355f6 f   LIBCMT:getch.obj
 0001:00034634       __kbhit                    00435634 f   LIBCMT:getch.obj
 0001:00034672       _srand                     00435672 f   LIBCMT:rand.obj
 0001:00034684       _rand                      00435684 f   LIBCMT:rand.obj
 0001:000346a6       __get_sys_err_msg          004356a6 f i LIBCMT:perror.obj
 0001:000346ce       _perror                    004356ce f   LIBCMT:perror.obj
 0001:0003475c       __access_s                 0043575c f   LIBCMT:access.obj
 0001:000347e5       __access                   004357e5 f   LIBCMT:access.obj
 0001:000347fd       __atof_l                   004357fd f   LIBCMT:atof.obj
 0001:000348a8       _atof                      004358a8 f   LIBCMT:atof.obj
 0001:000348bb       _atol                      004358bb f   LIBCMT:atox.obj
 0001:000348d1       _atoi                      004358d1 f   LIBCMT:atox.obj
 0001:000348dc       __atoi64                   004358dc f   LIBCMT:atox.obj
 0001:00034a70       __strupr_s_l               00435a70 f   LIBCMT:strupr.obj
 0001:00034aa5       __strupr                   00435aa5 f   LIBCMT:strupr.obj
 0001:00034cfc       __splitpath                00435cfc f   LIBCMT:splitpat.obj
 0001:00034d48       __localtime64_s            00435d48 f   LIBCMT:loctim64.obj
 0001:00035000       __localtime64              00436000 f   LIBCMT:loctim64.obj
 0001:000352dc       __mktime64                 004362dc f   LIBCMT:mktime64.obj
 0001:000352ee       __gmtime64_s               004362ee f   LIBCMT:gmtime64.obj
 0001:00035531       _setvbuf                   00436531 f   LIBCMT:setvbuf.obj
 0001:0003562f       ___iob_func                0043662f f   LIBCMT:_file.obj
 0001:00035635       ___initstdio               00436635 f   LIBCMT:_file.obj
 0001:000356e6       ___endstdio                004366e6 f   LIBCMT:_file.obj
 0001:00035706       __lock_file                00436706 f   LIBCMT:_file.obj
 0001:00035747       __lock_file2               00436747 f   LIBCMT:_file.obj
 0001:00035779       __unlock_file              00436779 f   LIBCMT:_file.obj
 0001:000357b5       __unlock_file2             004367b5 f   LIBCMT:_file.obj
 0001:000357e4       __fdopen                   004367e4 f   LIBCMT:fdopen.obj
 0001:0003596a       __set_osfhnd               0043696a f   LIBCMT:osfinfo.obj
 0001:000359eb       __free_osfhnd              004369eb f   LIBCMT:osfinfo.obj
 0001:00035a71       __get_osfhandle            00436a71 f   LIBCMT:osfinfo.obj
 0001:00035ae8       ___lock_fhandle            00436ae8 f   LIBCMT:osfinfo.obj
 0001:00035b88       __unlock_fhandle           00436b88 f   LIBCMT:osfinfo.obj
 0001:00035baf       __alloc_osfhnd             00436baf f   LIBCMT:osfinfo.obj
 0001:00035d49       __open_osfhandle           00436d49 f   LIBCMT:osfinfo.obj
 0001:00035e5f       __localtime32_s            00436e5f f   LIBCMT:localtim.obj
 0001:0003608e       __localtime32              0043708e f   LIBCMT:localtim.obj
 0001:000360c0       __except_handler4          004370c0 f   LIBCMT:chandler4.obj
 0001:0003624c       __initp_heap_handler       0043724c f   LIBCMT:handler.obj
 0001:0003625b       ?_set_new_handler@@YAP6AHI@ZP6AHI@Z@Z 0043725b f   LIBCMT:handler.obj
 0001:00036291       __callnewh                 00437291 f   LIBCMT:handler.obj
 0001:000362b9       ?_set_new_mode@@YAHH@Z     004372b9 f   LIBCMT:new_mode.obj
 0001:000362f8       __isalpha_l                004372f8 f i LIBCMT:_ctype.obj
 0001:0003634e       _isalpha                   0043734e f i LIBCMT:_ctype.obj
 0001:0003637e       __isdigit_l                0043737e f i LIBCMT:_ctype.obj
 0001:000363cf       _isdigit                   004373cf f i LIBCMT:_ctype.obj
 0001:000363fd       __isspace_l                004373fd f i LIBCMT:_ctype.obj
 0001:0003644e       _isspace                   0043744e f i LIBCMT:_ctype.obj
 0001:000364cf       __ismbblead_l              004374cf f   LIBCMT:ismbbyte.obj
 0001:000364e8       __ismbblead                004374e8 f   LIBCMT:ismbbyte.obj
 0001:00036500       _strstr                    00437500 f   LIBCMT:strstr.obj
 0001:00036590       _strlen                    00437590 f   LIBCMT:strlen.obj
 0001:0003661b       __EH_prolog3               0043761b f   LIBCMT:ehprolg3.obj
 0001:0003664e       __EH_prolog3_catch         0043764e f   LIBCMT:ehprolg3.obj
 0001:00036684       __EH_epilog3               00437684 f   LIBCMT:ehprolg3.obj
 0001:00036698       _strerror                  00437698 f   LIBCMT:strerror.obj
 0001:00036704       _calloc                    00437704 f   LIBCMT:calloc.obj
 0001:00036750       _memmove                   00437750 f   LIBCMT:memmove.obj
 0001:00036ab8       __global_unwind2           00437ab8 f   LIBCMT:exsup.obj
 0001:00036b1d       __local_unwind2            00437b1d f   LIBCMT:exsup.obj
 0001:00036ba1       __abnormal_termination     00437ba1 f   LIBCMT:exsup.obj
 0001:00036bc4       __NLG_Notify1              00437bc4 f   LIBCMT:exsup.obj
 0001:00036bcd       __NLG_Notify               00437bcd f   LIBCMT:exsup.obj
 0001:00036be4       __NLG_Dispatch2            00437be4     LIBCMT:exsup.obj
 0001:00036be4       __NLG_Dispatch             00437be4     LIBCMT:exsup.obj
 0001:00036bec       __NLG_Call                 00437bec f   LIBCMT:exsup.obj
 0001:00036bee       __NLG_Return2              00437bee     LIBCMT:exsup.obj
 0001:00036bef       __endthreadex              00437bef f   LIBCMT:threadex.obj
 0001:00036cf0       __beginthreadex            00437cf0 f   LIBCMT:threadex.obj
 0001:00036da0       ??0bad_exception@std@@QAE@PBD@Z 00437da0 f i LIBCMT:frame.obj
 0001:00036dbe       ??1bad_exception@std@@UAE@XZ 00437dbe f i LIBCMT:frame.obj
 0001:00036dc9       ??_Ebad_exception@std@@UAEPAXI@Z 00437dc9 f i LIBCMT:frame.obj
 0001:00036dc9       ??_Gbad_exception@std@@UAEPAXI@Z 00437dc9 f i LIBCMT:frame.obj
 0001:00036df0       ___TypeMatch               00437df0 f   LIBCMT:frame.obj
 0001:00036e4f       ___FrameUnwindFilter       00437e4f f   LIBCMT:frame.obj
 0001:00036e98       ___FrameUnwindToState      00437e98 f   LIBCMT:frame.obj
 0001:00036fbe       ___DestructExceptionObject 00437fbe f   LIBCMT:frame.obj
 0001:00037013       ___AdjustPointer           00438013 f   LIBCMT:frame.obj
 0001:0003729c       ___BuildCatchObjectHelper  0043829c f   LIBCMT:frame.obj
 0001:0003741b       ___BuildCatchObject        0043841b f   LIBCMT:frame.obj
 0001:00037956       ??0bad_exception@std@@QAE@ABV01@@Z 00438956 f i LIBCMT:frame.obj
 0001:00037973       ___InternalCxxFrameHandler 00438973 f   LIBCMT:frame.obj
 0001:00037a59       __encode_pointer           00438a59 f   LIBCMT:tidtable.obj
 0001:00037acb       __encoded_null             00438acb f   LIBCMT:tidtable.obj
 0001:00037ad4       __decode_pointer           00438ad4 f   LIBCMT:tidtable.obj
 0001:00037b46       ___crtTlsAlloc@4           00438b46 f   LIBCMT:tidtable.obj
 0001:00037b4f       ___fls_getvalue@4          00438b4f f   LIBCMT:tidtable.obj
 0001:00037b69       ___get_flsindex            00438b69 f   LIBCMT:tidtable.obj
 0001:00037b6f       ___set_flsgetvalue         00438b6f f   LIBCMT:tidtable.obj
 0001:00037ba3       ___fls_setvalue@8          00438ba3 f   LIBCMT:tidtable.obj
 0001:00037bc0       __mtterm                   00438bc0 f   LIBCMT:tidtable.obj
 0001:00037bfd       __initptd                  00438bfd f   LIBCMT:tidtable.obj
 0001:00037ce4       __getptd_noexit            00438ce4 f   LIBCMT:tidtable.obj
 0001:00037d5d       __getptd                   00438d5d f   LIBCMT:tidtable.obj
 0001:00037d77       __freefls@4                00438d77 f   LIBCMT:tidtable.obj
 0001:00037ea6       __freeptd                  00438ea6 f   LIBCMT:tidtable.obj
 0001:00037f14       __mtinit                   00438f14 f   LIBCMT:tidtable.obj
 0001:000380a1       ?terminate@@YAXXZ          004390a1 f   LIBCMT:hooks.obj
 0001:000380da       ?unexpected@@YAXXZ         004390da f   LIBCMT:hooks.obj
 0001:000380ed       ?_inconsistency@@YAXXZ     004390ed f   LIBCMT:hooks.obj
 0001:00038125       __initp_eh_hooks           00439125 f   LIBCMT:hooks.obj
 0001:00038140       __CallSettingFrame@12      00439140 f   LIBCMT:lowhelpr.obj
 0001:00038167       __NLG_Return               00439167     LIBCMT:lowhelpr.obj
 0001:0003818c       ___report_gsfailure        0043918c f   LIBCMT:gs_report.obj
 0001:000384b8       ___updatetmbcinfo          004394b8 f   LIBCMT:mbctype.obj
 0001:000385d8       __setmbcp_nolock           004395d8 f   LIBCMT:mbctype.obj
 0001:000387bd       __setmbcp                  004397bd f   LIBCMT:mbctype.obj
 0001:00038957       ___initmbctable            00439957 f   LIBCMT:mbctype.obj
 0001:00038975       ___freetlocinfo            00439975 f   LIBCMT:setlocal.obj
 0001:00038abe       ___addlocaleref            00439abe f   LIBCMT:setlocal.obj
 0001:00038b4d       ___removelocaleref         00439b4d f   LIBCMT:setlocal.obj
 0001:00038c24       ___updatetlocinfo          00439c24 f   LIBCMT:setlocal.obj
 0001:00038c9a       __get_errno_from_oserr     00439c9a f   LIBCMT:dosmap.obj
 0001:00038cdc       __errno                    00439cdc f   LIBCMT:dosmap.obj
 0001:00038cef       ___doserrno                00439cef f   LIBCMT:dosmap.obj
 0001:00038d02       __dosmaperr                00439d02 f   LIBCMT:dosmap.obj
 0001:00038d25       __flsbuf                   00439d25 f   LIBCMT:_flsbuf.obj
 0001:00038f2f       __output_l                 00439f2f f   LIBCMT:output.obj
 0001:00039ac7       _strcpy_s                  0043aac7 f   LIBCMT:strcpy_s.obj
 0001:00039b2f       ?_Type_info_dtor@type_info@@CAXPAV1@@Z 0043ab2f f   LIBCMT:typname.obj
 0001:00039ba0       _strcmp                    0043aba0 f   LIBCMT:strcmp.obj
 0001:00039c28       _abort                     0043ac28 f   LIBCMT:abort.obj
 0001:00039d3f       __set_abort_behavior       0043ad3f f   LIBCMT:abort.obj
 0001:00039d60       __NMSG_WRITE               0043ad60 f   LIBCMT:crt0msg.obj
 0001:00039f0b       __FF_MSGBANNER             0043af0b f   LIBCMT:crt0msg.obj
 0001:00039f44       __initp_misc_purevirt      0043af44 f   LIBCMT:inithelp.obj
 0001:00039f53       __crt_debugger_hook        0043af53 f   LIBCMT:dbghook.obj
 0001:00039f5b       __forcdecpt_l              0043af5b f   LIBCMT:cvt.obj
 0001:00039fce       __cropzeros_l              0043afce f   LIBCMT:cvt.obj
 0001:0003a050       __positive                 0043b050 f   LIBCMT:cvt.obj
 0001:0003a06c       __fassign_l                0043b06c f   LIBCMT:cvt.obj
 0001:0003a0ae       __fassign                  0043b0ae f   LIBCMT:cvt.obj
 0001:0003a0e7       __forcdecpt                0043b0e7 f   LIBCMT:cvt.obj
 0001:0003a0fa       __cropzeros                0043b0fa f   LIBCMT:cvt.obj
 0001:0003a27c       __cftoe_l                  0043b27c f   LIBCMT:cvt.obj
 0001:0003a34c       __cftoe                    0043b34c f   LIBCMT:cvt.obj
 0001:0003a36c       __cftoa_l                  0043b36c f   LIBCMT:cvt.obj
 0001:0003a7d6       __cftof_l                  0043b7d6 f   LIBCMT:cvt.obj
 0001:0003a891       __cftog_l                  0043b891 f   LIBCMT:cvt.obj
 0001:0003a98b       __cfltcvt_l                0043b98b f   LIBCMT:cvt.obj
 0001:0003aa13       __cfltcvt                  0043ba13 f   LIBCMT:cvt.obj
 0001:0003aa36       __initp_misc_cfltcvt_tab   0043ba36 f   LIBCMT:cmiscdat.obj
 0001:0003aa57       __setdefaultprecision      0043ba57 f   LIBCMT:fp8.obj
 0001:0003aa82       __ms_p5_test_fdiv          0043ba82 f   LIBCMT:_testfdiv_.obj
 0001:0003aac0       __ms_p5_mp_test_fdiv       0043bac0 f   LIBCMT:_testfdiv_.obj
 0001:0003aae9       __mtinitlocks              0043bae9 f   LIBCMT:mlock.obj
 0001:0003ab34       __mtdeletelocks            0043bb34 f   LIBCMT:mlock.obj
 0001:0003ab8b       __unlock                   0043bb8b f   LIBCMT:mlock.obj
 0001:0003aba2       __mtinitlocknum            0043bba2 f   LIBCMT:mlock.obj
 0001:0003ac65       __lock                     0043bc65 f   LIBCMT:mlock.obj
 0001:0003ac98       ___sbh_find_block          0043bc98 f   LIBCMT:sbheap.obj
 0001:0003acc8       ___sbh_free_block          0043bcc8 f   LIBCMT:sbheap.obj
 0001:0003afde       ___sbh_alloc_new_region    0043bfde f   LIBCMT:sbheap.obj
 0001:0003b08e       ___sbh_alloc_new_group     0043c08e f   LIBCMT:sbheap.obj
 0001:0003b196       ___sbh_resize_block        0043c196 f   LIBCMT:sbheap.obj
 0001:0003b477       ___sbh_alloc_block         0043c477 f   LIBCMT:sbheap.obj
 0001:0003b75c       __SEH_prolog4              0043c75c f   LIBCMT:sehprolg4.obj
 0001:0003b7a1       __SEH_epilog4              0043c7a1 f   LIBCMT:sehprolg4.obj
 0001:0003b7b5       __heap_init                0043c7b5 f   LIBCMT:heapinit.obj
 0001:0003b7e5       __crt_waiting_on_module_handle 0043c7e5 f   LIBCMT:crt0dat.obj
 0001:0003b815       __amsg_exit                0043c815 f   LIBCMT:crt0dat.obj
 0001:0003b83e       ___crtCorExitProcess       0043c83e f   LIBCMT:crt0dat.obj
 0001:0003b869       ___crtExitProcess          0043c869 f   LIBCMT:crt0dat.obj
 0001:0003b881       __lockexit                 0043c881 f   LIBCMT:crt0dat.obj
 0001:0003b88a       __unlockexit               0043c88a f   LIBCMT:crt0dat.obj
 0001:0003b8b0       __initterm_e               0043c8b0 f   LIBCMT:crt0dat.obj
 0001:0003b8d4       __cinit                    0043c8d4 f   LIBCMT:crt0dat.obj
 0001:0003ba85       _exit                      0043ca85 f   LIBCMT:crt0dat.obj
 0001:0003ba9b       __exit                     0043ca9b f   LIBCMT:crt0dat.obj
 0001:0003bab1       __cexit                    0043cab1 f   LIBCMT:crt0dat.obj
 0001:0003bac0       __c_exit                   0043cac0 f   LIBCMT:crt0dat.obj
 0001:0003bacf       __init_pointers            0043cacf f   LIBCMT:crt0dat.obj
 0001:0003bb1d       ??2@YAPAXIABUnothrow_t@std@@@Z 0043cb1d f   LIBCMT:newopnt.obj
 0001:0003bba3       __VEC_memzero              0043cba3 f   LIBCMT:p4_memset.obj
 0001:0003bc82       __get_sse2_info            0043cc82 f   LIBCMT:cpu_disp.obj
 0001:0003bce4       ___sse2_available_init     0043cce4 f   LIBCMT:cpu_disp.obj
 0001:0003bd78       __VEC_memcpy               0043cd78 f   LIBCMT:p4_memcpy.obj
 0001:0003be5b       __malloc_crt               0043ce5b f   LIBCMT:crtheap.obj
 0001:0003bea0       __calloc_crt               0043cea0 f   LIBCMT:crtheap.obj
 0001:0003beec       __realloc_crt              0043ceec f   LIBCMT:crtheap.obj
 0001:0003bf3a       __recalloc_crt             0043cf3a f   LIBCMT:crtheap.obj
 0001:0003bf8c       __msize                    0043cf8c f   LIBCMT:msize.obj
 0001:0003c02f       ?__CxxUnhandledExceptionFilter@@YGJPAU_EXCEPTION_POINTERS@@@Z 0043d02f f   LIBCMT:unhandld.obj
 0001:0003c071       ___CxxSetUnhandledExceptionFilter 0043d071 f   LIBCMT:unhandld.obj
 0001:0003c07f       __initp_misc_winxfltr      0043d07f f   LIBCMT:winxfltr.obj
 0001:0003c07f       __fpclear                  0043d07f f   LIBCMT:_fpinit_.obj
 0001:0003c080       __XcptFilter               0043d080 f   LIBCMT:winxfltr.obj
 0001:0003c1e0       __wincmdln                 0043d1e0 f   LIBCMT:wincmdln.obj
 0001:0003c23f       __setenvp                  0043d23f f   LIBCMT:stdenvp.obj
 0001:0003c4b7       __setargv                  0043d4b7 f   LIBCMT:stdargv.obj
 0001:0003c572       ___crtGetEnvironmentStringsA 0043d572 f   LIBCMT:a_env.obj
 0001:0003c6a9       __ioinit                   0043d6a9 f   LIBCMT:ioinit.obj
 0001:0003c8fd       __RTC_Initialize           0043d8fd f   LIBCMT:_initsect_.obj
 0001:0003c923       __RTC_Terminate            0043d923 f   LIBCMT:_initsect_.obj
 0001:0003c949       ___security_init_cookie    0043d949 f   LIBCMT:gs_support.obj
 0001:0003c9df       __spawnvpe                 0043d9df f   LIBCMT:spawnvpe.obj
 0001:0003ccd1       __spawnve                  0043dcd1 f   LIBCMT:spawnve.obj
 0001:0003cef2       __getenv_helper_nolock     0043def2 f   LIBCMT:getenv.obj
 0001:0003cf79       __dupenv_s                 0043df79 f   LIBCMT:getenv.obj
 0001:0003d05f       __stbuf                    0043e05f f   LIBCMT:_sftbuf.obj
 0001:0003d0fb       __ftbuf                    0043e0fb f   LIBCMT:_sftbuf.obj
 0001:0003d12f       __fwrite_nolock            0043e12f f   LIBCMT:fwrite.obj
 0001:0003d291       __fileno                   0043e291 f   LIBCMT:fileno.obj
 0001:0003d668       ___crtLCMapStringA         0043e668 f   LIBCMT:a_map.obj
 0001:0003d6ad       __isleadbyte_l             0043e6ad f i LIBCMT:_wctype.obj
 0001:0003d6e5       _isleadbyte                0043e6e5 f i LIBCMT:_wctype.obj
 0001:0003d6f8       __isctype_l                0043e6f8 f   LIBCMT:isctype.obj
 0001:0003d7b0       ___initconin               0043e7b0 f   LIBCMT:initcon.obj
 0001:0003d7cf       ___initconout              0043e7cf f   LIBCMT:initcon.obj
 0001:0003d7ee       ___termcon                 0043e7ee f   LIBCMT:initcon.obj
 0001:0003d820       __alloca_probe_16          0043e820 f   LIBCMT:alloca16.obj
 0001:0003d836       __alloca_probe_8           0043e836     LIBCMT:alloca16.obj
 0001:0003d84c       ___sys_nerr                0043e84c f   LIBCMT:syserr.obj
 0001:0003d852       ___sys_errlist             0043e852 f   LIBCMT:syserr.obj
 0001:0003d858       __write_nolock             0043e858 f   LIBCMT:write.obj
 0001:0003df8b       __write                    0043ef8b f   LIBCMT:write.obj
 0001:0003e067       __fltin2                   0043f067 f   LIBCMT:_cfin_.obj
 0001:0003e10e       ___strgtold12_l            0043f10e f   LIBCMT:_strgtold_.obj
 0001:0003ea35       _strtol                    0043fa35 f   LIBCMT:strtol.obj
 0001:0003ecf7       __strtoi64                 0043fcf7 f   LIBCMT:strtoq.obj
 0001:0003ed22       _strnlen                   0043fd22 f   LIBCMT:strlen_s.obj
 0001:0003ed3f       __mbsnbcpy_s               0043fd3f f   LIBCMT:mbsnbcpy_s.obj
 0001:0003ed5c       __set_daylight             0043fd5c f i LIBCMT:tzset.obj
 0001:0003ed6d       __set_dstbias              0043fd6d f i LIBCMT:tzset.obj
 0001:0003ed7e       __set_timezone             0043fd7e f i LIBCMT:tzset.obj
 0001:0003f4a4       ___tzset                   004404a4 f   LIBCMT:tzset.obj
 0001:0003f4f3       __isindst                  004404f3 f   LIBCMT:tzset.obj
 0001:0003f534       __get_daylight             00440534 f   LIBCMT:timeset.obj
 0001:0003f56d       __get_dstbias              0044056d f   LIBCMT:timeset.obj
 0001:0003f5a6       __get_timezone             004405a6 f   LIBCMT:timeset.obj
 0001:0003f5df       ___daylight                004405df f   LIBCMT:timeset.obj
 0001:0003f5e5       ___dstbias                 004405e5 f   LIBCMT:timeset.obj
 0001:0003f5eb       ___timezone                004405eb f   LIBCMT:timeset.obj
 0001:0003f5f1       ___tzname                  004405f1 f   LIBCMT:timeset.obj
 0001:0003f600       __alldiv                   00440600 f   LIBCMT:lldiv.obj
 0001:0003f6b0       __allrem                   004406b0 f   LIBCMT:llrem.obj
 0001:0003f762       __gmtime32_s               00440762 f   LIBCMT:gmtime.obj
 0001:0003f895       ___getgmtimebuf            00440895 f   LIBCMT:gmtime.obj
 0001:0003f8cc       __freebuf                  004408cc f   LIBCMT:_freebuf.obj
 0001:0003f8fd       __flush                    004408fd f   LIBCMT:fflush.obj
 0001:0003f965       __fflush_nolock            00440965 f   LIBCMT:fflush.obj
 0001:0003fa87       __flushall                 00440a87 f   LIBCMT:fflush.obj
 0001:0003fa90       __fcloseall                00440a90 f   LIBCMT:closeall.obj
 0001:0003fb2f       __getstream                00440b2f f   LIBCMT:stream.obj
 0001:0003fc67       __initp_misc_initcrit      00440c67 f   LIBCMT:initcrit.obj
 0001:0003fc76       ___crtInitCritSecAndSpinCount 00440c76 f   LIBCMT:initcrit.obj
 0001:0003fcd8       __local_unwind4            00440cd8 f   LIBCMT:exsup4.obj
 0001:0003fdae       __seh_longjmp_unwind4@4    00440dae f   LIBCMT:exsup4.obj
 0001:0003fdca       @_EH4_CallFilterFunc@8     00440dca f   LIBCMT:exsup4.obj
 0001:0003fde1       @_EH4_TransferToHandler@8  00440de1 f   LIBCMT:exsup4.obj
 0001:0003fdfa       @_EH4_GlobalUnwind@4       00440dfa f   LIBCMT:exsup4.obj
 0001:0003fe14       @_EH4_LocalUnwind@16       00440e14 f   LIBCMT:exsup4.obj
 0001:0003fe30       __ValidateImageBase        00440e30 f   LIBCMT:pesect.obj
 0001:0003fe70       __FindPESection            00440e70 f   LIBCMT:pesect.obj
 0001:0003fec0       __IsNonwritableInCurrentImage 00440ec0 f   LIBCMT:pesect.obj
 0001:0003ff90       _strchr                    00440f90 f   LIBCMT:strchr.obj
 0001:0003ff96       ___from_strstr_to_strchr   00440f96     LIBCMT:strchr.obj
 0001:0004004e       _strncpy_s                 0044104e f   LIBCMT:strncpy_s.obj
 0001:00040103       __calloc_impl              00441103 f   LIBCMT:calloc_impl.obj
 0001:00040221       ?_ValidateRead@@YAHPBXI@Z  00441221 f   LIBCMT:validate.obj
 0001:00040221       ?_ValidateExecute@@YAHP6GHXZ@Z 00441221 f   LIBCMT:validate.obj
 0001:00040221       ?_ValidateWrite@@YAHPAXI@Z 00441221 f   LIBCMT:validate.obj
 0001:000403ed       ___crtGetStringTypeA       004413ed f   LIBCMT:a_str.obj
 0001:0004042f       ___free_lc_time            0044142f f   LIBCMT:inittime.obj
 0001:000405c4       ___free_lconv_num          004415c4 f   LIBCMT:initnum.obj
 0001:00040609       ___free_lconv_mon          00441609 f   LIBCMT:initmon.obj
 0001:00040697       ____lc_codepage_func       00441697 f   LIBCMT:initctyp.obj
 0001:000406bd       _strcat_s                  004416bd f   LIBCMT:strcat_s.obj
 0001:00040740       _strcspn                   00441740 f   LIBCMT:strcspn.obj
 0001:00040790       _strpbrk                   00441790 f   LIBCMT:strpbrk.obj
 0001:000407d0       __lseeki64_nolock          004417d0 f   LIBCMT:lseeki64.obj
 0001:00040855       __lseeki64                 00441855 f   LIBCMT:lseeki64.obj
 0001:0004096e       __getbuf                   0044196e f   LIBCMT:_getbuf.obj
 0001:000409b7       __isatty                   004419b7 f   LIBCMT:isatty.obj
 0001:00040a1b       __wctomb_s_l               00441a1b f   LIBCMT:wctomb.obj
 0001:00040b87       _wctomb_s                  00441b87 f   LIBCMT:wctomb.obj
 0001:00040ba4       __initp_misc_winsig        00441ba4 f   LIBCMT:winsig.obj
 0001:00040bf9       ___get_sigabrt             00441bf9 f   LIBCMT:winsig.obj
 0001:00040c06       _raise                     00441c06 f   LIBCMT:winsig.obj
 0001:00040db6       ___crtMessageBoxA          00441db6 f   LIBCMT:crtmbox.obj
 0001:00040f1f       __set_error_mode           00441f1f f   LIBCMT:errmode.obj
 0001:00040f6a       __tolower_l                00441f6a f   LIBCMT:tolower.obj
 0001:0004107f       _tolower                   0044207f f   LIBCMT:tolower.obj
 0001:000410ab       __atodbl_l                 004420ab f   LIBCMT:atodbl.obj
 0001:00041153       __atoflt_l                 00442153 f   LIBCMT:atodbl.obj
 0001:000411fb       __fptostr                  004421fb f   LIBCMT:_fptostr.obj
 0001:000412ba       ___dtold                   004422ba f   LIBCMT:_cfout_.obj
 0001:00041377       __fltout2                  00442377 f   LIBCMT:_cfout_.obj
 0001:00041410       __alldvrm                  00442410 f   LIBCMT:lldvrm.obj
 0001:000414f0       __aullshr                  004424f0 f   LIBCMT:ullshr.obj
 0001:0004150f       __fptrap                   0044250f f   LIBCMT:crt0fp.obj
 0001:00041518       __controlfp_s              00442518 f   LIBCMT:_contrlfp_.obj
 0001:00041584       __initp_misc_rand_s        00442584 f   LIBCMT:rand_s.obj
 0001:00041593       _realloc                   00442593 f   LIBCMT:realloc.obj
 0001:000417ae       __recalloc                 004427ae f   LIBCMT:recalloc.obj
 0001:00041829       __getpath                  00442829 f   LIBCMT:getpath.obj
 0001:000418be       __mbsrchr_l                004428be f   LIBCMT:mbsrchr.obj
 0001:0004197a       __mbsrchr                  0044297a f   LIBCMT:mbsrchr.obj
 0001:00041991       __mbschr_l                 00442991 f   LIBCMT:mbschr.obj
 0001:00041a4d       __mbschr                   00442a4d f   LIBCMT:mbschr.obj
 0001:00041a64       __dospawn                  00442a64 f   LIBCMT:dospawn.obj
 0001:00041c73       __cenvarg                  00442c73 f   LIBCMT:cenvarg.obj
 0001:0004204c       __mbsnbicoll_l             0044304c f   LIBCMT:mbsnbico.obj
 0001:0004213a       __mbsnbicoll               0044313a f   LIBCMT:mbsnbico.obj
 0001:00042154       ___wtomb_environ           00443154 f   LIBCMT:wtombenv.obj
 0001:000421eb       ___ansicp                  004431eb f   LIBCMT:convrtcp.obj
 0001:00042234       ___convertcp               00443234 f   LIBCMT:convrtcp.obj
 0001:000423e8       __putwch_nolock            004433e8 f   LIBCMT:putwch.obj
 0001:000424ad       __mbtowc_l                 004434ad f   LIBCMT:mbtowc.obj
 0001:000425c4       _mbtowc                    004435c4 f   LIBCMT:mbtowc.obj
 0001:000425de       __ld12tod                  004435de f   LIBCMT:_intrncvt_.obj
 0001:00042b22       __ld12tof                  00443b22 f   LIBCMT:_intrncvt_.obj
 0001:00043066       ___mtold12                 00444066 f   LIBCMT:_mantold_.obj
 0001:00043234       __mbsnbcpy_s_l             00444234 f   LIBCMT:mbsnbcpy_s_l.obj
 0001:00043443       __commit                   00444443 f   LIBCMT:commit.obj
 0001:00043524       __fclose_nolock            00444524 f   LIBCMT:fclose.obj
 0001:0004359b       _fclose                    0044459b f   LIBCMT:fclose.obj
 0001:00043617       __strnicmp_l               00444617 f   LIBCMT:strnicmp.obj
 0001:00043709       __strnicmp                 00444709 f   LIBCMT:strnicmp.obj
 0001:00043767       _$I10_OUTPUT               00444767 f   LIBCMT:_x10fout_.obj
 0001:000441b9       __control87                004451b9 f i LIBCMT:_ieee87_.obj
 0001:000444c8       __mbsnicmp_l               004454c8 f   LIBCMT:mbsnicmp.obj
 0001:00044690       __mbsnicmp                 00445690 f   LIBCMT:mbsnicmp.obj
 0001:00044a38       ___crtCompareStringA       00445a38 f   LIBCMT:a_cmp.obj
 0001:00044a7a       __strnicoll_l              00445a7a f   LIBCMT:strnicol.obj
 0001:00044c20       ___crtsetenv               00445c20 f   LIBCMT:setenv.obj
 0001:00044e6b       __close_nolock             00445e6b f   LIBCMT:close.obj
 0001:00044f07       __close                    00445f07 f   LIBCMT:close.obj
 0001:00044fe0       ___ascii_strnicmp          00445fe0 f   LIBCMT:_strnicm.obj
 0001:00045041       ___set_fpsr_sse2           00446041 f   LIBCMT:_fpctrl_.obj
 0001:000450b3       __strdup                   004460b3 f   LIBCMT:strdup.obj
 0001:00045108       _RtlUnwind@16              00446108 f   kernel32:KERNEL32.dll
 0002:00000000       __imp__GetTickCount@0      00448000     kernel32:KERNEL32.dll
 0002:00000004       __imp__CloseHandle@4       00448004     kernel32:KERNEL32.dll
 0002:00000008       __imp__ReadFile@20         00448008     kernel32:KERNEL32.dll
 0002:0000000c       __imp__GetFileSize@8       0044800c     kernel32:KERNEL32.dll
 0002:00000010       __imp__OpenFile@12         00448010     kernel32:KERNEL32.dll
 0002:00000014       __imp__GetPrivateProfileIntA@16 00448014     kernel32:KERNEL32.dll
 0002:00000018       __imp__GetPrivateProfileStringA@24 00448018     kernel32:KERNEL32.dll
 0002:0000001c       __imp__SetEnvironmentVariableA@8 0044801c     kernel32:KERNEL32.dll
 0002:00000020       __imp__CompareStringW@24   00448020     kernel32:KERNEL32.dll
 0002:00000024       __imp__CompareStringA@24   00448024     kernel32:KERNEL32.dll
 0002:00000028       __imp__WriteConsoleW@20    00448028     kernel32:KERNEL32.dll
 0002:0000002c       __imp__GetConsoleOutputCP@0 0044802c     kernel32:KERNEL32.dll
 0002:00000030       __imp__CreateProcessA@40   00448030     kernel32:KERNEL32.dll
 0002:00000034       __imp__GetExitCodeProcess@8 00448034     kernel32:KERNEL32.dll
 0002:00000038       __imp__SetFilePointer@16   00448038     kernel32:KERNEL32.dll
 0002:0000003c       __imp__SetConsoleTitleA@4  0044803c     kernel32:KERNEL32.dll
 0002:00000040       __imp__SetCurrentDirectoryA@4 00448040     kernel32:KERNEL32.dll
 0002:00000044       __imp__GetModuleFileNameA@12 00448044     kernel32:KERNEL32.dll
 0002:00000048       __imp__QueryPerformanceFrequency@4 00448048     kernel32:KERNEL32.dll
 0002:0000004c       __imp__QueryPerformanceCounter@4 0044804c     kernel32:KERNEL32.dll
 0002:00000050       __imp__Sleep@4             00448050     kernel32:KERNEL32.dll
 0002:00000054       __imp__WriteFile@20        00448054     kernel32:KERNEL32.dll
 0002:00000058       __imp__InitializeCriticalSection@4 00448058     kernel32:KERNEL32.dll
 0002:0000005c       __imp__LeaveCriticalSection@4 0044805c     kernel32:KERNEL32.dll
 0002:00000060       __imp__EnterCriticalSection@4 00448060     kernel32:KERNEL32.dll
 0002:00000064       __imp__GetStdHandle@4      00448064     kernel32:KERNEL32.dll
 0002:00000068       __imp__CreateDirectoryA@8  00448068     kernel32:KERNEL32.dll
 0002:0000006c       __imp__WideCharToMultiByte@32 0044806c     kernel32:KERNEL32.dll
 0002:00000070       __imp__CreateFileA@28      00448070     kernel32:KERNEL32.dll
 0002:00000074       __imp__GetCurrentThreadId@0 00448074     kernel32:KERNEL32.dll
 0002:00000078       __imp__GetLocalTime@4      00448078     kernel32:KERNEL32.dll
 0002:0000007c       __imp__FlushFileBuffers@4  0044807c     kernel32:KERNEL32.dll
 0002:00000080       __imp__HeapAlloc@12        00448080     kernel32:KERNEL32.dll
 0002:00000084       __imp__GetProcessHeap@0    00448084     kernel32:KERNEL32.dll
 0002:00000088       __imp__IsBadReadPtr@8      00448088     kernel32:KERNEL32.dll
 0002:0000008c       __imp__HeapFree@12         0044808c     kernel32:KERNEL32.dll
 0002:00000090       __imp__WriteConsoleA@20    00448090     kernel32:KERNEL32.dll
 0002:00000094       __imp__FreeConsole@0       00448094     kernel32:KERNEL32.dll
 0002:00000098       __imp__SetConsoleMode@8    00448098     kernel32:KERNEL32.dll
 0002:0000009c       __imp__ReadConsoleInputA@16 0044809c     kernel32:KERNEL32.dll
 0002:000000a0       __imp__SetConsoleScreenBufferSize@8 004480a0     kernel32:KERNEL32.dll
 0002:000000a4       __imp__SetConsoleWindowInfo@12 004480a4     kernel32:KERNEL32.dll
 0002:000000a8       __imp__GetConsoleScreenBufferInfo@8 004480a8     kernel32:KERNEL32.dll
 0002:000000ac       __imp__GetConsoleMode@8    004480ac     kernel32:KERNEL32.dll
 0002:000000b0       __imp__AllocConsole@0      004480b0     kernel32:KERNEL32.dll
 0002:000000b4       __imp__lstrcpynA@12        004480b4     kernel32:KERNEL32.dll
 0002:000000b8       __imp__GetCurrentProcess@0 004480b8     kernel32:KERNEL32.dll
 0002:000000bc       __imp__GetCurrentProcessId@0 004480bc     kernel32:KERNEL32.dll
 0002:000000c0       __imp__GetProcAddress@8    004480c0     kernel32:KERNEL32.dll
 0002:000000c4       __imp__LoadLibraryA@4      004480c4     kernel32:KERNEL32.dll
 0002:000000c8       __imp__RaiseException@16   004480c8     kernel32:KERNEL32.dll
 0002:000000cc       __imp__SetUnhandledExceptionFilter@4 004480cc     kernel32:KERNEL32.dll
 0002:000000d0       __imp__InterlockedIncrement@4 004480d0     kernel32:KERNEL32.dll
 0002:000000d4       __imp__InterlockedDecrement@4 004480d4     kernel32:KERNEL32.dll
 0002:000000d8       __imp__InterlockedExchange@8 004480d8     kernel32:KERNEL32.dll
 0002:000000dc       __imp__DeleteCriticalSection@4 004480dc     kernel32:KERNEL32.dll
 0002:000000e0       __imp__LocalFree@4         004480e0     kernel32:KERNEL32.dll
 0002:000000e4       __imp__FormatMessageA@28   004480e4     kernel32:KERNEL32.dll
 0002:000000e8       __imp__WaitForSingleObject@8 004480e8     kernel32:KERNEL32.dll
 0002:000000ec       __imp__PostQueuedCompletionStatus@16 004480ec     kernel32:KERNEL32.dll
 0002:000000f0       __imp__InterlockedCompareExchange@12 004480f0     kernel32:KERNEL32.dll
 0002:000000f4       __imp__CreateIoCompletionPort@16 004480f4     kernel32:KERNEL32.dll
 0002:000000f8       __imp__WaitForMultipleObjects@16 004480f8     kernel32:KERNEL32.dll
 0002:000000fc       __imp__SuspendThread@4     004480fc     kernel32:KERNEL32.dll
 0002:00000100       __imp__ResumeThread@4      00448100     kernel32:KERNEL32.dll
 0002:00000104       __imp__CreateEventA@16     00448104     kernel32:KERNEL32.dll
 0002:00000108       __imp__SetEvent@4          00448108     kernel32:KERNEL32.dll
 0002:0000010c       __imp__InitializeCriticalSectionAndSpinCount@8 0044810c     kernel32:KERNEL32.dll
 0002:00000110       __imp__GetLastError@0      00448110     kernel32:KERNEL32.dll
 0002:00000114       __imp__GetQueuedCompletionStatus@20 00448114     kernel32:KERNEL32.dll
 0002:00000118       __imp__RtlUnwind@16        00448118     kernel32:KERNEL32.dll
 0002:0000011c       __imp__TerminateProcess@8  0044811c     kernel32:KERNEL32.dll
 0002:00000120       __imp__UnhandledExceptionFilter@4 00448120     kernel32:KERNEL32.dll
 0002:00000124       __imp__IsDebuggerPresent@0 00448124     kernel32:KERNEL32.dll
 0002:00000128       __imp__GetCommandLineA@0   00448128     kernel32:KERNEL32.dll
 0002:0000012c       __imp__GetStartupInfoA@4   0044812c     kernel32:KERNEL32.dll
 0002:00000130       __imp__GetSystemTimeAsFileTime@4 00448130     kernel32:KERNEL32.dll
 0002:00000134       __imp__PeekConsoleInputA@16 00448134     kernel32:KERNEL32.dll
 0002:00000138       __imp__GetNumberOfConsoleInputEvents@8 00448138     kernel32:KERNEL32.dll
 0002:0000013c       __imp__GetFileAttributesA@4 0044813c     kernel32:KERNEL32.dll
 0002:00000140       __imp__SetStdHandle@8      00448140     kernel32:KERNEL32.dll
 0002:00000144       __imp__GetFileType@4       00448144     kernel32:KERNEL32.dll
 0002:00000148       __imp__ExitThread@4        00448148     kernel32:KERNEL32.dll
 0002:0000014c       __imp__CreateThread@24     0044814c     kernel32:KERNEL32.dll
 0002:00000150       __imp__GetModuleHandleW@4  00448150     kernel32:KERNEL32.dll
 0002:00000154       __imp__TlsGetValue@4       00448154     kernel32:KERNEL32.dll
 0002:00000158       __imp__TlsAlloc@0          00448158     kernel32:KERNEL32.dll
 0002:0000015c       __imp__TlsSetValue@8       0044815c     kernel32:KERNEL32.dll
 0002:00000160       __imp__TlsFree@4           00448160     kernel32:KERNEL32.dll
 0002:00000164       __imp__SetLastError@4      00448164     kernel32:KERNEL32.dll
 0002:00000168       __imp__GetCPInfo@8         00448168     kernel32:KERNEL32.dll
 0002:0000016c       __imp__GetACP@0            0044816c     kernel32:KERNEL32.dll
 0002:00000170       __imp__GetOEMCP@0          00448170     kernel32:KERNEL32.dll
 0002:00000174       __imp__IsValidCodePage@4   00448174     kernel32:KERNEL32.dll
 0002:00000178       __imp__GetModuleHandleA@4  00448178     kernel32:KERNEL32.dll
 0002:0000017c       __imp__VirtualFree@12      0044817c     kernel32:KERNEL32.dll
 0002:00000180       __imp__VirtualAlloc@16     00448180     kernel32:KERNEL32.dll
 0002:00000184       __imp__HeapReAlloc@16      00448184     kernel32:KERNEL32.dll
 0002:00000188       __imp__HeapCreate@12       00448188     kernel32:KERNEL32.dll
 0002:0000018c       __imp__ExitProcess@4       0044818c     kernel32:KERNEL32.dll
 0002:00000190       __imp__HeapSize@12         00448190     kernel32:KERNEL32.dll
 0002:00000194       __imp__FreeEnvironmentStringsA@4 00448194     kernel32:KERNEL32.dll
 0002:00000198       __imp__GetEnvironmentStrings@0 00448198     kernel32:KERNEL32.dll
 0002:0000019c       __imp__FreeEnvironmentStringsW@4 0044819c     kernel32:KERNEL32.dll
 0002:000001a0       __imp__GetEnvironmentStringsW@0 004481a0     kernel32:KERNEL32.dll
 0002:000001a4       __imp__SetHandleCount@4    004481a4     kernel32:KERNEL32.dll
 0002:000001a8       __imp__LCMapStringA@24     004481a8     kernel32:KERNEL32.dll
 0002:000001ac       __imp__MultiByteToWideChar@24 004481ac     kernel32:KERNEL32.dll
 0002:000001b0       __imp__LCMapStringW@24     004481b0     kernel32:KERNEL32.dll
 0002:000001b4       __imp__GetConsoleCP@0      004481b4     kernel32:KERNEL32.dll
 0002:000001b8       __imp__GetTimeZoneInformation@4 004481b8     kernel32:KERNEL32.dll
 0002:000001bc       __imp__GetStringTypeA@20   004481bc     kernel32:KERNEL32.dll
 0002:000001c0       __imp__GetStringTypeW@16   004481c0     kernel32:KERNEL32.dll
 0002:000001c4       __imp__GetLocaleInfoA@16   004481c4     kernel32:KERNEL32.dll
 0002:000001c8       \177KERNEL32_NULL_THUNK_DATA 004481c8     kernel32:KERNEL32.dll
 0002:000001cc       __imp_??1SolarLog@@QAE@XZ  004481cc     SolarLog:SolarLog.dll
 0002:000001d0       __imp_?Create@SolarLog@@QAEHPAD0@Z 004481d0     SolarLog:SolarLog.dll
 0002:000001d4       __imp_??0SolarLog@@QAE@XZ  004481d4     SolarLog:SolarLog.dll
 0002:000001d8       __imp_?LOG@SolarLog@@QAEHPAEK@Z 004481d8     SolarLog:SolarLog.dll
 0002:000001dc       \177SolarLog_NULL_THUNK_DATA 004481dc     SolarLog:SolarLog.dll
 0002:000001e0       __imp__wsprintfA           004481e0     user32:USER32.dll
 0002:000001e4       \177USER32_NULL_THUNK_DATA 004481e4     user32:USER32.dll
 0002:000001e8       __imp__timeGetTime@0       004481e8     winmm:WINMM.dll
 0002:000001ec       \177WINMM_NULL_THUNK_DATA  004481ec     winmm:WINMM.dll
 0002:000001f0       __imp__WSASend@28          004481f0     ws2_32:WS2_32.dll
 0002:000001f4       __imp__inet_addr@4         004481f4     ws2_32:WS2_32.dll
 0002:000001f8       __imp__inet_ntoa@4         004481f8     ws2_32:WS2_32.dll
 0002:000001fc       __imp__htonl@4             004481fc     ws2_32:WS2_32.dll
 0002:00000200       __imp__bind@12             00448200     ws2_32:WS2_32.dll
 0002:00000204       __imp__WSACleanup@0        00448204     ws2_32:WS2_32.dll
 0002:00000208       __imp__WSAStartup@8        00448208     ws2_32:WS2_32.dll
 0002:0000020c       __imp__closesocket@4       0044820c     ws2_32:WS2_32.dll
 0002:00000210       __imp__WSAGetLastError@0   00448210     ws2_32:WS2_32.dll
 0002:00000214       __imp__connect@12          00448214     ws2_32:WS2_32.dll
 0002:00000218       __imp__WSASocketA@24       00448218     ws2_32:WS2_32.dll
 0002:0000021c       __imp__WSARecv@28          0044821c     ws2_32:WS2_32.dll
 0002:00000220       __imp__htons@4             00448220     ws2_32:WS2_32.dll
 0002:00000224       __imp__WSAIoctl@36         00448224     ws2_32:WS2_32.dll
 0002:00000228       __imp__listen@8            00448228     ws2_32:WS2_32.dll
 0002:0000022c       \177WS2_32_NULL_THUNK_DATA 0044822c     ws2_32:WS2_32.dll
 0002:00000230       ___xc_a                    00448230     LIBCMT:crt0init.obj
 0002:00000274       ___xc_z                    00448274     LIBCMT:crt0init.obj
 0002:00000278       ___xi_a                    00448278     LIBCMT:crt0init.obj
 0002:00000294       ___xi_z                    00448294     LIBCMT:crt0init.obj
 0002:00000298       ___xp_a                    00448298     LIBCMT:crt0init.obj
 0002:000002a8       ___xp_z                    004482a8     LIBCMT:crt0init.obj
 0002:000002ac       ___xt_a                    004482ac     LIBCMT:crt0init.obj
 0002:000002b0       ___xt_z                    004482b0     LIBCMT:crt0init.obj
 0002:000002dc       ?min_alloc_size@?$pool@Udefault_user_allocator_new_delete@boost@@@boost@@0IB 004482dc     AbuseStatistics.obj
 0002:000002e0       ??_C@_0DA@JDLOMIO@?$FLAbuseUser?3?3AbuseUser?$FN?5Invalid?5A@ 004482e0     AbuseUser.obj
 0002:00000310       ??_C@_0DG@OBFHNOLA@?$FLAbuseUser?3?3UpdateAbuseInfo?$FN?5Inv@ 00448310     AbuseUser.obj
 0002:00000348       ??_C@_0DM@BKMLECLK@?$CFs?5?$FLViolationCount?3?$CFu?$FN?$FLAbusingPo@ 00448348     AbuseUser.obj
 0002:00000384       ??_C@_0CM@KICHNKEA@?$FLAbuseUser?3?3ForcedDisconnect?$FN?5Di@ 00448384     AbuseUser.obj
 0002:000003b0       ??_C@_0CK@KDCFHMBP@?$FLAbuseUser?3?3TemporaryBlock?$FN?5Disc@ 004483b0     AbuseUser.obj
 0002:000003e0       ??_7bad_alloc@std@@6B@     004483e0     AbuseUserManager.obj
 0002:000003ec       ??_7IVMemoryPool@util@@6B@ 004483ec     AbuseUserManager.obj
 0002:00000400       ??_C@_0EB@HJLHOHNE@?$CF02u?7?$CF02u?7?$CF02u?7?$CF02u?7?$CFs?7?$CF?913s?7?$CF?91@ 00448400     AbuseUserManager.obj
 0002:00000444       ??_C@_02DKCKIIND@?$CFs?$AA@ 00448444     AbuseUserManager.obj
 0002:00000448       __real@4f800000            00448448     AbuseUserManager.obj
 0002:00000450       ??_7?$CMemoryPoolFactory@VAbuseUser@@@util@@6B@ 00448450     AbuseUserManager.obj
 0002:00000468       ??_7IMemoryPoolFactoryImpl@internal@util@@6B@ 00448468     AbuseUserManager.obj
 0002:00000494       ??_7?$NotUseChunkImpl@VAbuseUser@@@internal@util@@6B@ 00448494     AbuseUserManager.obj
 0002:000004c0       ??_7?$VariableSizeChunkImpl@VAbuseUser@@@internal@util@@6B@ 004484c0     AbuseUserManager.obj
 0002:000004ec       ??_7logic_error@std@@6B@   004484ec     AbuseUserManager.obj
 0002:000004f8       ??_7?$FixedSizeChunkImpl@VAbuseUser@@@internal@util@@6B@ 004484f8     AbuseUserManager.obj
 0002:00000524       ??_7length_error@std@@6B@  00448524     AbuseUserManager.obj
 0002:00000530       ??_7out_of_range@std@@6B@  00448530     AbuseUserManager.obj
 0002:00000538       ??_C@_0DA@HACOGMJM@?$FLAbuseUserManager?$FN?5IP?$FL?$CFs?$FN?5IPBloc@ 00448538     AbuseUserManager.obj
 0002:00000568       ??_C@_0FK@MFCMKMOH@?$FLAbuseUserManager?$FN?5AbuseUserNum?$FL@ 00448568     AbuseUserManager.obj
 0002:000005c4       ??_C@_0BE@JONHPENG@map?1set?$DMT?$DO?5too?5long?$AA@ 004485c4     AbuseUserManager.obj
 0002:000005d8       ??_C@_0BM@PAPJHAGI@invalid?5map?1set?$DMT?$DO?5iterator?$AA@ 004485d8     AbuseUserManager.obj
 0002:000005f4       ??_C@_0BB@MOGOBHAF@list?$DMT?$DO?5too?5long?$AA@ 004485f4     AbuseUserManager.obj
 0002:00000608       ??_C@_0BD@OLBABOEK@vector?$DMT?$DO?5too?5long?$AA@ 00448608     AbuseUserManager.obj
 0002:0000061c       __real@40800000            0044861c     AbuseUserManager.obj
 0002:00000620       ??_C@_00CNPNBAHC@?$AA@     00448620     AbuseUserManager.obj
 0002:00000624       ??_C@_0BA@KCPMIICC@IP?$FL?$CFs?$FN?5Blocked?$CB?$AA@ 00448624     AbuseUserManager.obj
 0002:00000634       ??_C@_0DD@BJBAFPDL@?$FLAbuseUserManager?3?3OnMsg?$FN?5Invali@ 00448634     AbuseUserManager.obj
 0002:00000668       __real@bff00418a0000000    00448668     CompressStreamIO.obj
 0002:00000670       ??_C@_0BD@PNCLFAOA@fileSz?5?$DN?$DN?5readedSz?$AA@ 00448670     CompressStreamIO.obj
 0002:00000684       ??_C@_0BO@GEDMHAH@INVALID_HANDLE_VALUE?5?$CB?$DN?5hFILE?$AA@ 00448684     CompressStreamIO.obj
 0002:000006a4       ??_C@_08BABJIOEM@filename?$AA@ 004486a4     CompressStreamIO.obj
 0002:000006b0       ??_C@_0M@IFDFFOCA@Z_OK?5?$DN?$DN?5err?$AA@ 004486b0     CompressStreamIO.obj
 0002:000006bc       ??_C@_0BA@NCFHAFDK@rPlainInfo?4SIZE?$AA@ 004486bc     CompressStreamIO.obj
 0002:000006d0       ??_7IWorkNode@@6B@         004486d0     MasterServerInfo.obj
 0002:000006ec       ??_7PROCESS_EXIT_PROCESS@@6B@ 004486ec     MasterServerInfo.obj
 0002:00000708       ??_7PROCESS_TIMER_PROCESS@@6B@ 00448708     MasterServerInfo.obj
 0002:00000720       ??_C@_0BH@OJJCIPGJ@Index?5Check?5WorldID?5?$CFu?$AA@ 00448720     MasterServerInfo.obj
 0002:00000738       ??_C@_0BC@EGGGLOMN@pServers?9?$DOempty?$CI?$CJ?$AA@ 00448738     MasterServerInfo.obj
 0002:00000750       ??_C@_0EG@HPAHIKAH@f?3?2SUN?2SRC_2008?2Server?2MasterSer@ 00448750     MasterServerInfo.obj
 0002:00000798       ??_C@_0CH@OPFACDHE@?$CB?$CCPROCESS_EXIT_PROCESS?3?3OnMsg?5?H?e@ 00448798     MasterServerInfo.obj
 0002:000007c0       ??_C@_0BI@OKEKPLIG@?$CB?$CC?$MA?L?$LH?$LB?5?$LA?T?5?$LP?M?$LM?$LB?5?$LO?H?$LF?G?B?$KB?$HO?$CC?$AA@ 004487c0     MasterServerInfo.obj
 0002:000007d8       ??_C@_0CC@MGJNCBBN@?$CB?$CC?A?$NP?$LK?$LJ?$LF?H?5Work?$MA?$LL?5?$LF?n?$LH?O?G?O?$LH?A?$LA?m?5?G?$NP?$LE?Y?4@ 004487d8     MasterServerInfo.obj
 0002:000007fc       ??_C@_0DL@BGALAEGI@f?3?2SUN?2SRC_2008?2Server?2Common?2Wo@ 004487fc     MasterServerInfo.obj
 0002:00000838       ??_C@_0BO@EBBBGGMN@FUNC_RESTRICT?5SET?$FL?$CFu?$FN?$FL?$CFu?$FN?$FL?$CFs?$FN?$AA@ 00448838     MasterServerInfoStruct.obj
 0002:00000858       ??_C@_0CF@CJFNDLP@Invalid?5Function?5Restrict?5Code?5I@ 00448858     MasterServerInfoStruct.obj
 0002:00000880       ??_C@_0CJ@DGNGMLBG@FUNCTIONALRESTRICT_WAREINVEN_LOC@ 00448880     MasterServerInfoStruct.obj
 0002:000008ac       ??_C@_0CL@DIIFPECE@FUNCTIONALRESTRICT_PARTY_RETURN_@ 004488ac     MasterServerInfoStruct.obj
 0002:000008d8       ??_C@_0BO@LFOBNIC@FUNCTIONALRESTRICT_GM_COMMAND?$AA@ 004488d8     MasterServerInfoStruct.obj
 0002:000008f8       ??_C@_0CA@MKLFALEP@FUNCTIONALRESTRICT_SHOP_SERVICE?$AA@ 004488f8     MasterServerInfoStruct.obj
 0002:00000918       ??_C@_0CA@CEBBJEIA@FUNCTIONALRESTRICT_BUY_SHOPITEM?$AA@ 00448918     MasterServerInfoStruct.obj
 0002:00000938       ??_C@_0CC@LJCNAJAP@FUNCTIONALRESTRICT_VENDOR_LIST_N@ 00448938     MasterServerInfoStruct.obj
 0002:0000095c       ??_C@_0CB@PGEDOOOD@FUNCTIONALRESTRICT_EXCHANGE_ITEM@ 0044895c     MasterServerInfoStruct.obj
 0002:00000980       ??_C@_0BM@MEANBAIL@FUNCTIONALRESTRICT_BUY_ITEM?$AA@ 00448980     MasterServerInfoStruct.obj
 0002:0000099c       ??_C@_0BN@JCPBKELM@FUNCTIONALRESTRICT_SELL_ITEM?$AA@ 0044899c     MasterServerInfoStruct.obj
 0002:000009bc       ??_C@_0BP@KABOFFMG@FUNCTIONALRESTRICT_REPAIR_ITEM?$AA@ 004489bc     MasterServerInfoStruct.obj
 0002:000009dc       ??_C@_0BP@MGJLOKND@FUNCTIONALRESTRICT_DIVIDE_ITEM?$AA@ 004489dc     MasterServerInfoStruct.obj
 0002:000009fc       ??_C@_0CA@HJHANJHK@FUNCTIONALRESTRICT_COMBINE_ITEM?$AA@ 004489fc     MasterServerInfoStruct.obj
 0002:00000a1c       ??_C@_0CC@DLMHEJON@FUNCTIONALRESTRICT_USE_MONSTERDR@ 00448a1c     MasterServerInfoStruct.obj
 0002:00000a40       ??_C@_0BN@DPLJIHIJ@FUNCTIONALRESTRICT_USE_GUILD?$AA@ 00448a40     MasterServerInfoStruct.obj
 0002:00000a60       ??_C@_0BO@KFGIDDCK@FUNCTIONALRESTRICT_USE_VENDOR?$AA@ 00448a60     MasterServerInfoStruct.obj
 0002:00000a80       ??_C@_0BN@NKGHGDLK@FUNCTIONALRESTRICT_USE_TRADE?$AA@ 00448a80     MasterServerInfoStruct.obj
 0002:00000aa0       ??_C@_0CB@CHMHONJJ@FUNCTIONALRESTRICT_USE_WAREHOUSE@ 00448aa0     MasterServerInfoStruct.obj
 0002:00000ac4       ??_C@_0CC@OGMJGIJI@FUNCTIONALRESTRICT_USE_EXTRASTON@ 00448ac4     MasterServerInfoStruct.obj
 0002:00000ae8       ??_C@_0BO@IKHIMPDJ@FUNCTIONALRESTRICT_CRYSTALIZE?$AA@ 00448ae8     MasterServerInfoStruct.obj
 0002:00000b08       ??_C@_0BL@FBAAFDMP@FUNCTIONALRESTRICT_COMPOSE?$AA@ 00448b08     MasterServerInfoStruct.obj
 0002:00000b24       ??_C@_0CB@BPPDPKFP@FUNCTIONALRESTRICT_EXTRACTSOCKET@ 00448b24     MasterServerInfoStruct.obj
 0002:00000b48       ??_C@_0BO@PEPKPKCE@FUNCTIONALRESTRICT_FILLSOCKET?$AA@ 00448b48     MasterServerInfoStruct.obj
 0002:00000b68       ??_C@_0BN@DOLOOCFD@FUNCTIONALRESTRICT_ADDSOCKET?$AA@ 00448b68     MasterServerInfoStruct.obj
 0002:00000b88       ??_C@_0BK@NJGCGJAP@FUNCTIONALRESTRICT_RANKUP?$AA@ 00448b88     MasterServerInfoStruct.obj
 0002:00000ba4       ??_C@_0BD@BFPJPHKI@FUNCTIONALRESTRICT?$AA@ 00448ba4     MasterServerInfoStruct.obj
 0002:00000bb8       ??_C@_0BL@PMHKIIMP@FUNCTIONALRESTRICT_ENCHANT?$AA@ 00448bb8     MasterServerInfoStruct.obj
 0002:00000bd4       ??_C@_0BD@MLHCPEMI@?4?2MasterServer?4ini?$AA@ 00448bd4     MasterServerInfoStruct.obj
 0002:00000be8       ??_C@_09CHHONCCA@node_list?$AA@ 00448be8     ServerInfoManager.obj
 0002:00000bf4       ??_C@_0DC@BOOLPCDL@channel_list?5?$CG?$CG?5channel_list?9?$DOsi@ 00448bf4     ServerInfoManager.obj
 0002:00000c28       ??_C@_0CA@DFPLJGHI@server_tree_?9?$DOsize?$CI?$CJ?5?$DO?5world_id?$AA@ 00448c28     ServerInfoManager.obj
 0002:00000c48       ??_C@_0DJ@HHIGANIE@f?3?2SUN?2SRC_2008?2Server?2MasterSer@ 00448c48     ServerInfoManager.obj
 0002:00000c84       ??_C@_0CH@EFALNDIB@?$CB?$CCCreateInstance?$LP?M?$MA?G?5?$LN?V?$MA?L?5?$LI?B?A?v?5?$LO@ 00448c84     ServerInfoManager.obj
 0002:00000cac       ??_C@_0CB@NNCFIGKI@?4?2Function?2ServerInfoManager?4cpp@ 00448cac     ServerInfoManager.obj
 0002:00000cd0       ??_C@_09GFBPGGHL@find_node?$AA@ 00448cd0     ServerInfoManager.obj
 0002:00000cdc       ??_C@_0BL@FBAJEIHG@?$CB?$CC?A?$NP?$LK?$LJ?5?H?$KD?C?b?$MA?L?5?A?$LI?$MA?g?G?U?$LE?O?$LE?Y?4?$CC?$AA@ 00448cdc     ServerInfoManager.obj
 0002:00000cf8       ??_C@_0EK@BGEIMME@?$DO?$DO?$DO?5Warning?$CB?$CB?5Duplicated?5Server?5@ 00448cf8     ServerInfoManager.obj
 0002:00000d44       ??_C@_0CE@DPJDPLAN@RTTA?5?E?k?H?$KN?$LH?$KO?5?$LK?$LI?$LA?m?5?$LK?R?$LA?$KB?$LE?I?3No?5OpSer@ 00448d44     Statistics.obj
 0002:00000d68       ??_C@_0DF@OLAKNCEJ@?E?k?H?$KN?$LH?$KO?5?E?k?$LA?h?5?$FLW?3?$CFu?$FN?$FLC?3?$CFu?$FN?5?9?5?E?k?H?$KN?$LH@ 00448d68     Statistics.obj
 0002:00000da0       ??_C@_0BK@PJFGBKNF@?$LB?b?E?$LI?5?E?k?$LA?h?5?$FLW?3?$CFu?$FN?$FLC?3?$CFu?$FN?5?9?5?$AA@ 00448da0     Statistics.obj
 0002:00000dbc       ??_C@_0CJ@DKAECHCL@Agent?5User?5Disconnect?5?$FLGUID?3?$CFu?$FN?5@ 00448dbc     Handler_AM.obj
 0002:00000de8       ??_C@_0FI@MPFJGION@Report?5CCU?5to?5RTTA?5?3?5W?$CI?$CFu?$CJC?$CI?$CFu?$CJV@ 00448de8     Handler_AM.obj
 0002:00000e40       ??_C@_05MAJJAKPI@FALSE?$AA@ 00448e40     Handler_AM.obj
 0002:00000e48       ??_C@_04HCDDPBNL@TRUE?$AA@ 00448e48     Handler_AM.obj
 0002:00000e50       ??_C@_0DI@JDKOHIPO@GM_USERMONEY_NTF?$FLW?3?$CFu?5C?3?$CFu?5S?3?$CFu?$FN@ 00448e50     Handler_GM.obj
 0002:00000e88       ??_C@_0DE@JCCGDEKD@JackpotMoney?5Recv?$FL?$CFu?1?$CFu?1?$CFu?1?$CFu?$FN?$FLC@ 00448e88     Handler_GM.obj
 0002:00000ec0       ??_C@_0EF@LCLMEHI@WareHouseMoney?5Recv?$FL?$CFu?1?$CFu?1?$CFu?1?$CFu?$FN@ 00448ec0     Handler_GM.obj
 0002:00000f08       ??_C@_0DP@BMNCHLAN@UserMoney?5Recv?$FL?$CFu?1?$CFu?1?$CFu?1?$CFu?$FN?$FLGet?3@ 00448f08     Handler_GM.obj
 0002:00000f48       ??_C@_0EG@KPMFAOBO@Statistics?5Information?5Recv?$FL?$CFu?1?$CF@ 00448f48     Handler_GM.obj
 0002:00000f90       ??_C@_0BJ@KEFJFCLG@Add?5Server?5?$CI?$CFu?1?$CFu?1?$CFu?1?$CFu?$CJ?$AA@ 00448f90     Handler_ME.obj
 0002:00000fb0       ??_C@_0EH@OCJJOBGI@DB?$LP?$KB?5IP?$CI?$CFs?$CJ?5ServerType?$CI?$CFd?$CJ?$LP?$KB?5?G?X?$LE@ 00448fb0     Handler_ME.obj
 0002:00000ff8       ??_C@_0BA@GFPNEIDA@Invalid?5ServerT?$AA@ 00448ff8     Handler_ME.obj
 0002:00001008       ??_C@_0BN@EEHACODD@USERDISCONNECT?5Send?$FLGUID?3?$CFu?$FN?$AA@ 00449008     Handler_MO.obj
 0002:00001028       ??_C@_0DI@DFOFIPG@MO_RTTG_USERDISCONNECT?5Error?5?9?5N@ 00449028     Handler_MO.obj
 0002:00001060       ??_C@_0DJ@EKOPJKNJ@FUNCRESTRICT?5Reload?5Error?5?9?5Acco@ 00449060     Handler_MO.obj
 0002:0000109c       ??_C@_0CO@LBJNDJKP@FUNCRESTRICT?5Reload?5Request?5to?5A@ 0044909c     Handler_MO.obj
 0002:000010d0       ??_C@_0EA@MLHGGAI@?$CB?$CCMO_RTTG_WAREHOUSEMONEY_REQ?5han@ 004490d0     Handler_MO.obj
 0002:00001110       ??_C@_0BP@MEPCNPMJ@?4?2PacketHandler?2Handler_MO?4cpp?$AA@ 00449110     Handler_MO.obj
 0002:00001130       ??_C@_0EA@BKGILMFJ@SERVERSHUTDOWN_REQ?5Error?5?9?5?G?X?$LE?g?5@ 00449130     Handler_MO.obj
 0002:00001170       ??_C@_0GI@GGNJBCNI@?A?$KE?$LL?s?5?A?$LO?$LH?a?5?G?A?$LH?N?E?d?D?$NN?5?$LM?v?$LN?E?$FLW?3?$CFu?1C?3?$CF@ 00449170     Handler_MO.obj
 0002:000011d8       ??_C@_0FH@KHIMPEOF@invalid?5ServerSession?5WorldID?$FL?$CFd@ 004491d8     Handler_MO.obj
 0002:00001230       ??_C@_0BJ@NMJDLIFO@GUILD?5SERVER?5NOT?5CONNECT?$AA@ 00449230     Handler_MO.obj
 0002:0000124c       ??_C@_0CO@KBJJMDIH@?$FLMO_RTTG_CHANGE_GUILDNAME_REQ?$FN?5?$FL@ 0044924c     Handler_MO.obj
 0002:0000127c       ??_C@_0DK@EBDPLFNI@worldNode?4m_pServerSession?9?$DOSend@ 0044927c     Handler_MO.obj
 0002:000012b8       ??_C@_0CH@FNFLIGEP@GUILD_NAME_CHANGE?5SendPacket?5Err@ 004492b8     Handler_MO.obj
 0002:000012e0       ??_C@_0BD@DKCHFOCH@ERROR?5GUILD?5SERVER?$AA@ 004492e0     Handler_MO.obj
 0002:000012f4       ??_C@_0CD@IKOJHMOM@NULL?5?$CB?$DN?5worldNode?4m_pServerSessi@ 004492f4     Handler_MO.obj
 0002:00001318       ??_C@_0JL@GOALBINB@MSG_MO_RTTG_CHANGE_GUILDNAME_REQ@ 00449318     Handler_MO.obj
 0002:000013b4       ??_C@_0CE@JGGNPNHK@?$FLMSG_MO_RTTG_SEND_MESSAGE_REQ?$FN?5?$FL@ 004493b4     Handler_MO.obj
 0002:000013d8       ??_C@_0EE@DAEFHNCJ@?$FLMSG_MO_RTTG_SEND_MESSAGE_REQ?$FN?5W@ 004493d8     Handler_MO.obj
 0002:00001420       ??_C@_0EB@IBOAANLB@worldNode?4m_pServerSession?9?$DOSend@ 00449420     Handler_MO.obj
 0002:00001464       ??_C@_0CE@IHGLPGPP@pMsgREQ?9?$DOm_MMemoInfo?4ChkRecvCoun@ 00449464     Handler_MO.obj
 0002:00001488       ??_C@_0FA@OAABIGCI@?$FLMSG_MO_RTTG_SEND_MESSAGE_REQ?$FN?5W@ 00449488     Handler_MO.obj
 0002:000014d8       ??_C@_0N@EDNMJGIH@UserInfo?$FL?$CFs?$FN?$AA@ 004494d8     Handler_MO.obj
 0002:000014e8       ??_C@_0JB@IFDMNENF@MSG_MO_RTTG_SEND_MESSAGE_REQ?5?F?P?E@ 004494e8     Handler_MO.obj
 0002:0000157c       ??_C@_07ODCFEJGP@2312313?$AA@ 0044957c     Handler_MO.obj
 0002:00001584       ??_C@_06HOFBCBOD@121234?$AA@ 00449584     Handler_MO.obj
 0002:0000158c       ??_C@_06MJCNBNIN@?$MA?L?$LM?v?E?C?$AA@ 0044958c     Handler_MO.obj
 0002:00001594       ??_C@_0L@JCBPJNJF@?$LI?$NO?$LI?p?E?W?$LN?$LK?F?$KO?$AA@ 00449594     Handler_MO.obj
 0002:000015a0       ??_C@_08GBDHLGKJ@?$LM?R?H?$KP?E?W?$LN?A?$AA@ 004495a0     Handler_MO.obj
 0002:000015ac       ??_C@_0P@KHAKNPHB@TEST?5SendMMemo?$AA@ 004495ac     Handler_MO.obj
 0002:000015bc       ??_C@_0N@GCMHMNLC@?$LB?f?$LF?e?E?W?$LN?A?$LP?s?$LN?$LK?$AA@ 004495bc     Handler_MO.obj
 0002:000015cc       ??_C@_0BJ@IEFEEBGI@TEST?5SendGuildNameChange?$AA@ 004495cc     Handler_MO.obj
 0002:000015e8       ??_C@_0CB@LGDAGCKO@?$LA?x?A?v?5Error?5?9?5No?5World?5Server?$FL?$CFu?$FN@ 004495e8     Handler_MO.obj
 0002:0000160c       ??_C@_0BA@LCIBGPMC@bIsOneNode?5?$DN?5?$CFd?$AA@ 0044960c     Handler_MO.obj
 0002:0000161c       ??_C@_0BH@JBMNNKHN@?$LA?x?A?v?5?$LB?f?$MA?L?5?$MA?L?$LL?s?$CB?$CI?$CFu?1?$CFu?$CJ?$AA@ 0044961c     Handler_MO.obj
 0002:00001634       ??_C@_0N@EOBGDOGA@?C?$KE?$LD?N?5ID?5?$DN?5?$CFd?$AA@ 00449634     Handler_MO.obj
 0002:00001644       ??_C@_0N@JDIEJCJJ@?$LP?y?$LF?e?5ID?5?$DN?5?$CFd?$AA@ 00449644     Handler_MO.obj
 0002:00001654       ??_C@_08EGCDNILA@DDD?5?$DN?5?$CFd?$AA@ 00449654     Handler_MO.obj
 0002:00001660       ??_C@_0BI@DDDMIFFG@?$LJ?$NO?$MA?$LK?5?$LM?$KN?$LJ?v?5UID?5?$LK?$KP?H?$KP?5?$DN?5?$CFd?$AA@ 00449660     Handler_MO.obj
 0002:00001678       ??_C@_0BD@KPDNONKF@?$LJ?$NO?$MA?$LK?5?$LM?$KN?$LJ?v?5UID?5?$DN?5?$CFd?$AA@ 00449678     Handler_MO.obj
 0002:0000168c       ??_C@_0BN@LALHGCEI@?5?$CFd?0?5?$CFd?0?5?$CFd?0?5?$CFs?0?5?$CFd?0?5?$CFd?0?5?$CFd?5?$AA@ 0044968c     Handler_MO.obj
 0002:000016ac       ??_C@_0CD@POLDMPPA@RTTA?5?$LJ?h?F?$LC?A?$LI?5?G?v?H?$LC?5?$LK?$LI?$LA?m?5?$LN?G?F?P?3No?5Da@ 004496ac     Handler_MW.obj
 0002:000016d0       ??_C@_0CP@KDFGBDGK@?$LJ?h?F?$LC?A?$LI?5?$LL?s?E?B?5?3?5W?$CI?$CFd?$CJC?$CI?$CFd?$CJV?$CI?$CFu?$CJH?$CI?$CF@ 004496d0     Handler_MW.obj
 0002:00001700       ??_C@_0EC@CKNBFPFG@?$FLMSG_MO_RTTG_SEND_MESSAGE_ANS?$FN?5W@ 00449700     Handler_MW.obj
 0002:00001744       ??_C@_0BK@JCAILJCO@Number?5of?5Server?5Info?3?5?$CFu?$AA@ 00449744     Handler_MX.obj
 0002:00001760       ??_C@_0DJ@NIBLEGIG@?$LM?$KN?$LJ?v?5?A?$KE?$LK?$LI?$LA?$KB?5?$MA?L?$LL?s?G?U?$LE?O?$LE?Y?4?5?$LO?F?$LE?O?$LI?i?5?A@ 00449760     Handler_MX.obj
 0002:0000179c       ??_C@_0CH@CPKOKNAJ@?$FLCOMPLETE?$FN?5Server?5Information?5Re@ 0044979c     Handler_MX.obj
 0002:000017c4       ??_C@_0CD@IBLMAFFE@?$FLFunction?5Restrict?5Mode?$FN?5from?5FI@ 004497c4     Handler_MX.obj
 0002:000017e8       ??_C@_0DE@POKCPBJC@Reload?5FuncRestrict?5from?5DB?5?$CG?5Br@ 004497e8     Handler_MX.obj
 0002:0000181c       ??_C@_0CK@DFEHIPJL@Func?5Restrict?5Reload?5Failed?$FLErro@ 0044981c     Handler_MX.obj
 0002:00001848       ??_C@_0EG@NPAAHIJP@?$FLMSG_MO_RTTG_CHANGE_GUILDNAME_AN@ 00449848     Handler_MZ.obj
 0002:00001890       ??_C@_0EJ@JEHHDDNE@?$FLMSG_MO_RTTG_CHANGE_GUILDNAME_AN@ 00449890     Handler_MZ.obj
 0002:000018dc       ??_C@_08LBIEHACA@DB?5ERROR?$AA@ 004498dc     Handler_MZ.obj
 0002:000018e8       ??_C@_0CK@BACNEDCC@?$LB?f?$LF?e?5?$LM?$KN?$LJ?v?$LA?$KB?5DBP?$LM?$KN?$LJ?v?$LP?M?5?$LP?$KM?$LA?a?$LF?G?$LO?n?5?$MA@ 004498e8     Handler_MZ.obj
 0002:00001914       ??_C@_0BB@GEFMKJEE@?$LB?f?$LF?e?$LI?m?5?$LA?x?$LJ?i?5?F?w?G?T?$AA@ 00449914     Handler_MZ.obj
 0002:00001928       ??_C@_0BB@BFMNICGK@?$LF?$LP?$MA?O?5?$LB?f?$LF?e?$LI?m?5?A?$LI?$MA?g?$AA@ 00449928     Handler_MZ.obj
 0002:0000193c       ??_C@_0P@HCNBBKCG@DB?5?$LN?C?$LN?$LK?E?$NL?5?$LP?$MA?$LH?y?$AA@ 0044993c     Handler_MZ.obj
 0002:0000194c       ??_C@_07CIHEOEF@DB?5?$LP?$MA?$LH?y?$AA@ 0044994c     Handler_MZ.obj
 0002:00001958       ??_7BASE_FUNC@util@@6B@    00449958     PacketHandler.obj
 0002:00001960       ??_7FUNC_GENERIC@@6B@      00449960     PacketHandler.obj
 0002:00001964       ??_C@_0DM@GHAGGLJF@?$CFs?5Handler?5Null?0?5Invalid?5Type?0?5U@ 00449964     PacketHandler.obj
 0002:000019a0       ??_C@_0DC@IJDHIJML@Can?8t?5Register?5?$CFs?5Packet?5Handler@ 004499a0     PacketHandler.obj
 0002:000019d4       ??_C@_0CB@EKCJFLNI@Invalid?5Secure?5Log?5Format?5?$HL?$CC?$CFs?$CC?$HN@ 004499d4     PacketHandler.Shared.obj
 0002:000019f8       ??_C@_0CA@BFOGFKOJ@?4?1memory_leak_Master_shared?4txt?$AA@ 004499f8     main.obj
 0002:00001a18       ??_C@_0FM@PKLGCAFO@?$FLServerSessionFactory?3?3AllocServ@ 00449a18     main.obj
 0002:00001a78       ??_C@_0FC@GGPLAJEH@?$FLServerSessionFactory?3?3FreeServe@ 00449a78     main.obj
 0002:00001acc       ??_C@_0CG@CCEPPGN@NULL?$LH?N?5ServerSession?5?G?X?A?$KG?G?O?$LH?A?$LA?m?5@ 00449acc     main.obj
 0002:00001af4       ??_C@_0CD@OLFOJPMJ@?$FLWinMain?$FN?5Server?5is?5terminated?4?4@ 00449af4     main.obj
 0002:00001b18       ??_C@_0EA@LFGEBOMC@?5?5?5?5?5?5?5?5?5?5?5?5?5?5SUN?5Online?5Master?5@ 00449b18     main.obj
 0002:00001b58       ??_C@_0EP@JFBMKEOI@?$DN?$DN?$DN?$DN?$DN?$DN?$DN?$DN?$DN?$DN?$DN?$DN?$DN?$DN?$DN?$DN?$DN?$DN?$DN?$DN?$DN?$DN?$DN?$DN?$DN?$DN?$DN?$DN?$DN?$DN?$DN?$DN@ 00449b58     main.obj
 0002:00001ba8       ??_C@_0CJ@FLNINMFG@?$FLWinMain?$FN?5Server?5Initialization?5@ 00449ba8     main.obj
 0002:00001bd4       ??_C@_0BD@OIJMLNOC@?4?1MasterServer?4ini?$AA@ 00449bd4     main.obj
 0002:00001be8       ??_C@_0NE@DHFDEIIP@?$DN?$DN?$DN?$DN?$DN?$DN?$DN?$DN?$DN?$DN?$DN?$DN?$DN?$DN?$DN?$DN?$DN?$DN?$DN?$DN?$DN?$DN?$DN?$DN?$DN?$DN?$DN?$DN?$DN?$DN?$DN?$DN@ 00449be8     main.obj
 0002:00001cbc       ??_C@_05PDJBBECF@pause?$AA@ 00449cbc     main.obj
 0002:00001cc4       ??_C@_0BD@ODPLOJDN@Invalid?5argument?$CB?6?$AA@ 00449cc4     main.obj
 0002:00001cd8       ??_C@_01LFCBOECM@?4?$AA@   00449cd8     main.obj
 0002:00001cdc       ??_C@_06OFBLDDKN@Secure?$AA@ 00449cdc     MasterServerEx.obj
 0002:00001ce4       ??_C@_0BP@OPIBMBIM@SUNLOG?4Secure?5Initializing?4?4?4?7?$AA@ 00449ce4     MasterServerEx.obj
 0002:00001d04       ??_C@_09KFAPNENC@?5Failed?$CB?6?$AA@ 00449d04     MasterServerEx.obj
 0002:00001d10       ??_C@_06MDFKKEOE@?5?$FLOK?$FN?6?$AA@ 00449d10     MasterServerEx.obj
 0002:00001d18       ??_C@_06INNNFHKM@Master?$AA@ 00449d18     MasterServerEx.obj
 0002:00001d20       ??_C@_0BP@JMFFAFOE@SUNLOG?4Master?5Initializing?4?4?4?7?$AA@ 00449d20     MasterServerEx.obj
 0002:00001d40       ??_C@_0BB@GNNLOKPE@SUN_LOGFILE_PATH?$AA@ 00449d40     MasterServerEx.obj
 0002:00001d54       ??_C@_0BC@MFDENCBO@SUN_LOGFILE_LEVEL?$AA@ 00449d54     MasterServerEx.obj
 0002:00001d68       ??_C@_07IBNALNMK@LOGFILE?$AA@ 00449d68     MasterServerEx.obj
 0002:00001d70       ??_C@_0BD@MEJDLAAO@SUN_LOGFILE_OPTION?$AA@ 00449d70     MasterServerEx.obj
 0002:00001d84       ??_C@_0BC@OGGEDGAC@All?5Data?5Loaded?$CB?6?$AA@ 00449d84     MasterServerEx.obj
 0002:00001d98       ??_C@_0BJ@PKMLGKJL@GETRESTRICTINFO_FROMFILE?$AA@ 00449d98     MasterServerEx.obj
 0002:00001db4       ??_C@_08FOPOPDIC@INTERVAL?$AA@ 00449db4     MasterServerEx.obj
 0002:00001dc0       ??_C@_0L@EOBCDADN@STATISTICS?$AA@ 00449dc0     MasterServerEx.obj
 0002:00001dcc       ??_C@_0BP@IHMINLOK@Reload?5Logic?5Violation?5Control?$AA@ 00449dcc     MasterServerEx.obj
 0002:00001dec       ??_C@_0BI@CGDILGNI@LOGIC_VIOLATION_CONTROL?$AA@ 00449dec     MasterServerEx.obj
 0002:00001e04       ??_C@_0BC@FNIPIEHB@FORCED_DISCONNECT?$AA@ 00449e04     MasterServerEx.obj
 0002:00001e18       ??_C@_06DFFPEDLC@COMMON?$AA@ 00449e18     MasterServerEx.obj
 0002:00001e20       ??_C@_0N@NPJCGKKJ@SERVICE_MODE?$AA@ 00449e20     MasterServerEx.obj
 0002:00001e30       ??_C@_0CJ@DIECJODN@?$CK?$CK?$CK?5MasterServer?5Server?5Version?5@ 00449e30     MasterServerEx.obj
 0002:00001e5c       ??_C@_0BM@PEPDKIKO@?$CK?$CK?$CK?5MasterServer?5Start?5?$CK?$CK?$CK?5?$AA@ 00449e5c     MasterServerEx.obj
 0002:00001e78       ??_C@_0BM@KLLNOBAP@?$CK?$CK?$CK?5MasterServer?5Close?5?$CK?$CK?$CK?5?$AA@ 00449e78     MasterServerEx.obj
 0002:00001e94       ??_C@_0CI@JAEIJCEK@This?5Function?5is?5enabled?5in?5DEBU@ 00449e94     MasterServerEx.obj
 0002:00001ebc       ??_C@_0CF@GKCMKJAM@Not?5Connected?5AccountDBProxy?5Ser@ 00449ebc     MasterServerEx.obj
 0002:00001ee4       ??_C@_0BO@PPKFDJAI@Request?5Server?5Information?4?4?4?$AA@ 00449ee4     MasterServerEx.obj
 0002:00001f04       ??_C@_0BN@GKPLAMGL@?$CB?$CC?$LF?$LP?$LB?b?H?$KN?5?$LJ?$KO?A?$KG?$LI?$KG?5?$LL?$PN?$LA?$KC?G?X?5?$LK?A?$LG?s?$CC?$AA@ 00449f04     MasterServerEx.obj
 0002:00001f24       ??_C@_0DA@NJODAOIE@?$CB?$CCPROCESS_SERVER_AUTHENTICATION?3@ 00449f24     MasterServerEx.obj
 0002:00001f54       ??_C@_0BJ@BHOHBKJP@?$CB?$CC?$MA?L?$LH?$LB?5?$LA?T?5?$LP?M?$LM?$LB?5?$LO?H?$LF?G?B?$KB2?$HO?$CC?$AA@ 00449f54     MasterServerEx.obj
 0002:00001f70       ??_C@_0EH@JEGODPNF@f?3?2SUN?2SRC_2008?2Server?2MasterSer@ 00449f70     MasterServerEx.obj
 0002:00001fbc       ??_7MasterServerEx@@6B@    00449fbc     MasterServerEx.obj
 0002:00001fe0       ??_C@_0P@GHFPNOJB@bad?5allocation?$AA@ 00449fe0     stdafx.obj
 0002:000021e8       ??_C@_0DE@HNCACGGL@Account?5DB?5proxy?$LP?M?5?$LP?$KM?$LA?a?5?$LN?G?F?P?$CB?5?$LP?$KM@ 0044a1e8     AccountDBProxySession.obj
 0002:0000221c       ??_C@_0P@OCAABCFG@pOwnServerInfo?$AA@ 0044a21c     GameServerSession.obj
 0002:0000222c       ??_C@_0CB@NDGENMEO@?4?2Sessions?2GameServerSession?4cpp@ 0044a22c     GameServerSession.obj
 0002:00002250       ??_C@_0CC@HBLGLOEF@?4?2Sessions?2GuildServerSession?4cp@ 0044a250     GuildServerSession.obj
 0002:00002278       ??_7?$CMemoryPoolFactory@VAgentServerSession@@@util@@6B@ 0044a278     ServerSessionManager.obj
 0002:00002290       ??_7?$CMemoryPoolFactory@VFieldServerSession@@@util@@6B@ 0044a290     ServerSessionManager.obj
 0002:000022a8       ??_7?$CMemoryPoolFactory@VBattleServerSession@@@util@@6B@ 0044a2a8     ServerSessionManager.obj
 0002:000022c0       ??_7?$CMemoryPoolFactory@VGameDBProxySession@@@util@@6B@ 0044a2c0     ServerSessionManager.obj
 0002:000022d8       ??_7?$CMemoryPoolFactory@VWorldServerSession@@@util@@6B@ 0044a2d8     ServerSessionManager.obj
 0002:000022f0       ??_7?$CMemoryPoolFactory@VGuildServerSession@@@util@@6B@ 0044a2f0     ServerSessionManager.obj
 0002:00002308       ??_7?$CMemoryPoolFactory@VAccountDBProxySession@@@util@@6B@ 0044a308     ServerSessionManager.obj
 0002:00002320       ??_7?$CMemoryPoolFactory@VOpServerSession@@@util@@6B@ 0044a320     ServerSessionManager.obj
 0002:00002338       ??_7?$CMemoryPoolFactory@VTempServerSessionEx@@@util@@6B@ 0044a338     ServerSessionManager.obj
 0002:00002350       ??_7?$CMemoryPoolFactory@VSolarAuthServerSession@@@util@@6B@ 0044a350     ServerSessionManager.obj
 0002:00002368       ??_7?$NotUseChunkImpl@VAgentServerSession@@@internal@util@@6B@ 0044a368     ServerSessionManager.obj
 0002:00002394       ??_7?$NotUseChunkImpl@VFieldServerSession@@@internal@util@@6B@ 0044a394     ServerSessionManager.obj
 0002:000023c0       ??_7?$NotUseChunkImpl@VBattleServerSession@@@internal@util@@6B@ 0044a3c0     ServerSessionManager.obj
 0002:000023ec       ??_7?$NotUseChunkImpl@VGameDBProxySession@@@internal@util@@6B@ 0044a3ec     ServerSessionManager.obj
 0002:00002418       ??_7?$NotUseChunkImpl@VWorldServerSession@@@internal@util@@6B@ 0044a418     ServerSessionManager.obj
 0002:00002444       ??_7?$NotUseChunkImpl@VGuildServerSession@@@internal@util@@6B@ 0044a444     ServerSessionManager.obj
 0002:00002470       ??_7?$NotUseChunkImpl@VAccountDBProxySession@@@internal@util@@6B@ 0044a470     ServerSessionManager.obj
 0002:0000249c       ??_7?$NotUseChunkImpl@VOpServerSession@@@internal@util@@6B@ 0044a49c     ServerSessionManager.obj
 0002:000024c8       ??_7?$NotUseChunkImpl@VTempServerSessionEx@@@internal@util@@6B@ 0044a4c8     ServerSessionManager.obj
 0002:000024f4       ??_7?$NotUseChunkImpl@VSolarAuthServerSession@@@internal@util@@6B@ 0044a4f4     ServerSessionManager.obj
 0002:00002520       ??_7?$VariableSizeChunkImpl@VSolarAuthServerSession@@@internal@util@@6B@ 0044a520     ServerSessionManager.obj
 0002:00002548       ??_C@_0DI@OAKHMJGH@index?5?$DM?5_NumberOfPoolNodes?5?$CG?$CG?5no@ 0044a548     ServerSessionManager.obj
 0002:00002580       ??_C@_0CN@DIGCKBC@f?3?2SUN?2SRC_2008?2Utility?2MemoryPo@ 0044a580     ServerSessionManager.obj
 0002:000025b4       ??_7?$FixedSizeChunkImpl@VAgentServerSession@@@internal@util@@6B@ 0044a5b4     ServerSessionManager.obj
 0002:000025e0       ??_7?$FixedSizeChunkImpl@VFieldServerSession@@@internal@util@@6B@ 0044a5e0     ServerSessionManager.obj
 0002:0000260c       ??_7?$FixedSizeChunkImpl@VBattleServerSession@@@internal@util@@6B@ 0044a60c     ServerSessionManager.obj
 0002:00002638       ??_7?$FixedSizeChunkImpl@VGameDBProxySession@@@internal@util@@6B@ 0044a638     ServerSessionManager.obj
 0002:00002664       ??_7?$FixedSizeChunkImpl@VWorldServerSession@@@internal@util@@6B@ 0044a664     ServerSessionManager.obj
 0002:00002690       ??_7?$FixedSizeChunkImpl@VGuildServerSession@@@internal@util@@6B@ 0044a690     ServerSessionManager.obj
 0002:000026bc       ??_7?$FixedSizeChunkImpl@VAccountDBProxySession@@@internal@util@@6B@ 0044a6bc     ServerSessionManager.obj
 0002:000026e8       ??_7?$FixedSizeChunkImpl@VOpServerSession@@@internal@util@@6B@ 0044a6e8     ServerSessionManager.obj
 0002:00002714       ??_7?$FixedSizeChunkImpl@VTempServerSessionEx@@@internal@util@@6B@ 0044a714     ServerSessionManager.obj
 0002:00002740       ??_7?$FixedSizeChunkImpl@VSolarAuthServerSession@@@internal@util@@6B@ 0044a740     ServerSessionManager.obj
 0002:00002768       ??_C@_0GB@BCGBDEJD@Warning?3?5?$LM?$KN?$LJ?v?E?$LA?5?A?$NP?$LK?$LJ?$CI?$CFu?1?$CFu?1?$CFu?1?$CFu@ 0044a768     ServerSessionManager.obj
 0002:000027d4       ??_7TempServerSessionEx@@6B@ 0044a7d4     ServerSessionManager.obj
 0002:0000281c       ??_7ServerSessionEx@@6B@   0044a81c     ServerSessionManager.obj
 0002:00002864       ??_7AccountDBProxySession@@6B@ 0044a864     ServerSessionManager.obj
 0002:000028ac       ??_7AgentServerSession@@6B@ 0044a8ac     ServerSessionManager.obj
 0002:000028f4       ??_7GameServerSession@@6B@ 0044a8f4     ServerSessionManager.obj
 0002:0000293c       ??_7BattleServerSession@@6B@ 0044a93c     ServerSessionManager.obj
 0002:00002984       ??_7FieldServerSession@@6B@ 0044a984     ServerSessionManager.obj
 0002:000029cc       ??_7GameDBProxySession@@6B@ 0044a9cc     ServerSessionManager.obj
 0002:00002a14       ??_7GuildServerSession@@6B@ 0044aa14     ServerSessionManager.obj
 0002:00002a5c       ??_7OpServerSession@@6B@   0044aa5c     ServerSessionManager.obj
 0002:00002aa4       ??_7WorldServerSession@@6B@ 0044aaa4     ServerSessionManager.obj
 0002:00002ae8       ??_7?$VariableSizeChunkImpl@VTempServerSessionEx@@@internal@util@@6B@ 0044aae8     ServerSessionManager.obj
 0002:00002b14       ??_7?$VariableSizeChunkImpl@VAgentServerSession@@@internal@util@@6B@ 0044ab14     ServerSessionManager.obj
 0002:00002b40       ??_7?$VariableSizeChunkImpl@VFieldServerSession@@@internal@util@@6B@ 0044ab40     ServerSessionManager.obj
 0002:00002b6c       ??_7?$VariableSizeChunkImpl@VBattleServerSession@@@internal@util@@6B@ 0044ab6c     ServerSessionManager.obj
 0002:00002b98       ??_7?$VariableSizeChunkImpl@VGameDBProxySession@@@internal@util@@6B@ 0044ab98     ServerSessionManager.obj
 0002:00002bc4       ??_7?$VariableSizeChunkImpl@VWorldServerSession@@@internal@util@@6B@ 0044abc4     ServerSessionManager.obj
 0002:00002bf0       ??_7?$VariableSizeChunkImpl@VGuildServerSession@@@internal@util@@6B@ 0044abf0     ServerSessionManager.obj
 0002:00002c1c       ??_7?$VariableSizeChunkImpl@VAccountDBProxySession@@@internal@util@@6B@ 0044ac1c     ServerSessionManager.obj
 0002:00002c48       ??_7?$VariableSizeChunkImpl@VOpServerSession@@@internal@util@@6B@ 0044ac48     ServerSessionManager.obj
 0002:00002c70       ??_C@_0DI@OHKMNKGI@?$CB?$CCMasterServer?$LL?s?E?B?$LP?$KB?$LM?$KN?5?$MA?L?$LA?w?$LP?$KB?5?$LF?i@ 0044ac70     SolarAuthServerSession.obj
 0002:00002ca8       ??_C@_0BF@LDIPOCIE@wSize?5?$CG?$CG?5wSize?$DM16000?$AA@ 0044aca8     SolarAuthServerSession.obj
 0002:00002cc0       ??_C@_0CG@NJECGLPH@?4?2Sessions?2SolarAuthServerSessio@ 0044acc0     SolarAuthServerSession.obj
 0002:00002ce8       ??_C@_0L@HLCMCNGB@?$CB?$CC?G?c?G?c?4?4?4?$CC?$AA@ 0044ace8     SolarAuthServerSession.obj
 0002:00002cf4       ??_C@_0BJ@LCJNDFKH@?$CB?$CC?F?P?E?$LG?5?$LO?O?H?$KD?H?$KN?5?$LN?C?$MA?$NL?5?$LN?G?F?P?$CC?$AA@ 0044acf4     SolarAuthServerSession.obj
 0002:00002d14       ??_7SolarAuthServerSession@@6B@ 0044ad14     SolarAuthServerSession.obj
 0002:00002d64       ??_7SolarAuthServerSessionCrypted@@6B@ 0044ad64     SolarAuthServerSession.obj
 0002:00002dac       ??_C@_0O@CLFKEFIF@Parser?5Failed?$AA@ 0044adac     MasterScriptParserManager.obj
 0002:00002dbc       ??_C@_0BH@MOECAENM@data?2AbusingOption?4txt?$AA@ 0044adbc     MasterScriptParserManager.obj
 0002:00002dd8       ??_C@_0FG@MGGOPEGG@ScriptDataManager?3?3DataStreamCom@ 0044add8     MasterScriptParserManager.obj
 0002:00002e30       ??_C@_0DC@OHPMIIAH@CompressStreamIO?3?3Uncompress?$CIrCo@ 0044ae30     MasterScriptParserManager.obj
 0002:00002e64       ??_C@_0BL@DJKJODAO@rINFO?4CompressSz?5?$DN?$DN?5dwSize?$AA@ 0044ae64     MasterScriptParserManager.obj
 0002:00002e80       ??_C@_0CD@LKAHCAPM@Can?8t?5Convert?5ScriptStream?5?$FL?$CFu?$FN?5@ 0044ae80     MasterScriptParserManager.obj
 0002:00002ea4       ??_C@_07IJJFDDEK@?$CB?$CCFind?$CC?$AA@ 0044aea4     MasterScriptParserManager.obj
 0002:00002eb0       ??_7ICompressConverter@@6B@ 0044aeb0     MasterScriptParserManager.obj
 0002:00002ecc       ??_7IParserInMaster@@6B@   0044aecc     MasterScriptParserManager.obj
 0002:00002ee8       ??_7MasterScriptParserManager@@6B@ 0044aee8     MasterScriptParserManager.obj
 0002:000030f8       ??_C@_0EO@FOFCAMFM@?$FLAbusingOptionParser?$FN?5abuse_type@ 0044b0f8     servercommon:AbusingOptionParser.obj
 0002:00003148       ??_C@_0BA@DJCLEMF@MaxAbusingPoint?$AA@ 0044b148     servercommon:AbusingOptionParser.obj
 0002:00003158       ??_C@_0BA@KKKBDMFO@IncAbusingPoint?$AA@ 0044b158     servercommon:AbusingOptionParser.obj
 0002:00003168       ??_C@_0P@NIOIOBDL@MilestoneCount?$AA@ 0044b168     servercommon:AbusingOptionParser.obj
 0002:00003178       ??_C@_05KOHFLOFG@Level?$AA@ 0044b178     servercommon:AbusingOptionParser.obj
 0002:00003180       ??_C@_0M@PIFCIDCI@bDisconnect?$AA@ 0044b180     servercommon:AbusingOptionParser.obj
 0002:0000318c       ??_C@_0BA@PNAMBGBO@szViolationName?$AA@ 0044b18c     servercommon:AbusingOptionParser.obj
 0002:0000319c       ??_C@_0P@JHBPGEPK@szCategoryName?$AA@ 0044b19c     servercommon:AbusingOptionParser.obj
 0002:000031ac       ??_C@_0BN@NADPDMHG@?$CB?$CC?$LF?$KF?$MA?L?E?M?$LP?$KB?5?$LP?$MA?$LH?y?$LA?$KB?5?$MA?V?$LN?$MA?$LE?O?$LE?Y?4?$CC?$AA@ 0044b1ac     servercommon:AbusingOptionParser.obj
 0002:000031cc       ??_C@_0BK@BKBNNIKC@?4?2AbusingOptionParser?4cpp?$AA@ 0044b1cc     servercommon:AbusingOptionParser.obj
 0002:000031e8       ??_C@_0EI@OJMPBDCE@Script?5File?5Data?5Error?0?5File?5?$DN?5?$CF@ 0044b1e8     servercommon:AbusingOptionParser.obj
 0002:00003230       ??_C@_0N@GHBMNDFC@AbuseSubType?$AA@ 0044b230     servercommon:AbusingOptionParser.obj
 0002:00003240       ??_C@_09OJEOOIDB@AbuseType?$AA@ 0044b240     servercommon:AbusingOptionParser.obj
 0002:00003250       ??_7AbusingOptionParser@@6B@ 0044b250     servercommon:AbusingOptionParser.obj
 0002:00003460       ??_C@_0BA@BMAICKCL@CATE_CONNECTION?$AA@ 0044b460     servercommon:SunLog.Interfaces.obj
 0002:00003470       ??_C@_0O@CHEFGFA@CLIENT_SERVER?$AA@ 0044b470     servercommon:ServerGlobal.obj
 0002:00003480       ??_C@_0P@LDKCKHGE@BILLING_SERVER?$AA@ 0044b480     servercommon:ServerGlobal.obj
 0002:00003490       ??_C@_0BD@KIJAJGDN@LOGIN_FRONT_SERVER?$AA@ 0044b490     servercommon:ServerGlobal.obj
 0002:000034a4       ??_C@_0M@GAHHABPD@AUTH_SERVER?$AA@ 0044b4a4     servercommon:ServerGlobal.obj
 0002:000034b0       ??_C@_0M@LLJBFOCP@GAME_SERVER?$AA@ 0044b4b0     servercommon:ServerGlobal.obj
 0002:000034bc       ??_C@_0M@JGJJBFJP@TEMP_SERVER?$AA@ 0044b4bc     servercommon:ServerGlobal.obj
 0002:000034c8       ??_C@_09JCFBLPGF@OP_SERVER?$AA@ 0044b4c8     servercommon:ServerGlobal.obj
 0002:000034d4       ??_C@_0M@CNGAGBCK@SHOP_SERVER?$AA@ 0044b4d4     servercommon:ServerGlobal.obj
 0002:000034e0       ??_C@_0BB@FBDKEGMI@SOLARAUTH_SERVER?$AA@ 0044b4e0     servercommon:ServerGlobal.obj
 0002:000034f4       ??_C@_0O@FBIMMKDE@PORTAL_SERVER?$AA@ 0044b4f4     servercommon:ServerGlobal.obj
 0002:00003504       ??_C@_0BC@KEPCBLGG@AUTH_AGENT_SERVER?$AA@ 0044b504     servercommon:ServerGlobal.obj
 0002:00003518       ??_C@_0BC@NHFJCGAO@TOURNAMENT_SERVER?$AA@ 0044b518     servercommon:ServerGlobal.obj
 0002:0000352c       ??_C@_0BA@CILMAOHE@ACCOUNT_DBPROXY?$AA@ 0044b52c     servercommon:ServerGlobal.obj
 0002:0000353c       ??_C@_0N@KNJHKEGK@GUILD_SERVER?$AA@ 0044b53c     servercommon:ServerGlobal.obj
 0002:0000354c       ??_C@_0O@IMGOPPEF@MASTER_SERVER?$AA@ 0044b54c     servercommon:ServerGlobal.obj
 0002:0000355c       ??_C@_0N@HCGIEEKC@WORLD_SERVER?$AA@ 0044b55c     servercommon:ServerGlobal.obj
 0002:0000356c       ??_C@_0N@KJKICONP@GAME_DBPROXY?$AA@ 0044b56c     servercommon:ServerGlobal.obj
 0002:0000357c       ??_C@_0O@JKNGKGEO@BATTLE_SERVER?$AA@ 0044b57c     servercommon:ServerGlobal.obj
 0002:0000358c       ??_C@_0N@HDAJEPFF@FIELD_SERVER?$AA@ 0044b58c     servercommon:ServerGlobal.obj
 0002:0000359c       ??_C@_0N@EPHOAIFP@AGENT_SERVER?$AA@ 0044b59c     servercommon:ServerGlobal.obj
 0002:000035ac       ??_C@_0P@HOJNDAM@UNKNOWN_SERVER?$AA@ 0044b5ac     servercommon:ServerGlobal.obj
 0002:000035c0       ??_C@_0ED@OEGFFIKE@?$CFs?9?$CFs?9?$CFs?9?$CIVer?3?$CFu?9?$CFu?9?$CFu?$CJ?0Build?3?$CI?$CF@ 0044b5c0     servercommon:ServerGlobal.obj
 0002:00003604       ??_C@_05KOLFGEDA@DEBUG?$AA@ 0044b604     servercommon:ServerGlobal.obj
 0002:0000360c       ??_C@_08EMDHMFNE@TESTLIVE?$AA@ 0044b60c     servercommon:ServerGlobal.obj
 0002:00003618       ??_C@_04KHPNEDFP@LIVE?$AA@ 0044b618     servercommon:ServerGlobal.obj
 0002:00003620       ??_C@_0M@BINNFMP@INTRAOFFICE?$AA@ 0044b620     servercommon:ServerGlobal.obj
 0002:0000362c       ??_C@_03FAHNFKHA@DEV?$AA@  0044b62c     servercommon:ServerGlobal.obj
 0002:00003630       ??_C@_07NFANNNEC@UNKNOWN?$AA@ 0044b630     servercommon:ServerGlobal.obj
 0002:00003638       ??_C@_07LDDIIHCM@RELEASE?$AA@ 0044b638     servercommon:ServerGlobal.obj
 0002:00003640       ??_C@_0BN@NCJAHCEF@Current?5Work?5Directory?5?$DN?5?$CFs?6?$AA@ 0044b640     servercommon:ServerGlobal.obj
 0002:00003858       ??_C@_09JOJMEOME@SUCCESS?$CB?6?$AA@ 0044b858     servercommon:ServerFrame.obj
 0002:00003864       ??_C@_08LPEFHFBM@FAILED?$CB?6?$AA@ 0044b864     servercommon:ServerFrame.obj
 0002:00003870       ??_C@_0CD@EMAPKKEP@?$FLListen?$FN?5Starting?5listen?$CI?$CFs?3?$CFd?$CJ?4@ 0044b870     servercommon:ServerFrame.obj
 0002:00003894       ??_C@_0CA@LNPDLONP@?$FLWarning?$CB?$CB?$CB?5Frame?5Rate?5Low?$FL?$CFd?$FN?6?$AA@ 0044b894     servercommon:ServerFrame.obj
 0002:000038b4       ??_C@_0DO@EKICPBDN@?$DN?$DN?$DN?$DN?$DN?$DN?$DN?$DN?$DN?$DN?$DN?$DN?$DN?$DN?$DN?$DN?$DN?$DN?$DN?$DN?$DN?$DN?$DN?$DN?$DN?$DN?$DN?$DN?$DN?$DN?$DN?$DN@ 0044b8b4     servercommon:ServerFrame.obj
 0002:000038f4       ??_C@_0BF@HJOBFOF@NUMBER_OF_IO_THREADS?$AA@ 0044b8f4     servercommon:ServerFrame.obj
 0002:0000390c       ??_C@_0BK@OOEKLBCM@NUMBER_OF_CONNECT_THREADS?$AA@ 0044b90c     servercommon:ServerFrame.obj
 0002:00003928       ??_C@_0BJ@JLEKNJOM@NUMBER_OF_ACCEPT_THREADS?$AA@ 0044b928     servercommon:ServerFrame.obj
 0002:00003944       ??_C@_08LHEHMJPB@TIME_OUT?$AA@ 0044b944     servercommon:ServerFrame.obj
 0002:00003950       ??_C@_0BA@EBJKCDKM@MAX_PACKET_SIZE?$AA@ 0044b950     servercommon:ServerFrame.obj
 0002:00003960       ??_C@_0BB@GAFBFDFH@RECV_BUFFER_SIZE?$AA@ 0044b960     servercommon:ServerFrame.obj
 0002:00003974       ??_C@_0BB@JMCFBCNJ@SEND_BUFFER_SIZE?$AA@ 0044b974     servercommon:ServerFrame.obj
 0002:00003988       ??_C@_0BE@IDGCOPPA@MAX_CONNECT_SESSION?$AA@ 0044b988     servercommon:ServerFrame.obj
 0002:0000399c       ??_C@_0BD@KIFJHELM@MAX_ACCEPT_SESSION?$AA@ 0044b99c     servercommon:ServerFrame.obj
 0002:000039b0       ??_C@_0CL@BHBLBHDN@AssertionMessage?3?5?$CFs?5?$FLfile?3?5?$CFs?5?3@ 0044b9b0     servercommon:ServerFrame.obj
 0002:000039e0       ??_C@_0GF@GHBDHHJB@?$FLMemory?5Report?$FN?$HMRelease?5resource@ 0044b9e0     servercommon:ServerFrame.obj
 0002:00003a48       ??_C@_0BM@FDKOEACE@?$CBpNetObject?9?$DOIsConnecting?$CI?$CJ?$AA@ 0044ba48     servercommon:ServerFrame.obj
 0002:00003a64       ??_C@_0O@LLAJJOCK@m_pIOCPServer?$AA@ 0044ba64     servercommon:ServerFrame.obj
 0002:00003a74       ??_C@_0L@PNAAHKOF@pNetObject?$AA@ 0044ba74     servercommon:ServerFrame.obj
 0002:00003a80       ??_C@_0BC@FLEDPKMF@?4?2ServerFrame?4cpp?$AA@ 0044ba80     servercommon:ServerFrame.obj
 0002:00003a94       ??_C@_0BJ@FHLFMIJK@?$CBpSession?9?$DOIsConnected?$CI?$CJ?$AA@ 0044ba94     servercommon:ServerFrame.obj
 0002:00003ab0       ??_C@_0CB@HCBOHMFK@?$DO?$DO?5Warning?3?5Not?5connected?5to?5?$CFs?6@ 0044bab0     servercommon:ServerFrame.obj
 0002:00003ad4       ??_C@_0BK@JHPPMMEL@Client?5Connections?7?7?3?5?$CFd?6?$AA@ 0044bad4     servercommon:ServerFrame.obj
 0002:00003af0       ??_C@_0BK@EAMEEPNG@Server?5Connections?7?7?3?5?$CFd?6?$AA@ 0044baf0     servercommon:ServerFrame.obj
 0002:00003b0c       ??_C@_0BI@IIKELJKK@Frame?5Per?5Second?7?7?3?5?$CFd?6?$AA@ 0044bb0c     servercommon:ServerFrame.obj
 0002:00003b24       ??_C@_0CC@BBHIDBKJ@?$DN?$DN?$DN?$DN?$DN?$DN?$DN?$DN?$DN?$DN?$DN?$DN?$DN?$DN?5?$CFs?5?$DN?$DN?$DN?$DN?$DN?$DN?$DN?$DN?$DN?$DN?$DN?$DN?$DN?$DN@ 0044bb24     servercommon:ServerFrame.obj
 0002:00003b48       ??_C@_0BJ@MNMACKBF@Client?5Connections?7?7?3?5?$CFd?$AA@ 0044bb48     servercommon:ServerFrame.obj
 0002:00003b64       ??_C@_0BJ@PLJBFJPE@Server?5Connections?7?7?3?5?$CFd?$AA@ 0044bb64     servercommon:ServerFrame.obj
 0002:00003b80       ??_C@_0BH@EMDGKFMG@Frame?5Per?5Second?7?7?3?5?$CFd?$AA@ 0044bb80     servercommon:ServerFrame.obj
 0002:00003b98       ??_C@_0CB@JJOPBMMF@?$DN?$DN?$DN?$DN?$DN?$DN?$DN?$DN?$DN?$DN?$DN?$DN?$DN?$DN?5?$CFs?5?$DN?$DN?$DN?$DN?$DN?$DN?$DN?$DN?$DN?$DN?$DN?$DN?$DN?$DN@ 0044bb98     servercommon:ServerFrame.obj
 0002:00003bc0       ??_C@_0EC@JMAMGNNO@?$DN?$DN?$DN?$DN?$DN?$DN?$DN?$DN?$DN?$DN?$DN?$DN?$DN?$DN?$DN?$DN?$DN?$DN?$DN?$DN?$DN?$DN?$DN?$DN?$DN?$DN?$DN?$DN?$DN?$DN?$DN?$DN@ 0044bbc0     servercommon:ServerFrame.obj
 0002:00003c04       ??_C@_0CA@KLNOGAEC@?5Connected?5Server?5Counts?5?3?5?$CF3d?6?$AA@ 0044bc04     servercommon:ServerFrame.obj
 0002:00003c24       ??_C@_0CB@JPIAHHPB@?$FL?$CF02u?$FN?5?$CF?924s?3?5?5?$CFu?4?$CFu?4?$CFu?4?$CFu?3?$CF05u?6@ 0044bc24     servercommon:ServerFrame.obj
 0002:00003c48       ??_C@_0BL@JOEMAOAP@?$FL?$CF02u?$FN?5?$CF?924s?3?5?5?$CF?916s?3?$CF05u?6?$AA@ 0044bc48     servercommon:ServerFrame.obj
 0002:00003c68       ??_C@_0EB@NLLJINAF@?$DN?$DN?$DN?$DN?$DN?$DN?$DN?$DN?$DN?$DN?$DN?$DN?$DN?$DN?$DN?$DN?$DN?$DN?$DN?5?5Connected?5S@ 0044bc68     servercommon:ServerFrame.obj
 0002:00003cac       ??_C@_0CN@LCHNOAMF@Press?5?8ESC?8?5Key?0?5Start?5Server?5Te@ 0044bcac     servercommon:ServerFrame.obj
 0002:00003ce0       ??_7ServerFrame@@6B@       0044bce0     servercommon:ServerFrame.obj
 0002:00003d04       ??_C@_09NEMMNGIP@rt?4second?$AA@ 0044bd04     servercommon:ServerFrame.obj
 0002:00003d10       ??_C@_0BL@JBGOLBON@ServerType?$FL?$CFd?$FN?5wPort?5is?50?$CB?$AA@ 0044bd10     servercommon:ServerFrame.obj
 0002:00003d2c       ??_C@_0DB@CKOHPKL@wPort?5?$CB?$DN?50?5?$CG?$CG?5?$CC?5?F?w?F?$KO?$LA?$KB?50?$MA?T?$LE?O?$LE?Y?4S@ 0044bd2c     servercommon:ServerFrame.obj
 0002:00003d60       ??_C@_0DJ@KOGDNFPC@pSession?5?$CG?$CG?5?$CC?$LM?$KN?$LJ?v?E?$LI?$MA?T?$MA?L?5?$MA?$NP?$LI?x?$LF?G?$LO?z@ 0044bd60     servercommon:ServerFrame.obj
 0002:00003d9c       ??_C@_0P@NIHGLCCD@MANUAL_CONNECT?$AA@ 0044bd9c     servercommon:ServerFrame.obj
 0002:00003dac       ??_C@_04KDPJLEDB@TYPE?$AA@ 0044bdac     servercommon:ServerFrame.obj
 0002:00003db4       ??_C@_04HDFGONMM@PORT?$AA@ 0044bdb4     servercommon:ServerFrame.obj
 0002:00003dbc       ??_C@_02MFEOMNPG@IP?$AA@   0044bdbc     servercommon:ServerFrame.obj
 0002:00003dc0       ??_C@_0O@POMKBDPG@CONNECTION_?$CFd?$AA@ 0044bdc0     servercommon:ServerFrame.obj
 0002:00003dd0       ??_C@_0P@KJOLPHNJ@CONEECTION_NUM?$AA@ 0044bdd0     servercommon:ServerFrame.obj
 0002:00003de0       ??_C@_0M@JDFMPMAA@AUTO_LISTEN?$AA@ 0044bde0     servercommon:ServerFrame.obj
 0002:00003dec       ??_C@_0BB@JHOMHAMA@CLIENT_IOHANDLER?$AA@ 0044bdec     servercommon:ServerFrame.obj
 0002:00003e00       ??_C@_0CH@PKICADOO@desc?$FLnHandler?$FN?4dwMaxPacketSize?5?$DO@ 0044be00     servercommon:ServerFrame.obj
 0002:00003e28       ??_C@_0BB@NFHHNNCG@SERVER_IOHANDLER?$AA@ 0044be28     servercommon:ServerFrame.obj
 0002:00003e3c       ??_C@_0BG@OFCBKKPH@IOCP?5Initialize?4?4?4?4?4?4?$AA@ 0044be3c     servercommon:ServerFrame.obj
 0002:00003e58       ??_C@_0EC@PAPGPOCI@?7?$FLATTRIBUTES?$FN?5RECONNECT_DELAY_TI@ 0044be58     servercommon:ServerFrame.obj
 0002:00003e9c       ??_C@_0DO@HIGKOJJB@?7?$FLATTRIBUTES?$FN?5Check?5value?5?3?5SERV@ 0044be9c     servercommon:ServerFrame.obj
 0002:00003edc       ??_C@_0CD@PMNAEOOJ@?7?$FLATTRIBUTES?$FN?5Is?5exact?5tab?5name?$DP@ 0044bedc     servercommon:ServerFrame.obj
 0002:00003f00       ??_C@_0BM@EOMPOOP@Please?5Check?5xxxServer?4ini?6?$AA@ 0044bf00     servercommon:ServerFrame.obj
 0002:00003f1c       ??_C@_0BF@FOMHOBCB@RECONNECT_DELAY_TIME?$AA@ 0044bf1c     servercommon:ServerFrame.obj
 0002:00003f34       ??_C@_0BA@LOHPHMMO@IO_HANDLER_MASK?$AA@ 0044bf34     servercommon:ServerFrame.obj
 0002:00003f44       ??_C@_0BJ@DKELMEGC@GET_SERVERINFO_FROM_FILE?$AA@ 0044bf44     servercommon:ServerFrame.obj
 0002:00003f60       ??_C@_0L@MLKEEIPA@ATTRIBUTES?$AA@ 0044bf60     servercommon:ServerFrame.obj
 0002:00003f6c       ??_C@_0M@GFBPKOLC@SERVER_MODE?$AA@ 0044bf6c     servercommon:ServerFrame.obj
 0002:00003f78       ??_C@_0L@NNBLGNNK@pIWorkNode?$AA@ 0044bf78     servercommon:WorkLoadManager.obj
 0002:00003f84       ??_C@_0BP@JJMLFDCL@?4?2WorkLoad?2WorkLoadManager?4cpp?$AA@ 0044bf84     servercommon:WorkLoadManager.obj
 0002:000041a0       ??_C@_0P@IHCKHKME@WRONG?5CHARNAME?$AA@ 0044c1a0     servercommon:ServerStruct.obj
 0002:000041b0       ??_C@_09HIMPIJJ@DB?5FAILED?$AA@ 0044c1b0     servercommon:ServerStruct.obj
 0002:000041bc       ??_C@_0BA@ICFBAMKL@WRONG?5RECVNAMES?$AA@ 0044c1bc     servercommon:ServerStruct.obj
 0002:000041cc       ??_C@_0BJ@GMPGKCKJ@SERVER?5SEND?5PACKET?5ERROR?$AA@ 0044c1cc     servercommon:ServerStruct.obj
 0002:000041ec       ??_7CSunLog@@6B@           0044c1ec     servercommon:SunLog.obj
 0002:000041f0       ??_C@_0DC@FHHLKBL@FAILED?5LOGGING?5IO?7Handle?5?$FL?$CFu?$FN?3PT@ 0044c1f0     servercommon:SunLog.obj
 0002:00004224       ??_C@_04LIFAFMCE@?$FL?$CFs?$FN?$AA@ 0044c224     servercommon:SunLog.obj
 0002:0000422c       ??_C@_0BO@GIGHDGCH@?$FL?$CF04d?$CF02d?$CF02d_?$CF02d?3?$CF02d?3?$CF02d?$FN?$AA@ 0044c22c     servercommon:SunLog.obj
 0002:0000424c       ??_C@_0BC@NGBHFLFM@g_pSUNLOG?5?$DN?$DN?5NULL?$AA@ 0044c24c     servercommon:SunLog.obj
 0002:00004260       ??_C@_0N@NPGOEKBI@?4?2SunLog?4cpp?$AA@ 0044c260     servercommon:SunLog.obj
 0002:00004270       ??_C@_0BC@PNADHPDI@g_pSUNLOG?5?$CB?$DN?5NULL?$AA@ 0044c270     servercommon:SunLog.obj
 0002:00004284       ??_C@_0DP@FLOGFMII@CSunLog?5Initialization?5Failed?$CB?5C@ 0044c284     servercommon:SunLog.obj
 0002:000042c8       ??_C@_0EC@MFEJJFJG@CSunLog?5Initialization?5Failed?$CB?5C@ 0044c2c8     servercommon:SunLog.obj
 0002:0000430c       ??_C@_0BI@OELKKAKL@?$CB?$CCCan?8t?5Create?5LogFile?$CC?$AA@ 0044c30c     servercommon:SunLog.obj
 0002:00004324       ??_C@_0CC@PMMACCB@CreateDirectory?5Fail?0?5path?5?$DN?5?$CFs?5@ 0044c324     servercommon:SunLog.obj
 0002:00004348       ??_C@_06OJHGLDPL@?$CInull?$CJ?$AA@ 0044c348     servercommon:SunLog.obj
 0002:00004350       ??_C@_0L@DPGIJBEM@CONNECTION?$AA@ 0044c350     servercommon:SunLog.obj
 0002:0000435c       ??_C@_09KJOLCADJ@WAREHOUSE?$AA@ 0044c35c     servercommon:SunLog.obj
 0002:00004368       ??_C@_05ECMECJBC@TRADE?$AA@ 0044c368     servercommon:SunLog.obj
 0002:00004370       ??_C@_04BLNHNEEM@ITEM?$AA@ 0044c370     servercommon:SunLog.obj
 0002:00004378       ??_C@_07PPFPLHID@MISSION?$AA@ 0044c378     servercommon:SunLog.obj
 0002:00004380       ??_C@_07KMKOMEFF@ABUSING?$AA@ 0044c380     servercommon:SunLog.obj
 0002:00004388       ??_C@_0L@BJPOGJHN@DATARELOAD?$AA@ 0044c388     servercommon:SunLog.obj
 0002:00004590       ??_C@_0BL@EAFGPIBE@?$FLSessionLog?$FN?5Server?$FL?$CFs?$FN?5?$CFs?$AA@ 0044c590     servercommon:ServerSession.obj
 0002:000045b4       ??_7ServerSession@@6B@     0044c5b4     servercommon:ServerSession.obj
 0002:000045f4       ??_C@_0CM@FIHMJAHN@f?3?2sun?2src_2008?2server?2common?2Se@ 0044c5f4     servercommon:ServerSession.obj
 0002:00004620       ??_C@_0CC@GEOBJHAI@?$FLOnRedirect?$FN?$FL?$CFu?$FN?5?$CFs?$FL?$CFs?$FN?5Redirect@ 0044c620     servercommon:ServerSession.obj
 0002:00004644       ??_C@_0CG@FOFKCLC@?$FLOnAccept?$FN?$FL?$CFu?$FN?5?$CFs?$FL?$CFs?$FN?5Accept?5Suc@ 0044c644     servercommon:ServerSession.obj
 0002:0000466c       ??_C@_0CE@KHGKEFIB@?$FLOnConnect?$FN?$FL?$CFu?$FN?5?$CFs?5Connect?5Succe@ 0044c66c     servercommon:ServerSession.obj
 0002:00004690       ??_C@_0CG@BKKKJDBD@?$FLOnDisconnect?$FN?$FL?$CFu?$FN?5?$CFs?$FL?$CFs?$FN?5Discon@ 0044c690     servercommon:ServerSession.obj
 0002:000048b4       ??_7TempServerSession@@6B@ 0044c8b4     servercommon:TempServerSession.obj
 0002:000048f4       ??_C@_0DF@LMCDAMLN@?$HM?$FLTempServerSession?3?3OnRecv?$FN?$HMMsg@ 0044c8f4     servercommon:TempServerSession.obj
 0002:00004930       ??_C@_0FK@JGPLHIGE@?$HM?$FLTempServerSession?3?3OnRecv?$FN?$HMMsg@ 0044c930     servercommon:TempServerSession.obj
 0002:0000498c       ??_C@_0BC@PNGNGNAH@m_bFirst?5?$CB?$DN?5false?$AA@ 0044c98c     servercommon:TempServerSession.obj
 0002:000049a0       ??_C@_0BI@LBGHCCCM@?4?2TempServerSession?4cpp?$AA@ 0044c9a0     servercommon:TempServerSession.obj
 0002:000049b8       ??_C@_0BL@MCAEPHPM@?$CB?$CC?E?$KL?5?$MA?O?$MA?L?$LE?Y?4?5?$LJ?v?F?$NL?$LA?$KB?5?$LO?x?$LE?Y?$CB?$CC?$AA@ 0044c9b8     servercommon:ScriptDataManager.obj
 0002:000049d4       ??_C@_0DE@PPBEIMMF@?$CB?$CC?$LP?O?$LH?a?$LF?G?A?v?5?$LO?J?$MA?$LK?5?$LN?$LK?E?$KJ?$LI?$LD?F?$KO?5?$LF?$KF?$MA?L?E?M?$LI@ 0044c9d4     servercommon:ScriptDataManager.obj
 0002:00004a08       ??_C@_0BI@BLAOFKBK@?4?2ScriptDataManager?4cpp?$AA@ 0044ca08     servercommon:ScriptDataManager.obj
 0002:00004a20       ??_C@_0CH@FCMFDNML@?$CB?$CCMoveEmptyToLoading?5?$LF?$LP?$LB?b?H?$KN?5?$LL?l?F?l@ 0044ca20     servercommon:ScriptDataManager.obj
 0002:00004a48       ??_C@_0CH@EABNAOCN@?$CB?$CCMoveLoadingToEmpty?5?$LF?$LP?$LB?b?H?$KN?5?$LL?l?F?l@ 0044ca48     servercommon:ScriptDataManager.obj
 0002:00004a70       ??_C@_0CP@CMLMJBPF@pInternal?9?$DOm_LoadStatus?5?$DN?$DN?5SCRIP@ 0044ca70     servercommon:ScriptDataManager.obj
 0002:00004aa0       ??_C@_0BF@FDIKBAHO@?$CB?$CC?$LP?$KJ?$LB?b?5?$LP?$MA?$LI?i?5?$LO?H?$LF?G?A?c?$HO?$CC?$AA@ 0044caa0     servercommon:ScriptDataManager.obj
 0002:00004ab8       ??_C@_0CJ@JCPKNMHE@?$CB?$CCBuffer?5Overrun?5?$LF?I?5?$LM?v?5?$MA?V?$LE?B?5?$LA?$KK?$MA?$LL@ 0044cab8     servercommon:ScriptDataManager.obj
 0002:00004ae4       ??_C@_0BG@HAGHPJGI@?$CB?$CCIndex?5Out?5Of?5Range?$CC?$AA@ 0044cae4     servercommon:ScriptDataManager.obj
 0002:00004b00       ??_C@_0EL@GGDCLOP@?$CB?$CC?$MA?L?$LJ?L?5?$LP?O?$LH?a?$LF?H?5?$LN?$LK?E?$KJ?$LI?$LD?F?$KO?5?$LF?$KF?$MA?L?E?M?$LI?$KG?5@ 0044cb00     servercommon:ScriptDataManager.obj
 0002:00004b4c       ??_C@_0CM@JDNIOHGE@?$CB?$CC?$LO?x?$LE?B?5?$LN?$LK?E?$KJ?$LI?$LD?F?$KO?5?A?$KE?$LK?$LI?$LI?$KG?5?G?b?G?X?5?$LI?m?$LH?I@ 0044cb4c     servercommon:ScriptDataManager.obj
 0002:00004b78       ??_C@_0BI@OEMEAKJD@?$CB?$CC?$MA?$NP?$LI?x?$LF?H?5?$LI?m?$LH?I?$MA?$LL?5?$LD?$LL?$LH?H?$LE?Y?$CC?$AA@ 0044cb78     servercommon:ScriptDataManager.obj
 0002:00004b90       ??_C@_0CL@HKJHCKHK@?$CB?$CC?$LF?$LP?$MA?O?G?Q?5?$LJ?v?F?$NL?5?F?w?$MA?N?E?M?$LI?$KG?5?$LL?g?$LP?k?G?O?$LH?A?$LA@ 0044cb90     servercommon:ScriptDataManager.obj
 0002:00004bc0       ??_C@_0EC@DALFIBMN@?$CB?$CCScriptDataManager?3?3AsyncReload@ 0044cbc0     servercommon:ScriptDataManager.obj
 0002:00004c04       ??_C@_0CA@GOCCEIPE@?$CB?$CCMoveToEmpty?5?$LF?$LP?$LB?b?H?$KN?5?$LL?l?F?l?$LK?$LM?5?$LA?M?$CC?$AA@ 0044cc04     servercommon:ScriptDataManager.obj
 0002:00004c24       ??_C@_0BJ@OHENFDDH@m_ScriptLoadedCount?5?$DN?$DN?50?$AA@ 0044cc24     servercommon:ScriptDataManager.obj
 0002:00004c40       ??_C@_0BN@GANEAEMM@?$CB?$CC?A?$KE?$LL?s?$MA?$PL?$MA?N?5?$LI?m?$LH?I?$MA?L?5?$LO?F?$LE?U?$LE?O?$LE?Y?4?$CC?$AA@ 0044cc40     servercommon:ScriptDataManager.obj
 0002:00004c60       ??_C@_0CE@DKOJOIEI@rInternal?4m_fnCallbackAllDataLoa@ 0044cc60     servercommon:ScriptDataManager.obj
 0002:00004c88       ??_C@_0EK@FGKJCJLJ@?$CB?$CCScriptDataManager?3?3RegisterDat@ 0044cc88     servercommon:ScriptDataManager.obj
 0002:00004ed4       ??_7ScriptParserManager@@6B@ 0044ced4     programcommon_s:ScriptParserManager.obj
 0002:00004ee4       ??_C@_0N@LEBMFFDB@Version?5?$DN?5?$CFs?$AA@ 0044cee4     programcommon_s:ScriptParserManager.obj
 0002:00004ef4       ??_C@_0BI@HCPEINPG@Parser?5Release?5Complete?$AA@ 0044cef4     programcommon_s:ScriptParserManager.obj
 0002:00005108       ??_C@_0CF@OJBJLEEH@Can?8t?5find?5value?5Key?3Value?5?$DN?5?$HL?$CFs@ 0044d108     programcommon_s:ScriptCode.IParser.Impl.obj
 0002:00005130       ??_C@_0CB@DBMFABDN@Empty?5String?5Key?3Value?5?$DN?5?$HL?$CFs?3?$CFs?$HN@ 0044d130     programcommon_s:ScriptCode.IParser.Impl.obj
 0002:00005154       ??_C@_0DJ@KBEAIMJE@Can?8t?5find?5value?5Key?3Value?5?$DN?5?$HL?$CFs@ 0044d154     programcommon_s:ScriptCode.IParser.Impl.obj
 0002:00005190       ??_C@_0BE@EKIGANKM@?$CB?$CC?$LO?K?$LM?v?$LO?x?$LE?B?5?H?$KO?$MA?e?$MA?Z?4?$CC?$AA@ 0044d190     programcommon_s:ScriptCode.IParser.Impl.obj
 0002:000051a4       ??_C@_0BO@FHKHAFOL@?$CB?$CC?$FLINILoad?$FN?5?F?D?$MA?O?5?$MA?P?$LB?b?5?$LN?G?F?P?$CB?$CB?$CC?$AA@ 0044d1a4     programcommon_s:ScriptCode.IParser.Impl.obj
 0002:000051c4       ??_C@_0BO@MGNDPLMN@?4?2ScriptCode?4IParser?4Impl?4cpp?$AA@ 0044d1c4     programcommon_s:ScriptCode.IParser.Impl.obj
 0002:000051e4       ??_C@_0BN@ECIKMKNM@?$CFs?0?5Load?5Time?5?$CFd?5Mili?5Second?$AA@ 0044d1e4     programcommon_s:ScriptCode.IParser.Impl.obj
 0002:00005204       ??_C@_0BP@NJMDHJL@Script?5File?5Load?5?$CFs?0?5File?5?$DN?5?$CFs?$AA@ 0044d204     programcommon_s:ScriptCode.IParser.Impl.obj
 0002:00005224       ??_C@_04ODLKOBGJ@Fail?$AA@ 0044d224     programcommon_s:ScriptCode.IParser.Impl.obj
 0002:0000522c       ??_C@_08NCJIEHD@Complete?$AA@ 0044d22c     programcommon_s:ScriptCode.IParser.Impl.obj
 0002:00005238       ??_C@_04PKIPNKLG@?4INI?$AA@ 0044d238     programcommon_s:ScriptCode.IParser.Impl.obj
 0002:00005240       ??_C@_0CC@DBOKGODG@Script?5File?5Load?5Start?0?5File?5?$DN?5?$CF@ 0044d240     programcommon_s:ScriptCode.IParser.Impl.obj
 0002:00005264       ??_C@_04LPDLOGCK@?4TXT?$AA@ 0044d264     programcommon_s:ScriptCode.IParser.Impl.obj
 0002:0000526c       ??_C@_0BD@IIAFNBKK@?$CB?$CCFile?5Open?5Error?$CC?$AA@ 0044d26c     programcommon_s:ScriptCode.IParser.Impl.obj
 0002:00005280       ??_C@_0BE@INPMNNGM@File?$FL?$CFs?$FN?5Open?5Error?$AA@ 0044d280     programcommon_s:ScriptCode.IParser.Impl.obj
 0002:00005294       ??_C@_07CPCPJPKL@version?$AA@ 0044d294     programcommon_s:ScriptCode.IParser.Impl.obj
 0002:0000529c       ??_C@_07NGFJPNPN@Version?$AA@ 0044d29c     programcommon_s:ScriptCode.IParser.Impl.obj
 0002:000052a4       ??_C@_0CB@DINHDMGI@Script?5File?5Load?5Fail?0?5File?5?$DN?5?$CFs@ 0044d2a4     programcommon_s:ScriptCode.IParser.Impl.obj
 0002:000052c8       ??_C@_0CF@BDIBABLG@Script?5File?5Load?5Complete?0?5File?5@ 0044d2c8     programcommon_s:ScriptCode.IParser.Impl.obj
 0002:000052f0       ??_C@_0O@FDLPKHMB@?$CB?$CCOpenBuffer?$CC?$AA@ 0044d2f0     programcommon_s:ScriptCode.IParser.Impl.obj
 0002:00005304       ??_7IParser@@6B@           0044d304     programcommon_s:ScriptCode.IParser.Impl.obj
 0002:00005518       ?COMPRESS_LEVEL@CompressUtil@nsPacket@@0HB 0044d518     programcommon_s:PacketControl_Compress.obj
 0002:0000551c       ??_C@_0BL@KPPLHGGD@?$CB?$CCUnexpected?5Request?5Size?$CC?$AA@ 0044d51c     programcommon_s:PacketControl_Compress.obj
 0002:00005538       ??_C@_0M@OFBFOKGB@len?5?$DN?$DN?55816?$AA@ 0044d538     programcommon_s:PacketControl_Compress.obj
 0002:00005544       ??_C@_0N@EEOBDGPC@len?5?$DN?$DN?565536?$AA@ 0044d544     programcommon_s:PacketControl_Compress.obj
 0002:00005554       ??_C@_0CL@OLKLMEPA@?4?2PacketControl?2PacketControl_Co@ 0044d554     programcommon_s:PacketControl_Compress.obj
 0002:00005580       ??_C@_0CF@LNGENGBL@paddingFileSize?5?$DM?$DN?5MaxScriptData@ 0044d580     programcommon_s:TableData.obj
 0002:000055a8       ??_C@_0BA@MDCCAIGM@?4?2TableData?4cpp?$AA@ 0044d5a8     programcommon_s:TableData.obj
 0002:000055b8       ??_C@_0DE@PKHIKBFC@util?3?3SolarHashTable?$DMint?0unsigne@ 0044d5b8     programcommon_s:TableData.obj
 0002:000055f0       ??_C@_0FB@GHJDPFIA@pTokenOffset?5?$DM?5?$CIBYTE?$CK?$CJpTokenTail@ 0044d5f0     programcommon_s:TableData.obj
 0002:00005648       ??_C@_0EK@FEEOHIMK@Script?$DN?$CFd?$HMColumn0?$DN?$CFs?$HMColumn1?$DN?$CFs?$HM@ 0044d648     programcommon_s:TableData.obj
 0002:00005694       ??_C@_06EJDANPGK@?$CBvalue?$AA@ 0044d694     programcommon_s:TableData.obj
 0002:0000569c       ??_C@_08FOMCLHCE@FieldEnd?$AA@ 0044d69c     programcommon_s:TableData.obj
 0002:000056a8       ??_C@_0EP@KCGGFGPG@pTokenOffset?5?$DM?5?$CIBYTE?$CK?$CJpTokenTail@ 0044d6a8     programcommon_s:TableData.obj
 0002:000056f8       ??_C@_01GPOEFGEJ@?7?$AA@   0044d6f8     programcommon_s:TableData.obj
 0002:000056fc       ??_C@_02OJDBNLEE@?5?7?$AA@ 0044d6fc     programcommon_s:TableData.obj
 0002:00005700       ??_C@_0CC@NPCPHDFN@alloced_size?5?$DM?$DN?5MaxScriptDataSiz@ 0044d700     programcommon_s:TableData.obj
 0002:00005724       ??_C@_0CB@LFLLNMBA@simplex_network_delay_ticks?5?$DO?$DN?50@ 0044d724     utility_s:SolarDateTime.obj
 0002:00005748       ??_C@_0HP@DCDJOLHB@send_info?4time_stamp_client_1st?5@ 0044d748     utility_s:SolarDateTime.obj
 0002:000057c8       ??_C@_0BE@CBNNGPCB@?4?2SolarDateTime?4cpp?$AA@ 0044d7c8     utility_s:SolarDateTime.obj
 0002:000057dc       ??_C@_0BD@NIJKBACD@token?9?$DOptr_?5?$DN?$DN?5hdr?$AA@ 0044d7dc     utility_s:MemoryPoolFactory.obj
 0002:000057f0       ??_C@_0DB@FAGBJGFF@SharedMemoryPool?3?3CheckValidAllo@ 0044d7f0     utility_s:MemoryPoolFactory.obj
 0002:00005824       ??_C@_0CM@LDMGFLPM@util?3?3LList?3?3IsEmpty?$CI?$CGalloc_list@ 0044d824     utility_s:MemoryPoolFactory.obj
 0002:00005850       ??_C@_0BI@FBDKBNLO@?4?2MemoryPoolFactory?4cpp?$AA@ 0044d850     utility_s:MemoryPoolFactory.obj
 0002:00005868       ??_C@_0DK@MGGCBPEB@?$HMMsg?$DNmismatched?5token?5block?5node@ 0044d868     utility_s:MemoryPoolFactory.obj
 0002:000058a4       ??_C@_0CO@GMKMCAPJ@statistics_?4number_of_total_bloc@ 0044d8a4     utility_s:MemoryPoolFactory.obj
 0002:000058d4       ??_C@_0DI@JHEPMMNF@?$HMMsg?$DNmismatched?5allocated?5nodes?5@ 0044d8d4     utility_s:MemoryPoolFactory.obj
 0002:0000590c       ??_C@_0CN@HGAMJAEI@statistics_?4number_of_alloc_node@ 0044d90c     utility_s:MemoryPoolFactory.obj
 0002:0000593c       ??_C@_0DD@HJMCCMHH@?$HMMsg?$DNmismatched?5free?5nodes?5?$CI?$CFu?3?$CF@ 0044d93c     utility_s:MemoryPoolFactory.obj
 0002:00005970       ??_C@_0CM@LPLMDKBM@statistics_?4number_of_free_nodes@ 0044d970     utility_s:MemoryPoolFactory.obj
 0002:0000599c       ??_C@_0CM@KCJALPIM@AssertionMessage?3?5?$CFs?5?$FLfile?3?5?$CFs?5?3@ 0044d99c     utility_s:ErrorControl.obj
 0002:000059c8       ??_C@_0JC@IKMJMGHK@?1?1?5?5case?5?$CF8u?3?5?$HMMemInfo?$DNptr?$CI0x?$CF08@ 0044d9c8     utility_s:SharedMemoryPool.obj
 0002:00005a5c       ??_C@_0DE@KHGGKODL@may?5be?5overruned?5by?5previous?5tok@ 0044da5c     utility_s:SharedMemoryPool.obj
 0002:00005a90       ??_C@_0JF@KFOBEOLI@?5?5?5?5case?5?$CF8u?3?5?1?1?5?$HMMemInfo?$DNptr?$CI0x@ 0044da90     utility_s:SharedMemoryPool.obj
 0002:00005b28       ??_C@_0DB@ECCAPBHO@may?5be?5overruned?5by?5previous?5tok@ 0044db28     utility_s:SharedMemoryPool.obj
 0002:00005b5c       ??_C@_0CD@INKAMJBE@may?5be?5overruned?5by?5previous?5tok@ 0044db5c     utility_s:SharedMemoryPool.obj
 0002:00005b80       ??_C@_0BG@MNGHNEFP@corrupted?5?$CG?5overruned?$AA@ 0044db80     utility_s:SharedMemoryPool.obj
 0002:00005b98       ??_C@_09DJBANNHO@corrupted?$AA@ 0044db98     utility_s:SharedMemoryPool.obj
 0002:00005ba4       ??_C@_0CB@HCLJIIKE@suspicious?5buffer?5overrun?5object@ 0044dba4     utility_s:SharedMemoryPool.obj
 0002:00005bc8       ??_C@_0JH@HHONBGDH@?5?5?5?5case?5?$CF8u?3?5?1?1?5?$HMMemInfo?$DNptr?$CI0x@ 0044dbc8     utility_s:SharedMemoryPool.obj
 0002:00005c60       ??_C@_0NG@JHPOPDJH@?$HMMemoryCheckReport?$HMMsg?$DNtoken?5val@ 0044dc60     utility_s:SharedMemoryPool.obj
 0002:00005d38       ??_C@_0PM@LFAEEBMG@?$HMMemoryCheckReport?$HMMsg?$DNtoken?5val@ 0044dd38     utility_s:SharedMemoryPool.obj
 0002:00005e34       ??_C@_0CE@DKGBCJEC@?$CB?$CCrequested?5null?5pointer?5releasi@ 0044de34     utility_s:SharedMemoryPool.obj
 0002:00005e58       ??_C@_0CC@KJKBJNFJ@?$CB?$CCcan?8t?5entered?5with?5this?5result@ 0044de58     utility_s:SharedMemoryPool.obj
 0002:00005e7c       ??_C@_0BE@OAFIDKHA@?$CB?$CCunexpected?5error?$CC?$AA@ 0044de7c     utility_s:SharedMemoryPool.obj
 0002:00005e90       ??_C@_0BH@FMMCGCOL@?4?2SharedMemoryPool?4cpp?$AA@ 0044de90     utility_s:SharedMemoryPool.obj
 0002:00005ea8       ??_C@_0JG@GKEJJFLL@?$HMMemoryCheckReport?$HMMsg?$DNunexpecte@ 0044dea8     utility_s:SharedMemoryPool.obj
 0002:00005f40       ??_C@_0CM@PBLDPHDH@?$FL?$CFs?3?$CFd?$FN?5reference_counter_?5overf@ 0044df40     utility_s:SharedMemoryPool.obj
 0002:00005f6c       ??_C@_0CG@GPMIELII@?$FL?$CFs?3?$CFd?$FN?5malloc?5fail?5?3?5?$CFs?0?5?$CFd?0?5si@ 0044df6c     utility_s:SharedMemoryPool.obj
 0002:00005f94       ??_C@_0CK@NMEFPPLP@util?3?3memory?3?3SharedMemoryTable?3@ 0044df94     utility_s:SharedMemoryPool.obj
 0002:00005fc0       ??_C@_0DI@DFNCIKAF@SolarSimpleConsole?5?3?5SetConsoleM@ 0044dfc0     utility_s:SolarSimpleConsole.obj
 0002:00005ff8       ??_C@_01KDCPPGHE@r?$AA@    0044dff8     utility_s:SolarSimpleConsole.obj
 0002:00005ffc       ??_C@_01NOFIACDB@w?$AA@    0044dffc     utility_s:SolarSimpleConsole.obj
 0002:00006000       ??_C@_0DI@PCLCJNOM@SolarSimpleConsole?5?3?5GetConsoleM@ 0044e000     utility_s:SolarSimpleConsole.obj
 0002:00006038       ??_C@_0CL@HKGPFCFA@?$CFs?2?$CFs?$CF02d?9?$CF02d?9?$CF02d?$DN?$CF02dh?$CF02dm?$CF0@ 0044e038     utility_s:SolarDump.obj
 0002:00006064       ??_C@_0BC@MNIKNFKD@MiniDumpWriteDump?$AA@ 0044e064     utility_s:SolarDump.obj
 0002:00006078       ??_C@_0M@OOEJBPPK@dbghelp?4dll?$AA@ 0044e078     utility_s:SolarDump.obj
 0002:00006088       ?hash_primes@internal@util@@3QBUPrimeNode@12@B 0044e088     utility_s:SolarHashTable.obj
 0002:000060c8       ??_C@_0DJ@NMOFPOOH@initialized_mark_?5?$CB?$DN?5kInitialize@ 0044e0c8     utility_s:SolarHashTable.obj
 0002:00006104       ??_C@_0BF@IGLOOKCD@?4?2SolarHashTable?4cpp?$AA@ 0044e104     utility_s:SolarHashTable.obj
 0002:00006120       ??_C@_0EA@GBAJPJCC@util?3?3internal?3?3WxHashTableBase?3@ 0044e120     utility_s:SolarHashTable.obj
 0002:00006160       ??_C@_0BD@GIFKFMNP@?$CB?$CCunexpected?5node?$CC?$AA@ 0044e160     utility_s:SolarHashTable.obj
 0002:00006174       ??_C@_0BO@FNAIMLLF@?$DM?$DMReadFile?$DO?$DO?5?$CFs?5From?5PackFile?$AA@ 0044e174     utility_s:SolarFileReader.obj
 0002:00006198       ?crc_table_static_@StreamHashKey@util@@0QBKB 0044e198     utility_s:StreamHashKey.obj
 0002:00006598       ??_C@_0L@KJEJJHKE@System?4wpk?$AA@ 0044e598     utility_s:FilePackerManager.obj
 0002:000065a4       ??_C@_0N@ICEHEAMK@Resource?4wpk?$AA@ 0044e5a4     utility_s:FilePackerManager.obj
 0002:000065b4       ??_C@_0BA@JFNIOLAK@string?5too?5long?$AA@ 0044e5b4     libcpmt:string.obj
 0002:000065c4       ??_C@_0BI@CFPLBAOH@invalid?5string?5position?$AA@ 0044e5c4     libcpmt:string.obj
 0002:000065dc       ?_BADOFF@std@@3JB          0044e5dc     libcpmt:ios.obj
 0002:000065e4       ??_7error_category@system@boost@@6B@ 0044e5e4     libboost_system-vc90-mt-s-1_60:error_code.obj
 0002:00006600       ??_7system_error_category@?A0xa00a0bbd@system@boost@@6B@ 0044e600     libboost_system-vc90-mt-s-1_60:error_code.obj
 0002:00006618       ??_C@_07DCLBNMLN@generic?$AA@ 0044e618     libboost_system-vc90-mt-s-1_60:error_code.obj
 0002:00006620       ??_C@_06FHFOAHML@system?$AA@ 0044e620     libboost_system-vc90-mt-s-1_60:error_code.obj
 0002:0000662c       ??_7generic_error_category@?A0xa00a0bbd@system@boost@@6B@ 0044e62c     libboost_system-vc90-mt-s-1_60:error_code.obj
 0002:00006644       ??_C@_0O@NIPGCINC@Unknown?5error?$AA@ 0044e644     libboost_system-vc90-mt-s-1_60:error_code.obj
 0002:00006654       ??_C@_05DOIEBMOI@1?41?44?$AA@ 0044e654     zlib:compress.obj
 0002:0000665c       ??_C@_0BF@CJFPCCEG@incompatible?5version?$AA@ 0044e65c     zlib:zutil.obj
 0002:00006674       ??_C@_0N@DFPGLBGC@buffer?5error?$AA@ 0044e674     zlib:zutil.obj
 0002:00006684       ??_C@_0BE@OGGJBMCE@insufficient?5memory?$AA@ 0044e684     zlib:zutil.obj
 0002:00006698       ??_C@_0L@HAHMBNLP@data?5error?$AA@ 0044e698     zlib:zutil.obj
 0002:000066a4       ??_C@_0N@MKKNPMJD@stream?5error?$AA@ 0044e6a4     zlib:zutil.obj
 0002:000066b4       ??_C@_0L@KIJFAKBJ@file?5error?$AA@ 0044e6b4     zlib:zutil.obj
 0002:000066c0       ??_C@_0L@FNAOCBOG@stream?5end?$AA@ 0044e6c0     zlib:zutil.obj
 0002:000066cc       ??_C@_0BA@MOKMMFOD@need?5dictionary?$AA@ 0044e6cc     zlib:zutil.obj
 0002:000066e0       _deflate_copyright         0044e6e0     zlib:deflate.obj
 0002:00006794       ??_C@_0BF@MEIGEHBE@incorrect?5data?5check?$AA@ 0044e794     zlib:inflate.obj
 0002:000067ac       ??_C@_0BH@LIBMMIGA@incorrect?5header?5check?$AA@ 0044e7ac     zlib:inflate.obj
 0002:000067c4       ??_C@_0BE@EMOGCLGO@invalid?5window?5size?$AA@ 0044e7c4     zlib:inflate.obj
 0002:000067d8       ??_C@_0BL@IHKGDAEE@unknown?5compression?5method?$AA@ 0044e7d8     zlib:inflate.obj
 0002:00006e40       __dist_code                0044ee40     zlib:trees.obj
 0002:00007040       __length_code              0044f040     zlib:trees.obj
 0002:0000727c       ??_C@_0BK@BMMPFBBH@invalid?5bit?5length?5repeat?$AA@ 0044f27c     zlib:infblock.obj
 0002:00007298       ??_C@_0CE@GMIGFPBB@too?5many?5length?5or?5distance?5symb@ 0044f298     zlib:infblock.obj
 0002:000072bc       ??_C@_0BN@LGAADGOK@invalid?5stored?5block?5lengths?$AA@ 0044f2bc     zlib:infblock.obj
 0002:000072dc       ??_C@_0BD@PJCBIDD@invalid?5block?5type?$AA@ 0044f2dc     zlib:infblock.obj
 0002:000072f0       ??_C@_0BM@FFFLPBBC@invalid?5literal?1length?5code?$AA@ 0044f2f0     zlib:infcodes.obj
 0002:0000730c       ??_C@_0BG@LBKINIKP@invalid?5distance?5code?$AA@ 0044f30c     zlib:infcodes.obj
 0002:00007328       _inflate_copyright         0044f328     zlib:inftrees.obj
 0002:00007548       ??_C@_0CE@LOHAHEGK@incomplete?5dynamic?5bit?5lengths?5t@ 0044f548     zlib:inftrees.obj
 0002:0000756c       ??_C@_0CI@CGMOPDPD@oversubscribed?5dynamic?5bit?5lengt@ 0044f56c     zlib:inftrees.obj
 0002:00007594       ??_C@_0BP@NEEEJJNA@incomplete?5literal?1length?5tree?$AA@ 0044f594     zlib:inftrees.obj
 0002:000075b4       ??_C@_0CD@GJIDGCKE@oversubscribed?5literal?1length?5tr@ 0044f5b4     zlib:inftrees.obj
 0002:000075d8       ??_C@_0CB@KPKKKLFO@empty?5distance?5tree?5with?5lengths@ 0044f5d8     zlib:inftrees.obj
 0002:000075fc       ??_C@_0BJ@CBCPDPJF@incomplete?5distance?5tree?$AA@ 0044f5fc     zlib:inftrees.obj
 0002:00007618       ??_C@_0BN@KBLCDIAI@oversubscribed?5distance?5tree?$AA@ 0044f618     zlib:inftrees.obj
 0002:00007638       ??_7NetworkObject@@6B@     0044f638     Network:NetworkObject.obj
 0002:00007650       ??_7IOCPServer@@6B@        0044f650     Network:IOCPServer.obj
 0002:00007654       ??_7Session@@6B@           0044f654     Network:Session.obj
 0002:00007658       ??_C@_0DM@IEAPKIOL@?$FLBuffer?5Full?5On?5Send?$FN?$HMC?3P?$DN?$FL?$CF03u?3@ 0044f658     Network:Session.obj
 0002:00007698       ??_C@_0HG@BDHDDFJN@the?5received?5packet?5header?5is?5in@ 0044f698     Network:Session.obj
 0002:00007710       ??_C@_0BL@IIMAALFC@?$FLPreRecv?$FN?5RecvBuffer?5Full?$CB?$AA@ 0044f710     Network:Session.obj
 0002:0000772c       ??_C@_0BN@CKKCKCI@Idle?5Session?5is?5disconnected?$AA@ 0044f72c     Network:IoHandler.obj
 0002:0000774c       ??_C@_0CK@PDFDLGOD@?$FLProcessConnectSuccessList?$FN?5PreR@ 0044f74c     Network:IoHandler.obj
 0002:00007778       ??_C@_0CL@MOMMCAEI@?$FLProcessAcceptedSessionList?$FN?5Pre@ 0044f778     Network:IoHandler.obj
 0002:000077a4       ??_C@_0CN@PEMONLEM@connection?5full?$CB?5no?5available?5ac@ 0044f7a4     Network:IoHandler.obj
 0002:000077d4       ??_7WxRingBuffer@module@@6B@ 0044f7d4     Network:WxRingBuffer.obj
 0002:000077d8       __real@3e124925            0044f7d8     MOLA_DDA:RandomSNKey.obj
 0002:000077dc       ??_7CryptHSEL@@6B@         0044f7dc     MOLA_DDA:CryptHSEL.obj
 0002:000077e0       ??_7CHSEL_STREAM@@6B@      0044f7e0     MOLA_DDA:HSEL_STREAM.obj
 0002:0000780c       ??_7exception@std@@6B@     0044f80c     LIBCMT:stdexcpt.obj
 0002:00007814       ??_C@_0BC@EOODALEL@Unknown?5exception?$AA@ 0044f814     LIBCMT:stdexcpt.obj
 0002:0000782c       ??_7type_info@@6B@         0044f82c     LIBCMT:typinfo.obj
 0002:00007830       __FPinit                   0044f830     LIBCMT:_fpinit_.obj
 0002:00007834       __FPmtinit                 0044f834     LIBCMT:_fpinit_.obj
 0002:00007838       __FPmtterm                 0044f838     LIBCMT:_fpinit_.obj
 0002:0000785c       ??_C@_07INNMNHPJ@cmd?4exe?$AA@ 0044f85c     LIBCMT:system.obj
 0002:00007864       ??_C@_02HNHPBPFE@?1c?$AA@  0044f864     LIBCMT:system.obj
 0002:00007868       ??_C@_07CFPBBAOO@COMSPEC?$AA@ 0044f868     LIBCMT:system.obj
 0002:00007bb0       ??_C@_01EEMJAFIK@?6?$AA@   0044fbb0     LIBCMT:perror.obj
 0002:00007bb4       ??_C@_02LMMGGCAJ@?3?5?$AA@ 0044fbb4     LIBCMT:perror.obj
 0002:00007bb8       ??_C@_0EA@FCLIIPNN@Visual?5C?$CL?$CL?5CRT?3?5Not?5enough?5memor@ 0044fbb8     LIBCMT:strerror.obj
 0002:00007bf8       __pDestructExceptionObject 0044fbf8     LIBCMT:frame.obj
 0002:00007c00       ??_7bad_exception@std@@6B@ 0044fc00     LIBCMT:frame.obj
 0002:00007c08       ??_C@_0O@DPKOEFFH@bad?5exception?$AA@ 0044fc08     LIBCMT:frame.obj
 0002:00007c18       ??_C@_0O@NLDKAIKN@EncodePointer?$AA@ 0044fc18     LIBCMT:tidtable.obj
 0002:00007c28       ??_C@_1BK@DBDEIDLH@?$AAK?$AAE?$AAR?$AAN?$AAE?$AAL?$AA3?$AA2?$AA?4?$AAD?$AAL?$AAL?$AA?$AA@ 0044fc28     LIBCMT:tidtable.obj
 0002:00007c44       ??_C@_0O@KBPMFGHI@DecodePointer?$AA@ 0044fc44     LIBCMT:tidtable.obj
 0002:00007c54       ??_C@_07PEJMOBNF@FlsFree?$AA@ 0044fc54     LIBCMT:tidtable.obj
 0002:00007c5c       ??_C@_0M@JCPCPOEF@FlsSetValue?$AA@ 0044fc5c     LIBCMT:tidtable.obj
 0002:00007c68       ??_C@_0M@GDNOONDI@FlsGetValue?$AA@ 0044fc68     LIBCMT:tidtable.obj
 0002:00007c74       ??_C@_08KNHFBNJ@FlsAlloc?$AA@ 0044fc74     LIBCMT:tidtable.obj
 0002:00007d08       ??_C@_01NEMOKFLO@?$DN?$AA@ 0044fd08     LIBCMT:setlocal.obj
 0002:00007d0c       ??_C@_1O@CEDCILHN@?$AA?$CI?$AAn?$AAu?$AAl?$AAl?$AA?$CJ?$AA?$AA@ 0044fd0c     LIBCMT:output.obj
 0002:00007d20       ___lookuptable             0044fd20     LIBCMT:output.obj
 0002:00007d7c       ??_C@_0P@GGKDKEEG@runtime?5error?5?$AA@ 0044fd7c     LIBCMT:crt0msg.obj
 0002:00007d8c       ??_C@_02PCIJFNDE@?$AN?6?$AA@ 0044fd8c     LIBCMT:crt0msg.obj
 0002:00007d90       ??_C@_0O@MJNIPGOH@TLOSS?5error?$AN?6?$AA@ 0044fd90     LIBCMT:crt0msg.obj
 0002:00007da0       ??_C@_0N@BONNPDHF@SING?5error?$AN?6?$AA@ 0044fda0     LIBCMT:crt0msg.obj
 0002:00007db0       ??_C@_0P@MBDAJNE@DOMAIN?5error?$AN?6?$AA@ 0044fdb0     LIBCMT:crt0msg.obj
 0002:00007dc0       ??_C@_0JL@DFDOOABL@R6034?$AN?6An?5application?5has?5made?5a@ 0044fdc0     LIBCMT:crt0msg.obj
 0002:00007e60       ??_C@_0PH@EPAFIJ@R6033?$AN?6?9?5Attempt?5to?5use?5MSIL?5cod@ 0044fe60     LIBCMT:crt0msg.obj
 0002:00007f58       ??_C@_0DD@BKEEABMM@R6032?$AN?6?9?5not?5enough?5space?5for?5lo@ 0044ff58     LIBCMT:crt0msg.obj
 0002:00007f90       ??_C@_0GD@OFKILIED@R6031?$AN?6?9?5Attempt?5to?5initialize?5t@ 0044ff90     LIBCMT:crt0msg.obj
 0002:00007ff4       ??_C@_0BP@LPMHJOKI@R6030?$AN?6?9?5CRT?5not?5initialized?$AN?6?$AA@ 0044fff4     LIBCMT:crt0msg.obj
 0002:00008014       ??_C@_0CF@KJDAIALP@R6028?$AN?6?9?5unable?5to?5initialize?5he@ 00450014     LIBCMT:crt0msg.obj
 0002:0000803c       ??_C@_0DF@GAKBPDFP@R6027?$AN?6?9?5not?5enough?5space?5for?5lo@ 0045003c     LIBCMT:crt0msg.obj
 0002:00008074       ??_C@_0DF@IBLNNAIG@R6026?$AN?6?9?5not?5enough?5space?5for?5st@ 00450074     LIBCMT:crt0msg.obj
 0002:000080ac       ??_C@_0CG@IOHKGFNJ@R6025?$AN?6?9?5pure?5virtual?5function?5c@ 004500ac     LIBCMT:crt0msg.obj
 0002:000080d4       ??_C@_0DF@JIJJFJDC@R6024?$AN?6?9?5not?5enough?5space?5for?5_o@ 004500d4     LIBCMT:crt0msg.obj
 0002:0000810c       ??_C@_0CJ@EGEJHFME@R6019?$AN?6?9?5unable?5to?5open?5console?5@ 0045010c     LIBCMT:crt0msg.obj
 0002:00008138       ??_C@_0CB@GNHNIELH@R6018?$AN?6?9?5unexpected?5heap?5error?$AN?6@ 00450138     LIBCMT:crt0msg.obj
 0002:0000815c       ??_C@_0CN@FOLDKNG@R6017?$AN?6?9?5unexpected?5multithread?5@ 0045015c     LIBCMT:crt0msg.obj
 0002:0000818c       ??_C@_0CM@FAHFJNHO@R6016?$AN?6?9?5not?5enough?5space?5for?5th@ 0045018c     LIBCMT:crt0msg.obj
 0002:000081b8       ??_C@_0JG@LBKMGKLD@?$AN?6This?5application?5has?5requested@ 004501b8     LIBCMT:crt0msg.obj
 0002:00008250       ??_C@_0CM@FLCNIPKK@R6009?$AN?6?9?5not?5enough?5space?5for?5en@ 00450250     LIBCMT:crt0msg.obj
 0002:0000827c       ??_C@_0CK@KMMJOAPP@R6008?$AN?6?9?5not?5enough?5space?5for?5ar@ 0045027c     LIBCMT:crt0msg.obj
 0002:000082a8       ??_C@_0CN@LEKKICBM@R6002?$AN?6?9?5floating?5point?5support?5@ 004502a8     LIBCMT:crt0msg.obj
 0002:000082d8       ??_C@_0CF@GOGNBNAK@Microsoft?5Visual?5C?$CL?$CL?5Runtime?5Lib@ 004502d8     LIBCMT:crt0msg.obj
 0002:00008300       ??_C@_02PHMGELLB@?6?6?$AA@ 00450300     LIBCMT:crt0msg.obj
 0002:00008304       ??_C@_03KHICJKCI@?4?4?4?$AA@ 00450304     LIBCMT:crt0msg.obj
 0002:00008308       ??_C@_0BH@DNAGHKFM@?$DMprogram?5name?5unknown?$DO?$AA@ 00450308     LIBCMT:crt0msg.obj
 0002:00008320       ??_C@_0BK@OFGJDLJJ@Runtime?5Error?$CB?6?6Program?3?5?$AA@ 00450320     LIBCMT:crt0msg.obj
 0002:0000833c       ??_C@_05KLBDPFGC@e?$CL000?$AA@ 0045033c     LIBCMT:cvt.obj
 0002:00008348       __real@4150017ec0000000    00450348     LIBCMT:_testfdiv_.obj
 0002:00008350       __real@4147ffff80000000    00450350     LIBCMT:_testfdiv_.obj
 0002:00008358       ??_C@_0BK@NHEOCAHP@IsProcessorFeaturePresent?$AA@ 00450358     LIBCMT:_testfdiv_.obj
 0002:00008374       ??_C@_08CPNIBGIE@KERNEL32?$AA@ 00450374     LIBCMT:_testfdiv_.obj
 0002:00008380       ??_C@_0P@MIGLKIOC@CorExitProcess?$AA@ 00450380     LIBCMT:crt0dat.obj
 0002:00008390       ??_C@_1BI@BGOHAHKC@?$AAm?$AAs?$AAc?$AAo?$AAr?$AAe?$AAe?$AA?4?$AAd?$AAl?$AAl?$AA?$AA@ 00450390     LIBCMT:crt0dat.obj
 0002:000083a8       __XcptActTab               004503a8     LIBCMT:winxfltr.obj
 0002:00008420       ??_C@_01KICIPPFI@?2?$AA@   00450420     LIBCMT:spawnvpe.obj
 0002:00008424       ??_C@_04HBHDLLBA@PATH?$AA@ 00450424     LIBCMT:spawnvpe.obj
 0002:0000842c       ??_C@_04PNGHFIJN@?4com?$AA@ 0045042c     LIBCMT:spawnve.obj
 0002:00008434       ??_C@_04JLMDILM@?4exe?$AA@ 00450434     LIBCMT:spawnve.obj
 0002:0000843c       ??_C@_04NEEFLLOK@?4bat?$AA@ 0045043c     LIBCMT:spawnve.obj
 0002:00008444       ??_C@_04CPCBDHLK@?4cmd?$AA@ 00450444     LIBCMT:spawnve.obj
 0002:0000844c       ??_C@_02CEGDFPFP@?4?2?$AA@ 0045044c     LIBCMT:spawnve.obj
 0002:00008450       ??_C@_13NOLLCAOD@?$AA?$AA?$AA?$AA@ 00450450     LIBCMT:a_map.obj
 0002:00008454       ??_C@_06GDENEHCP@CONIN$?$AA@ 00450454     LIBCMT:initcon.obj
 0002:0000845c       ??_C@_07GPDNMNG@CONOUT$?$AA@ 0045045c     LIBCMT:initcon.obj
 0002:00008464       ??_C@_0BG@KLEAJEFJ@Illegal?5byte?5sequence?$AA@ 00450464     LIBCMT:syserr.obj
 0002:0000847c       ??_C@_0BE@ICMCHPHH@Directory?5not?5empty?$AA@ 0045047c     LIBCMT:syserr.obj
 0002:00008490       ??_C@_0BJ@IHEHINLI@Function?5not?5implemented?$AA@ 00450490     LIBCMT:syserr.obj
 0002:000084ac       ??_C@_0BD@CLHBCGPB@No?5locks?5available?$AA@ 004504ac     LIBCMT:syserr.obj
 0002:000084c0       ??_C@_0BC@BEDIHIDK@Filename?5too?5long?$AA@ 004504c0     LIBCMT:syserr.obj
 0002:000084d4       ??_C@_0BK@JAEBMJJM@Resource?5deadlock?5avoided?$AA@ 004504d4     LIBCMT:syserr.obj
 0002:000084f0       ??_C@_0BB@FCBJFCAJ@Result?5too?5large?$AA@ 004504f0     LIBCMT:syserr.obj
 0002:00008504       ??_C@_0N@MMJPGLJK@Domain?5error?$AA@ 00450504     LIBCMT:syserr.obj
 0002:00008514       ??_C@_0M@LHEPIIOM@Broken?5pipe?$AA@ 00450514     LIBCMT:syserr.obj
 0002:00008520       ??_C@_0P@PKCJJLLM@Too?5many?5links?$AA@ 00450520     LIBCMT:syserr.obj
 0002:00008530       ??_C@_0BG@DDBFNKBH@Read?9only?5file?5system?$AA@ 00450530     LIBCMT:syserr.obj
 0002:00008548       ??_C@_0N@FEHLOILP@Invalid?5seek?$AA@ 00450548     LIBCMT:syserr.obj
 0002:00008558       ??_C@_0BI@FEALHKLD@No?5space?5left?5on?5device?$AA@ 00450558     LIBCMT:syserr.obj
 0002:00008570       ??_C@_0P@LFMMIPAE@File?5too?5large?$AA@ 00450570     LIBCMT:syserr.obj
 0002:00008580       ??_C@_0CE@ONOKNLPF@Inappropriate?5I?1O?5control?5operat@ 00450580     LIBCMT:syserr.obj
 0002:000085a4       ??_C@_0BE@INBJMKGG@Too?5many?5open?5files?$AA@ 004505a4     LIBCMT:syserr.obj
 0002:000085b8       ??_C@_0BO@IIFBODJE@Too?5many?5open?5files?5in?5system?$AA@ 004505b8     LIBCMT:syserr.obj
 0002:000085d8       ??_C@_0BB@HMGGCEBG@Invalid?5argument?$AA@ 004505d8     LIBCMT:syserr.obj
 0002:000085ec       ??_C@_0P@NDHGCGKE@Is?5a?5directory?$AA@ 004505ec     LIBCMT:syserr.obj
 0002:000085fc       ??_C@_0BA@CJBACOOL@Not?5a?5directory?$AA@ 004505fc     LIBCMT:syserr.obj
 0002:0000860c       ??_C@_0P@NLEIANHE@No?5such?5device?$AA@ 0045060c     LIBCMT:syserr.obj
 0002:0000861c       ??_C@_0O@OAMDNOCP@Improper?5link?$AA@ 0045061c     LIBCMT:syserr.obj
 0002:0000862c       ??_C@_0M@NAAJNNGH@File?5exists?$AA@ 0045062c     LIBCMT:syserr.obj
 0002:00008638       ??_C@_0BA@BIBLIOEK@Resource?5device?$AA@ 00450638     LIBCMT:syserr.obj
 0002:00008648       ??_C@_0M@LOEHLCJD@Bad?5address?$AA@ 00450648     LIBCMT:syserr.obj
 0002:00008654       ??_C@_0BC@HFNFNKAI@Permission?5denied?$AA@ 00450654     LIBCMT:syserr.obj
 0002:00008668       ??_C@_0BB@IMDKMPFB@Not?5enough?5space?$AA@ 00450668     LIBCMT:syserr.obj
 0002:0000867c       ??_C@_0CB@EPFKGNAK@Resource?5temporarily?5unavailable@ 0045067c     LIBCMT:syserr.obj
 0002:000086a0       ??_C@_0BD@LOHELEP@No?5child?5processes?$AA@ 004506a0     LIBCMT:syserr.obj
 0002:000086b4       ??_C@_0BE@NFGDDCEF@Bad?5file?5descriptor?$AA@ 004506b4     LIBCMT:syserr.obj
 0002:000086c8       ??_C@_0BC@HKPNECK@Exec?5format?5error?$AA@ 004506c8     LIBCMT:syserr.obj
 0002:000086dc       ??_C@_0BC@MFFGCDFL@Arg?5list?5too?5long?$AA@ 004506dc     LIBCMT:syserr.obj
 0002:000086f0       ??_C@_0BK@DPKMCKJ@No?5such?5device?5or?5address?$AA@ 004506f0     LIBCMT:syserr.obj
 0002:0000870c       ??_C@_0BD@KKNFOBBD@Input?1output?5error?$AA@ 0045070c     LIBCMT:syserr.obj
 0002:00008720       ??_C@_0BK@FJBOAFDK@Interrupted?5function?5call?$AA@ 00450720     LIBCMT:syserr.obj
 0002:0000873c       ??_C@_0BA@FKIAIBGA@No?5such?5process?$AA@ 0045073c     LIBCMT:syserr.obj
 0002:0000874c       ??_C@_0BK@FMDHKPNF@No?5such?5file?5or?5directory?$AA@ 0045074c     LIBCMT:syserr.obj
 0002:00008768       ??_C@_0BI@BJFCGOHL@Operation?5not?5permitted?$AA@ 00450768     LIBCMT:syserr.obj
 0002:00008780       ??_C@_08INEPGKHH@No?5error?$AA@ 00450780     LIBCMT:syserr.obj
 0002:0000878c       ??_C@_02CLFPBFFP@TZ?$AA@   0045078c     LIBCMT:tzset.obj
 0002:00008790       ___dnames                  00450790     LIBCMT:timeset.obj
 0002:000087a8       ___mnames                  004507a8     LIBCMT:timeset.obj
 0002:000087d0       ___newctype                004507d0     LIBCMT:ctype.obj
 0002:00008ad0       __wctype                   00450ad0     LIBCMT:ctype.obj
 0002:00008cd8       ___newclmap                00450cd8     LIBCMT:ctype.obj
 0002:00008e58       ___newcumap                00450e58     LIBCMT:ctype.obj
 0002:00008fd8       ??_C@_08JCCMCCIL@HH?3mm?3ss?$AA@ 00450fd8     LIBCMT:strftime.obj
 0002:00008fe4       ??_C@_0BE@CKGJFCPC@dddd?0?5MMMM?5dd?0?5yyyy?$AA@ 00450fe4     LIBCMT:strftime.obj
 0002:00008ff8       ??_C@_08BPBNCDIB@MM?1dd?1yy?$AA@ 00450ff8     LIBCMT:strftime.obj
 0002:00009004       ??_C@_02CJNFDJBF@PM?$AA@   00451004     LIBCMT:strftime.obj
 0002:00009008       ??_C@_02DEDBPAFC@AM?$AA@   00451008     LIBCMT:strftime.obj
 0002:0000900c       ??_C@_08EDHMEBNP@December?$AA@ 0045100c     LIBCMT:strftime.obj
 0002:00009018       ??_C@_08HCHEGEOA@November?$AA@ 00451018     LIBCMT:strftime.obj
 0002:00009024       ??_C@_07JJNFCEND@October?$AA@ 00451024     LIBCMT:strftime.obj
 0002:0000902c       ??_C@_09BHHEALKD@September?$AA@ 0045102c     LIBCMT:strftime.obj
 0002:00009038       ??_C@_06LBBHFDDG@August?$AA@ 00451038     LIBCMT:strftime.obj
 0002:00009040       ??_C@_04MIEPOIFP@July?$AA@ 00451040     LIBCMT:strftime.obj
 0002:00009048       ??_C@_04CNLMGBGM@June?$AA@ 00451048     LIBCMT:strftime.obj
 0002:00009050       ??_C@_05DMJDNLEJ@April?$AA@ 00451050     LIBCMT:strftime.obj
 0002:00009058       ??_C@_05HPCKOFNC@March?$AA@ 00451058     LIBCMT:strftime.obj
 0002:00009060       ??_C@_08GNJGEPFN@February?$AA@ 00451060     LIBCMT:strftime.obj
 0002:0000906c       ??_C@_07CGJPFGJA@January?$AA@ 0045106c     LIBCMT:strftime.obj
 0002:00009074       ??_C@_03MKABNOCG@Dec?$AA@  00451074     LIBCMT:strftime.obj
 0002:00009078       ??_C@_03JPJOFNIA@Nov?$AA@  00451078     LIBCMT:strftime.obj
 0002:0000907c       ??_C@_03BMAOKBAD@Oct?$AA@  0045107c     LIBCMT:strftime.obj
 0002:00009080       ??_C@_03GGCAPAJC@Sep?$AA@  00451080     LIBCMT:strftime.obj
 0002:00009084       ??_C@_03IFJFEIGA@Aug?$AA@  00451084     LIBCMT:strftime.obj
 0002:00009088       ??_C@_03LBGABGKK@Jul?$AA@  00451088     LIBCMT:strftime.obj
 0002:0000908c       ??_C@_03IDFGHECI@Jun?$AA@  0045108c     LIBCMT:strftime.obj
 0002:00009090       ??_C@_03CNMDKL@May?$AA@    00451090     LIBCMT:strftime.obj
 0002:00009094       ??_C@_03LEOLGMJP@Apr?$AA@  00451094     LIBCMT:strftime.obj
 0002:00009098       ??_C@_03ODNJBKGA@Mar?$AA@  00451098     LIBCMT:strftime.obj
 0002:0000909c       ??_C@_03HJBDCHOM@Feb?$AA@  0045109c     LIBCMT:strftime.obj
 0002:000090a0       ??_C@_03JIHJHPIE@Jan?$AA@  004510a0     LIBCMT:strftime.obj
 0002:000090a4       ??_C@_08INBOOONO@Saturday?$AA@ 004510a4     LIBCMT:strftime.obj
 0002:000090b0       ??_C@_06JECMNKMI@Friday?$AA@ 004510b0     LIBCMT:strftime.obj
 0002:000090b8       ??_C@_08HACCIKIA@Thursday?$AA@ 004510b8     LIBCMT:strftime.obj
 0002:000090c4       ??_C@_09DLIGFAKA@Wednesday?$AA@ 004510c4     LIBCMT:strftime.obj
 0002:000090d0       ??_C@_07BAAGCFCM@Tuesday?$AA@ 004510d0     LIBCMT:strftime.obj
 0002:000090d8       ??_C@_06JLEDEDGH@Monday?$AA@ 004510d8     LIBCMT:strftime.obj
 0002:000090e0       ??_C@_06OOPIFAJ@Sunday?$AA@ 004510e0     LIBCMT:strftime.obj
 0002:000090e8       ??_C@_03FEFJNEK@Sat?$AA@   004510e8     LIBCMT:strftime.obj
 0002:000090ec       ??_C@_03IDIOELNC@Fri?$AA@  004510ec     LIBCMT:strftime.obj
 0002:000090f0       ??_C@_03IOFIKPDN@Thu?$AA@  004510f0     LIBCMT:strftime.obj
 0002:000090f4       ??_C@_03MHOMLAJA@Wed?$AA@  004510f4     LIBCMT:strftime.obj
 0002:000090f8       ??_C@_03NAGEINEP@Tue?$AA@  004510f8     LIBCMT:strftime.obj
 0002:000090fc       ??_C@_03PDAGKDH@Mon?$AA@   004510fc     LIBCMT:strftime.obj
 0002:00009100       ??_C@_03KOEHGMDN@Sun?$AA@  00451100     LIBCMT:strftime.obj
 0002:00009104       ??_C@_0BK@CFCOFLF@?5Complete?5Object?5Locator?8?$AA@ 00451104     LIBCMT:undname.obj
 0002:00009120       ??_C@_0BN@MECKDCOJ@?5Class?5Hierarchy?5Descriptor?8?$AA@ 00451120     LIBCMT:undname.obj
 0002:00009140       ??_C@_0BD@LGICGFMM@?5Base?5Class?5Array?8?$AA@ 00451140     LIBCMT:undname.obj
 0002:00009154       ??_C@_0BM@LDKODKLH@?5Base?5Class?5Descriptor?5at?5?$CI?$AA@ 00451154     LIBCMT:undname.obj
 0002:00009170       ??_C@_0BC@DAFEJGAK@?5Type?5Descriptor?8?$AA@ 00451170     LIBCMT:undname.obj
 0002:00009184       ??_C@_0BM@PMGGMLDN@?$GAlocal?5static?5thread?5guard?8?$AA@ 00451184     LIBCMT:undname.obj
 0002:000091a0       ??_C@_0CL@FGIJHLCE@?$GAmanaged?5vector?5copy?5constructor@ 004511a0     LIBCMT:undname.obj
 0002:000091cc       ??_C@_0CJ@GJELGAMM@?$GAvector?5vbase?5copy?5constructor?5i@ 004511cc     LIBCMT:undname.obj
 0002:000091f8       ??_C@_0CD@CGAJBKEJ@?$GAvector?5copy?5constructor?5iterato@ 004511f8     LIBCMT:undname.obj
 0002:0000921c       ??_C@_0CB@PDBIFEP@?$GAdynamic?5atexit?5destructor?5for?5?8@ 0045121c     LIBCMT:undname.obj
 0002:00009240       ??_C@_0BL@CLIPGLGB@?$GAdynamic?5initializer?5for?5?8?$AA@ 00451240     LIBCMT:undname.obj
 0002:0000925c       ??_C@_0CM@FCBBDIGB@?$GAeh?5vector?5vbase?5copy?5constructo@ 0045125c     LIBCMT:undname.obj
 0002:00009288       ??_C@_0CG@HLDDJMAG@?$GAeh?5vector?5copy?5constructor?5iter@ 00451288     LIBCMT:undname.obj
 0002:000092b0       ??_C@_0CF@IMGKMJNO@?$GAmanaged?5vector?5destructor?5itera@ 004512b0     LIBCMT:undname.obj
 0002:000092d8       ??_C@_0CG@CFDHKGGD@?$GAmanaged?5vector?5constructor?5iter@ 004512d8     LIBCMT:undname.obj
 0002:00009300       ??_C@_0BN@CKNJLHMB@?$GAplacement?5delete?$FL?$FN?5closure?8?$AA@ 00451300     LIBCMT:undname.obj
 0002:00009320       ??_C@_0BL@CNOONJFP@?$GAplacement?5delete?5closure?8?$AA@ 00451320     LIBCMT:undname.obj
 0002:0000933c       ??_C@_0P@HJKNJFNN@?$GAomni?5callsig?8?$AA@ 0045133c     LIBCMT:undname.obj
 0002:0000934c       ??_C@_09LBNFPBCA@?5delete?$FL?$FN?$AA@ 0045134c     LIBCMT:undname.obj
 0002:00009358       ??_C@_06FHBGPFGH@?5new?$FL?$FN?$AA@ 00451358     LIBCMT:undname.obj
 0002:00009360       ??_C@_0CE@IIHCMGGL@?$GAlocal?5vftable?5constructor?5closu@ 00451360     LIBCMT:undname.obj
 0002:00009384       ??_C@_0BA@KKLDJDLB@?$GAlocal?5vftable?8?$AA@ 00451384     LIBCMT:undname.obj
 0002:00009394       ??_C@_05KHLCHHI@?$GARTTI?$AA@ 00451394     LIBCMT:undname.obj
 0002:0000939c       ??_C@_03KLGMFNMG@?$GAEH?$AA@ 0045139c     LIBCMT:undname.obj
 0002:000093a0       ??_C@_0BA@KBCDOMBN@?$GAudt?5returning?8?$AA@ 004513a0     LIBCMT:undname.obj
 0002:000093b0       ??_C@_0BL@LLKPOHJI@?$GAcopy?5constructor?5closure?8?$AA@ 004513b0     LIBCMT:undname.obj
 0002:000093cc       ??_C@_0CH@OOJPLCPH@?$GAeh?5vector?5vbase?5constructor?5ite@ 004513cc     LIBCMT:undname.obj
 0002:000093f4       ??_C@_0CA@GCEOPDGL@?$GAeh?5vector?5destructor?5iterator?8?$AA@ 004513f4     LIBCMT:undname.obj
 0002:00009414       ??_C@_0CB@JONCMFFK@?$GAeh?5vector?5constructor?5iterator?8@ 00451414     LIBCMT:undname.obj
 0002:00009438       ??_C@_0BL@NILFHHPC@?$GAvirtual?5displacement?5map?8?$AA@ 00451438     LIBCMT:undname.obj
 0002:00009454       ??_C@_0CE@IKBNEHA@?$GAvector?5vbase?5constructor?5iterat@ 00451454     LIBCMT:undname.obj
 0002:00009478       ??_C@_0BN@LFPFMEDL@?$GAvector?5destructor?5iterator?8?$AA@ 00451478     LIBCMT:undname.obj
 0002:00009498       ??_C@_0BO@PFGOCPJJ@?$GAvector?5constructor?5iterator?8?$AA@ 00451498     LIBCMT:undname.obj
 0002:000094b8       ??_C@_0BN@IMDCHIKM@?$GAscalar?5deleting?5destructor?8?$AA@ 004514b8     LIBCMT:undname.obj
 0002:000094d8       ??_C@_0BO@OBMKPJIG@?$GAdefault?5constructor?5closure?8?$AA@ 004514d8     LIBCMT:undname.obj
 0002:000094f8       ??_C@_0BN@DEGPLNFK@?$GAvector?5deleting?5destructor?8?$AA@ 004514f8     LIBCMT:undname.obj
 0002:00009518       ??_C@_0BD@JDLKDPAB@?$GAvbase?5destructor?8?$AA@ 00451518     LIBCMT:undname.obj
 0002:0000952c       ??_C@_08OBABFOLI@?$GAstring?8?$AA@ 0045152c     LIBCMT:undname.obj
 0002:00009538       ??_C@_0BF@KDPPACIK@?$GAlocal?5static?5guard?8?$AA@ 00451538     LIBCMT:undname.obj
 0002:00009550       ??_C@_08LLFFHHDJ@?$GAtypeof?8?$AA@ 00451550     LIBCMT:undname.obj
 0002:0000955c       ??_C@_07FEEIOKP@?$GAvcall?8?$AA@ 0045155c     LIBCMT:undname.obj
 0002:00009564       ??_C@_09BLBHBJP@?$GAvbtable?8?$AA@ 00451564     LIBCMT:undname.obj
 0002:00009570       ??_C@_09IFPLHPGF@?$GAvftable?8?$AA@ 00451570     LIBCMT:undname.obj
 0002:0000957c       ??_C@_02MHEGNOJ@?$FO?$DN?$AA@ 0045157c     LIBCMT:undname.obj
 0002:00009580       ??_C@_02DHLNPPGH@?$HM?$DN?$AA@ 00451580     LIBCMT:undname.obj
 0002:00009584       ??_C@_02FGJGFEAB@?$CG?$DN?$AA@ 00451584     LIBCMT:undname.obj
 0002:00009588       ??_C@_03CDNPDDLA@?$DM?$DM?$DN?$AA@ 00451588     LIBCMT:undname.obj
 0002:0000958c       ??_C@_03IKFCCPFF@?$DO?$DO?$DN?$AA@ 0045158c     LIBCMT:undname.obj
 0002:00009590       ??_C@_02FENAOKFI@?$CF?$DN?$AA@ 00451590     LIBCMT:undname.obj
 0002:00009594       ??_C@_02FJEHGPIO@?1?$DN?$AA@ 00451594     LIBCMT:undname.obj
 0002:00009598       ??_C@_02FKMDLLOA@?9?$DN?$AA@ 00451598     LIBCMT:undname.obj
 0002:0000959c       ??_C@_02FOEOMHFC@?$CL?$DN?$AA@ 0045159c     LIBCMT:undname.obj
 0002:000095a0       ??_C@_02FPIMKNGF@?$CK?$DN?$AA@ 004515a0     LIBCMT:undname.obj
 0002:000095a4       ??_C@_02NONPIBCD@?$HM?$HM?$AA@ 004515a4     LIBCMT:undname.obj
 0002:000095a8       ??_C@_02PPKAJPJL@?$CG?$CG?$AA@ 004515a8     LIBCMT:undname.obj
 0002:000095ac       ??_C@_01DNKMNLPK@?$HM?$AA@ 004515ac     LIBCMT:undname.obj
 0002:000095b0       ??_C@_01JKBOJNNK@?$FO?$AA@ 004515b0     LIBCMT:undname.obj
 0002:000095b4       ??_C@_01PJKLJHI@?$HO?$AA@  004515b4     LIBCMT:undname.obj
 0002:000095b8       ??_C@_02HCKGKOFO@?$CI?$CJ?$AA@ 004515b8     LIBCMT:undname.obj
 0002:000095bc       ??_C@_01IHBHIGKO@?0?$AA@   004515bc     LIBCMT:undname.obj
 0002:000095c0       ??_C@_02EEKDKGMJ@?$DO?$DN?$AA@ 004515c0     LIBCMT:undname.obj
 0002:000095c4       ??_C@_01PPODPGHN@?$DO?$AA@ 004515c4     LIBCMT:undname.obj
 0002:000095c8       ??_C@_02EHCHHCKH@?$DM?$DN?$AA@ 004515c8     LIBCMT:undname.obj
 0002:000095cc       ??_C@_01MNNFJEPP@?$DM?$AA@ 004515cc     LIBCMT:undname.obj
 0002:000095d0       ??_C@_01FGNFDNOH@?$CF?$AA@ 004515d0     LIBCMT:undname.obj
 0002:000095d4       ??_C@_01KMDKNFGN@?1?$AA@   004515d4     LIBCMT:undname.obj
 0002:000095d8       ??_C@_03MNHNFDLC@?9?$DO?$CK?$AA@ 004515d8     LIBCMT:undname.obj
 0002:000095dc       ??_C@_01HNPIGOCE@?$CG?$AA@ 004515dc     LIBCMT:undname.obj
 0002:000095e0       ??_C@_01MIFGBAGJ@?$CL?$AA@ 004515e0     LIBCMT:undname.obj
 0002:000095e4       ??_C@_01JOAMLHOP@?9?$AA@   004515e4     LIBCMT:undname.obj
 0002:000095e8       ??_C@_02BAABKJLB@?9?9?$AA@ 004515e8     LIBCMT:undname.obj
 0002:000095ec       ??_C@_02ECNGHCIF@?$CL?$CL?$AA@ 004515ec     LIBCMT:undname.obj
 0002:000095f0       ??_C@_01NBENCBCI@?$CK?$AA@ 004515f0     LIBCMT:undname.obj
 0002:000095f4       ??_C@_02HBOOOICD@?9?$DO?$AA@ 004515f4     LIBCMT:undname.obj
 0002:000095f8       ??_C@_08LHJFAFGD@operator?$AA@ 004515f8     LIBCMT:undname.obj
 0002:00009604       ??_C@_02GPECMEKF@?$FL?$FN?$AA@ 00451604     LIBCMT:undname.obj
 0002:00009608       ??_C@_02FDNJECIE@?$CB?$DN?$AA@ 00451608     LIBCMT:undname.obj
 0002:0000960c       ??_C@_02EGOFBIJA@?$DN?$DN?$AA@ 0045160c     LIBCMT:undname.obj
 0002:00009610       ??_C@_01DCLJPIOD@?$CB?$AA@ 00451610     LIBCMT:undname.obj
 0002:00009614       ??_C@_02FODMEDOG@?$DM?$DM?$AA@ 00451614     LIBCMT:undname.obj
 0002:00009618       ??_C@_02GPIOPFAK@?$DO?$DO?$AA@ 00451618     LIBCMT:undname.obj
 0002:0000961c       ??_C@_07FPCDHGMM@?5delete?$AA@ 0045161c     LIBCMT:undname.obj
 0002:00009624       ??_C@_04NIHEBCM@?5new?$AA@ 00451624     LIBCMT:undname.obj
 0002:0000962c       ??_C@_0M@GFIIJFMG@__unaligned?$AA@ 0045162c     LIBCMT:undname.obj
 0002:00009638       ??_C@_0L@PILCLIHE@__restrict?$AA@ 00451638     LIBCMT:undname.obj
 0002:00009644       ??_C@_07JOMMBBKO@__ptr64?$AA@ 00451644     LIBCMT:undname.obj
 0002:0000964c       ??_C@_09HIJEGCPM@__clrcall?$AA@ 0045164c     LIBCMT:undname.obj
 0002:00009658       ??_C@_0L@JMKHOMEK@__fastcall?$AA@ 00451658     LIBCMT:undname.obj
 0002:00009664       ??_C@_0L@NPHFGOKO@__thiscall?$AA@ 00451664     LIBCMT:undname.obj
 0002:00009670       ??_C@_09IFJBGAPI@__stdcall?$AA@ 00451670     LIBCMT:undname.obj
 0002:0000967c       ??_C@_08GHMPAG@__pascal?$AA@ 0045167c     LIBCMT:undname.obj
 0002:00009688       ??_C@_07KOLFKCDI@__cdecl?$AA@ 00451688     LIBCMT:undname.obj
 0002:00009690       ??_C@_08EHJDFFNH@__based?$CI?$AA@ 00451690     LIBCMT:undname.obj
 0002:00009820       ??_C@_0BI@DFKBFLJE@GetProcessWindowStation?$AA@ 00451820     LIBCMT:crtmbox.obj
 0002:00009838       ??_C@_0BK@CIDNPOGP@GetUserObjectInformationA?$AA@ 00451838     LIBCMT:crtmbox.obj
 0002:00009854       ??_C@_0BD@HHGDFDBJ@GetLastActivePopup?$AA@ 00451854     LIBCMT:crtmbox.obj
 0002:00009868       ??_C@_0BA@HNOPNCHB@GetActiveWindow?$AA@ 00451868     LIBCMT:crtmbox.obj
 0002:00009878       ??_C@_0M@CHKKJDAI@MessageBoxA?$AA@ 00451878     LIBCMT:crtmbox.obj
 0002:00009884       ??_C@_0L@NDEGIDAG@USER32?4DLL?$AA@ 00451884     LIBCMT:crtmbox.obj
 0002:00009890       ??_C@_0L@NKOGAPMJ@SystemRoot?$AA@ 00451890     LIBCMT:cenvarg.obj
 0002:000098a0       ___lookuptable_s           004518a0     LIBCMT:outputs.obj
 0002:000098fc       ??_C@_06IMKFLFPG@1?$CDQNAN?$AA@ 004518fc     LIBCMT:_x10fout_.obj
 0002:00009904       ??_C@_05DNEBIAHO@1?$CDINF?$AA@ 00451904     LIBCMT:_x10fout_.obj
 0002:0000990c       ??_C@_05PHHOCPM@1?$CDIND?$AA@ 0045190c     LIBCMT:_x10fout_.obj
 0002:00009914       ??_C@_06PGGFOGJG@1?$CDSNAN?$AA@ 00451914     LIBCMT:_x10fout_.obj
 0002:00009920       __load_config_used         00451920     LIBCMT:loadcfg.obj
 0002:000099b0       ??_R4bad_alloc@std@@6B@    004519b0     AbuseUserManager.obj
 0002:000099c4       ??_R3bad_alloc@std@@8      004519c4     AbuseUserManager.obj
 0002:000099d4       ??_R2bad_alloc@std@@8      004519d4     AbuseUserManager.obj
 0002:000099e0       ??_R1A@?0A@EA@bad_alloc@std@@8 004519e0     AbuseUserManager.obj
 0002:000099fc       ??_R1A@?0A@EA@exception@std@@8 004519fc     AbuseUserManager.obj
 0002:00009a18       ??_R3exception@std@@8      00451a18     AbuseUserManager.obj
 0002:00009a28       ??_R2exception@std@@8      00451a28     AbuseUserManager.obj
 0002:00009a30       ??_R4IVMemoryPool@util@@6B@ 00451a30     AbuseUserManager.obj
 0002:00009a44       ??_R3IVMemoryPool@util@@8  00451a44     AbuseUserManager.obj
 0002:00009a54       ??_R2IVMemoryPool@util@@8  00451a54     AbuseUserManager.obj
 0002:00009a5c       ??_R1A@?0A@EA@IVMemoryPool@util@@8 00451a5c     AbuseUserManager.obj
 0002:00009a78       ??_R4?$CMemoryPoolFactory@VAbuseUser@@@util@@6B@ 00451a78     AbuseUserManager.obj
 0002:00009a8c       ??_R3?$CMemoryPoolFactory@VAbuseUser@@@util@@8 00451a8c     AbuseUserManager.obj
 0002:00009a9c       ??_R2?$CMemoryPoolFactory@VAbuseUser@@@util@@8 00451a9c     AbuseUserManager.obj
 0002:00009aa8       ??_R1A@?0A@EA@?$CMemoryPoolFactory@VAbuseUser@@@util@@8 00451aa8     AbuseUserManager.obj
 0002:00009ac4       ??_R4IMemoryPoolFactoryImpl@internal@util@@6B@ 00451ac4     AbuseUserManager.obj
 0002:00009ad8       ??_R3IMemoryPoolFactoryImpl@internal@util@@8 00451ad8     AbuseUserManager.obj
 0002:00009ae8       ??_R2IMemoryPoolFactoryImpl@internal@util@@8 00451ae8     AbuseUserManager.obj
 0002:00009af0       ??_R1A@?0A@EA@IMemoryPoolFactoryImpl@internal@util@@8 00451af0     AbuseUserManager.obj
 0002:00009b0c       ??_R4?$NotUseChunkImpl@VAbuseUser@@@internal@util@@6B@ 00451b0c     AbuseUserManager.obj
 0002:00009b20       ??_R3?$NotUseChunkImpl@VAbuseUser@@@internal@util@@8 00451b20     AbuseUserManager.obj
 0002:00009b30       ??_R2?$NotUseChunkImpl@VAbuseUser@@@internal@util@@8 00451b30     AbuseUserManager.obj
 0002:00009b3c       ??_R1A@?0A@EA@?$NotUseChunkImpl@VAbuseUser@@@internal@util@@8 00451b3c     AbuseUserManager.obj
 0002:00009b58       ??_R4?$VariableSizeChunkImpl@VAbuseUser@@@internal@util@@6B@ 00451b58     AbuseUserManager.obj
 0002:00009b6c       ??_R3?$VariableSizeChunkImpl@VAbuseUser@@@internal@util@@8 00451b6c     AbuseUserManager.obj
 0002:00009b7c       ??_R2?$VariableSizeChunkImpl@VAbuseUser@@@internal@util@@8 00451b7c     AbuseUserManager.obj
 0002:00009b88       ??_R1A@?0A@EA@?$VariableSizeChunkImpl@VAbuseUser@@@internal@util@@8 00451b88     AbuseUserManager.obj
 0002:00009ba4       ??_R4logic_error@std@@6B@  00451ba4     AbuseUserManager.obj
 0002:00009bb8       ??_R3logic_error@std@@8    00451bb8     AbuseUserManager.obj
 0002:00009bc8       ??_R2logic_error@std@@8    00451bc8     AbuseUserManager.obj
 0002:00009bd4       ??_R1A@?0A@EA@logic_error@std@@8 00451bd4     AbuseUserManager.obj
 0002:00009bf0       ??_R4?$FixedSizeChunkImpl@VAbuseUser@@@internal@util@@6B@ 00451bf0     AbuseUserManager.obj
 0002:00009c04       ??_R3?$FixedSizeChunkImpl@VAbuseUser@@@internal@util@@8 00451c04     AbuseUserManager.obj
 0002:00009c14       ??_R2?$FixedSizeChunkImpl@VAbuseUser@@@internal@util@@8 00451c14     AbuseUserManager.obj
 0002:00009c20       ??_R1A@?0A@EA@?$FixedSizeChunkImpl@VAbuseUser@@@internal@util@@8 00451c20     AbuseUserManager.obj
 0002:00009c3c       ??_R4length_error@std@@6B@ 00451c3c     AbuseUserManager.obj
 0002:00009c50       ??_R3length_error@std@@8   00451c50     AbuseUserManager.obj
 0002:00009c60       ??_R2length_error@std@@8   00451c60     AbuseUserManager.obj
 0002:00009c70       ??_R1A@?0A@EA@length_error@std@@8 00451c70     AbuseUserManager.obj
 0002:00009c8c       ??_R4out_of_range@std@@6B@ 00451c8c     AbuseUserManager.obj
 0002:00009ca0       ??_R3out_of_range@std@@8   00451ca0     AbuseUserManager.obj
 0002:00009cb0       ??_R2out_of_range@std@@8   00451cb0     AbuseUserManager.obj
 0002:00009cc0       ??_R1A@?0A@EA@out_of_range@std@@8 00451cc0     AbuseUserManager.obj
 0002:00009cdc       ??_R4IWorkNode@@6B@        00451cdc     MasterServerInfo.obj
 0002:00009cf0       ??_R3IWorkNode@@8          00451cf0     MasterServerInfo.obj
 0002:00009d00       ??_R2IWorkNode@@8          00451d00     MasterServerInfo.obj
 0002:00009d08       ??_R1A@?0A@EA@IWorkNode@@8 00451d08     MasterServerInfo.obj
 0002:00009d24       ??_R4PROCESS_EXIT_PROCESS@@6B@ 00451d24     MasterServerInfo.obj
 0002:00009d38       ??_R3PROCESS_EXIT_PROCESS@@8 00451d38     MasterServerInfo.obj
 0002:00009d48       ??_R2PROCESS_EXIT_PROCESS@@8 00451d48     MasterServerInfo.obj
 0002:00009d54       ??_R1A@?0A@EA@PROCESS_EXIT_PROCESS@@8 00451d54     MasterServerInfo.obj
 0002:00009d70       ??_R4PROCESS_TIMER_PROCESS@@6B@ 00451d70     MasterServerInfo.obj
 0002:00009d84       ??_R3PROCESS_TIMER_PROCESS@@8 00451d84     MasterServerInfo.obj
 0002:00009d94       ??_R2PROCESS_TIMER_PROCESS@@8 00451d94     MasterServerInfo.obj
 0002:00009da0       ??_R1A@?0A@EA@PROCESS_TIMER_PROCESS@@8 00451da0     MasterServerInfo.obj
 0002:00009dbc       ??_R4BASE_FUNC@util@@6B@   00451dbc     PacketHandler.obj
 0002:00009dd0       ??_R3BASE_FUNC@util@@8     00451dd0     PacketHandler.obj
 0002:00009de0       ??_R2BASE_FUNC@util@@8     00451de0     PacketHandler.obj
 0002:00009de8       ??_R1A@?0A@EA@BASE_FUNC@util@@8 00451de8     PacketHandler.obj
 0002:00009e04       ??_R4FUNC_GENERIC@@6B@     00451e04     PacketHandler.obj
 0002:00009e18       ??_R3FUNC_GENERIC@@8       00451e18     PacketHandler.obj
 0002:00009e28       ??_R2FUNC_GENERIC@@8       00451e28     PacketHandler.obj
 0002:00009e34       ??_R1A@?0A@EA@FUNC_GENERIC@@8 00451e34     PacketHandler.obj
 0002:00009e50       ??_R4MasterServerEx@@6B@   00451e50     MasterServerEx.obj
 0002:00009e64       ??_R3MasterServerEx@@8     00451e64     MasterServerEx.obj
 0002:00009e74       ??_R2MasterServerEx@@8     00451e74     MasterServerEx.obj
 0002:00009e80       ??_R1A@?0A@EA@MasterServerEx@@8 00451e80     MasterServerEx.obj
 0002:00009e9c       ??_R1A@?0A@EA@ServerFrame@@8 00451e9c     MasterServerEx.obj
 0002:00009eb8       ??_R3ServerFrame@@8        00451eb8     MasterServerEx.obj
 0002:00009ec8       ??_R2ServerFrame@@8        00451ec8     MasterServerEx.obj
 0002:00009ed0       ??_R4?$CMemoryPoolFactory@VAgentServerSession@@@util@@6B@ 00451ed0     ServerSessionManager.obj
 0002:00009ee4       ??_R3?$CMemoryPoolFactory@VAgentServerSession@@@util@@8 00451ee4     ServerSessionManager.obj
 0002:00009ef4       ??_R2?$CMemoryPoolFactory@VAgentServerSession@@@util@@8 00451ef4     ServerSessionManager.obj
 0002:00009f00       ??_R1A@?0A@EA@?$CMemoryPoolFactory@VAgentServerSession@@@util@@8 00451f00     ServerSessionManager.obj
 0002:00009f1c       ??_R4?$CMemoryPoolFactory@VFieldServerSession@@@util@@6B@ 00451f1c     ServerSessionManager.obj
 0002:00009f30       ??_R3?$CMemoryPoolFactory@VFieldServerSession@@@util@@8 00451f30     ServerSessionManager.obj
 0002:00009f40       ??_R2?$CMemoryPoolFactory@VFieldServerSession@@@util@@8 00451f40     ServerSessionManager.obj
 0002:00009f4c       ??_R1A@?0A@EA@?$CMemoryPoolFactory@VFieldServerSession@@@util@@8 00451f4c     ServerSessionManager.obj
 0002:00009f68       ??_R4?$CMemoryPoolFactory@VBattleServerSession@@@util@@6B@ 00451f68     ServerSessionManager.obj
 0002:00009f7c       ??_R3?$CMemoryPoolFactory@VBattleServerSession@@@util@@8 00451f7c     ServerSessionManager.obj
 0002:00009f8c       ??_R2?$CMemoryPoolFactory@VBattleServerSession@@@util@@8 00451f8c     ServerSessionManager.obj
 0002:00009f98       ??_R1A@?0A@EA@?$CMemoryPoolFactory@VBattleServerSession@@@util@@8 00451f98     ServerSessionManager.obj
 0002:00009fb4       ??_R4?$CMemoryPoolFactory@VGameDBProxySession@@@util@@6B@ 00451fb4     ServerSessionManager.obj
 0002:00009fc8       ??_R3?$CMemoryPoolFactory@VGameDBProxySession@@@util@@8 00451fc8     ServerSessionManager.obj
 0002:00009fd8       ??_R2?$CMemoryPoolFactory@VGameDBProxySession@@@util@@8 00451fd8     ServerSessionManager.obj
 0002:00009fe4       ??_R1A@?0A@EA@?$CMemoryPoolFactory@VGameDBProxySession@@@util@@8 00451fe4     ServerSessionManager.obj
 0002:0000a000       ??_R4?$CMemoryPoolFactory@VWorldServerSession@@@util@@6B@ 00452000     ServerSessionManager.obj
 0002:0000a014       ??_R3?$CMemoryPoolFactory@VWorldServerSession@@@util@@8 00452014     ServerSessionManager.obj
 0002:0000a024       ??_R2?$CMemoryPoolFactory@VWorldServerSession@@@util@@8 00452024     ServerSessionManager.obj
 0002:0000a030       ??_R1A@?0A@EA@?$CMemoryPoolFactory@VWorldServerSession@@@util@@8 00452030     ServerSessionManager.obj
 0002:0000a04c       ??_R4?$CMemoryPoolFactory@VGuildServerSession@@@util@@6B@ 0045204c     ServerSessionManager.obj
 0002:0000a060       ??_R3?$CMemoryPoolFactory@VGuildServerSession@@@util@@8 00452060     ServerSessionManager.obj
 0002:0000a070       ??_R2?$CMemoryPoolFactory@VGuildServerSession@@@util@@8 00452070     ServerSessionManager.obj
 0002:0000a07c       ??_R1A@?0A@EA@?$CMemoryPoolFactory@VGuildServerSession@@@util@@8 0045207c     ServerSessionManager.obj
 0002:0000a098       ??_R4?$CMemoryPoolFactory@VAccountDBProxySession@@@util@@6B@ 00452098     ServerSessionManager.obj
 0002:0000a0ac       ??_R3?$CMemoryPoolFactory@VAccountDBProxySession@@@util@@8 004520ac     ServerSessionManager.obj
 0002:0000a0bc       ??_R2?$CMemoryPoolFactory@VAccountDBProxySession@@@util@@8 004520bc     ServerSessionManager.obj
 0002:0000a0c8       ??_R1A@?0A@EA@?$CMemoryPoolFactory@VAccountDBProxySession@@@util@@8 004520c8     ServerSessionManager.obj
 0002:0000a0e4       ??_R4?$CMemoryPoolFactory@VOpServerSession@@@util@@6B@ 004520e4     ServerSessionManager.obj
 0002:0000a0f8       ??_R3?$CMemoryPoolFactory@VOpServerSession@@@util@@8 004520f8     ServerSessionManager.obj
 0002:0000a108       ??_R2?$CMemoryPoolFactory@VOpServerSession@@@util@@8 00452108     ServerSessionManager.obj
 0002:0000a114       ??_R1A@?0A@EA@?$CMemoryPoolFactory@VOpServerSession@@@util@@8 00452114     ServerSessionManager.obj
 0002:0000a130       ??_R4?$CMemoryPoolFactory@VTempServerSessionEx@@@util@@6B@ 00452130     ServerSessionManager.obj
 0002:0000a144       ??_R3?$CMemoryPoolFactory@VTempServerSessionEx@@@util@@8 00452144     ServerSessionManager.obj
 0002:0000a154       ??_R2?$CMemoryPoolFactory@VTempServerSessionEx@@@util@@8 00452154     ServerSessionManager.obj
 0002:0000a160       ??_R1A@?0A@EA@?$CMemoryPoolFactory@VTempServerSessionEx@@@util@@8 00452160     ServerSessionManager.obj
 0002:0000a17c       ??_R4?$CMemoryPoolFactory@VSolarAuthServerSession@@@util@@6B@ 0045217c     ServerSessionManager.obj
 0002:0000a190       ??_R3?$CMemoryPoolFactory@VSolarAuthServerSession@@@util@@8 00452190     ServerSessionManager.obj
 0002:0000a1a0       ??_R2?$CMemoryPoolFactory@VSolarAuthServerSession@@@util@@8 004521a0     ServerSessionManager.obj
 0002:0000a1ac       ??_R1A@?0A@EA@?$CMemoryPoolFactory@VSolarAuthServerSession@@@util@@8 004521ac     ServerSessionManager.obj
 0002:0000a1c8       ??_R4?$NotUseChunkImpl@VAgentServerSession@@@internal@util@@6B@ 004521c8     ServerSessionManager.obj
 0002:0000a1dc       ??_R3?$NotUseChunkImpl@VAgentServerSession@@@internal@util@@8 004521dc     ServerSessionManager.obj
 0002:0000a1ec       ??_R2?$NotUseChunkImpl@VAgentServerSession@@@internal@util@@8 004521ec     ServerSessionManager.obj
 0002:0000a1f8       ??_R1A@?0A@EA@?$NotUseChunkImpl@VAgentServerSession@@@internal@util@@8 004521f8     ServerSessionManager.obj
 0002:0000a214       ??_R4?$NotUseChunkImpl@VFieldServerSession@@@internal@util@@6B@ 00452214     ServerSessionManager.obj
 0002:0000a228       ??_R3?$NotUseChunkImpl@VFieldServerSession@@@internal@util@@8 00452228     ServerSessionManager.obj
 0002:0000a238       ??_R2?$NotUseChunkImpl@VFieldServerSession@@@internal@util@@8 00452238     ServerSessionManager.obj
 0002:0000a244       ??_R1A@?0A@EA@?$NotUseChunkImpl@VFieldServerSession@@@internal@util@@8 00452244     ServerSessionManager.obj
 0002:0000a260       ??_R4?$NotUseChunkImpl@VBattleServerSession@@@internal@util@@6B@ 00452260     ServerSessionManager.obj
 0002:0000a274       ??_R3?$NotUseChunkImpl@VBattleServerSession@@@internal@util@@8 00452274     ServerSessionManager.obj
 0002:0000a284       ??_R2?$NotUseChunkImpl@VBattleServerSession@@@internal@util@@8 00452284     ServerSessionManager.obj
 0002:0000a290       ??_R1A@?0A@EA@?$NotUseChunkImpl@VBattleServerSession@@@internal@util@@8 00452290     ServerSessionManager.obj
 0002:0000a2ac       ??_R4?$NotUseChunkImpl@VGameDBProxySession@@@internal@util@@6B@ 004522ac     ServerSessionManager.obj
 0002:0000a2c0       ??_R3?$NotUseChunkImpl@VGameDBProxySession@@@internal@util@@8 004522c0     ServerSessionManager.obj
 0002:0000a2d0       ??_R2?$NotUseChunkImpl@VGameDBProxySession@@@internal@util@@8 004522d0     ServerSessionManager.obj
 0002:0000a2dc       ??_R1A@?0A@EA@?$NotUseChunkImpl@VGameDBProxySession@@@internal@util@@8 004522dc     ServerSessionManager.obj
 0002:0000a2f8       ??_R4?$NotUseChunkImpl@VWorldServerSession@@@internal@util@@6B@ 004522f8     ServerSessionManager.obj
 0002:0000a30c       ??_R3?$NotUseChunkImpl@VWorldServerSession@@@internal@util@@8 0045230c     ServerSessionManager.obj
 0002:0000a31c       ??_R2?$NotUseChunkImpl@VWorldServerSession@@@internal@util@@8 0045231c     ServerSessionManager.obj
 0002:0000a328       ??_R1A@?0A@EA@?$NotUseChunkImpl@VWorldServerSession@@@internal@util@@8 00452328     ServerSessionManager.obj
 0002:0000a344       ??_R4?$NotUseChunkImpl@VGuildServerSession@@@internal@util@@6B@ 00452344     ServerSessionManager.obj
 0002:0000a358       ??_R3?$NotUseChunkImpl@VGuildServerSession@@@internal@util@@8 00452358     ServerSessionManager.obj
 0002:0000a368       ??_R2?$NotUseChunkImpl@VGuildServerSession@@@internal@util@@8 00452368     ServerSessionManager.obj
 0002:0000a374       ??_R1A@?0A@EA@?$NotUseChunkImpl@VGuildServerSession@@@internal@util@@8 00452374     ServerSessionManager.obj
 0002:0000a390       ??_R4?$NotUseChunkImpl@VAccountDBProxySession@@@internal@util@@6B@ 00452390     ServerSessionManager.obj
 0002:0000a3a4       ??_R3?$NotUseChunkImpl@VAccountDBProxySession@@@internal@util@@8 004523a4     ServerSessionManager.obj
 0002:0000a3b4       ??_R2?$NotUseChunkImpl@VAccountDBProxySession@@@internal@util@@8 004523b4     ServerSessionManager.obj
 0002:0000a3c0       ??_R1A@?0A@EA@?$NotUseChunkImpl@VAccountDBProxySession@@@internal@util@@8 004523c0     ServerSessionManager.obj
 0002:0000a3dc       ??_R4?$NotUseChunkImpl@VOpServerSession@@@internal@util@@6B@ 004523dc     ServerSessionManager.obj
 0002:0000a3f0       ??_R3?$NotUseChunkImpl@VOpServerSession@@@internal@util@@8 004523f0     ServerSessionManager.obj
 0002:0000a400       ??_R2?$NotUseChunkImpl@VOpServerSession@@@internal@util@@8 00452400     ServerSessionManager.obj
 0002:0000a40c       ??_R1A@?0A@EA@?$NotUseChunkImpl@VOpServerSession@@@internal@util@@8 0045240c     ServerSessionManager.obj
 0002:0000a428       ??_R4?$NotUseChunkImpl@VTempServerSessionEx@@@internal@util@@6B@ 00452428     ServerSessionManager.obj
 0002:0000a43c       ??_R3?$NotUseChunkImpl@VTempServerSessionEx@@@internal@util@@8 0045243c     ServerSessionManager.obj
 0002:0000a44c       ??_R2?$NotUseChunkImpl@VTempServerSessionEx@@@internal@util@@8 0045244c     ServerSessionManager.obj
 0002:0000a458       ??_R1A@?0A@EA@?$NotUseChunkImpl@VTempServerSessionEx@@@internal@util@@8 00452458     ServerSessionManager.obj
 0002:0000a474       ??_R4?$NotUseChunkImpl@VSolarAuthServerSession@@@internal@util@@6B@ 00452474     ServerSessionManager.obj
 0002:0000a488       ??_R3?$NotUseChunkImpl@VSolarAuthServerSession@@@internal@util@@8 00452488     ServerSessionManager.obj
 0002:0000a498       ??_R2?$NotUseChunkImpl@VSolarAuthServerSession@@@internal@util@@8 00452498     ServerSessionManager.obj
 0002:0000a4a4       ??_R1A@?0A@EA@?$NotUseChunkImpl@VSolarAuthServerSession@@@internal@util@@8 004524a4     ServerSessionManager.obj
 0002:0000a4c0       ??_R4?$VariableSizeChunkImpl@VSolarAuthServerSession@@@internal@util@@6B@ 004524c0     ServerSessionManager.obj
 0002:0000a4d4       ??_R3?$VariableSizeChunkImpl@VSolarAuthServerSession@@@internal@util@@8 004524d4     ServerSessionManager.obj
 0002:0000a4e4       ??_R2?$VariableSizeChunkImpl@VSolarAuthServerSession@@@internal@util@@8 004524e4     ServerSessionManager.obj
 0002:0000a4f0       ??_R1A@?0A@EA@?$VariableSizeChunkImpl@VSolarAuthServerSession@@@internal@util@@8 004524f0     ServerSessionManager.obj
 0002:0000a50c       ??_R4?$FixedSizeChunkImpl@VAgentServerSession@@@internal@util@@6B@ 0045250c     ServerSessionManager.obj
 0002:0000a520       ??_R3?$FixedSizeChunkImpl@VAgentServerSession@@@internal@util@@8 00452520     ServerSessionManager.obj
 0002:0000a530       ??_R2?$FixedSizeChunkImpl@VAgentServerSession@@@internal@util@@8 00452530     ServerSessionManager.obj
 0002:0000a53c       ??_R1A@?0A@EA@?$FixedSizeChunkImpl@VAgentServerSession@@@internal@util@@8 0045253c     ServerSessionManager.obj
 0002:0000a558       ??_R4?$FixedSizeChunkImpl@VFieldServerSession@@@internal@util@@6B@ 00452558     ServerSessionManager.obj
 0002:0000a56c       ??_R3?$FixedSizeChunkImpl@VFieldServerSession@@@internal@util@@8 0045256c     ServerSessionManager.obj
 0002:0000a57c       ??_R2?$FixedSizeChunkImpl@VFieldServerSession@@@internal@util@@8 0045257c     ServerSessionManager.obj
 0002:0000a588       ??_R1A@?0A@EA@?$FixedSizeChunkImpl@VFieldServerSession@@@internal@util@@8 00452588     ServerSessionManager.obj
 0002:0000a5a4       ??_R4?$FixedSizeChunkImpl@VBattleServerSession@@@internal@util@@6B@ 004525a4     ServerSessionManager.obj
 0002:0000a5b8       ??_R3?$FixedSizeChunkImpl@VBattleServerSession@@@internal@util@@8 004525b8     ServerSessionManager.obj
 0002:0000a5c8       ??_R2?$FixedSizeChunkImpl@VBattleServerSession@@@internal@util@@8 004525c8     ServerSessionManager.obj
 0002:0000a5d4       ??_R1A@?0A@EA@?$FixedSizeChunkImpl@VBattleServerSession@@@internal@util@@8 004525d4     ServerSessionManager.obj
 0002:0000a5f0       ??_R4?$FixedSizeChunkImpl@VGameDBProxySession@@@internal@util@@6B@ 004525f0     ServerSessionManager.obj
 0002:0000a604       ??_R3?$FixedSizeChunkImpl@VGameDBProxySession@@@internal@util@@8 00452604     ServerSessionManager.obj
 0002:0000a614       ??_R2?$FixedSizeChunkImpl@VGameDBProxySession@@@internal@util@@8 00452614     ServerSessionManager.obj
 0002:0000a620       ??_R1A@?0A@EA@?$FixedSizeChunkImpl@VGameDBProxySession@@@internal@util@@8 00452620     ServerSessionManager.obj
 0002:0000a63c       ??_R4?$FixedSizeChunkImpl@VWorldServerSession@@@internal@util@@6B@ 0045263c     ServerSessionManager.obj
 0002:0000a650       ??_R3?$FixedSizeChunkImpl@VWorldServerSession@@@internal@util@@8 00452650     ServerSessionManager.obj
 0002:0000a660       ??_R2?$FixedSizeChunkImpl@VWorldServerSession@@@internal@util@@8 00452660     ServerSessionManager.obj
 0002:0000a66c       ??_R1A@?0A@EA@?$FixedSizeChunkImpl@VWorldServerSession@@@internal@util@@8 0045266c     ServerSessionManager.obj
 0002:0000a688       ??_R4?$FixedSizeChunkImpl@VGuildServerSession@@@internal@util@@6B@ 00452688     ServerSessionManager.obj
 0002:0000a69c       ??_R3?$FixedSizeChunkImpl@VGuildServerSession@@@internal@util@@8 0045269c     ServerSessionManager.obj
 0002:0000a6ac       ??_R2?$FixedSizeChunkImpl@VGuildServerSession@@@internal@util@@8 004526ac     ServerSessionManager.obj
 0002:0000a6b8       ??_R1A@?0A@EA@?$FixedSizeChunkImpl@VGuildServerSession@@@internal@util@@8 004526b8     ServerSessionManager.obj
 0002:0000a6d4       ??_R4?$FixedSizeChunkImpl@VAccountDBProxySession@@@internal@util@@6B@ 004526d4     ServerSessionManager.obj
 0002:0000a6e8       ??_R3?$FixedSizeChunkImpl@VAccountDBProxySession@@@internal@util@@8 004526e8     ServerSessionManager.obj
 0002:0000a6f8       ??_R2?$FixedSizeChunkImpl@VAccountDBProxySession@@@internal@util@@8 004526f8     ServerSessionManager.obj
 0002:0000a704       ??_R1A@?0A@EA@?$FixedSizeChunkImpl@VAccountDBProxySession@@@internal@util@@8 00452704     ServerSessionManager.obj
 0002:0000a720       ??_R4?$FixedSizeChunkImpl@VOpServerSession@@@internal@util@@6B@ 00452720     ServerSessionManager.obj
 0002:0000a734       ??_R3?$FixedSizeChunkImpl@VOpServerSession@@@internal@util@@8 00452734     ServerSessionManager.obj
 0002:0000a744       ??_R2?$FixedSizeChunkImpl@VOpServerSession@@@internal@util@@8 00452744     ServerSessionManager.obj
 0002:0000a750       ??_R1A@?0A@EA@?$FixedSizeChunkImpl@VOpServerSession@@@internal@util@@8 00452750     ServerSessionManager.obj
 0002:0000a76c       ??_R4?$FixedSizeChunkImpl@VTempServerSessionEx@@@internal@util@@6B@ 0045276c     ServerSessionManager.obj
 0002:0000a780       ??_R3?$FixedSizeChunkImpl@VTempServerSessionEx@@@internal@util@@8 00452780     ServerSessionManager.obj
 0002:0000a790       ??_R2?$FixedSizeChunkImpl@VTempServerSessionEx@@@internal@util@@8 00452790     ServerSessionManager.obj
 0002:0000a79c       ??_R1A@?0A@EA@?$FixedSizeChunkImpl@VTempServerSessionEx@@@internal@util@@8 0045279c     ServerSessionManager.obj
 0002:0000a7b8       ??_R4?$FixedSizeChunkImpl@VSolarAuthServerSession@@@internal@util@@6B@ 004527b8     ServerSessionManager.obj
 0002:0000a7cc       ??_R3?$FixedSizeChunkImpl@VSolarAuthServerSession@@@internal@util@@8 004527cc     ServerSessionManager.obj
 0002:0000a7dc       ??_R2?$FixedSizeChunkImpl@VSolarAuthServerSession@@@internal@util@@8 004527dc     ServerSessionManager.obj
 0002:0000a7e8       ??_R1A@?0A@EA@?$FixedSizeChunkImpl@VSolarAuthServerSession@@@internal@util@@8 004527e8     ServerSessionManager.obj
 0002:0000a804       ??_R4TempServerSessionEx@@6B@ 00452804     ServerSessionManager.obj
 0002:0000a818       ??_R3TempServerSessionEx@@8 00452818     ServerSessionManager.obj
 0002:0000a828       ??_R2TempServerSessionEx@@8 00452828     ServerSessionManager.obj
 0002:0000a83c       ??_R1A@?0A@EA@TempServerSessionEx@@8 0045283c     ServerSessionManager.obj
 0002:0000a858       ??_R1A@?0A@EA@TempServerSession@@8 00452858     ServerSessionManager.obj
 0002:0000a874       ??_R3TempServerSession@@8  00452874     ServerSessionManager.obj
 0002:0000a884       ??_R2TempServerSession@@8  00452884     ServerSessionManager.obj
 0002:0000a894       ??_R1A@?0A@EA@ServerSession@@8 00452894     ServerSessionManager.obj
 0002:0000a8b0       ??_R3ServerSession@@8      004528b0     ServerSessionManager.obj
 0002:0000a8c0       ??_R2ServerSession@@8      004528c0     ServerSessionManager.obj
 0002:0000a8cc       ??_R1A@?0A@EA@NetworkObject@@8 004528cc     ServerSessionManager.obj
 0002:0000a8e8       ??_R3NetworkObject@@8      004528e8     ServerSessionManager.obj
 0002:0000a8f8       ??_R2NetworkObject@@8      004528f8     ServerSessionManager.obj
 0002:0000a900       ??_R4ServerSessionEx@@6B@  00452900     ServerSessionManager.obj
 0002:0000a914       ??_R3ServerSessionEx@@8    00452914     ServerSessionManager.obj
 0002:0000a924       ??_R2ServerSessionEx@@8    00452924     ServerSessionManager.obj
 0002:0000a934       ??_R1A@?0A@EA@ServerSessionEx@@8 00452934     ServerSessionManager.obj
 0002:0000a950       ??_R4AccountDBProxySession@@6B@ 00452950     ServerSessionManager.obj
 0002:0000a964       ??_R3AccountDBProxySession@@8 00452964     ServerSessionManager.obj
 0002:0000a974       ??_R2AccountDBProxySession@@8 00452974     ServerSessionManager.obj
 0002:0000a988       ??_R1A@?0A@EA@AccountDBProxySession@@8 00452988     ServerSessionManager.obj
 0002:0000a9a4       ??_R4AgentServerSession@@6B@ 004529a4     ServerSessionManager.obj
 0002:0000a9b8       ??_R3AgentServerSession@@8 004529b8     ServerSessionManager.obj
 0002:0000a9c8       ??_R2AgentServerSession@@8 004529c8     ServerSessionManager.obj
 0002:0000a9dc       ??_R1A@?0A@EA@AgentServerSession@@8 004529dc     ServerSessionManager.obj
 0002:0000a9f8       ??_R4GameServerSession@@6B@ 004529f8     ServerSessionManager.obj
 0002:0000aa0c       ??_R3GameServerSession@@8  00452a0c     ServerSessionManager.obj
 0002:0000aa1c       ??_R2GameServerSession@@8  00452a1c     ServerSessionManager.obj
 0002:0000aa30       ??_R1A@?0A@EA@GameServerSession@@8 00452a30     ServerSessionManager.obj
 0002:0000aa4c       ??_R4BattleServerSession@@6B@ 00452a4c     ServerSessionManager.obj
 0002:0000aa60       ??_R3BattleServerSession@@8 00452a60     ServerSessionManager.obj
 0002:0000aa70       ??_R2BattleServerSession@@8 00452a70     ServerSessionManager.obj
 0002:0000aa88       ??_R1A@?0A@EA@BattleServerSession@@8 00452a88     ServerSessionManager.obj
 0002:0000aaa4       ??_R4FieldServerSession@@6B@ 00452aa4     ServerSessionManager.obj
 0002:0000aab8       ??_R3FieldServerSession@@8 00452ab8     ServerSessionManager.obj
 0002:0000aac8       ??_R2FieldServerSession@@8 00452ac8     ServerSessionManager.obj
 0002:0000aae0       ??_R1A@?0A@EA@FieldServerSession@@8 00452ae0     ServerSessionManager.obj
 0002:0000aafc       ??_R4GameDBProxySession@@6B@ 00452afc     ServerSessionManager.obj
 0002:0000ab10       ??_R3GameDBProxySession@@8 00452b10     ServerSessionManager.obj
 0002:0000ab20       ??_R2GameDBProxySession@@8 00452b20     ServerSessionManager.obj
 0002:0000ab34       ??_R1A@?0A@EA@GameDBProxySession@@8 00452b34     ServerSessionManager.obj
 0002:0000ab50       ??_R4GuildServerSession@@6B@ 00452b50     ServerSessionManager.obj
 0002:0000ab64       ??_R3GuildServerSession@@8 00452b64     ServerSessionManager.obj
 0002:0000ab74       ??_R2GuildServerSession@@8 00452b74     ServerSessionManager.obj
 0002:0000ab88       ??_R1A@?0A@EA@GuildServerSession@@8 00452b88     ServerSessionManager.obj
 0002:0000aba4       ??_R4OpServerSession@@6B@  00452ba4     ServerSessionManager.obj
 0002:0000abb8       ??_R3OpServerSession@@8    00452bb8     ServerSessionManager.obj
 0002:0000abc8       ??_R2OpServerSession@@8    00452bc8     ServerSessionManager.obj
 0002:0000abdc       ??_R1A@?0A@EA@OpServerSession@@8 00452bdc     ServerSessionManager.obj
 0002:0000abf8       ??_R4WorldServerSession@@6B@ 00452bf8     ServerSessionManager.obj
 0002:0000ac0c       ??_R3WorldServerSession@@8 00452c0c     ServerSessionManager.obj
 0002:0000ac1c       ??_R2WorldServerSession@@8 00452c1c     ServerSessionManager.obj
 0002:0000ac30       ??_R1A@?0A@EA@WorldServerSession@@8 00452c30     ServerSessionManager.obj
 0002:0000ac4c       ??_R4?$VariableSizeChunkImpl@VTempServerSessionEx@@@internal@util@@6B@ 00452c4c     ServerSessionManager.obj
 0002:0000ac60       ??_R3?$VariableSizeChunkImpl@VTempServerSessionEx@@@internal@util@@8 00452c60     ServerSessionManager.obj
 0002:0000ac70       ??_R2?$VariableSizeChunkImpl@VTempServerSessionEx@@@internal@util@@8 00452c70     ServerSessionManager.obj
 0002:0000ac7c       ??_R1A@?0A@EA@?$VariableSizeChunkImpl@VTempServerSessionEx@@@internal@util@@8 00452c7c     ServerSessionManager.obj
 0002:0000ac98       ??_R4?$VariableSizeChunkImpl@VAgentServerSession@@@internal@util@@6B@ 00452c98     ServerSessionManager.obj
 0002:0000acac       ??_R3?$VariableSizeChunkImpl@VAgentServerSession@@@internal@util@@8 00452cac     ServerSessionManager.obj
 0002:0000acbc       ??_R2?$VariableSizeChunkImpl@VAgentServerSession@@@internal@util@@8 00452cbc     ServerSessionManager.obj
 0002:0000acc8       ??_R1A@?0A@EA@?$VariableSizeChunkImpl@VAgentServerSession@@@internal@util@@8 00452cc8     ServerSessionManager.obj
 0002:0000ace4       ??_R4?$VariableSizeChunkImpl@VFieldServerSession@@@internal@util@@6B@ 00452ce4     ServerSessionManager.obj
 0002:0000acf8       ??_R3?$VariableSizeChunkImpl@VFieldServerSession@@@internal@util@@8 00452cf8     ServerSessionManager.obj
 0002:0000ad08       ??_R2?$VariableSizeChunkImpl@VFieldServerSession@@@internal@util@@8 00452d08     ServerSessionManager.obj
 0002:0000ad14       ??_R1A@?0A@EA@?$VariableSizeChunkImpl@VFieldServerSession@@@internal@util@@8 00452d14     ServerSessionManager.obj
 0002:0000ad30       ??_R4?$VariableSizeChunkImpl@VBattleServerSession@@@internal@util@@6B@ 00452d30     ServerSessionManager.obj
 0002:0000ad44       ??_R3?$VariableSizeChunkImpl@VBattleServerSession@@@internal@util@@8 00452d44     ServerSessionManager.obj
 0002:0000ad54       ??_R2?$VariableSizeChunkImpl@VBattleServerSession@@@internal@util@@8 00452d54     ServerSessionManager.obj
 0002:0000ad60       ??_R1A@?0A@EA@?$VariableSizeChunkImpl@VBattleServerSession@@@internal@util@@8 00452d60     ServerSessionManager.obj
 0002:0000ad7c       ??_R4?$VariableSizeChunkImpl@VGameDBProxySession@@@internal@util@@6B@ 00452d7c     ServerSessionManager.obj
 0002:0000ad90       ??_R3?$VariableSizeChunkImpl@VGameDBProxySession@@@internal@util@@8 00452d90     ServerSessionManager.obj
 0002:0000ada0       ??_R2?$VariableSizeChunkImpl@VGameDBProxySession@@@internal@util@@8 00452da0     ServerSessionManager.obj
 0002:0000adac       ??_R1A@?0A@EA@?$VariableSizeChunkImpl@VGameDBProxySession@@@internal@util@@8 00452dac     ServerSessionManager.obj
 0002:0000adc8       ??_R4?$VariableSizeChunkImpl@VWorldServerSession@@@internal@util@@6B@ 00452dc8     ServerSessionManager.obj
 0002:0000addc       ??_R3?$VariableSizeChunkImpl@VWorldServerSession@@@internal@util@@8 00452ddc     ServerSessionManager.obj
 0002:0000adec       ??_R2?$VariableSizeChunkImpl@VWorldServerSession@@@internal@util@@8 00452dec     ServerSessionManager.obj
 0002:0000adf8       ??_R1A@?0A@EA@?$VariableSizeChunkImpl@VWorldServerSession@@@internal@util@@8 00452df8     ServerSessionManager.obj
 0002:0000ae14       ??_R4?$VariableSizeChunkImpl@VGuildServerSession@@@internal@util@@6B@ 00452e14     ServerSessionManager.obj
 0002:0000ae28       ??_R3?$VariableSizeChunkImpl@VGuildServerSession@@@internal@util@@8 00452e28     ServerSessionManager.obj
 0002:0000ae38       ??_R2?$VariableSizeChunkImpl@VGuildServerSession@@@internal@util@@8 00452e38     ServerSessionManager.obj
 0002:0000ae44       ??_R1A@?0A@EA@?$VariableSizeChunkImpl@VGuildServerSession@@@internal@util@@8 00452e44     ServerSessionManager.obj
 0002:0000ae60       ??_R4?$VariableSizeChunkImpl@VAccountDBProxySession@@@internal@util@@6B@ 00452e60     ServerSessionManager.obj
 0002:0000ae74       ??_R3?$VariableSizeChunkImpl@VAccountDBProxySession@@@internal@util@@8 00452e74     ServerSessionManager.obj
 0002:0000ae84       ??_R2?$VariableSizeChunkImpl@VAccountDBProxySession@@@internal@util@@8 00452e84     ServerSessionManager.obj
 0002:0000ae90       ??_R1A@?0A@EA@?$VariableSizeChunkImpl@VAccountDBProxySession@@@internal@util@@8 00452e90     ServerSessionManager.obj
 0002:0000aeac       ??_R4?$VariableSizeChunkImpl@VOpServerSession@@@internal@util@@6B@ 00452eac     ServerSessionManager.obj
 0002:0000aec0       ??_R3?$VariableSizeChunkImpl@VOpServerSession@@@internal@util@@8 00452ec0     ServerSessionManager.obj
 0002:0000aed0       ??_R2?$VariableSizeChunkImpl@VOpServerSession@@@internal@util@@8 00452ed0     ServerSessionManager.obj
 0002:0000aedc       ??_R1A@?0A@EA@?$VariableSizeChunkImpl@VOpServerSession@@@internal@util@@8 00452edc     ServerSessionManager.obj
 0002:0000aef8       ??_R4SolarAuthServerSession@@6B@ 00452ef8     SolarAuthServerSession.obj
 0002:0000af0c       ??_R3SolarAuthServerSession@@8 00452f0c     SolarAuthServerSession.obj
 0002:0000af1c       ??_R2SolarAuthServerSession@@8 00452f1c     SolarAuthServerSession.obj
 0002:0000af30       ??_R1A@?0A@EA@SolarAuthServerSession@@8 00452f30     SolarAuthServerSession.obj
 0002:0000af4c       ??_R4SolarAuthServerSessionCrypted@@6B@ 00452f4c     SolarAuthServerSession.obj
 0002:0000af60       ??_R3SolarAuthServerSessionCrypted@@8 00452f60     SolarAuthServerSession.obj
 0002:0000af70       ??_R2SolarAuthServerSessionCrypted@@8 00452f70     SolarAuthServerSession.obj
 0002:0000af88       ??_R1A@?0A@EA@SolarAuthServerSessionCrypted@@8 00452f88     SolarAuthServerSession.obj
 0002:0000afa4       ??_R4ICompressConverter@@6B@ 00452fa4     MasterScriptParserManager.obj
 0002:0000afb8       ??_R3ICompressConverter@@8 00452fb8     MasterScriptParserManager.obj
 0002:0000afc8       ??_R2ICompressConverter@@8 00452fc8     MasterScriptParserManager.obj
 0002:0000afd4       ??_R1A@?0A@EA@ICompressConverter@@8 00452fd4     MasterScriptParserManager.obj
 0002:0000aff0       ??_R1A@?0A@EA@IParser@@8   00452ff0     MasterScriptParserManager.obj
 0002:0000b00c       ??_R3IParser@@8            0045300c     MasterScriptParserManager.obj
 0002:0000b01c       ??_R2IParser@@8            0045301c     MasterScriptParserManager.obj
 0002:0000b024       ??_R4IParserInMaster@@6B@  00453024     MasterScriptParserManager.obj
 0002:0000b038       ??_R3IParserInMaster@@8    00453038     MasterScriptParserManager.obj
 0002:0000b048       ??_R2IParserInMaster@@8    00453048     MasterScriptParserManager.obj
 0002:0000b058       ??_R1A@?0A@EA@IParserInMaster@@8 00453058     MasterScriptParserManager.obj
 0002:0000b074       ??_R4MasterScriptParserManager@@6B@ 00453074     MasterScriptParserManager.obj
 0002:0000b088       ??_R3MasterScriptParserManager@@8 00453088     MasterScriptParserManager.obj
 0002:0000b098       ??_R2MasterScriptParserManager@@8 00453098     MasterScriptParserManager.obj
 0002:0000b0a4       ??_R1A@?0A@EA@MasterScriptParserManager@@8 004530a4     MasterScriptParserManager.obj
 0002:0000b0c0       ??_R1A@?0A@EA@ScriptParserManager@@8 004530c0     MasterScriptParserManager.obj
 0002:0000b0dc       ??_R3ScriptParserManager@@8 004530dc     MasterScriptParserManager.obj
 0002:0000b0ec       ??_R2ScriptParserManager@@8 004530ec     MasterScriptParserManager.obj
 0002:0000b0f4       ??_R4AbusingOptionParser@@6B@ 004530f4     servercommon:AbusingOptionParser.obj
 0002:0000b108       ??_R3AbusingOptionParser@@8 00453108     servercommon:AbusingOptionParser.obj
 0002:0000b118       ??_R2AbusingOptionParser@@8 00453118     servercommon:AbusingOptionParser.obj
 0002:0000b128       ??_R1A@?0A@EA@AbusingOptionParser@@8 00453128     servercommon:AbusingOptionParser.obj
 0002:0000b144       ??_R1DDN@?0A@EA@?$Singleton@VAbusingOptionParser@@$00@util@@8 00453144     servercommon:AbusingOptionParser.obj
 0002:0000b160       ??_R3?$Singleton@VAbusingOptionParser@@$00@util@@8 00453160     servercommon:AbusingOptionParser.obj
 0002:0000b170       ??_R2?$Singleton@VAbusingOptionParser@@$00@util@@8 00453170     servercommon:AbusingOptionParser.obj
 0002:0000b178       ??_R1A@?0A@EA@?$Singleton@VAbusingOptionParser@@$00@util@@8 00453178     servercommon:AbusingOptionParser.obj
 0002:0000b194       ??_R4ServerFrame@@6B@      00453194     servercommon:ServerFrame.obj
 0002:0000b1a8       ??_R4CSunLog@@6B@          004531a8     servercommon:SunLog.obj
 0002:0000b1bc       ??_R3CSunLog@@8            004531bc     servercommon:SunLog.obj
 0002:0000b1cc       ??_R2CSunLog@@8            004531cc     servercommon:SunLog.obj
 0002:0000b1d4       ??_R1A@?0A@EA@CSunLog@@8   004531d4     servercommon:SunLog.obj
 0002:0000b1f0       ??_R4ServerSession@@6B@    004531f0     servercommon:ServerSession.obj
 0002:0000b204       ??_R4TempServerSession@@6B@ 00453204     servercommon:TempServerSession.obj
 0002:0000b218       ??_R4ScriptParserManager@@6B@ 00453218     programcommon_s:ScriptParserManager.obj
 0002:0000b22c       ??_R4IParser@@6B@          0045322c     programcommon_s:ScriptCode.IParser.Impl.obj
 0002:0000b240       ??_R4error_category@system@boost@@6B@ 00453240     libboost_system-vc90-mt-s-1_60:error_code.obj
 0002:0000b254       ??_R3error_category@system@boost@@8 00453254     libboost_system-vc90-mt-s-1_60:error_code.obj
 0002:0000b264       ??_R2error_category@system@boost@@8 00453264     libboost_system-vc90-mt-s-1_60:error_code.obj
 0002:0000b270       ??_R1A@?0A@EA@error_category@system@boost@@8 00453270     libboost_system-vc90-mt-s-1_60:error_code.obj
 0002:0000b28c       ??_R13?0A@EA@noncopyable@noncopyable_@boost@@8 0045328c     libboost_system-vc90-mt-s-1_60:error_code.obj
 0002:0000b2a8       ??_R3noncopyable@noncopyable_@boost@@8 004532a8     libboost_system-vc90-mt-s-1_60:error_code.obj
 0002:0000b2b8       ??_R2noncopyable@noncopyable_@boost@@8 004532b8     libboost_system-vc90-mt-s-1_60:error_code.obj
 0002:0000b2c0       ??_R1A@?0A@EA@noncopyable@noncopyable_@boost@@8 004532c0     libboost_system-vc90-mt-s-1_60:error_code.obj
 0002:0000b2dc       ??_R4system_error_category@?A0xa00a0bbd@system@boost@@6B@ 004532dc     libboost_system-vc90-mt-s-1_60:error_code.obj
 0002:0000b2f0       ??_R3system_error_category@?A0xa00a0bbd@system@boost@@8 004532f0     libboost_system-vc90-mt-s-1_60:error_code.obj
 0002:0000b300       ??_R2system_error_category@?A0xa00a0bbd@system@boost@@8 00453300     libboost_system-vc90-mt-s-1_60:error_code.obj
 0002:0000b310       ??_R1A@?0A@EA@system_error_category@?A0xa00a0bbd@system@boost@@8 00453310     libboost_system-vc90-mt-s-1_60:error_code.obj
 0002:0000b32c       ??_R4generic_error_category@?A0xa00a0bbd@system@boost@@6B@ 0045332c     libboost_system-vc90-mt-s-1_60:error_code.obj
 0002:0000b340       ??_R3generic_error_category@?A0xa00a0bbd@system@boost@@8 00453340     libboost_system-vc90-mt-s-1_60:error_code.obj
 0002:0000b350       ??_R2generic_error_category@?A0xa00a0bbd@system@boost@@8 00453350     libboost_system-vc90-mt-s-1_60:error_code.obj
 0002:0000b360       ??_R1A@?0A@EA@generic_error_category@?A0xa00a0bbd@system@boost@@8 00453360     libboost_system-vc90-mt-s-1_60:error_code.obj
 0002:0000b37c       ??_R4exception@std@@6B@    0045337c     LIBCMT:stdexcpt.obj
 0002:0000b390       ??_R4type_info@@6B@        00453390     LIBCMT:typinfo.obj
 0002:0000b3a4       ??_R3type_info@@8          004533a4     LIBCMT:typinfo.obj
 0002:0000b3b4       ??_R2type_info@@8          004533b4     LIBCMT:typinfo.obj
 0002:0000b3bc       ??_R1A@?0A@EA@type_info@@8 004533bc     LIBCMT:typinfo.obj
 0002:0000b3d8       ??_R4bad_exception@std@@6B@ 004533d8     LIBCMT:frame.obj
 0002:0000b3ec       ??_R3bad_exception@std@@8  004533ec     LIBCMT:frame.obj
 0002:0000b3fc       ??_R2bad_exception@std@@8  004533fc     LIBCMT:frame.obj
 0002:0000b408       ??_R1A@?0A@EA@bad_exception@std@@8 00453408     LIBCMT:frame.obj
 0002:0000b430       ___safe_se_handler_table   00453430     <linker-defined>
 0002:0000b65c       ___rtc_iaa                 0045365c     LIBCMT:_initsect_.obj
 0002:0000b660       ___rtc_izz                 00453660     LIBCMT:_initsect_.obj
 0002:0000b664       ___rtc_taa                 00453664     LIBCMT:_initsect_.obj
 0002:0000b668       ___rtc_tzz                 00453668     LIBCMT:_initsect_.obj
 0002:0000b69c       __TI2?AVbad_alloc@std@@    0045369c     AbuseUserManager.obj
 0002:0000b6ac       __CTA2?AVbad_alloc@std@@   004536ac     AbuseUserManager.obj
 0002:0000b6b8       __CT??_R0?AVbad_alloc@std@@@8??0bad_alloc@std@@QAE@ABV01@@Z12 004536b8     AbuseUserManager.obj
 0002:0000b6d4       __CT??_R0?AVexception@std@@@8??0exception@std@@QAE@ABV01@@Z12 004536d4     AbuseUserManager.obj
 0002:0000b8b8       __TI3?AVlength_error@std@@ 004538b8     AbuseUserManager.obj
 0002:0000b8c8       __CTA3?AVlength_error@std@@ 004538c8     AbuseUserManager.obj
 0002:0000b8d8       __CT??_R0?AVlength_error@std@@@8??0length_error@std@@QAE@ABV01@@Z40 004538d8     AbuseUserManager.obj
 0002:0000b8f4       __CT??_R0?AVlogic_error@std@@@8??0logic_error@std@@QAE@ABV01@@Z40 004538f4     AbuseUserManager.obj
 0002:0000b93c       __TI3?AVout_of_range@std@@ 0045393c     AbuseUserManager.obj
 0002:0000b978       __CTA3?AVout_of_range@std@@ 00453978     AbuseUserManager.obj
 0002:0000b988       __CT??_R0?AVout_of_range@std@@@8??0out_of_range@std@@QAE@ABV01@@Z40 00453988     AbuseUserManager.obj
 0002:0000d55c       __TI2?AVbad_exception@std@@ 0045555c     LIBCMT:frame.obj
 0002:0000d56c       __CTA2?AVbad_exception@std@@ 0045556c     LIBCMT:frame.obj
 0002:0000d578       __CT??_R0?AVbad_exception@std@@@8??0bad_exception@std@@QAE@ABV01@@Z12 00455578     LIBCMT:frame.obj
 0002:0000d9e4       __IMPORT_DESCRIPTOR_KERNEL32 004559e4     kernel32:KERNEL32.dll
 0002:0000d9f8       __IMPORT_DESCRIPTOR_WS2_32 004559f8     ws2_32:WS2_32.dll
 0002:0000da0c       __IMPORT_DESCRIPTOR_SolarLog 00455a0c     SolarLog:SolarLog.dll
 0002:0000da20       __IMPORT_DESCRIPTOR_WINMM  00455a20     winmm:WINMM.dll
 0002:0000da34       __IMPORT_DESCRIPTOR_USER32 00455a34     user32:USER32.dll
 0002:0000da48       __NULL_IMPORT_DESCRIPTOR   00455a48     kernel32:KERNEL32.dll
 0003:00000000       ??_R0?AVbad_alloc@std@@@8  00457000     AbuseUserManager.obj
 0003:0000001c       ??_R0?AVexception@std@@@8  0045701c     AbuseUserManager.obj
 0003:00000038       ??_R0?AUIVMemoryPool@util@@@8 00457038     AbuseUserManager.obj
 0003:00000058       ??_R0?AV?$CMemoryPoolFactory@VAbuseUser@@@util@@@8 00457058     AbuseUserManager.obj
 0003:00000090       ??_R0?AVIMemoryPoolFactoryImpl@internal@util@@@8 00457090     AbuseUserManager.obj
 0003:000000c4       ??_R0?AV?$NotUseChunkImpl@VAbuseUser@@@internal@util@@@8 004570c4     AbuseUserManager.obj
 0003:00000100       ??_R0?AV?$VariableSizeChunkImpl@VAbuseUser@@@internal@util@@@8 00457100     AbuseUserManager.obj
 0003:00000144       ??_R0?AVlogic_error@std@@@8 00457144     AbuseUserManager.obj
 0003:00000164       ??_R0?AV?$FixedSizeChunkImpl@VAbuseUser@@@internal@util@@@8 00457164     AbuseUserManager.obj
 0003:000001a4       ??_R0?AVlength_error@std@@@8 004571a4     AbuseUserManager.obj
 0003:000001c4       ??_R0?AVout_of_range@std@@@8 004571c4     AbuseUserManager.obj
 0003:000001e4       ??_R0?AVIWorkNode@@@8      004571e4     MasterServerInfo.obj
 0003:000001fc       ??_R0?AVPROCESS_EXIT_PROCESS@@@8 004571fc     MasterServerInfo.obj
 0003:00000220       ??_R0?AVPROCESS_TIMER_PROCESS@@@8 00457220     MasterServerInfo.obj
 0003:0000046c       ??_R0?AVBASE_FUNC@util@@@8 0045746c     PacketHandler.obj
 0003:0000048c       ??_R0?AUFUNC_GENERIC@@@8   0045748c     PacketHandler.obj
 0003:000004d8       ??_R0?AVMasterServerEx@@@8 004574d8     MasterServerEx.obj
 0003:000004f8       ??_R0?AVServerFrame@@@8    004574f8     MasterServerEx.obj
 0003:00000518       ??_R0?AV?$CMemoryPoolFactory@VAgentServerSession@@@util@@@8 00457518     ServerSessionManager.obj
 0003:00000558       ??_R0?AV?$CMemoryPoolFactory@VFieldServerSession@@@util@@@8 00457558     ServerSessionManager.obj
 0003:00000598       ??_R0?AV?$CMemoryPoolFactory@VBattleServerSession@@@util@@@8 00457598     ServerSessionManager.obj
 0003:000005d8       ??_R0?AV?$CMemoryPoolFactory@VGameDBProxySession@@@util@@@8 004575d8     ServerSessionManager.obj
 0003:00000618       ??_R0?AV?$CMemoryPoolFactory@VWorldServerSession@@@util@@@8 00457618     ServerSessionManager.obj
 0003:00000658       ??_R0?AV?$CMemoryPoolFactory@VGuildServerSession@@@util@@@8 00457658     ServerSessionManager.obj
 0003:00000698       ??_R0?AV?$CMemoryPoolFactory@VAccountDBProxySession@@@util@@@8 00457698     ServerSessionManager.obj
 0003:000006dc       ??_R0?AV?$CMemoryPoolFactory@VOpServerSession@@@util@@@8 004576dc     ServerSessionManager.obj
 0003:00000718       ??_R0?AV?$CMemoryPoolFactory@VTempServerSessionEx@@@util@@@8 00457718     ServerSessionManager.obj
 0003:00000758       ??_R0?AV?$CMemoryPoolFactory@VSolarAuthServerSession@@@util@@@8 00457758     ServerSessionManager.obj
 0003:000007a0       ??_R0?AV?$NotUseChunkImpl@VAgentServerSession@@@internal@util@@@8 004577a0     ServerSessionManager.obj
 0003:000007e8       ??_R0?AV?$NotUseChunkImpl@VFieldServerSession@@@internal@util@@@8 004577e8     ServerSessionManager.obj
 0003:00000830       ??_R0?AV?$NotUseChunkImpl@VBattleServerSession@@@internal@util@@@8 00457830     ServerSessionManager.obj
 0003:00000878       ??_R0?AV?$NotUseChunkImpl@VGameDBProxySession@@@internal@util@@@8 00457878     ServerSessionManager.obj
 0003:000008c0       ??_R0?AV?$NotUseChunkImpl@VWorldServerSession@@@internal@util@@@8 004578c0     ServerSessionManager.obj
 0003:00000908       ??_R0?AV?$NotUseChunkImpl@VGuildServerSession@@@internal@util@@@8 00457908     ServerSessionManager.obj
 0003:00000950       ??_R0?AV?$NotUseChunkImpl@VAccountDBProxySession@@@internal@util@@@8 00457950     ServerSessionManager.obj
 0003:00000998       ??_R0?AV?$NotUseChunkImpl@VOpServerSession@@@internal@util@@@8 00457998     ServerSessionManager.obj
 0003:000009e0       ??_R0?AV?$NotUseChunkImpl@VTempServerSessionEx@@@internal@util@@@8 004579e0     ServerSessionManager.obj
 0003:00000a28       ??_R0?AV?$NotUseChunkImpl@VSolarAuthServerSession@@@internal@util@@@8 00457a28     ServerSessionManager.obj
 0003:00000a70       ??_R0?AV?$VariableSizeChunkImpl@VSolarAuthServerSession@@@internal@util@@@8 00457a70     ServerSessionManager.obj
 0003:00000ac0       ??_R0?AV?$FixedSizeChunkImpl@VAgentServerSession@@@internal@util@@@8 00457ac0     ServerSessionManager.obj
 0003:00000b08       ??_R0?AV?$FixedSizeChunkImpl@VFieldServerSession@@@internal@util@@@8 00457b08     ServerSessionManager.obj
 0003:00000b50       ??_R0?AV?$FixedSizeChunkImpl@VBattleServerSession@@@internal@util@@@8 00457b50     ServerSessionManager.obj
 0003:00000b98       ??_R0?AV?$FixedSizeChunkImpl@VGameDBProxySession@@@internal@util@@@8 00457b98     ServerSessionManager.obj
 0003:00000be0       ??_R0?AV?$FixedSizeChunkImpl@VWorldServerSession@@@internal@util@@@8 00457be0     ServerSessionManager.obj
 0003:00000c28       ??_R0?AV?$FixedSizeChunkImpl@VGuildServerSession@@@internal@util@@@8 00457c28     ServerSessionManager.obj
 0003:00000c70       ??_R0?AV?$FixedSizeChunkImpl@VAccountDBProxySession@@@internal@util@@@8 00457c70     ServerSessionManager.obj
 0003:00000cc0       ??_R0?AV?$FixedSizeChunkImpl@VOpServerSession@@@internal@util@@@8 00457cc0     ServerSessionManager.obj
 0003:00000d08       ??_R0?AV?$FixedSizeChunkImpl@VTempServerSessionEx@@@internal@util@@@8 00457d08     ServerSessionManager.obj
 0003:00000d50       ??_R0?AV?$FixedSizeChunkImpl@VSolarAuthServerSession@@@internal@util@@@8 00457d50     ServerSessionManager.obj
 0003:00000d9c       ??_R0?AVTempServerSessionEx@@@8 00457d9c     ServerSessionManager.obj
 0003:00000dc0       ??_R0?AVTempServerSession@@@8 00457dc0     ServerSessionManager.obj
 0003:00000de0       ??_R0?AVServerSession@@@8  00457de0     ServerSessionManager.obj
 0003:00000dfc       ??_R0?AVNetworkObject@@@8  00457dfc     ServerSessionManager.obj
 0003:00000e18       ??_R0?AVServerSessionEx@@@8 00457e18     ServerSessionManager.obj
 0003:00000e38       ??_R0?AVAccountDBProxySession@@@8 00457e38     ServerSessionManager.obj
 0003:00000e5c       ??_R0?AVAgentServerSession@@@8 00457e5c     ServerSessionManager.obj
 0003:00000e80       ??_R0?AVGameServerSession@@@8 00457e80     ServerSessionManager.obj
 0003:00000ea0       ??_R0?AVBattleServerSession@@@8 00457ea0     ServerSessionManager.obj
 0003:00000ec4       ??_R0?AVFieldServerSession@@@8 00457ec4     ServerSessionManager.obj
 0003:00000ee8       ??_R0?AVGameDBProxySession@@@8 00457ee8     ServerSessionManager.obj
 0003:00000f0c       ??_R0?AVGuildServerSession@@@8 00457f0c     ServerSessionManager.obj
 0003:00000f30       ??_R0?AVOpServerSession@@@8 00457f30     ServerSessionManager.obj
 0003:00000f50       ??_R0?AVWorldServerSession@@@8 00457f50     ServerSessionManager.obj
 0003:00000f78       ??_R0?AV?$VariableSizeChunkImpl@VTempServerSessionEx@@@internal@util@@@8 00457f78     ServerSessionManager.obj
 0003:00000fc8       ??_R0?AV?$VariableSizeChunkImpl@VAgentServerSession@@@internal@util@@@8 00457fc8     ServerSessionManager.obj
 0003:00001018       ??_R0?AV?$VariableSizeChunkImpl@VFieldServerSession@@@internal@util@@@8 00458018     ServerSessionManager.obj
 0003:00001068       ??_R0?AV?$VariableSizeChunkImpl@VBattleServerSession@@@internal@util@@@8 00458068     ServerSessionManager.obj
 0003:000010b8       ??_R0?AV?$VariableSizeChunkImpl@VGameDBProxySession@@@internal@util@@@8 004580b8     ServerSessionManager.obj
 0003:00001108       ??_R0?AV?$VariableSizeChunkImpl@VWorldServerSession@@@internal@util@@@8 00458108     ServerSessionManager.obj
 0003:00001158       ??_R0?AV?$VariableSizeChunkImpl@VGuildServerSession@@@internal@util@@@8 00458158     ServerSessionManager.obj
 0003:000011a8       ??_R0?AV?$VariableSizeChunkImpl@VAccountDBProxySession@@@internal@util@@@8 004581a8     ServerSessionManager.obj
 0003:000011f8       ??_R0?AV?$VariableSizeChunkImpl@VOpServerSession@@@internal@util@@@8 004581f8     ServerSessionManager.obj
 0003:00001240       ??_R0?AVSolarAuthServerSession@@@8 00458240     SolarAuthServerSession.obj
 0003:00001268       ??_R0?AVSolarAuthServerSessionCrypted@@@8 00458268     SolarAuthServerSession.obj
 0003:00001294       ??_R0?AVICompressConverter@@@8 00458294     MasterScriptParserManager.obj
 0003:000012b8       ??_R0?AVIParser@@@8        004582b8     MasterScriptParserManager.obj
 0003:000012d0       ??_R0?AVIParserInMaster@@@8 004582d0     MasterScriptParserManager.obj
 0003:000012f0       ??_R0?AVMasterScriptParserManager@@@8 004582f0     MasterScriptParserManager.obj
 0003:00001318       ??_R0?AVScriptParserManager@@@8 00458318     MasterScriptParserManager.obj
 0003:0000133c       ??_R0?AVAbusingOptionParser@@@8 0045833c     servercommon:AbusingOptionParser.obj
 0003:00001360       ??_R0?AV?$Singleton@VAbusingOptionParser@@$00@util@@@8 00458360     servercommon:AbusingOptionParser.obj
 0003:00001420       ??_R0?AVCSunLog@@@8        00458420     servercommon:SunLog.obj
 0003:000014f0       ?ms_AssertionHandler@FlowControl@@0P6AXPAD0K@ZA 004584f0     utility_s:ErrorControl.obj
 0003:000014f8       ?s_pszBuildVersion@SolarDump@@0PADA 004584f8     utility_s:SolarDump.obj
 0003:00001610       ?_Sync@ios_base@std@@0_NA  00458610     libcpmt:ios.obj
 0003:00001618       ??_R0?AVerror_category@system@boost@@@8 00458618     libboost_system-vc90-mt-s-1_60:error_code.obj
 0003:00001644       ??_R0?AVnoncopyable@noncopyable_@boost@@@8 00458644     libboost_system-vc90-mt-s-1_60:error_code.obj
 0003:00001674       ??_R0?AVsystem_error_category@?A0xa00a0bbd@system@boost@@@8 00458674     libboost_system-vc90-mt-s-1_60:error_code.obj
 0003:000016b4       ??_R0?AVgeneric_error_category@?A0xa00a0bbd@system@boost@@@8 004586b4     libboost_system-vc90-mt-s-1_60:error_code.obj
 0003:000016f4       _z_errmsg                  004586f4     zlib:zutil.obj
 0003:00002868       _inflate_mask              00459868     zlib:infutil.obj
 0003:000028b4       ___security_cookie         004598b4     LIBCMT:gs_cookie.obj
 0003:000028b8       ___security_cookie_complement 004598b8     LIBCMT:gs_cookie.obj
 0003:000028c4       ??_R0?AVtype_info@@@8      004598c4     LIBCMT:typinfo.obj
 0003:000028dc       __fltused                  004598dc     LIBCMT:_fpinit_.obj
 0003:000028e0       __ldused                   004598e0     LIBCMT:_fpinit_.obj
 0003:000028f0       ___app_type                004598f0     LIBCMT:wincrt0.obj
 0003:00002908       __iob                      00459908     LIBCMT:_file.obj
 0003:00002b90       __NLG_Destination          00459b90     LIBCMT:exsup.obj
 0003:00002ba4       ??_R0?AVbad_exception@std@@@8 00459ba4     LIBCMT:frame.obj
 0003:00002bc4       ___flsindex                00459bc4     LIBCMT:tidtable.obj
 0003:00002bc8       ___getvalueindex           00459bc8     LIBCMT:tidtable.obj
 0003:00002bd0       ___initialmbcinfo          00459bd0     LIBCMT:mbctype.obj
 0003:00002df0       __mbctype                  00459df0     LIBCMT:mbctype.obj
 0003:00002ef8       __mbcasemap                00459ef8     LIBCMT:mbctype.obj
 0003:00002ff8       ___ptmbcinfo               00459ff8     LIBCMT:mbctype.obj
 0003:000030f4       ___globallocalestatus      0045a0f4     LIBCMT:glstatus.obj
 0003:000030f8       ___clocalestr              0045a0f8     LIBCMT:nlsdata2.obj
 0003:00003100       ___initiallocinfo          0045a100     LIBCMT:nlsdata2.obj
 0003:000031d8       ___ptlocinfo               0045a1d8     LIBCMT:nlsdata2.obj
 0003:000031dc       ___lc_clike                0045a1dc     LIBCMT:nlsdata2.obj
 0003:000031e0       ___initiallocalestructinfo 0045a1e0     LIBCMT:nlsdata2.obj
 0003:00003358       ___nullstring              0045a358     LIBCMT:output.obj
 0003:0000335c       ___wnullstring             0045a35c     LIBCMT:output.obj
 0003:00003370       ___abort_behavior          0045a370     LIBCMT:abort.obj
 0003:00003430       __cfltcvt_tab              0045a430     LIBCMT:cmiscdat.obj
 0003:00003578       __amblksiz                 0045a578     LIBCMT:heapinit.obj
 0003:0000357c       __aexit_rtn                0045a57c     LIBCMT:crt0dat.obj
 0003:00003584       __First_FPE_Indx           0045a584     LIBCMT:winxfltr.obj
 0003:00003588       __Num_FPE                  0045a588     LIBCMT:winxfltr.obj
 0003:0000358c       __XcptActTabSize           0045a58c     LIBCMT:winxfltr.obj
 0003:00003590       __XcptActTabCount          0045a590     LIBCMT:winxfltr.obj
 0003:00003598       ___badioinfo               0045a598     LIBCMT:ioinit.obj
 0003:000035e8       __coninpfh                 0045a5e8     LIBCMT:initcon.obj
 0003:000035ec       __confh                    0045a5ec     LIBCMT:initcon.obj
 0003:000035f0       __sys_errlist              0045a5f0     LIBCMT:syserr.obj
 0003:000036a0       __sys_nerr                 0045a6a0     LIBCMT:syserr.obj
 0003:000036c0       __timezone                 0045a6c0     LIBCMT:timeset.obj
 0003:000036c4       __daylight                 0045a6c4     LIBCMT:timeset.obj
 0003:000036c8       __dstbias                  0045a6c8     LIBCMT:timeset.obj
 0003:00003750       __tzname                   0045a750     LIBCMT:timeset.obj
 0003:00003760       __lpdays                   0045a760     LIBCMT:days.obj
 0003:00003794       __days                     0045a794     LIBCMT:days.obj
 0003:000037d0       __pctype                   0045a7d0     LIBCMT:ctype.obj
 0003:000037d4       __pwctype                  0045a7d4     LIBCMT:ctype.obj
 0003:000037d8       ___lc_time_c               0045a7d8     LIBCMT:strftime.obj
 0003:00003890       ___lc_time_curr            0045a890     LIBCMT:strftime.obj
 0003:00003894       ___lconv_static_decimal    0045a894     LIBCMT:lconv.obj
 0003:00003898       ___lconv_c                 0045a898     LIBCMT:lconv.obj
 0003:000038c8       ___lconv                   0045a8c8     LIBCMT:lconv.obj
 0003:000038cc       ___mb_cur_max              0045a8cc     LIBCMT:nlsdata1.obj
 0003:000038d0       ___decimal_point           0045a8d0     LIBCMT:nlsdata1.obj
 0003:000038d4       ___decimal_point_length    0045a8d4     LIBCMT:nlsdata1.obj
 0003:000038e0       __p_overlay                0045a8e0     LIBCMT:dospawn.obj
 0003:00003918       __pow10pos                 0045a918     LIBCMT:_constpow_.obj
 0003:00003a78       __pow10neg                 0045aa78     LIBCMT:_constpow_.obj
 0003:00003c00       ?instance_@?$Singleton@VAbusingOptionParser@@$00@util@@0PAVAbusingOptionParser@@A 0045ac00     AbuseUser.obj
 0003:00003c04       ?instance_@?$Singleton@VAbuseUserManager@@$00@util@@0PAVAbuseUserManager@@A 0045ac04     AbuseUser.obj
 0003:00003c10       ?empty_node_static@?$ServerTree@UsSERVER_INFO@@@@0PAEA 0045ac10     ServerInfoManager.obj
 0003:00003c4c       ?g_Console@@3VSolarSimpleConsole@@A 0045ac4c     main.obj
 0003:00003c60       ?increase_allocation_number@?1??SharedMemoryAllocHook@MemoryLeakReporter@util@@CAXK@Z@4KA 0045ac60     main.obj
 0003:00003c64       ?g_pSecureCollectLog@@3PAVCSunLog@@A 0045ac64     stdafx.obj
 0003:00003c90       ?empty_node_static@?$ServerTree@UsSERVER_NODE@@@@0PAEA 0045ac90     ServerSessionManager.obj
 0003:00003c9c       ?sm_pOBJECT_CHANGER@SolarAuthServerSessionCrypted@@2PAVsOBJECT_CHANGER@@A 0045ac9c     SolarAuthServerSession.obj
 0003:00003d50       ?g_pSunLog@@3PAVCSunLog@@A 0045ad50     servercommon:SunLog.Interfaces.obj
 0003:00003d54       ?g_pSecureLog@@3PAVSecureLog@@A 0045ad54     servercommon:SunLog.Interfaces.obj
 0003:00003d70       ?g_dwSUNLOG_INIT@CSunLog@@2KA 0045ad70     servercommon:SunLog.obj
 0003:00003d74       ?g_pSUNLOG@CSunLog@@2PAVCSunLogInfo@1@A 0045ad74     servercommon:SunLog.obj
 0003:00003d78       ?g_StatisticsManager@@3VStatisticsManager@@A 0045ad78     servercommon:StatisticsManager.obj
 0003:00003ec0       ?custom_pool_static@TempServerSession@@0PAV?$CMemoryPoolFactory@VTempServerSession@@@util@@A 0045aec0     servercommon:TempServerSession.obj
 0003:00003f58       ?ms_PacketStream@PacketControl@Server@nsPacket@@0PAEA 0045af58     servercommon:PacketControlS2S.obj
 0003:0002bf68       ?ms_COMPRESS_TRANS@CompressUtil@nsPacket@@0W4eTRANS_STATE@12@A 00482f68     programcommon_s:PacketControl_Compress.obj
 0003:00078f14       ?file_data_buffer_static_@TableData@@0PADA 004cff14     programcommon_s:TableData.obj
 0003:00078f18       ?token_stream_static_@TableData@@0PAEA 004cff18     programcommon_s:TableData.obj
 0003:00078f1c       ?delimiters_static_@TableData@@0PAPAY0CA@EA 004cff1c     programcommon_s:TableData.obj
 0003:00078f24       ?column_hash_static_@TableData@@0PAV?$SolarHashTable@HK@util@@A 004cff24     programcommon_s:TableData.obj
 0003:00078f28       ?next@?1??_RawTokenizer@TableData@@AAEPADPADPAY0CA@E@Z@4PADA 004cff28     programcommon_s:TableData.obj
 0003:00078f30       ?time_sync_static_@TimeSync@util@@0PAV12@A 004cff30     utility_s:SolarDateTime.obj
 0003:0007c3f8       ?s_eDumpType@SolarDump@@0W4_MINIDUMP_TYPE@@A 004d33f8     utility_s:SolarDump.obj
 0003:0007c3fc       ?old_new_mode_@SolarDump@@0HA 004d33fc     utility_s:SolarDump.obj
 0003:0007c400       ?s_pszDumpFileDir@SolarDump@@0PADA 004d3400     utility_s:SolarDump.obj
 0003:0007c508       ?s_pszFilePrefix@SolarDump@@0PADA 004d3508     utility_s:SolarDump.obj
 0003:0007c610       ?log_handler_static_@SafeMemoryPoolFactoryShared@util@@0P6AXPBDPAXI@ZA 004d3610     utility_s:SafeMemoryPoolFactory.obj
 0003:0007c614       ?instance_@?$Singleton@VFilePackerManager@util@@$00@util@@0PAVFilePackerManager@2@A 004d3614     utility_s:SolarFileReader.obj
 0003:0007c618       ?autofree@@3VCAutoFree@@A  004d3618     utility_s:FilePackerManager.obj
 0003:0007c619       ?nothrow@std@@3Unothrow_t@1@B 004d3619     libcpmt:nothrow.obj
 0003:0007c688       ?_Fpz@std@@3_JA            004d3688     libcpmt:ios.obj
 0003:0007c690       ?_Index@ios_base@std@@0HA  004d3690     libcpmt:ios.obj
 0003:0007c6fc       ?throws@system@boost@@3Verror_code@12@A 004d36fc     libboost_system-vc90-mt-s-1_60:error_code.obj
 0003:0007c714       _g_compress_trans          004d3714     zlib:zutil.obj
 0003:0007c718       ?lpfnAccepteEx_static_@MsWinsockUtil@@2P6GHIIPAXKKKPAKPAU_OVERLAPPED@@@ZA 004d3718     Network:MsWinsockUtil.obj
 0003:0007c71c       ?lpfnTransmitFile_static_@MsWinsockUtil@@2P6GHIPAXKKPAU_OVERLAPPED@@PAU_TRANSMIT_FILE_BUFFERS@@K@ZA 004d371c     Network:MsWinsockUtil.obj
 0003:0007c720       ?lpfnGetAcceptExSockAddrs_static_@MsWinsockUtil@@2P6GXPAXKKKPAPAUsockaddr@@PAH12@ZA 004d3720     Network:MsWinsockUtil.obj
 0003:0007c724       ?lpfnDisconnectEx_static_@MsWinsockUtil@@2P6GHIPAU_OVERLAPPED@@KK@ZA 004d3724     Network:MsWinsockUtil.obj
 0003:0007c730       ?sSEND_PACKET_STRUCTURE@PACKET_CONTROL_SM@@2TuPACKET_STRUCTURE@1@A 004d3730     MOLA_DDA:CryptFlowPolicy.SolarAuth.obj
 0003:00080730       ?sRECV_PACKET_STRUCTURE@PACKET_CONTROL_SM@@2TuPACKET_STRUCTURE@1@A 004d7730     MOLA_DDA:CryptFlowPolicy.SolarAuth.obj
 0003:00084740       ___pInvalidArgHandler      004db740     LIBCMT:invarg.obj
 0003:00084744       ___fastflag                004db744     LIBCMT:_fpinit_.obj
 0003:00084748       __adjust_fdiv              004db748     LIBCMT:_fpinit_.obj
 0003:0008474c       __aenvptr                  004db74c     LIBCMT:wincrt0.obj
 0003:00084750       __wenvptr                  004db750     LIBCMT:wincrt0.obj
 0003:00084754       ___error_mode              004db754     LIBCMT:wincrt0.obj
 0003:0008475c       __cflush                   004db75c     LIBCMT:_file.obj
 0003:00084760       ?_pnhHeap@@3P6AHI@ZA       004db760     LIBCMT:handler.obj
 0003:00084764       _gpFlsAlloc                004db764     LIBCMT:tidtable.obj
 0003:00084768       _gpFlsGetValue             004db768     LIBCMT:tidtable.obj
 0003:0008476c       _gpFlsSetValue             004db76c     LIBCMT:tidtable.obj
 0003:00084770       _gpFlsFree                 004db770     LIBCMT:tidtable.obj
 0003:00084774       ?__pInconsistency@@3P6AXXZA 004db774     LIBCMT:hooks.obj
 0003:00084aa0       ___mbulinfo                004dbaa0     LIBCMT:mbctype.obj
 0003:00084aac       ___mbcodepage              004dbaac     LIBCMT:mbctype.obj
 0003:00084ab0       ___ismbcodepage            004dbab0     LIBCMT:mbctype.obj
 0003:00084ab4       ___mblcid                  004dbab4     LIBCMT:mbctype.obj
 0003:00084ab8       ___locale_changed          004dbab8     LIBCMT:setlocal.obj
 0003:00084abc       ___lc_handle               004dbabc     LIBCMT:nlsdata2.obj
 0003:00084ad4       ___lc_codepage             004dbad4     LIBCMT:nlsdata2.obj
 0003:00084ad8       ___lc_collate_cp           004dbad8     LIBCMT:nlsdata2.obj
 0003:00084e04       ___pPurecall               004dbe04     LIBCMT:inithelp.obj
 0003:00084f58       ___sbh_pHeaderDefer        004dbf58     LIBCMT:sbheap.obj
 0003:00084f5c       __crtheap                  004dbf5c     LIBCMT:heapinit.obj
 0003:00084f60       __umaskval                 004dbf60     LIBCMT:crt0dat.obj
 0003:00084f64       ___argc                    004dbf64     LIBCMT:crt0dat.obj
 0003:00084f68       ___argv                    004dbf68     LIBCMT:crt0dat.obj
 0003:00084f6c       ___wargv                   004dbf6c     LIBCMT:crt0dat.obj
 0003:00084f70       __environ                  004dbf70     LIBCMT:crt0dat.obj
 0003:00084f74       ___initenv                 004dbf74     LIBCMT:crt0dat.obj
 0003:00084f78       __wenviron                 004dbf78     LIBCMT:crt0dat.obj
 0003:00084f7c       ___winitenv                004dbf7c     LIBCMT:crt0dat.obj
 0003:00084f80       __pgmptr                   004dbf80     LIBCMT:crt0dat.obj
 0003:00084f84       __wpgmptr                  004dbf84     LIBCMT:crt0dat.obj
 0003:00084f88       __exitflag                 004dbf88     LIBCMT:crt0dat.obj
 0003:00084f8c       __C_Termination_Done       004dbf8c     LIBCMT:crt0dat.obj
 0003:00084f90       __C_Exit_Done              004dbf90     LIBCMT:crt0dat.obj
 0003:00084f94       __newmode                  004dbf94     LIBCMT:_newmode.obj
 0003:00084f98       __maxwait                  004dbf98     LIBCMT:crtheap.obj
 0003:000850ac       __stdbuf                   004dc0ac     LIBCMT:_sftbuf.obj
 0003:00085170       __commode                  004dc170     LIBCMT:ncommode.obj
 0003:0008517c       ___lconv_static_null       004dc17c     LIBCMT:lconv.obj
 0003:00085194       ?pArgList@UnDecorator@@0PAVReplicator@@A 004dc194     LIBCMT:undname.obj
 0003:00085198       ?pZNameList@UnDecorator@@0PAVReplicator@@A 004dc198     LIBCMT:undname.obj
 0003:0008519c       ?pTemplateArgList@UnDecorator@@0PAVReplicator@@A 004dc19c     LIBCMT:undname.obj
 0003:000851a0       ?gName@UnDecorator@@0PBDB  004dc1a0     LIBCMT:undname.obj
 0003:000851a4       ?name@UnDecorator@@0PBDB   004dc1a4     LIBCMT:undname.obj
 0003:000851a8       ?outputString@UnDecorator@@0PADA 004dc1a8     LIBCMT:undname.obj
 0003:000851ac       ?maxStringLength@UnDecorator@@0HA 004dc1ac     LIBCMT:undname.obj
 0003:000851b0       ?disableFlags@UnDecorator@@0KA 004dc1b0     LIBCMT:undname.obj
 0003:000851b4       ?m_pGetParameter@UnDecorator@@0P6APADJ@ZA 004dc1b4     LIBCMT:undname.obj
 0003:000851b8       ?fExplicitTemplateParams@UnDecorator@@0_NA 004dc1b8     LIBCMT:undname.obj
 0003:000851b9       ?fGetTemplateArgumentList@UnDecorator@@0_NA 004dc1b9     LIBCMT:undname.obj
 0003:000851e4       __outputformat             004dc1e4     LIBCMT:outputformat.obj
 0003:000851f0       __nhandle                  004dc1f0     <common>
 0003:00085200       ___pioinfo                 004dc200     <common>
 0003:00085300       ___sse2_available          004dc300     <common>
 0003:00085304       ___env_initialized         004dc304     <common>
 0003:00085308       ___onexitend               004dc308     <common>
 0003:0008530c       ___onexitbegin             004dc30c     <common>
 0003:00085310       ___mbctype_initialized     004dc310     <common>
 0003:00085314       ___dyn_tls_init_callback   004dc314     <common>
 0003:00085318       ___active_heap             004dc318     <common>
 0003:0008531c       ___sbh_cntHeaderList       004dc31c     <common>
 0003:00085320       ___sbh_pHeaderList         004dc320     <common>
 0003:00085324       ___sbh_threshold           004dc324     <common>
 0003:00085328       ___sbh_pHeaderScan         004dc328     <common>
 0003:0008532c       ___sbh_sizeHeaderList      004dc32c     <common>
 0003:00085330       ___sbh_indGroupDefer       004dc330     <common>
 0003:00085334       __debugger_hook_dummy      004dc334     <common>
 0003:00085338       ___piob                    004dc338     <common>
 0003:00085340       __bufin                    004dc340     <common>
 0003:00086340       __nstream                  004dd340     <common>
 0003:00086344       __acmdln                   004dd344     <common>

 entry point at        0000:00000000

 Static symbols

 0001:0000195d       __catch$?_Copy@?$_Tree@V?$_Tset_traits@KU?$less@K@std@@V?$CustomAllocator@K@util@@$0A@@std@@@std@@IAEPAU_Node@?$_Tree_nod@V?$_Tset_traits@KU?$less@K@std@@V?$CustomAllocator@K@util@@$0A@@std@@@2@PAU342@0@Z$0 0040295d f i AbuseUserManager.obj
 0001:00001afd       __catch$?_Copy@?$basic_string@DU?$char_traits@D@std@@V?$allocator@D@2@@std@@IAEXII@Z$0 00402afd f i AbuseUserManager.obj
 0001:00001b8e       __catch$?_Copy@?$basic_string@DU?$char_traits@D@std@@V?$allocator@D@2@@std@@IAEXII@Z$1 00402b8e f i AbuseUserManager.obj
 0001:00003338       __catch$??0?$_Tree@V?$_Tset_traits@KU?$less@K@std@@V?$CustomAllocator@K@util@@$0A@@std@@@std@@QAE@ABV01@@Z$0 00404338 f i AbuseUserManager.obj
 0001:000037de       __catch$?_Buynode@?$list@U?$pair@$$CBKV?$chunk_set@KU?$less@K@std@@@util@@@std@@V?$CustomAllocator@U?$pair@$$CBKV?$chunk_set@KU?$less@K@std@@@util@@@std@@@util@@@std@@IAEPAU_Node@?$_List_nod@U?$pair@$$CBKV?$chunk_set@KU?$less@K@std@@@util@@@std@@V?$CustomAllocator@U?$pair@$$CBKV?$chunk_set@KU?$less@K@std@@@util@@@std@@@util@@@2@PAU342@0ABU?$pair@$$CBKV?$chunk_set@KU?$less@K@std@@@util@@@2@@Z$0 004047de f i AbuseUserManager.obj
 0001:00005c40       ?__FFS@@YAKK@Z             00406c40 f   MasterServerInfoStruct.obj
 0001:0000a537       __catch$?_Insert_n@?$vector@U_List_position@?$_Hash@V?$_Hmap_traits@KPAVBASE_FUNC@util@@V?$hash_compare@KU?$less@K@std@@@stdext@@V?$allocator@U?$pair@$$CBKPAVBASE_FUNC@util@@@std@@@std@@$0A@@stdext@@@stdext@@V?$allocator@U_List_position@?$_Hash@V?$_Hmap_traits@KPAVBASE_FUNC@util@@V?$hash_compare@KU?$less@K@std@@@stdext@@V?$allocator@U?$pair@$$CBKPAVBASE_FUNC@util@@@std@@@std@@$0A@@stdext@@@stdext@@@std@@@std@@IAEXV?$_Vector_const_iterator@U_List_position@?$_Hash@V?$_Hmap_traits@KPAVBASE_FUNC@util@@V?$hash_compare@KU?$less@K@std@@@stdext@@V?$allocator@U?$pair@$$CBKPAVBASE_FUNC@util@@@std@@@std@@$0A@@stdext@@@stdext@@V?$allocator@U_List_position@?$_Hash@V?$_Hmap_traits@KPAVBASE_FUNC@util@@V?$hash_compare@KU?$less@K@std@@@stdext@@V?$allocator@U?$pair@$$CBKPAVBASE_FUNC@util@@@std@@@std@@$0A@@stdext@@@stdext@@@std@@@2@IABU_List_position@?$_Hash@V?$_Hmap_traits@KPAVBASE_FUNC@util@@V?$hash_compare@KU?$less@K@std@@@stdext@@V?$allocator@U?$pair@$$CBKPAVBASE_FUNC@util@@@std@@@std@@$0A@@stdext@@@stdext@@@Z$0 0040b537 f i PacketHandler.obj
 0001:0000a543       __catch$?_Insert_n@?$vector@U_List_position@?$_Hash@V?$_Hmap_traits@KPAVBASE_FUNC@util@@V?$hash_compare@KU?$less@K@std@@@stdext@@V?$allocator@U?$pair@$$CBKPAVBASE_FUNC@util@@@std@@@std@@$0A@@stdext@@@stdext@@V?$allocator@U_List_position@?$_Hash@V?$_Hmap_traits@KPAVBASE_FUNC@util@@V?$hash_compare@KU?$less@K@std@@@stdext@@V?$allocator@U?$pair@$$CBKPAVBASE_FUNC@util@@@std@@@std@@$0A@@stdext@@@stdext@@@std@@@std@@IAEXV?$_Vector_const_iterator@U_List_position@?$_Hash@V?$_Hmap_traits@KPAVBASE_FUNC@util@@V?$hash_compare@KU?$less@K@std@@@stdext@@V?$allocator@U?$pair@$$CBKPAVBASE_FUNC@util@@@std@@@std@@$0A@@stdext@@@stdext@@V?$allocator@U_List_position@?$_Hash@V?$_Hmap_traits@KPAVBASE_FUNC@util@@V?$hash_compare@KU?$less@K@std@@@stdext@@V?$allocator@U?$pair@$$CBKPAVBASE_FUNC@util@@@std@@@std@@$0A@@stdext@@@stdext@@@std@@@2@IABU_List_position@?$_Hash@V?$_Hmap_traits@KPAVBASE_FUNC@util@@V?$hash_compare@KU?$less@K@std@@@stdext@@V?$allocator@U?$pair@$$CBKPAVBASE_FUNC@util@@@std@@@std@@$0A@@stdext@@@stdext@@@Z$2 0040b543 f i PacketHandler.obj
 0001:0000aeb0       ?ParseSecureLogMessage@@YAHKPAUsSIG_SECURE_LOG_NOTIFY@@@Z 0040beb0 f   PacketHandler.Shared.obj
 0001:000159c0       ?ReadIOCPDescFromFile@@YAXQBDAAUtagIOHANDLER_DESC@@PBD@Z 004169c0 f   servercommon:ServerFrame.obj
 0001:00015aa0       ?RedirectAssertionHandler@@YAXPAD0K@Z 00416aa0 f   servercommon:ServerFrame.obj
 0001:00015ac0       ?RedirectProblemMemoryReporter@@YAXPBDPAXI@Z 00416ac0 f   servercommon:ServerFrame.obj
 0001:00015ae0       _time                      00416ae0 f   servercommon:ServerFrame.obj
 0001:00019120       ?__FFS@@YAKK@Z             0041a120 f   servercommon:SunLog.obj
 0001:0001b21d       __catch$?_Insert_n@?$vector@U_List_position@?$_Hash@V?$_Hmap_traits@KPAVServerSession@@V?$hash_compare@KU?$less@K@std@@@stdext@@V?$CustomAllocator@PAVServerSession@@@util@@$0A@@stdext@@@stdext@@V?$CustomAllocator@U_List_position@?$_Hash@V?$_Hmap_traits@KPAVServerSession@@V?$hash_compare@KU?$less@K@std@@@stdext@@V?$CustomAllocator@PAVServerSession@@@util@@$0A@@stdext@@@stdext@@@util@@@std@@IAEXV?$_Vector_const_iterator@U_List_position@?$_Hash@V?$_Hmap_traits@KPAVServerSession@@V?$hash_compare@KU?$less@K@std@@@stdext@@V?$CustomAllocator@PAVServerSession@@@util@@$0A@@stdext@@@stdext@@V?$CustomAllocator@U_List_position@?$_Hash@V?$_Hmap_traits@KPAVServerSession@@V?$hash_compare@KU?$less@K@std@@@stdext@@V?$CustomAllocator@PAVServerSession@@@util@@$0A@@stdext@@@stdext@@@util@@@2@IABU_List_position@?$_Hash@V?$_Hmap_traits@KPAVServerSession@@V?$hash_compare@KU?$less@K@std@@@stdext@@V?$CustomAllocator@PAVServerSession@@@util@@$0A@@stdext@@@stdext@@@Z$0 0041c21d f i servercommon:ScriptDataManager.obj
 0001:0001b21d       __catch$?_Insert_n@?$vector@U?$pair@W4eSCRIPT_CODE@@PAUsSCRIPT_DATA_INFO_NODE_INTERNAL@@@std@@V?$CustomAllocator@U?$pair@W4eSCRIPT_CODE@@PAUsSCRIPT_DATA_INFO_NODE_INTERNAL@@@std@@@util@@@std@@IAEXV?$_Vector_const_iterator@U?$pair@W4eSCRIPT_CODE@@PAUsSCRIPT_DATA_INFO_NODE_INTERNAL@@@std@@V?$CustomAllocator@U?$pair@W4eSCRIPT_CODE@@PAUsSCRIPT_DATA_INFO_NODE_INTERNAL@@@std@@@util@@@2@IABU?$pair@W4eSCRIPT_CODE@@PAUsSCRIPT_DATA_INFO_NODE_INTERNAL@@@2@@Z$0 0041c21d f i servercommon:ScriptDataManager.obj
 0001:0001b21d       __catch$?_Insert_n@?$vector@U_List_position@?$_Hash@V?$_Hmap_traits@KPAVAbuseUser@@V?$hash_compare@KU?$less@K@std@@@stdext@@V?$CustomAllocator@PAVAbuseUser@@@util@@$0A@@stdext@@@stdext@@V?$CustomAllocator@U_List_position@?$_Hash@V?$_Hmap_traits@KPAVAbuseUser@@V?$hash_compare@KU?$less@K@std@@@stdext@@V?$CustomAllocator@PAVAbuseUser@@@util@@$0A@@stdext@@@stdext@@@util@@@std@@IAEXV?$_Vector_const_iterator@U_List_position@?$_Hash@V?$_Hmap_traits@KPAVAbuseUser@@V?$hash_compare@KU?$less@K@std@@@stdext@@V?$CustomAllocator@PAVAbuseUser@@@util@@$0A@@stdext@@@stdext@@V?$CustomAllocator@U_List_position@?$_Hash@V?$_Hmap_traits@KPAVAbuseUser@@V?$hash_compare@KU?$less@K@std@@@stdext@@V?$CustomAllocator@PAVAbuseUser@@@util@@$0A@@stdext@@@stdext@@@util@@@2@IABU_List_position@?$_Hash@V?$_Hmap_traits@KPAVAbuseUser@@V?$hash_compare@KU?$less@K@std@@@stdext@@V?$CustomAllocator@PAVAbuseUser@@@util@@$0A@@stdext@@@stdext@@@Z$0 0041c21d f i servercommon:ScriptDataManager.obj
 0001:0001b21d       __catch$?_Insert_n@?$vector@U_List_position@?$_Hash@V?$_Hmap_traits@KV?$chunk_set@KU?$less@K@std@@@util@@V?$hash_compare@KU?$less@K@std@@@stdext@@V?$CustomAllocator@V?$chunk_set@KU?$less@K@std@@@util@@@2@$0A@@stdext@@@stdext@@V?$CustomAllocator@U_List_position@?$_Hash@V?$_Hmap_traits@KV?$chunk_set@KU?$less@K@std@@@util@@V?$hash_compare@KU?$less@K@std@@@stdext@@V?$CustomAllocator@V?$chunk_set@KU?$less@K@std@@@util@@@2@$0A@@stdext@@@stdext@@@util@@@std@@IAEXV?$_Vector_const_iterator@U_List_position@?$_Hash@V?$_Hmap_traits@KV?$chunk_set@KU?$less@K@std@@@util@@V?$hash_compare@KU?$less@K@std@@@stdext@@V?$CustomAllocator@V?$chunk_set@KU?$less@K@std@@@util@@@2@$0A@@stdext@@@stdext@@V?$CustomAllocator@U_List_position@?$_Hash@V?$_Hmap_traits@KV?$chunk_set@KU?$less@K@std@@@util@@V?$hash_compare@KU?$less@K@std@@@stdext@@V?$CustomAllocator@V?$chunk_set@KU?$less@K@std@@@util@@@2@$0A@@stdext@@@stdext@@@util@@@2@IABU_List_position@?$_Hash@V?$_Hmap_traits@KV?$chunk_set@KU?$less@K@std@@@util@@V?$hash_compare@KU?$less@K@std@@@stdext@@V?$CustomAllocator@V?$chunk_set@KU?$less@K@std@@@util@@@2@$0A@@stdext@@@stdext@@@Z$0 0041c21d f i servercommon:ScriptDataManager.obj
 0001:0001b21d       __catch$?_Insert_n@?$vector@U_List_position@?$_Hash@V?$_Hmap_traits@W4eSCRIPT_CODE@@PAUsSCRIPT_DATA_INFO_NODE_INTERNAL@@V?$hash_compare@W4eSCRIPT_CODE@@U?$less@W4eSCRIPT_CODE@@@std@@@stdext@@V?$CustomAllocator@PAUsSCRIPT_DATA_INFO_NODE_INTERNAL@@@util@@$0A@@stdext@@@stdext@@V?$CustomAllocator@U_List_position@?$_Hash@V?$_Hmap_traits@W4eSCRIPT_CODE@@PAUsSCRIPT_DATA_INFO_NODE_INTERNAL@@V?$hash_compare@W4eSCRIPT_CODE@@U?$less@W4eSCRIPT_CODE@@@std@@@stdext@@V?$CustomAllocator@PAUsSCRIPT_DATA_INFO_NODE_INTERNAL@@@util@@$0A@@stdext@@@stdext@@@util@@@std@@IAEXV?$_Vector_const_iterator@U_List_position@?$_Hash@V?$_Hmap_traits@W4eSCRIPT_CODE@@PAUsSCRIPT_DATA_INFO_NODE_INTERNAL@@V?$hash_compare@W4eSCRIPT_CODE@@U?$less@W4eSCRIPT_CODE@@@std@@@stdext@@V?$CustomAllocator@PAUsSCRIPT_DATA_INFO_NODE_INTERNAL@@@util@@$0A@@stdext@@@stdext@@V?$CustomAllocator@U_List_position@?$_Hash@V?$_Hmap_traits@W4eSCRIPT_CODE@@PAUsSCRIPT_DATA_INFO_NODE_INTERNAL@@V?$hash_compare@W4eSCRIPT_CODE@@U?$less@W4eSCRIPT_CODE@@@std@@@stdext@@V?$CustomAllocator@PAUsSCRIPT_DATA_INFO_NODE_INTERNAL@@@util@@$0A@@stdext@@@stdext@@@util@@@2@IABU_List_position@?$_Hash@V?$_Hmap_traits@W4eSCRIPT_CODE@@PAUsSCRIPT_DATA_INFO_NODE_INTERNAL@@V?$hash_compare@W4eSCRIPT_CODE@@U?$less@W4eSCRIPT_CODE@@@std@@@stdext@@V?$CustomAllocator@PAUsSCRIPT_DATA_INFO_NODE_INTERNAL@@@util@@$0A@@stdext@@@stdext@@@Z$0 0041c21d f i servercommon:ScriptDataManager.obj
 0001:0001b229       __catch$?_Insert_n@?$vector@U_List_position@?$_Hash@V?$_Hmap_traits@KPAVServerSession@@V?$hash_compare@KU?$less@K@std@@@stdext@@V?$CustomAllocator@PAVServerSession@@@util@@$0A@@stdext@@@stdext@@V?$CustomAllocator@U_List_position@?$_Hash@V?$_Hmap_traits@KPAVServerSession@@V?$hash_compare@KU?$less@K@std@@@stdext@@V?$CustomAllocator@PAVServerSession@@@util@@$0A@@stdext@@@stdext@@@util@@@std@@IAEXV?$_Vector_const_iterator@U_List_position@?$_Hash@V?$_Hmap_traits@KPAVServerSession@@V?$hash_compare@KU?$less@K@std@@@stdext@@V?$CustomAllocator@PAVServerSession@@@util@@$0A@@stdext@@@stdext@@V?$CustomAllocator@U_List_position@?$_Hash@V?$_Hmap_traits@KPAVServerSession@@V?$hash_compare@KU?$less@K@std@@@stdext@@V?$CustomAllocator@PAVServerSession@@@util@@$0A@@stdext@@@stdext@@@util@@@2@IABU_List_position@?$_Hash@V?$_Hmap_traits@KPAVServerSession@@V?$hash_compare@KU?$less@K@std@@@stdext@@V?$CustomAllocator@PAVServerSession@@@util@@$0A@@stdext@@@stdext@@@Z$2 0041c229 f i servercommon:ScriptDataManager.obj
 0001:0001b229       __catch$?_Insert_n@?$vector@U_List_position@?$_Hash@V?$_Hmap_traits@KV?$chunk_set@KU?$less@K@std@@@util@@V?$hash_compare@KU?$less@K@std@@@stdext@@V?$CustomAllocator@V?$chunk_set@KU?$less@K@std@@@util@@@2@$0A@@stdext@@@stdext@@V?$CustomAllocator@U_List_position@?$_Hash@V?$_Hmap_traits@KV?$chunk_set@KU?$less@K@std@@@util@@V?$hash_compare@KU?$less@K@std@@@stdext@@V?$CustomAllocator@V?$chunk_set@KU?$less@K@std@@@util@@@2@$0A@@stdext@@@stdext@@@util@@@std@@IAEXV?$_Vector_const_iterator@U_List_position@?$_Hash@V?$_Hmap_traits@KV?$chunk_set@KU?$less@K@std@@@util@@V?$hash_compare@KU?$less@K@std@@@stdext@@V?$CustomAllocator@V?$chunk_set@KU?$less@K@std@@@util@@@2@$0A@@stdext@@@stdext@@V?$CustomAllocator@U_List_position@?$_Hash@V?$_Hmap_traits@KV?$chunk_set@KU?$less@K@std@@@util@@V?$hash_compare@KU?$less@K@std@@@stdext@@V?$CustomAllocator@V?$chunk_set@KU?$less@K@std@@@util@@@2@$0A@@stdext@@@stdext@@@util@@@2@IABU_List_position@?$_Hash@V?$_Hmap_traits@KV?$chunk_set@KU?$less@K@std@@@util@@V?$hash_compare@KU?$less@K@std@@@stdext@@V?$CustomAllocator@V?$chunk_set@KU?$less@K@std@@@util@@@2@$0A@@stdext@@@stdext@@@Z$2 0041c229 f i servercommon:ScriptDataManager.obj
 0001:0001b229       __catch$?_Insert_n@?$vector@U_List_position@?$_Hash@V?$_Hmap_traits@W4eSCRIPT_CODE@@PAUsSCRIPT_DATA_INFO_NODE_INTERNAL@@V?$hash_compare@W4eSCRIPT_CODE@@U?$less@W4eSCRIPT_CODE@@@std@@@stdext@@V?$CustomAllocator@PAUsSCRIPT_DATA_INFO_NODE_INTERNAL@@@util@@$0A@@stdext@@@stdext@@V?$CustomAllocator@U_List_position@?$_Hash@V?$_Hmap_traits@W4eSCRIPT_CODE@@PAUsSCRIPT_DATA_INFO_NODE_INTERNAL@@V?$hash_compare@W4eSCRIPT_CODE@@U?$less@W4eSCRIPT_CODE@@@std@@@stdext@@V?$CustomAllocator@PAUsSCRIPT_DATA_INFO_NODE_INTERNAL@@@util@@$0A@@stdext@@@stdext@@@util@@@std@@IAEXV?$_Vector_const_iterator@U_List_position@?$_Hash@V?$_Hmap_traits@W4eSCRIPT_CODE@@PAUsSCRIPT_DATA_INFO_NODE_INTERNAL@@V?$hash_compare@W4eSCRIPT_CODE@@U?$less@W4eSCRIPT_CODE@@@std@@@stdext@@V?$CustomAllocator@PAUsSCRIPT_DATA_INFO_NODE_INTERNAL@@@util@@$0A@@stdext@@@stdext@@V?$CustomAllocator@U_List_position@?$_Hash@V?$_Hmap_traits@W4eSCRIPT_CODE@@PAUsSCRIPT_DATA_INFO_NODE_INTERNAL@@V?$hash_compare@W4eSCRIPT_CODE@@U?$less@W4eSCRIPT_CODE@@@std@@@stdext@@V?$CustomAllocator@PAUsSCRIPT_DATA_INFO_NODE_INTERNAL@@@util@@$0A@@stdext@@@stdext@@@util@@@2@IABU_List_position@?$_Hash@V?$_Hmap_traits@W4eSCRIPT_CODE@@PAUsSCRIPT_DATA_INFO_NODE_INTERNAL@@V?$hash_compare@W4eSCRIPT_CODE@@U?$less@W4eSCRIPT_CODE@@@std@@@stdext@@V?$CustomAllocator@PAUsSCRIPT_DATA_INFO_NODE_INTERNAL@@@util@@$0A@@stdext@@@stdext@@@Z$2 0041c229 f i servercommon:ScriptDataManager.obj
 0001:0001b229       __catch$?_Insert_n@?$vector@U?$pair@W4eSCRIPT_CODE@@PAUsSCRIPT_DATA_INFO_NODE_INTERNAL@@@std@@V?$CustomAllocator@U?$pair@W4eSCRIPT_CODE@@PAUsSCRIPT_DATA_INFO_NODE_INTERNAL@@@std@@@util@@@std@@IAEXV?$_Vector_const_iterator@U?$pair@W4eSCRIPT_CODE@@PAUsSCRIPT_DATA_INFO_NODE_INTERNAL@@@std@@V?$CustomAllocator@U?$pair@W4eSCRIPT_CODE@@PAUsSCRIPT_DATA_INFO_NODE_INTERNAL@@@std@@@util@@@2@IABU?$pair@W4eSCRIPT_CODE@@PAUsSCRIPT_DATA_INFO_NODE_INTERNAL@@@2@@Z$2 0041c229 f i servercommon:ScriptDataManager.obj
 0001:0001b229       __catch$?_Insert_n@?$vector@U_List_position@?$_Hash@V?$_Hmap_traits@KPAVAbuseUser@@V?$hash_compare@KU?$less@K@std@@@stdext@@V?$CustomAllocator@PAVAbuseUser@@@util@@$0A@@stdext@@@stdext@@V?$CustomAllocator@U_List_position@?$_Hash@V?$_Hmap_traits@KPAVAbuseUser@@V?$hash_compare@KU?$less@K@std@@@stdext@@V?$CustomAllocator@PAVAbuseUser@@@util@@$0A@@stdext@@@stdext@@@util@@@std@@IAEXV?$_Vector_const_iterator@U_List_position@?$_Hash@V?$_Hmap_traits@KPAVAbuseUser@@V?$hash_compare@KU?$less@K@std@@@stdext@@V?$CustomAllocator@PAVAbuseUser@@@util@@$0A@@stdext@@@stdext@@V?$CustomAllocator@U_List_position@?$_Hash@V?$_Hmap_traits@KPAVAbuseUser@@V?$hash_compare@KU?$less@K@std@@@stdext@@V?$CustomAllocator@PAVAbuseUser@@@util@@$0A@@stdext@@@stdext@@@util@@@2@IABU_List_position@?$_Hash@V?$_Hmap_traits@KPAVAbuseUser@@V?$hash_compare@KU?$less@K@std@@@stdext@@V?$CustomAllocator@PAVAbuseUser@@@util@@$0A@@stdext@@@stdext@@@Z$2 0041c229 f i servercommon:ScriptDataManager.obj
 0001:0001e95d       __catch$?_Buynode@?$_Tree@V?$_Tmap_traits@W4eSCRIPT_CODE@@V?$basic_string@DU?$char_traits@D@std@@V?$allocator@D@2@@std@@U?$less@W4eSCRIPT_CODE@@@3@V?$CustomAllocator@V?$basic_string@DU?$char_traits@D@std@@V?$allocator@D@2@@std@@@util@@$0A@@std@@@std@@IAEPAU_Node@?$_Tree_nod@V?$_Tmap_traits@W4eSCRIPT_CODE@@V?$basic_string@DU?$char_traits@D@std@@V?$allocator@D@2@@std@@U?$less@W4eSCRIPT_CODE@@@3@V?$CustomAllocator@V?$basic_string@DU?$char_traits@D@std@@V?$allocator@D@2@@std@@@util@@$0A@@std@@@2@PAU342@00ABU?$pair@$$CBW4eSCRIPT_CODE@@V?$basic_string@DU?$char_traits@D@std@@V?$allocator@D@2@@std@@@2@D@Z$0 0041f95d f i programcommon_s:ScriptCode.IParser.Impl.obj
 0001:000206e0       ?DefaultAssertionHandler@@YAXPAD0K@Z 004216e0 f   utility_s:ErrorControl.obj
 0001:00023cbd       __catch$?_Buynode@?$_Tree@V?$_Tmap_traits@V?$basic_string@DU?$char_traits@D@std@@V?$allocator@D@2@@std@@PAV?$map@V?$basic_string@DU?$char_traits@D@std@@V?$allocator@D@2@@std@@V12@U?$less@V?$basic_string@DU?$char_traits@D@std@@V?$allocator@D@2@@std@@@2@V?$allocator@U?$pair@$$CBV?$basic_string@DU?$char_traits@D@std@@V?$allocator@D@2@@std@@V12@@std@@@2@@2@U?$less@V?$basic_string@DU?$char_traits@D@std@@V?$allocator@D@2@@std@@@2@V?$allocator@U?$pair@$$CBV?$basic_string@DU?$char_traits@D@std@@V?$allocator@D@2@@std@@PAV?$map@V?$basic_string@DU?$char_traits@D@std@@V?$allocator@D@2@@std@@V12@U?$less@V?$basic_string@DU?$char_traits@D@std@@V?$allocator@D@2@@std@@@2@V?$allocator@U?$pair@$$CBV?$basic_string@DU?$char_traits@D@std@@V?$allocator@D@2@@std@@V12@@std@@@2@@2@@std@@@2@$0A@@std@@@std@@IAEPAU_Node@?$_Tree_nod@V?$_Tmap_traits@V?$basic_string@DU?$char_traits@D@std@@V?$allocator@D@2@@std@@PAV?$map@V?$basic_string@DU?$char_traits@D@std@@V?$allocator@D@2@@std@@V12@U?$less@V?$basic_string@DU?$char_traits@D@std@@V?$allocator@D@2@@std@@@2@V?$allocator@U?$pair@$$CBV?$basic_string@DU?$char_traits@D@std@@V?$allocator@D@2@@std@@V12@@std@@@2@@2@U?$less@V?$basic_string@DU?$char_traits@D@std@@V?$allocator@D@2@@std@@@2@V?$allocator@U?$pair@$$CBV?$basic_string@DU?$char_traits@D@std@@V?$allocator@D@2@@std@@PAV?$map@V?$basic_string@DU?$char_traits@D@std@@V?$allocator@D@2@@std@@V12@U?$less@V?$basic_string@DU?$char_traits@D@std@@V?$allocator@D@2@@std@@@2@V?$allocator@U?$pair@$$CBV?$basic_string@DU?$char_traits@D@std@@V?$allocator@D@2@@std@@V12@@std@@@2@@2@@std@@@2@$0A@@std@@@2@PAU342@00ABU?$pair@$$CBV?$basic_string@DU?$char_traits@D@std@@V?$allocator@D@2@@std@@PAV?$map@V?$basic_string@DU?$char_traits@D@std@@V?$allocator@D@2@@std@@V12@U?$less@V?$basic_string@DU?$char_traits@D@std@@V?$allocator@D@2@@std@@@2@V?$allocator@U?$pair@$$CBV?$basic_string@DU?$char_traits@D@std@@V?$allocator@D@2@@std@@V12@@std@@@2@@2@@2@D@Z$0 00424cbd f i utility_s:INIParser.obj
 0001:00023d69       __catch$?_Buynode@?$_Tree@V?$_Tmap_traits@V?$basic_string@DU?$char_traits@D@std@@V?$allocator@D@2@@std@@V12@U?$less@V?$basic_string@DU?$char_traits@D@std@@V?$allocator@D@2@@std@@@2@V?$allocator@U?$pair@$$CBV?$basic_string@DU?$char_traits@D@std@@V?$allocator@D@2@@std@@V12@@std@@@2@$0A@@std@@@std@@IAEPAU_Node@?$_Tree_nod@V?$_Tmap_traits@V?$basic_string@DU?$char_traits@D@std@@V?$allocator@D@2@@std@@V12@U?$less@V?$basic_string@DU?$char_traits@D@std@@V?$allocator@D@2@@std@@@2@V?$allocator@U?$pair@$$CBV?$basic_string@DU?$char_traits@D@std@@V?$allocator@D@2@@std@@V12@@std@@@2@$0A@@std@@@2@PAU342@00ABU?$pair@$$CBV?$basic_string@DU?$char_traits@D@std@@V?$allocator@D@2@@std@@V12@@2@D@Z$0 00424d69 f i utility_s:INIParser.obj
 0001:00026cb0       _putShortMSB               00427cb0 f   zlib:deflate.obj
 0001:00026ce0       _flush_pending             00427ce0 f   zlib:deflate.obj
 0001:00027060       _lm_init                   00428060 f   zlib:deflate.obj
 0001:000270f0       _longest_match             004280f0 f   zlib:deflate.obj
 0001:00027250       _fill_window               00428250 f   zlib:deflate.obj
 0001:000273b0       _deflate_stored            004283b0 f   zlib:deflate.obj
 0001:00027580       _deflate_fast              00428580 f   zlib:deflate.obj
 0001:000278b0       _deflate_slow              004288b0 f   zlib:deflate.obj
 0001:00028630       _init_block                00429630 f   zlib:trees.obj
 0001:000286b0       _pqdownheap                004296b0 f   zlib:trees.obj
 0001:00028780       _gen_bitlen                00429780 f   zlib:trees.obj
 0001:000289a0       _scan_tree                 004299a0 f   zlib:trees.obj
 0001:00028a80       _send_tree                 00429a80 f   zlib:trees.obj
 0001:00028f90       _send_all_trees            00429f90 f   zlib:trees.obj
 0001:000291f0       _compress_block            0042a1f0 f   zlib:trees.obj
 0001:000295f0       _set_data_type             0042a5f0 f   zlib:trees.obj
 0001:000296a0       _bi_flush                  0042a6a0 f   zlib:trees.obj
 0001:00029720       _bi_windup                 0042a720 f   zlib:trees.obj
 0001:00029780       _copy_block                0042a780 f   zlib:trees.obj
 0001:00029890       _gen_codes                 0042a890 f   zlib:trees.obj
 0001:00029920       _build_tree                0042a920 f   zlib:trees.obj
 0001:00029b20       _build_bl_tree             0042ab20 f   zlib:trees.obj
 0001:0002b3d0       _huft_build                0042c3d0 f   zlib:inftrees.obj
 0001:0002e685       $L36635                    0042f685 f i Network:IoHandler.obj
 0001:00032570       ?CatchGuardHandler@@YA?AW4_EXCEPTION_DISPOSITION@@PAUEHExceptionRecord@@PAUCatchGuardRN@@PAX2@Z 00433570 f   LIBCMT:_trnsctrl_.obj
 0001:0003267a       ?TranslatorGuardHandler@@YA?AW4_EXCEPTION_DISPOSITION@@PAUEHExceptionRecord@@PAUTranslatorGuardRN@@PAX2@Z 0043367a f   LIBCMT:_trnsctrl_.obj
 0001:000338a4       __onexit_nolock            004348a4 f   LIBCMT:onexit.obj
 0001:000339e2       _fast_error_exit           004349e2 f   LIBCMT:wincrt0.obj
 0001:00033a0b       ___tmainCRTStartup         00434a0b f   LIBCMT:wincrt0.obj
 0001:000348f2       ?_strupr_s_l_stat@@YAHPADIPAUlocaleinfo_struct@@@Z 004358f2 f   LIBCMT:strupr.obj
 0001:00034b0a       __splitpath_helper         00435b0a f   LIBCMT:splitpat.obj
 0001:00035027       __make__time64_t           00436027 f   LIBCMT:mktime64.obj
 0001:0003647c       ?x_ismbbtype_l@@YAHPAUlocaleinfo_struct@@IHH@Z 0043747c f   LIBCMT:ismbbyte.obj
 0001:00036ad8       __unwind_handler           00437ad8 f   LIBCMT:exsup.obj
 0001:00036c2c       __callthreadstartex        00437c2c f   LIBCMT:threadex.obj
 0001:00036c6d       __threadstartex@4          00437c6d f   LIBCMT:threadex.obj
 0001:00036f79       ?ExFilterRethrow@@YAHPAU_EXCEPTION_POINTERS@@@Z 00437f79 f   LIBCMT:frame.obj
 0001:0003703c       ?IsInExceptionSpec@@YAEPAUEHExceptionRecord@@PBU_s_ESTypeList@@@Z 0043803c f   LIBCMT:frame.obj
 0001:000370b7       ?CallUnexpected@@YAXPBU_s_ESTypeList@@@Z 004380b7 f   LIBCMT:frame.obj
 0001:000370e8       __catch$?CallUnexpected@@YAXPBU_s_ESTypeList@@@Z$0 004380e8 f   LIBCMT:frame.obj
 0001:00037100       ?CallCatchBlock@@YAPAXPAUEHExceptionRecord@@PAUEHRegistrationNode@@PAU_CONTEXT@@PBU_s_FuncInfo@@PAXHK@Z 00438100 f   LIBCMT:frame.obj
 0001:000374ad       ?CatchIt@@YAXPAUEHExceptionRecord@@PAUEHRegistrationNode@@PAU_CONTEXT@@PAXPBU_s_FuncInfo@@PBU_s_HandlerType@@PBU_s_CatchableType@@PBU_s_TryBlockMapEntry@@H1E@Z 004384ad f   LIBCMT:frame.obj
 0001:0003751b       ?FindHandlerForForeignException@@YAXPAUEHExceptionRecord@@PAUEHRegistrationNode@@PAU_CONTEXT@@PAXPBU_s_FuncInfo@@HH1@Z 0043851b f   LIBCMT:frame.obj
 0001:0003760f       ?FindHandler@@YAXPAUEHExceptionRecord@@PAUEHRegistrationNode@@PAU_CONTEXT@@PAXPBU_s_FuncInfo@@EH1@Z 0043860f f   LIBCMT:frame.obj
 0001:00038292       ?CPtoLCID@@YAHH@Z          00439292 f   LIBCMT:mbctype.obj
 0001:000382c1       ?setSBCS@@YAXPAUthreadmbcinfostruct@@@Z 004392c1 f   LIBCMT:mbctype.obj
 0001:00038325       ?setSBUpLow@@YAXPAUthreadmbcinfostruct@@@Z 00439325 f   LIBCMT:mbctype.obj
 0001:0003855c       ?getSystemCP@@YAHH@Z       0043955c f   LIBCMT:mbctype.obj
 0001:00038be6       __updatetlocinfoEx_nolock  00439be6 f   LIBCMT:setlocal.obj
 0001:00038e89       _write_char                00439e89 f   LIBCMT:output.obj
 0001:00038ebc       _write_multi_char          00439ebc f   LIBCMT:output.obj
 0001:00038ee2       _write_string              00439ee2 f   LIBCMT:output.obj
 0001:0003a0c8       __shift                    0043b0c8 f   LIBCMT:cvt.obj
 0001:0003a10d       __cftoe2_l                 0043b10d f   LIBCMT:cvt.obj
 0001:0003a6df       __cftof2_l                 0043b6df f   LIBCMT:cvt.obj
 0001:0003b893       __initterm                 0043c893 f   LIBCMT:crt0dat.obj
 0001:0003b959       _doexit                    0043c959 f   LIBCMT:crt0dat.obj
 0001:0003bb42       __catch$??2@YAPAXIABUnothrow_t@std@@@Z$0 0043cb42 f   LIBCMT:newopnt.obj
 0001:0003bb4c       _fastzero_I                0043cb4c f   LIBCMT:p4_memset.obj
 0001:0003bc32       _has_osfxsr_set            0043cc32 f   LIBCMT:cpu_disp.obj
 0001:0003bcf1       _fastcopy_I                0043ccf1 f   LIBCMT:p4_memcpy.obj
 0001:0003c31d       _parse_cmdline             0043d31d f   LIBCMT:stdargv.obj
 0001:0003cc57       _comexecmd                 0043dc57 f   LIBCMT:spawnve.obj
 0001:0003d2c3       ?__crtLCMapStringA_stat@@YAHPAUlocaleinfo_struct@@KKPBDHPADHHH@Z 0043e2c3 f   LIBCMT:a_map.obj
 0001:0003e806       ?strtoxl@@YAKPAUlocaleinfo_struct@@PBDPAPBDHH@Z 0043f806 f   LIBCMT:strtol.obj
 0001:0003ea60       ?strtoxq@@YA_KPAUlocaleinfo_struct@@PBDPAPBDHH@Z 0043fa60 f   LIBCMT:strtoq.obj
 0001:0003ed8f       __tzset_nolock             0043fd8f f   LIBCMT:tzset.obj
 0001:0003f0d5       _cvtdate                   004400d5 f   LIBCMT:tzset.obj
 0001:0003f2cc       __isindst_nolock           004402cc f   LIBCMT:tzset.obj
 0001:0003f9ad       _flsall                    004409ad f   LIBCMT:fflush.obj
 0001:0003fd68       __unwind_handler4          00440d68 f   LIBCMT:exsup4.obj
 0001:00040233       ?__crtGetStringTypeA_stat@@YAHPAUlocaleinfo_struct@@KPBDHPAGHHH@Z 00441233 f   LIBCMT:a_str.obj
 0001:00040bc2       _siglookup                 00441bc2 f   LIBCMT:winsig.obj
 0001:0004408b       __hw_cw                    0044508b f   LIBCMT:_ieee87_.obj
 0001:00044119       ___hw_cw_sse2              00445119 f   LIBCMT:_ieee87_.obj
 0001:000446aa       ?strncnt@@YAHPBDH@Z        004456aa f   LIBCMT:a_cmp.obj
 0001:000446c8       ?__crtCompareStringA_stat@@YAHPAUlocaleinfo_struct@@KKPBDH1HH@Z 004456c8 f   LIBCMT:a_cmp.obj
 0001:00044b74       _findenv                   00445b74 f   LIBCMT:setenv.obj
 0001:00044bc6       _copy_environ              00445bc6 f   LIBCMT:setenv.obj
 0001:00045110       __unwindfunclet$?Instance@?$Singleton@VAbusingOptionParser@@$00@util@@SAPAVAbusingOptionParser@@XZ$0 00446110 f   AbuseUser.obj
 0001:00045110       __unwindfunclet$?Instance@?$Singleton@VFilePackerManager@util@@$00@util@@SAPAVFilePackerManager@2@XZ$0 00446110 f   AbuseUser.obj
 0001:00045110       __unwindfunclet$?Instance@?$Singleton@VAbuseUserManager@@$00@util@@SAPAVAbuseUserManager@@XZ$0 00446110 f   AbuseUser.obj
 0001:0004511b       __ehhandler$?Instance@?$Singleton@VAbusingOptionParser@@$00@util@@SAPAVAbusingOptionParser@@XZ 0044611b f   AbuseUser.obj
 0001:0004511b       __ehhandler$?Instance@?$Singleton@VAbuseUserManager@@$00@util@@SAPAVAbuseUserManager@@XZ 0044611b f   AbuseUser.obj
 0001:0004511b       __ehhandler$?Instance@?$Singleton@VFilePackerManager@util@@$00@util@@SAPAVFilePackerManager@2@XZ 0044611b f   AbuseUser.obj
 0001:00045140       __unwindfunclet$?NotifyViolation@AbuseUserManager@@QAEXW4eABUSE_SUB_TYPE@@PADAAUtagSERVER_KEY@@KKK11@Z$0 00446140 f   AbuseUserManager.obj
 0001:00045159       __ehhandler$?NotifyViolation@AbuseUserManager@@QAEXW4eABUSE_SUB_TYPE@@PADAAUtagSERVER_KEY@@KKK11@Z 00446159 f   AbuseUserManager.obj
 0001:00045187       __unwindfunclet$??1AbuseUserManager@@QAE@XZ$0 00446187 f   AbuseUserManager.obj
 0001:0004518f       __unwindfunclet$??1AbuseUserManager@@QAE@XZ$1 0044618f f   AbuseUserManager.obj
 0001:0004519a       __ehhandler$??1AbuseUserManager@@QAE@XZ 0044619a f   AbuseUserManager.obj
 0001:000451b5       __unwindfunclet$??0AbuseUserManager@@QAE@XZ$0 004461b5 f   AbuseUserManager.obj
 0001:000451bd       __ehhandler$??0AbuseUserManager@@QAE@XZ 004461bd f   AbuseUserManager.obj
 0001:000451e0       __unwindfunclet$??0?$VariableSizeChunkImpl@VAgentServerSession@@@internal@util@@QAE@XZ$0 004461e0 f   AbuseUserManager.obj
 0001:000451e0       __unwindfunclet$??0?$VariableSizeChunkImpl@VAbuseUser@@@internal@util@@QAE@XZ$0 004461e0 f   AbuseUserManager.obj
 0001:000451e0       __unwindfunclet$??0?$VariableSizeChunkImpl@VGameDBProxySession@@@internal@util@@QAE@XZ$0 004461e0 f   AbuseUserManager.obj
 0001:000451e0       __unwindfunclet$??0?$VariableSizeChunkImpl@VWorldServerSession@@@internal@util@@QAE@XZ$0 004461e0 f   AbuseUserManager.obj
 0001:000451e0       __unwindfunclet$??0?$VariableSizeChunkImpl@VOpServerSession@@@internal@util@@QAE@XZ$0 004461e0 f   AbuseUserManager.obj
 0001:000451e0       __unwindfunclet$??0?$VariableSizeChunkImpl@VFieldServerSession@@@internal@util@@QAE@XZ$0 004461e0 f   AbuseUserManager.obj
 0001:000451e0       __unwindfunclet$??0?$VariableSizeChunkImpl@VAccountDBProxySession@@@internal@util@@QAE@XZ$0 004461e0 f   AbuseUserManager.obj
 0001:000451e0       __unwindfunclet$??0?$VariableSizeChunkImpl@VBattleServerSession@@@internal@util@@QAE@XZ$0 004461e0 f   AbuseUserManager.obj
 0001:000451e0       __unwindfunclet$??0?$VariableSizeChunkImpl@VSolarAuthServerSession@@@internal@util@@QAE@XZ$0 004461e0 f   AbuseUserManager.obj
 0001:000451e0       __unwindfunclet$??0?$VariableSizeChunkImpl@VGuildServerSession@@@internal@util@@QAE@XZ$0 004461e0 f   AbuseUserManager.obj
 0001:000451e0       __unwindfunclet$??0?$VariableSizeChunkImpl@VTempServerSessionEx@@@internal@util@@QAE@XZ$0 004461e0 f   AbuseUserManager.obj
 0001:000451e8       __ehhandler$??0?$VariableSizeChunkImpl@VFieldServerSession@@@internal@util@@QAE@XZ 004461e8 f   AbuseUserManager.obj
 0001:000451e8       __ehhandler$??0?$VariableSizeChunkImpl@VSolarAuthServerSession@@@internal@util@@QAE@XZ 004461e8 f   AbuseUserManager.obj
 0001:000451e8       __ehhandler$??0?$VariableSizeChunkImpl@VGuildServerSession@@@internal@util@@QAE@XZ 004461e8 f   AbuseUserManager.obj
 0001:000451e8       __ehhandler$??0?$VariableSizeChunkImpl@VWorldServerSession@@@internal@util@@QAE@XZ 004461e8 f   AbuseUserManager.obj
 0001:000451e8       __ehhandler$??0?$VariableSizeChunkImpl@VAbuseUser@@@internal@util@@QAE@XZ 004461e8 f   AbuseUserManager.obj
 0001:000451e8       __ehhandler$??0?$VariableSizeChunkImpl@VGameDBProxySession@@@internal@util@@QAE@XZ 004461e8 f   AbuseUserManager.obj
 0001:000451e8       __ehhandler$??0?$VariableSizeChunkImpl@VAgentServerSession@@@internal@util@@QAE@XZ 004461e8 f   AbuseUserManager.obj
 0001:000451e8       __ehhandler$??0?$VariableSizeChunkImpl@VBattleServerSession@@@internal@util@@QAE@XZ 004461e8 f   AbuseUserManager.obj
 0001:000451e8       __ehhandler$??0?$VariableSizeChunkImpl@VOpServerSession@@@internal@util@@QAE@XZ 004461e8 f   AbuseUserManager.obj
 0001:000451e8       __ehhandler$??0?$VariableSizeChunkImpl@VTempServerSessionEx@@@internal@util@@QAE@XZ 004461e8 f   AbuseUserManager.obj
 0001:000451e8       __ehhandler$??0?$VariableSizeChunkImpl@VAccountDBProxySession@@@internal@util@@QAE@XZ 004461e8 f   AbuseUserManager.obj
 0001:00045210       __ehhandler$?_Copy@?$_Tree@V?$_Tset_traits@KU?$less@K@std@@V?$CustomAllocator@K@util@@$0A@@std@@@std@@IAEPAU_Node@?$_Tree_nod@V?$_Tset_traits@KU?$less@K@std@@V?$CustomAllocator@K@util@@$0A@@std@@@2@PAU342@0@Z 00446210 f   AbuseUserManager.obj
 0001:00045230       __ehhandler$?_Copy@?$basic_string@DU?$char_traits@D@std@@V?$allocator@D@2@@std@@IAEXII@Z 00446230 f   AbuseUserManager.obj
 0001:00045250       __unwindfunclet$??0logic_error@std@@QAE@ABV?$basic_string@DU?$char_traits@D@std@@V?$allocator@D@2@@1@@Z$0 00446250 f   AbuseUserManager.obj
 0001:00045258       __ehhandler$??0logic_error@std@@QAE@ABV?$basic_string@DU?$char_traits@D@std@@V?$allocator@D@2@@1@@Z 00446258 f   AbuseUserManager.obj
 0001:00045280       __unwindfunclet$??0logic_error@std@@QAE@ABV01@@Z$0 00446280 f   AbuseUserManager.obj
 0001:00045288       __ehhandler$??0logic_error@std@@QAE@ABV01@@Z 00446288 f   AbuseUserManager.obj
 0001:000452b0       __unwindfunclet$?erase@?$_Tree@V?$_Tmap_traits@W4eSCRIPT_CODE@@V?$basic_string@DU?$char_traits@D@std@@V?$allocator@D@2@@std@@U?$less@W4eSCRIPT_CODE@@@3@V?$CustomAllocator@V?$basic_string@DU?$char_traits@D@std@@V?$allocator@D@2@@std@@@util@@$0A@@std@@@std@@QAE?AViterator@12@Vconst_iterator@12@@Z$0 004462b0 f   AbuseUserManager.obj
 0001:000452b0       __unwindfunclet$?erase@?$_Tree@V?$_Tmap_traits@PAVServerSessionEx@@HU?$less@PAVServerSessionEx@@@std@@V?$allocator@U?$pair@QAVServerSessionEx@@H@std@@@3@$0A@@std@@@std@@QAE?AViterator@12@Vconst_iterator@12@@Z$0 004462b0 f   AbuseUserManager.obj
 0001:000452b0       __unwindfunclet$?erase@?$_Tree@V?$_Tmap_traits@W4eSCRIPT_CODE@@UsCOMPRESS_INFO@ICompressConverter@@U?$less@W4eSCRIPT_CODE@@@std@@V?$CustomAllocator@UsCOMPRESS_INFO@ICompressConverter@@@util@@$0A@@std@@@std@@QAE?AViterator@12@Vconst_iterator@12@@Z$0 004462b0 f   AbuseUserManager.obj
 0001:000452b0       __unwindfunclet$?erase@?$_Tree@V?$_Tmap_traits@V?$basic_string@DU?$char_traits@D@std@@V?$allocator@D@2@@std@@PAV?$map@V?$basic_string@DU?$char_traits@D@std@@V?$allocator@D@2@@std@@V12@U?$less@V?$basic_string@DU?$char_traits@D@std@@V?$allocator@D@2@@std@@@2@V?$allocator@U?$pair@$$CBV?$basic_string@DU?$char_traits@D@std@@V?$allocator@D@2@@std@@V12@@std@@@2@@2@U?$less@V?$basic_string@DU?$char_traits@D@std@@V?$allocator@D@2@@std@@@2@V?$allocator@U?$pair@$$CBV?$basic_string@DU?$char_traits@D@std@@V?$allocator@D@2@@std@@PAV?$map@V?$basic_string@DU?$char_traits@D@std@@V?$allocator@D@2@@std@@V12@U?$less@V?$basic_string@DU?$char_traits@D@std@@V?$allocator@D@2@@std@@@2@V?$allocator@U?$pair@$$CBV?$basic_string@DU?$char_traits@D@std@@V?$allocator@D@2@@std@@V12@@std@@@2@@2@@std@@@2@$0A@@std@@@std@@QAE?AViterator@12@Vconst_iterator@12@@Z$0 004462b0 f   AbuseUserManager.obj
 0001:000452b0       __unwindfunclet$?erase@?$_Tree@V?$_Tmap_traits@KU?$pair@KK@std@@U?$less@K@2@V?$CustomAllocator@U?$pair@KK@std@@@util@@$0A@@std@@@std@@QAE?AViterator@12@Vconst_iterator@12@@Z$0 004462b0 f   AbuseUserManager.obj
 0001:000452b0       __unwindfunclet$?erase@?$_Tree@V?$_Tmap_traits@EPAUABUSING_OPTION_INFO@@U?$less@E@std@@V?$CustomAllocator@PAUABUSING_OPTION_INFO@@@util@@$0A@@std@@@std@@QAE?AViterator@12@Vconst_iterator@12@@Z$0 004462b0 f   AbuseUserManager.obj
 0001:000452b0       __unwindfunclet$?erase@?$_Tree@V?$_Tmap_traits@KU?$pair@V?$Delegator@VIWorkNode@@@@H@std@@U?$less@K@2@V?$CustomAllocator@U?$pair@V?$Delegator@VIWorkNode@@@@H@std@@@util@@$0A@@std@@@std@@QAE?AViterator@12@Vconst_iterator@12@@Z$0 004462b0 f   AbuseUserManager.obj
 0001:000452b0       __unwindfunclet$?erase@?$_Tree@V?$_Tmap_traits@_KUsTEMP_SERVER_LIFETIME@@U?$less@_K@std@@V?$allocator@U?$pair@$$CB_KUsTEMP_SERVER_LIFETIME@@@std@@@3@$0A@@std@@@std@@QAE?AViterator@12@Vconst_iterator@12@@Z$0 004462b0 f   AbuseUserManager.obj
 0001:000452b0       __unwindfunclet$?erase@?$_Tree@V?$_Tmap_traits@V?$basic_string@DU?$char_traits@D@std@@V?$allocator@D@2@@std@@V12@U?$less@V?$basic_string@DU?$char_traits@D@std@@V?$allocator@D@2@@std@@@2@V?$allocator@U?$pair@$$CBV?$basic_string@DU?$char_traits@D@std@@V?$allocator@D@2@@std@@V12@@std@@@2@$0A@@std@@@std@@QAE?AViterator@12@Vconst_iterator@12@@Z$0 004462b0 f   AbuseUserManager.obj
 0001:000452b0       __unwindfunclet$?erase@?$_Tree@V?$_Tset_traits@KU?$less@K@std@@V?$CustomAllocator@K@util@@$0A@@std@@@std@@QAE?AViterator@12@Vconst_iterator@12@@Z$0 004462b0 f   AbuseUserManager.obj
 0001:000452b8       __ehhandler$?erase@?$_Tree@V?$_Tset_traits@KU?$less@K@std@@V?$CustomAllocator@K@util@@$0A@@std@@@std@@QAE?AViterator@12@Vconst_iterator@12@@Z 004462b8 f   AbuseUserManager.obj
 0001:000452b8       __ehhandler$?erase@?$_Tree@V?$_Tmap_traits@_KUsTEMP_SERVER_LIFETIME@@U?$less@_K@std@@V?$allocator@U?$pair@$$CB_KUsTEMP_SERVER_LIFETIME@@@std@@@3@$0A@@std@@@std@@QAE?AViterator@12@Vconst_iterator@12@@Z 004462b8 f   AbuseUserManager.obj
 0001:000452b8       __ehhandler$?erase@?$_Tree@V?$_Tmap_traits@KU?$pair@KK@std@@U?$less@K@2@V?$CustomAllocator@U?$pair@KK@std@@@util@@$0A@@std@@@std@@QAE?AViterator@12@Vconst_iterator@12@@Z 004462b8 f   AbuseUserManager.obj
 0001:000452b8       __ehhandler$?erase@?$_Tree@V?$_Tmap_traits@KU?$pair@V?$Delegator@VIWorkNode@@@@H@std@@U?$less@K@2@V?$CustomAllocator@U?$pair@V?$Delegator@VIWorkNode@@@@H@std@@@util@@$0A@@std@@@std@@QAE?AViterator@12@Vconst_iterator@12@@Z 004462b8 f   AbuseUserManager.obj
 0001:000452b8       __ehhandler$?erase@?$_Tree@V?$_Tmap_traits@EPAUABUSING_OPTION_INFO@@U?$less@E@std@@V?$CustomAllocator@PAUABUSING_OPTION_INFO@@@util@@$0A@@std@@@std@@QAE?AViterator@12@Vconst_iterator@12@@Z 004462b8 f   AbuseUserManager.obj
 0001:000452b8       __ehhandler$?erase@?$_Tree@V?$_Tmap_traits@V?$basic_string@DU?$char_traits@D@std@@V?$allocator@D@2@@std@@V12@U?$less@V?$basic_string@DU?$char_traits@D@std@@V?$allocator@D@2@@std@@@2@V?$allocator@U?$pair@$$CBV?$basic_string@DU?$char_traits@D@std@@V?$allocator@D@2@@std@@V12@@std@@@2@$0A@@std@@@std@@QAE?AViterator@12@Vconst_iterator@12@@Z 004462b8 f   AbuseUserManager.obj
 0001:000452b8       __ehhandler$?erase@?$_Tree@V?$_Tmap_traits@V?$basic_string@DU?$char_traits@D@std@@V?$allocator@D@2@@std@@PAV?$map@V?$basic_string@DU?$char_traits@D@std@@V?$allocator@D@2@@std@@V12@U?$less@V?$basic_string@DU?$char_traits@D@std@@V?$allocator@D@2@@std@@@2@V?$allocator@U?$pair@$$CBV?$basic_string@DU?$char_traits@D@std@@V?$allocator@D@2@@std@@V12@@std@@@2@@2@U?$less@V?$basic_string@DU?$char_traits@D@std@@V?$allocator@D@2@@std@@@2@V?$allocator@U?$pair@$$CBV?$basic_string@DU?$char_traits@D@std@@V?$allocator@D@2@@std@@PAV?$map@V?$basic_string@DU?$char_traits@D@std@@V?$allocator@D@2@@std@@V12@U?$less@V?$basic_string@DU?$char_traits@D@std@@V?$allocator@D@2@@std@@@2@V?$allocator@U?$pair@$$CBV?$basic_string@DU?$char_traits@D@std@@V?$allocator@D@2@@std@@V12@@std@@@2@@2@@std@@@2@$0A@@std@@@std@@QAE?AViterator@12@Vconst_iterator@12@@Z 004462b8 f   AbuseUserManager.obj
 0001:000452b8       __ehhandler$?erase@?$_Tree@V?$_Tmap_traits@PAVServerSessionEx@@HU?$less@PAVServerSessionEx@@@std@@V?$allocator@U?$pair@QAVServerSessionEx@@H@std@@@3@$0A@@std@@@std@@QAE?AViterator@12@Vconst_iterator@12@@Z 004462b8 f   AbuseUserManager.obj
 0001:000452b8       __ehhandler$?erase@?$_Tree@V?$_Tmap_traits@W4eSCRIPT_CODE@@V?$basic_string@DU?$char_traits@D@std@@V?$allocator@D@2@@std@@U?$less@W4eSCRIPT_CODE@@@3@V?$CustomAllocator@V?$basic_string@DU?$char_traits@D@std@@V?$allocator@D@2@@std@@@util@@$0A@@std@@@std@@QAE?AViterator@12@Vconst_iterator@12@@Z 004462b8 f   AbuseUserManager.obj
 0001:000452b8       __ehhandler$?erase@?$_Tree@V?$_Tmap_traits@W4eSCRIPT_CODE@@UsCOMPRESS_INFO@ICompressConverter@@U?$less@W4eSCRIPT_CODE@@@std@@V?$CustomAllocator@UsCOMPRESS_INFO@ICompressConverter@@@util@@$0A@@std@@@std@@QAE?AViterator@12@Vconst_iterator@12@@Z 004462b8 f   AbuseUserManager.obj
 0001:000452e0       __unwindfunclet$??0?$_Tree@V?$_Tset_traits@KU?$less@K@std@@V?$CustomAllocator@K@util@@$0A@@std@@@std@@QAE@ABV01@@Z$2 004462e0 f   AbuseUserManager.obj
 0001:000452e8       __ehhandler$??0?$_Tree@V?$_Tset_traits@KU?$less@K@std@@V?$CustomAllocator@K@util@@$0A@@std@@@std@@QAE@ABV01@@Z 004462e8 f   AbuseUserManager.obj
 0001:00045310       __unwindfunclet$??0?$_Hash@V?$_Hmap_traits@KPAVServerSession@@V?$hash_compare@KU?$less@K@std@@@stdext@@V?$CustomAllocator@PAVServerSession@@@util@@$0A@@stdext@@@stdext@@QAE@ABV?$hash_compare@KU?$less@K@std@@@1@ABV?$CustomAllocator@U?$pair@$$CBKPAVServerSession@@@std@@@util@@@Z$0 00446310 f   AbuseUserManager.obj
 0001:00045310       __unwindfunclet$??0?$_Hash@V?$_Hmap_traits@KPAVAbuseUser@@V?$hash_compare@KU?$less@K@std@@@stdext@@V?$CustomAllocator@PAVAbuseUser@@@util@@$0A@@stdext@@@stdext@@QAE@ABV?$hash_compare@KU?$less@K@std@@@1@ABV?$CustomAllocator@U?$pair@$$CBKPAVAbuseUser@@@std@@@util@@@Z$0 00446310 f   AbuseUserManager.obj
 0001:00045310       __unwindfunclet$??0?$_Hash@V?$_Hmap_traits@W4eSCRIPT_CODE@@PAUsSCRIPT_DATA_INFO_NODE_INTERNAL@@V?$hash_compare@W4eSCRIPT_CODE@@U?$less@W4eSCRIPT_CODE@@@std@@@stdext@@V?$CustomAllocator@PAUsSCRIPT_DATA_INFO_NODE_INTERNAL@@@util@@$0A@@stdext@@@stdext@@QAE@ABV?$hash_compare@W4eSCRIPT_CODE@@U?$less@W4eSCRIPT_CODE@@@std@@@1@ABV?$CustomAllocator@U?$pair@$$CBW4eSCRIPT_CODE@@PAUsSCRIPT_DATA_INFO_NODE_INTERNAL@@@std@@@util@@@Z$0 00446310 f   AbuseUserManager.obj
 0001:0004531b       __unwindfunclet$??0?$_Hash@V?$_Hmap_traits@W4eSCRIPT_CODE@@PAUsSCRIPT_DATA_INFO_NODE_INTERNAL@@V?$hash_compare@W4eSCRIPT_CODE@@U?$less@W4eSCRIPT_CODE@@@std@@@stdext@@V?$CustomAllocator@PAUsSCRIPT_DATA_INFO_NODE_INTERNAL@@@util@@$0A@@stdext@@@stdext@@QAE@ABV?$hash_compare@W4eSCRIPT_CODE@@U?$less@W4eSCRIPT_CODE@@@std@@@1@ABV?$CustomAllocator@U?$pair@$$CBW4eSCRIPT_CODE@@PAUsSCRIPT_DATA_INFO_NODE_INTERNAL@@@std@@@util@@@Z$1 0044631b f   AbuseUserManager.obj
 0001:0004531b       __unwindfunclet$??0?$_Hash@V?$_Hmap_traits@KPAVServerSession@@V?$hash_compare@KU?$less@K@std@@@stdext@@V?$CustomAllocator@PAVServerSession@@@util@@$0A@@stdext@@@stdext@@QAE@ABV?$hash_compare@KU?$less@K@std@@@1@ABV?$CustomAllocator@U?$pair@$$CBKPAVServerSession@@@std@@@util@@@Z$1 0044631b f   AbuseUserManager.obj
 0001:0004531b       __unwindfunclet$??0?$_Hash@V?$_Hmap_traits@KPAVAbuseUser@@V?$hash_compare@KU?$less@K@std@@@stdext@@V?$CustomAllocator@PAVAbuseUser@@@util@@$0A@@stdext@@@stdext@@QAE@ABV?$hash_compare@KU?$less@K@std@@@1@ABV?$CustomAllocator@U?$pair@$$CBKPAVAbuseUser@@@std@@@util@@@Z$1 0044631b f   AbuseUserManager.obj
 0001:00045326       __ehhandler$??0?$_Hash@V?$_Hmap_traits@KPAVAbuseUser@@V?$hash_compare@KU?$less@K@std@@@stdext@@V?$CustomAllocator@PAVAbuseUser@@@util@@$0A@@stdext@@@stdext@@QAE@ABV?$hash_compare@KU?$less@K@std@@@1@ABV?$CustomAllocator@U?$pair@$$CBKPAVAbuseUser@@@std@@@util@@@Z 00446326 f   AbuseUserManager.obj
 0001:00045326       __ehhandler$??0?$_Hash@V?$_Hmap_traits@KPAVServerSession@@V?$hash_compare@KU?$less@K@std@@@stdext@@V?$CustomAllocator@PAVServerSession@@@util@@$0A@@stdext@@@stdext@@QAE@ABV?$hash_compare@KU?$less@K@std@@@1@ABV?$CustomAllocator@U?$pair@$$CBKPAVServerSession@@@std@@@util@@@Z 00446326 f   AbuseUserManager.obj
 0001:00045326       __ehhandler$??0?$_Hash@V?$_Hmap_traits@W4eSCRIPT_CODE@@PAUsSCRIPT_DATA_INFO_NODE_INTERNAL@@V?$hash_compare@W4eSCRIPT_CODE@@U?$less@W4eSCRIPT_CODE@@@std@@@stdext@@V?$CustomAllocator@PAUsSCRIPT_DATA_INFO_NODE_INTERNAL@@@util@@$0A@@stdext@@@stdext@@QAE@ABV?$hash_compare@W4eSCRIPT_CODE@@U?$less@W4eSCRIPT_CODE@@@std@@@1@ABV?$CustomAllocator@U?$pair@$$CBW4eSCRIPT_CODE@@PAUsSCRIPT_DATA_INFO_NODE_INTERNAL@@@std@@@util@@@Z 00446326 f   AbuseUserManager.obj
 0001:00045350       __ehhandler$?_Buynode@?$list@U?$pair@$$CBKV?$chunk_set@KU?$less@K@std@@@util@@@std@@V?$CustomAllocator@U?$pair@$$CBKV?$chunk_set@KU?$less@K@std@@@util@@@std@@@util@@@std@@IAEPAU_Node@?$_List_nod@U?$pair@$$CBKV?$chunk_set@KU?$less@K@std@@@util@@@std@@V?$CustomAllocator@U?$pair@$$CBKV?$chunk_set@KU?$less@K@std@@@util@@@std@@@util@@@2@PAU342@0ABU?$pair@$$CBKV?$chunk_set@KU?$less@K@std@@@util@@@2@@Z 00446350 f   AbuseUserManager.obj
 0001:00045370       __unwindfunclet$??0?$_Hash@V?$_Hmap_traits@KV?$chunk_set@KU?$less@K@std@@@util@@V?$hash_compare@KU?$less@K@std@@@stdext@@V?$CustomAllocator@V?$chunk_set@KU?$less@K@std@@@util@@@2@$0A@@stdext@@@stdext@@QAE@ABV?$hash_compare@KU?$less@K@std@@@1@ABV?$CustomAllocator@U?$pair@$$CBKV?$chunk_set@KU?$less@K@std@@@util@@@std@@@util@@@Z$0 00446370 f   AbuseUserManager.obj
 0001:0004537b       __unwindfunclet$??0?$_Hash@V?$_Hmap_traits@KV?$chunk_set@KU?$less@K@std@@@util@@V?$hash_compare@KU?$less@K@std@@@stdext@@V?$CustomAllocator@V?$chunk_set@KU?$less@K@std@@@util@@@2@$0A@@stdext@@@stdext@@QAE@ABV?$hash_compare@KU?$less@K@std@@@1@ABV?$CustomAllocator@U?$pair@$$CBKV?$chunk_set@KU?$less@K@std@@@util@@@std@@@util@@@Z$1 0044637b f   AbuseUserManager.obj
 0001:00045386       __ehhandler$??0?$_Hash@V?$_Hmap_traits@KV?$chunk_set@KU?$less@K@std@@@util@@V?$hash_compare@KU?$less@K@std@@@stdext@@V?$CustomAllocator@V?$chunk_set@KU?$less@K@std@@@util@@@2@$0A@@stdext@@@stdext@@QAE@ABV?$hash_compare@KU?$less@K@std@@@1@ABV?$CustomAllocator@U?$pair@$$CBKV?$chunk_set@KU?$less@K@std@@@util@@@std@@@util@@@Z 00446386 f   AbuseUserManager.obj
 0001:000453b0       __unwindfunclet$??A?$hash_map@KV?$chunk_set@KU?$less@K@std@@@util@@V?$hash_compare@KU?$less@K@std@@@stdext@@V?$CustomAllocator@V?$chunk_set@KU?$less@K@std@@@util@@@2@@stdext@@QAEAAV?$chunk_set@KU?$less@K@std@@@util@@ABK@Z$0 004463b0 f   AbuseUserManager.obj
 0001:000453b8       __unwindfunclet$??A?$hash_map@KV?$chunk_set@KU?$less@K@std@@@util@@V?$hash_compare@KU?$less@K@std@@@stdext@@V?$CustomAllocator@V?$chunk_set@KU?$less@K@std@@@util@@@2@@stdext@@QAEAAV?$chunk_set@KU?$less@K@std@@@util@@ABK@Z$1 004463b8 f   AbuseUserManager.obj
 0001:000453c0       __ehhandler$??A?$hash_map@KV?$chunk_set@KU?$less@K@std@@@util@@V?$hash_compare@KU?$less@K@std@@@stdext@@V?$CustomAllocator@V?$chunk_set@KU?$less@K@std@@@util@@@2@@stdext@@QAEAAV?$chunk_set@KU?$less@K@std@@@util@@ABK@Z 004463c0 f   AbuseUserManager.obj
 0001:000453e0       __unwindfunclet$??0?$vector@PAV?$vector@PAUsSERVER_NODE@@V?$allocator@PAUsSERVER_NODE@@@std@@@std@@V?$allocator@PAV?$vector@PAUsSERVER_NODE@@V?$allocator@PAUsSERVER_NODE@@@std@@@std@@@2@@std@@QAE@XZ$0 004463e0 f   MasterServerInfo.obj
 0001:000453e0       __unwindfunclet$??0?$_Tree@V?$_Tmap_traits@PAVServerSessionEx@@HU?$less@PAVServerSessionEx@@@std@@V?$allocator@U?$pair@QAVServerSessionEx@@H@std@@@3@$0A@@std@@@std@@QAE@ABU?$less@PAVServerSessionEx@@@1@ABV?$allocator@U?$pair@QAVServerSessionEx@@H@std@@@1@@Z$0 004463e0 f   MasterServerInfo.obj
 0001:000453e0       __unwindfunclet$??0?$vector@PAV?$vector@PAUsSERVER_INFO@@V?$allocator@PAUsSERVER_INFO@@@std@@@std@@V?$allocator@PAV?$vector@PAUsSERVER_INFO@@V?$allocator@PAUsSERVER_INFO@@@std@@@std@@@2@@std@@QAE@XZ$0 004463e0 f   MasterServerInfo.obj
 0001:000453e0       __unwindfunclet$??0?$list@U?$pair@$$CBKPAVBASE_FUNC@util@@@std@@V?$allocator@U?$pair@$$CBKPAVBASE_FUNC@util@@@std@@@2@@std@@QAE@ABV?$allocator@U?$pair@$$CBKPAVBASE_FUNC@util@@@std@@@1@@Z$0 004463e0 f   MasterServerInfo.obj
 0001:000453e0       __unwindfunclet$??0?$vector@PAV?$vector@PAV?$vector@PAUsSERVER_INFO@@V?$allocator@PAUsSERVER_INFO@@@std@@@std@@V?$allocator@PAV?$vector@PAUsSERVER_INFO@@V?$allocator@PAUsSERVER_INFO@@@std@@@std@@@2@@std@@V?$allocator@PAV?$vector@PAV?$vector@PAUsSERVER_INFO@@V?$allocator@PAUsSERVER_INFO@@@std@@@std@@V?$allocator@PAV?$vector@PAUsSERVER_INFO@@V?$allocator@PAUsSERVER_INFO@@@std@@@std@@@2@@std@@@2@@std@@QAE@XZ$0 004463e0 f   MasterServerInfo.obj
 0001:000453e0       __unwindfunclet$??0?$vector@U_List_position@?$_Hash@V?$_Hmap_traits@KPAVBASE_FUNC@util@@V?$hash_compare@KU?$less@K@std@@@stdext@@V?$allocator@U?$pair@$$CBKPAVBASE_FUNC@util@@@std@@@std@@$0A@@stdext@@@stdext@@V?$allocator@U_List_position@?$_Hash@V?$_Hmap_traits@KPAVBASE_FUNC@util@@V?$hash_compare@KU?$less@K@std@@@stdext@@V?$allocator@U?$pair@$$CBKPAVBASE_FUNC@util@@@std@@@std@@$0A@@stdext@@@stdext@@@std@@@std@@QAE@ABV?$allocator@U_List_position@?$_Hash@V?$_Hmap_traits@KPAVBASE_FUNC@util@@V?$hash_compare@KU?$less@K@std@@@stdext@@V?$allocator@U?$pair@$$CBKPAVBASE_FUNC@util@@@std@@@std@@$0A@@stdext@@@stdext@@@1@@Z$0 004463e0 f   MasterServerInfo.obj
 0001:000453e0       __unwindfunclet$??0?$_Tree@V?$_Tmap_traits@V?$basic_string@DU?$char_traits@D@std@@V?$allocator@D@2@@std@@V12@U?$less@V?$basic_string@DU?$char_traits@D@std@@V?$allocator@D@2@@std@@@2@V?$allocator@U?$pair@$$CBV?$basic_string@DU?$char_traits@D@std@@V?$allocator@D@2@@std@@V12@@std@@@2@$0A@@std@@@std@@QAE@ABU?$less@V?$basic_string@DU?$char_traits@D@std@@V?$allocator@D@2@@std@@@1@ABV?$allocator@U?$pair@$$CBV?$basic_string@DU?$char_traits@D@std@@V?$allocator@D@2@@std@@V12@@std@@@1@@Z$0 004463e0 f   MasterServerInfo.obj
 0001:000453e0       __unwindfunclet$??0?$vector@PAV?$vector@PAV?$vector@PAUsSERVER_NODE@@V?$allocator@PAUsSERVER_NODE@@@std@@@std@@V?$allocator@PAV?$vector@PAUsSERVER_NODE@@V?$allocator@PAUsSERVER_NODE@@@std@@@std@@@2@@std@@V?$allocator@PAV?$vector@PAV?$vector@PAUsSERVER_NODE@@V?$allocator@PAUsSERVER_NODE@@@std@@@std@@V?$allocator@PAV?$vector@PAUsSERVER_NODE@@V?$allocator@PAUsSERVER_NODE@@@std@@@std@@@2@@std@@@2@@std@@QAE@XZ$0 004463e0 f   MasterServerInfo.obj
 0001:000453e0       __unwindfunclet$??0?$_Tree@V?$_Tmap_traits@V?$basic_string@DU?$char_traits@D@std@@V?$allocator@D@2@@std@@PAV?$map@V?$basic_string@DU?$char_traits@D@std@@V?$allocator@D@2@@std@@V12@U?$less@V?$basic_string@DU?$char_traits@D@std@@V?$allocator@D@2@@std@@@2@V?$allocator@U?$pair@$$CBV?$basic_string@DU?$char_traits@D@std@@V?$allocator@D@2@@std@@V12@@std@@@2@@2@U?$less@V?$basic_string@DU?$char_traits@D@std@@V?$allocator@D@2@@std@@@2@V?$allocator@U?$pair@$$CBV?$basic_string@DU?$char_traits@D@std@@V?$allocator@D@2@@std@@PAV?$map@V?$basic_string@DU?$char_traits@D@std@@V?$allocator@D@2@@std@@V12@U?$less@V?$basic_string@DU?$char_traits@D@std@@V?$allocator@D@2@@std@@@2@V?$allocator@U?$pair@$$CBV?$basic_string@DU?$char_traits@D@std@@V?$allocator@D@2@@std@@V12@@std@@@2@@2@@std@@@2@$0A@@std@@@std@@QAE@ABU?$less@V?$basic_string@DU?$char_traits@D@std@@V?$allocator@D@2@@std@@@1@ABV?$allocator@U?$pair@$$CBV?$basic_string@DU?$char_traits@D@std@@V?$allocator@D@2@@std@@PAV?$map@V?$basic_string@DU?$char_traits@D@std@@V?$allocator@D@2@@std@@V12@U?$less@V?$basic_string@DU?$char_traits@D@std@@V?$allocator@D@2@@std@@@2@V?$allocator@U?$pair@$$CBV?$basic_string@DU?$char_traits@D@std@@V?$allocator@D@2@@std@@V12@@std@@@2@@2@@std@@@1@@Z$0 004463e0 f   MasterServerInfo.obj
 0001:000453e0       __unwindfunclet$??0?$vector@PAUsSERVER_NODE@@V?$allocator@PAUsSERVER_NODE@@@std@@@std@@QAE@XZ$0 004463e0 f   MasterServerInfo.obj
 0001:000453e0       __unwindfunclet$??0?$vector@PAUsSERVER_INFO@@V?$allocator@PAUsSERVER_INFO@@@std@@@std@@QAE@XZ$0 004463e0 f   MasterServerInfo.obj
 0001:000453e8       __ehhandler$??0?$vector@PAV?$vector@PAV?$vector@PAUsSERVER_NODE@@V?$allocator@PAUsSERVER_NODE@@@std@@@std@@V?$allocator@PAV?$vector@PAUsSERVER_NODE@@V?$allocator@PAUsSERVER_NODE@@@std@@@std@@@2@@std@@V?$allocator@PAV?$vector@PAV?$vector@PAUsSERVER_NODE@@V?$allocator@PAUsSERVER_NODE@@@std@@@std@@V?$allocator@PAV?$vector@PAUsSERVER_NODE@@V?$allocator@PAUsSERVER_NODE@@@std@@@std@@@2@@std@@@2@@std@@QAE@XZ 004463e8 f   MasterServerInfo.obj
 0001:000453e8       __ehhandler$??0?$_Tree@V?$_Tmap_traits@V?$basic_string@DU?$char_traits@D@std@@V?$allocator@D@2@@std@@PAV?$map@V?$basic_string@DU?$char_traits@D@std@@V?$allocator@D@2@@std@@V12@U?$less@V?$basic_string@DU?$char_traits@D@std@@V?$allocator@D@2@@std@@@2@V?$allocator@U?$pair@$$CBV?$basic_string@DU?$char_traits@D@std@@V?$allocator@D@2@@std@@V12@@std@@@2@@2@U?$less@V?$basic_string@DU?$char_traits@D@std@@V?$allocator@D@2@@std@@@2@V?$allocator@U?$pair@$$CBV?$basic_string@DU?$char_traits@D@std@@V?$allocator@D@2@@std@@PAV?$map@V?$basic_string@DU?$char_traits@D@std@@V?$allocator@D@2@@std@@V12@U?$less@V?$basic_string@DU?$char_traits@D@std@@V?$allocator@D@2@@std@@@2@V?$allocator@U?$pair@$$CBV?$basic_string@DU?$char_traits@D@std@@V?$allocator@D@2@@std@@V12@@std@@@2@@2@@std@@@2@$0A@@std@@@std@@QAE@ABU?$less@V?$basic_string@DU?$char_traits@D@std@@V?$allocator@D@2@@std@@@1@ABV?$allocator@U?$pair@$$CBV?$basic_string@DU?$char_traits@D@std@@V?$allocator@D@2@@std@@PAV?$map@V?$basic_string@DU?$char_traits@D@std@@V?$allocator@D@2@@std@@V12@U?$less@V?$basic_string@DU?$char_traits@D@std@@V?$allocator@D@2@@std@@@2@V?$allocator@U?$pair@$$CBV?$basic_string@DU?$char_traits@D@std@@V?$allocator@D@2@@std@@V12@@std@@@2@@2@@std@@@1@@Z 004463e8 f   MasterServerInfo.obj
 0001:000453e8       __ehhandler$??0?$_Tree@V?$_Tmap_traits@PAVServerSessionEx@@HU?$less@PAVServerSessionEx@@@std@@V?$allocator@U?$pair@QAVServerSessionEx@@H@std@@@3@$0A@@std@@@std@@QAE@ABU?$less@PAVServerSessionEx@@@1@ABV?$allocator@U?$pair@QAVServerSessionEx@@H@std@@@1@@Z 004463e8 f   MasterServerInfo.obj
 0001:000453e8       __ehhandler$??0?$vector@U_List_position@?$_Hash@V?$_Hmap_traits@KPAVBASE_FUNC@util@@V?$hash_compare@KU?$less@K@std@@@stdext@@V?$allocator@U?$pair@$$CBKPAVBASE_FUNC@util@@@std@@@std@@$0A@@stdext@@@stdext@@V?$allocator@U_List_position@?$_Hash@V?$_Hmap_traits@KPAVBASE_FUNC@util@@V?$hash_compare@KU?$less@K@std@@@stdext@@V?$allocator@U?$pair@$$CBKPAVBASE_FUNC@util@@@std@@@std@@$0A@@stdext@@@stdext@@@std@@@std@@QAE@ABV?$allocator@U_List_position@?$_Hash@V?$_Hmap_traits@KPAVBASE_FUNC@util@@V?$hash_compare@KU?$less@K@std@@@stdext@@V?$allocator@U?$pair@$$CBKPAVBASE_FUNC@util@@@std@@@std@@$0A@@stdext@@@stdext@@@1@@Z 004463e8 f   MasterServerInfo.obj
 0001:000453e8       __ehhandler$??0?$_Tree@V?$_Tmap_traits@V?$basic_string@DU?$char_traits@D@std@@V?$allocator@D@2@@std@@V12@U?$less@V?$basic_string@DU?$char_traits@D@std@@V?$allocator@D@2@@std@@@2@V?$allocator@U?$pair@$$CBV?$basic_string@DU?$char_traits@D@std@@V?$allocator@D@2@@std@@V12@@std@@@2@$0A@@std@@@std@@QAE@ABU?$less@V?$basic_string@DU?$char_traits@D@std@@V?$allocator@D@2@@std@@@1@ABV?$allocator@U?$pair@$$CBV?$basic_string@DU?$char_traits@D@std@@V?$allocator@D@2@@std@@V12@@std@@@1@@Z 004463e8 f   MasterServerInfo.obj
 0001:000453e8       __ehhandler$??0?$vector@PAV?$vector@PAUsSERVER_NODE@@V?$allocator@PAUsSERVER_NODE@@@std@@@std@@V?$allocator@PAV?$vector@PAUsSERVER_NODE@@V?$allocator@PAUsSERVER_NODE@@@std@@@std@@@2@@std@@QAE@XZ 004463e8 f   MasterServerInfo.obj
 0001:000453e8       __ehhandler$??0?$vector@PAV?$vector@PAUsSERVER_INFO@@V?$allocator@PAUsSERVER_INFO@@@std@@@std@@V?$allocator@PAV?$vector@PAUsSERVER_INFO@@V?$allocator@PAUsSERVER_INFO@@@std@@@std@@@2@@std@@QAE@XZ 004463e8 f   MasterServerInfo.obj
 0001:000453e8       __ehhandler$??0?$list@U?$pair@$$CBKPAVBASE_FUNC@util@@@std@@V?$allocator@U?$pair@$$CBKPAVBASE_FUNC@util@@@std@@@2@@std@@QAE@ABV?$allocator@U?$pair@$$CBKPAVBASE_FUNC@util@@@std@@@1@@Z 004463e8 f   MasterServerInfo.obj
 0001:000453e8       __ehhandler$??0?$vector@PAUsSERVER_INFO@@V?$allocator@PAUsSERVER_INFO@@@std@@@std@@QAE@XZ 004463e8 f   MasterServerInfo.obj
 0001:000453e8       __ehhandler$??0?$vector@PAV?$vector@PAV?$vector@PAUsSERVER_INFO@@V?$allocator@PAUsSERVER_INFO@@@std@@@std@@V?$allocator@PAV?$vector@PAUsSERVER_INFO@@V?$allocator@PAUsSERVER_INFO@@@std@@@std@@@2@@std@@V?$allocator@PAV?$vector@PAV?$vector@PAUsSERVER_INFO@@V?$allocator@PAUsSERVER_INFO@@@std@@@std@@V?$allocator@PAV?$vector@PAUsSERVER_INFO@@V?$allocator@PAUsSERVER_INFO@@@std@@@std@@@2@@std@@@2@@std@@QAE@XZ 004463e8 f   MasterServerInfo.obj
 0001:000453e8       __ehhandler$??0?$vector@PAUsSERVER_NODE@@V?$allocator@PAUsSERVER_NODE@@@std@@@std@@QAE@XZ 004463e8 f   MasterServerInfo.obj
 0001:00045410       __unwindfunclet$?MakeServerExitList@MasterServerInfo@@QAEHUtagSERVER_KEY@@AAPAV?$map@PAVServerSessionEx@@HU?$less@PAVServerSessionEx@@@std@@V?$allocator@U?$pair@QAVServerSessionEx@@H@std@@@3@@std@@11@Z$0 00446410 f   MasterServerInfo.obj
 0001:0004541b       __unwindfunclet$?MakeServerExitList@MasterServerInfo@@QAEHUtagSERVER_KEY@@AAPAV?$map@PAVServerSessionEx@@HU?$less@PAVServerSessionEx@@@std@@V?$allocator@U?$pair@QAVServerSessionEx@@H@std@@@3@@std@@11@Z$1 0044641b f   MasterServerInfo.obj
 0001:00045426       __unwindfunclet$?MakeServerExitList@MasterServerInfo@@QAEHUtagSERVER_KEY@@AAPAV?$map@PAVServerSessionEx@@HU?$less@PAVServerSessionEx@@@std@@V?$allocator@U?$pair@QAVServerSessionEx@@H@std@@@3@@std@@11@Z$2 00446426 f   MasterServerInfo.obj
 0001:00045431       __ehhandler$?MakeServerExitList@MasterServerInfo@@QAEHUtagSERVER_KEY@@AAPAV?$map@PAVServerSessionEx@@HU?$less@PAVServerSessionEx@@@std@@V?$allocator@U?$pair@QAVServerSessionEx@@H@std@@@3@@std@@11@Z 00446431 f   MasterServerInfo.obj
 0001:00045450       __unwindfunclet$?_Xlen@?$vector@PAV?$vector@PAUsSERVER_INFO@@V?$allocator@PAUsSERVER_INFO@@@std@@@std@@V?$allocator@PAV?$vector@PAUsSERVER_INFO@@V?$allocator@PAUsSERVER_INFO@@@std@@@std@@@2@@std@@KAXXZ$0 00446450 f   ServerInfoManager.obj
 0001:00045450       __unwindfunclet$?_Xlen@?$vector@PAUsSERVER_NODE@@V?$allocator@PAUsSERVER_NODE@@@std@@@std@@KAXXZ$0 00446450 f   ServerInfoManager.obj
 0001:00045450       __unwindfunclet$?_Xlen@?$vector@PAUsSERVER_INFO@@V?$allocator@PAUsSERVER_INFO@@@std@@@std@@KAXXZ$0 00446450 f   ServerInfoManager.obj
 0001:00045450       __unwindfunclet$?_Xlen@?$vector@PAV?$vector@PAV?$vector@PAUsSERVER_NODE@@V?$allocator@PAUsSERVER_NODE@@@std@@@std@@V?$allocator@PAV?$vector@PAUsSERVER_NODE@@V?$allocator@PAUsSERVER_NODE@@@std@@@std@@@2@@std@@V?$allocator@PAV?$vector@PAV?$vector@PAUsSERVER_NODE@@V?$allocator@PAUsSERVER_NODE@@@std@@@std@@V?$allocator@PAV?$vector@PAUsSERVER_NODE@@V?$allocator@PAUsSERVER_NODE@@@std@@@std@@@2@@std@@@2@@std@@KAXXZ$0 00446450 f   ServerInfoManager.obj
 0001:00045450       __unwindfunclet$?_Xlen@?$vector@PAV?$vector@PAV?$vector@PAUsSERVER_INFO@@V?$allocator@PAUsSERVER_INFO@@@std@@@std@@V?$allocator@PAV?$vector@PAUsSERVER_INFO@@V?$allocator@PAUsSERVER_INFO@@@std@@@std@@@2@@std@@V?$allocator@PAV?$vector@PAV?$vector@PAUsSERVER_INFO@@V?$allocator@PAUsSERVER_INFO@@@std@@@std@@V?$allocator@PAV?$vector@PAUsSERVER_INFO@@V?$allocator@PAUsSERVER_INFO@@@std@@@std@@@2@@std@@@2@@std@@KAXXZ$0 00446450 f   ServerInfoManager.obj
 0001:00045450       __unwindfunclet$?_Xlen@?$vector@PAV?$vector@PAUsSERVER_NODE@@V?$allocator@PAUsSERVER_NODE@@@std@@@std@@V?$allocator@PAV?$vector@PAUsSERVER_NODE@@V?$allocator@PAUsSERVER_NODE@@@std@@@std@@@2@@std@@KAXXZ$0 00446450 f   ServerInfoManager.obj
 0001:00045450       __unwindfunclet$?_Xlen@?$vector@U_List_position@?$_Hash@V?$_Hmap_traits@KV?$chunk_set@KU?$less@K@std@@@util@@V?$hash_compare@KU?$less@K@std@@@stdext@@V?$CustomAllocator@V?$chunk_set@KU?$less@K@std@@@util@@@2@$0A@@stdext@@@stdext@@V?$CustomAllocator@U_List_position@?$_Hash@V?$_Hmap_traits@KV?$chunk_set@KU?$less@K@std@@@util@@V?$hash_compare@KU?$less@K@std@@@stdext@@V?$CustomAllocator@V?$chunk_set@KU?$less@K@std@@@util@@@2@$0A@@stdext@@@stdext@@@util@@@std@@KAXXZ$0 00446450 f   ServerInfoManager.obj
 0001:00045450       __unwindfunclet$?_Xlen@?$vector@U_List_position@?$_Hash@V?$_Hmap_traits@W4eSCRIPT_CODE@@PAUsSCRIPT_DATA_INFO_NODE_INTERNAL@@V?$hash_compare@W4eSCRIPT_CODE@@U?$less@W4eSCRIPT_CODE@@@std@@@stdext@@V?$CustomAllocator@PAUsSCRIPT_DATA_INFO_NODE_INTERNAL@@@util@@$0A@@stdext@@@stdext@@V?$CustomAllocator@U_List_position@?$_Hash@V?$_Hmap_traits@W4eSCRIPT_CODE@@PAUsSCRIPT_DATA_INFO_NODE_INTERNAL@@V?$hash_compare@W4eSCRIPT_CODE@@U?$less@W4eSCRIPT_CODE@@@std@@@stdext@@V?$CustomAllocator@PAUsSCRIPT_DATA_INFO_NODE_INTERNAL@@@util@@$0A@@stdext@@@stdext@@@util@@@std@@KAXXZ$0 00446450 f   ServerInfoManager.obj
 0001:00045450       __unwindfunclet$?_Xlen@?$vector@U_List_position@?$_Hash@V?$_Hmap_traits@KPAVAbuseUser@@V?$hash_compare@KU?$less@K@std@@@stdext@@V?$CustomAllocator@PAVAbuseUser@@@util@@$0A@@stdext@@@stdext@@V?$CustomAllocator@U_List_position@?$_Hash@V?$_Hmap_traits@KPAVAbuseUser@@V?$hash_compare@KU?$less@K@std@@@stdext@@V?$CustomAllocator@PAVAbuseUser@@@util@@$0A@@stdext@@@stdext@@@util@@@std@@KAXXZ$0 00446450 f   ServerInfoManager.obj
 0001:00045450       __unwindfunclet$?_Xlen@?$vector@U_List_position@?$_Hash@V?$_Hmap_traits@KPAVBASE_FUNC@util@@V?$hash_compare@KU?$less@K@std@@@stdext@@V?$allocator@U?$pair@$$CBKPAVBASE_FUNC@util@@@std@@@std@@$0A@@stdext@@@stdext@@V?$allocator@U_List_position@?$_Hash@V?$_Hmap_traits@KPAVBASE_FUNC@util@@V?$hash_compare@KU?$less@K@std@@@stdext@@V?$allocator@U?$pair@$$CBKPAVBASE_FUNC@util@@@std@@@std@@$0A@@stdext@@@stdext@@@std@@@std@@KAXXZ$0 00446450 f   ServerInfoManager.obj
 0001:00045450       __unwindfunclet$?_Xlen@?$vector@U?$pair@W4eSCRIPT_CODE@@PAUsSCRIPT_DATA_INFO_NODE_INTERNAL@@@std@@V?$CustomAllocator@U?$pair@W4eSCRIPT_CODE@@PAUsSCRIPT_DATA_INFO_NODE_INTERNAL@@@std@@@util@@@std@@KAXXZ$0 00446450 f   ServerInfoManager.obj
 0001:00045450       __unwindfunclet$?_Xlen@?$vector@U_List_position@?$_Hash@V?$_Hmap_traits@KPAVServerSession@@V?$hash_compare@KU?$less@K@std@@@stdext@@V?$CustomAllocator@PAVServerSession@@@util@@$0A@@stdext@@@stdext@@V?$CustomAllocator@U_List_position@?$_Hash@V?$_Hmap_traits@KPAVServerSession@@V?$hash_compare@KU?$less@K@std@@@stdext@@V?$CustomAllocator@PAVServerSession@@@util@@$0A@@stdext@@@stdext@@@util@@@std@@KAXXZ$0 00446450 f   ServerInfoManager.obj
 0001:00045458       __ehhandler$?_Xlen@?$vector@U_List_position@?$_Hash@V?$_Hmap_traits@KPAVBASE_FUNC@util@@V?$hash_compare@KU?$less@K@std@@@stdext@@V?$allocator@U?$pair@$$CBKPAVBASE_FUNC@util@@@std@@@std@@$0A@@stdext@@@stdext@@V?$allocator@U_List_position@?$_Hash@V?$_Hmap_traits@KPAVBASE_FUNC@util@@V?$hash_compare@KU?$less@K@std@@@stdext@@V?$allocator@U?$pair@$$CBKPAVBASE_FUNC@util@@@std@@@std@@$0A@@stdext@@@stdext@@@std@@@std@@KAXXZ 00446458 f   ServerInfoManager.obj
 0001:00045458       __ehhandler$?_Xlen@?$vector@U?$pair@W4eSCRIPT_CODE@@PAUsSCRIPT_DATA_INFO_NODE_INTERNAL@@@std@@V?$CustomAllocator@U?$pair@W4eSCRIPT_CODE@@PAUsSCRIPT_DATA_INFO_NODE_INTERNAL@@@std@@@util@@@std@@KAXXZ 00446458 f   ServerInfoManager.obj
 0001:00045458       __ehhandler$?_Xlen@?$vector@U_List_position@?$_Hash@V?$_Hmap_traits@KV?$chunk_set@KU?$less@K@std@@@util@@V?$hash_compare@KU?$less@K@std@@@stdext@@V?$CustomAllocator@V?$chunk_set@KU?$less@K@std@@@util@@@2@$0A@@stdext@@@stdext@@V?$CustomAllocator@U_List_position@?$_Hash@V?$_Hmap_traits@KV?$chunk_set@KU?$less@K@std@@@util@@V?$hash_compare@KU?$less@K@std@@@stdext@@V?$CustomAllocator@V?$chunk_set@KU?$less@K@std@@@util@@@2@$0A@@stdext@@@stdext@@@util@@@std@@KAXXZ 00446458 f   ServerInfoManager.obj
 0001:00045458       __ehhandler$?_Xlen@?$vector@PAV?$vector@PAV?$vector@PAUsSERVER_INFO@@V?$allocator@PAUsSERVER_INFO@@@std@@@std@@V?$allocator@PAV?$vector@PAUsSERVER_INFO@@V?$allocator@PAUsSERVER_INFO@@@std@@@std@@@2@@std@@V?$allocator@PAV?$vector@PAV?$vector@PAUsSERVER_INFO@@V?$allocator@PAUsSERVER_INFO@@@std@@@std@@V?$allocator@PAV?$vector@PAUsSERVER_INFO@@V?$allocator@PAUsSERVER_INFO@@@std@@@std@@@2@@std@@@2@@std@@KAXXZ 00446458 f   ServerInfoManager.obj
 0001:00045458       __ehhandler$?_Xlen@?$vector@U_List_position@?$_Hash@V?$_Hmap_traits@W4eSCRIPT_CODE@@PAUsSCRIPT_DATA_INFO_NODE_INTERNAL@@V?$hash_compare@W4eSCRIPT_CODE@@U?$less@W4eSCRIPT_CODE@@@std@@@stdext@@V?$CustomAllocator@PAUsSCRIPT_DATA_INFO_NODE_INTERNAL@@@util@@$0A@@stdext@@@stdext@@V?$CustomAllocator@U_List_position@?$_Hash@V?$_Hmap_traits@W4eSCRIPT_CODE@@PAUsSCRIPT_DATA_INFO_NODE_INTERNAL@@V?$hash_compare@W4eSCRIPT_CODE@@U?$less@W4eSCRIPT_CODE@@@std@@@stdext@@V?$CustomAllocator@PAUsSCRIPT_DATA_INFO_NODE_INTERNAL@@@util@@$0A@@stdext@@@stdext@@@util@@@std@@KAXXZ 00446458 f   ServerInfoManager.obj
 0001:00045458       __ehhandler$?_Xlen@?$vector@PAV?$vector@PAUsSERVER_NODE@@V?$allocator@PAUsSERVER_NODE@@@std@@@std@@V?$allocator@PAV?$vector@PAUsSERVER_NODE@@V?$allocator@PAUsSERVER_NODE@@@std@@@std@@@2@@std@@KAXXZ 00446458 f   ServerInfoManager.obj
 0001:00045458       __ehhandler$?_Xlen@?$vector@U_List_position@?$_Hash@V?$_Hmap_traits@KPAVAbuseUser@@V?$hash_compare@KU?$less@K@std@@@stdext@@V?$CustomAllocator@PAVAbuseUser@@@util@@$0A@@stdext@@@stdext@@V?$CustomAllocator@U_List_position@?$_Hash@V?$_Hmap_traits@KPAVAbuseUser@@V?$hash_compare@KU?$less@K@std@@@stdext@@V?$CustomAllocator@PAVAbuseUser@@@util@@$0A@@stdext@@@stdext@@@util@@@std@@KAXXZ 00446458 f   ServerInfoManager.obj
 0001:00045458       __ehhandler$?_Xlen@?$vector@PAV?$vector@PAV?$vector@PAUsSERVER_NODE@@V?$allocator@PAUsSERVER_NODE@@@std@@@std@@V?$allocator@PAV?$vector@PAUsSERVER_NODE@@V?$allocator@PAUsSERVER_NODE@@@std@@@std@@@2@@std@@V?$allocator@PAV?$vector@PAV?$vector@PAUsSERVER_NODE@@V?$allocator@PAUsSERVER_NODE@@@std@@@std@@V?$allocator@PAV?$vector@PAUsSERVER_NODE@@V?$allocator@PAUsSERVER_NODE@@@std@@@std@@@2@@std@@@2@@std@@KAXXZ 00446458 f   ServerInfoManager.obj
 0001:00045458       __ehhandler$?_Xlen@?$vector@PAV?$vector@PAUsSERVER_INFO@@V?$allocator@PAUsSERVER_INFO@@@std@@@std@@V?$allocator@PAV?$vector@PAUsSERVER_INFO@@V?$allocator@PAUsSERVER_INFO@@@std@@@std@@@2@@std@@KAXXZ 00446458 f   ServerInfoManager.obj
 0001:00045458       __ehhandler$?_Xlen@?$vector@PAUsSERVER_NODE@@V?$allocator@PAUsSERVER_NODE@@@std@@@std@@KAXXZ 00446458 f   ServerInfoManager.obj
 0001:00045458       __ehhandler$?_Xlen@?$vector@PAUsSERVER_INFO@@V?$allocator@PAUsSERVER_INFO@@@std@@@std@@KAXXZ 00446458 f   ServerInfoManager.obj
 0001:00045458       __ehhandler$?_Xlen@?$vector@U_List_position@?$_Hash@V?$_Hmap_traits@KPAVServerSession@@V?$hash_compare@KU?$less@K@std@@@stdext@@V?$CustomAllocator@PAVServerSession@@@util@@$0A@@stdext@@@stdext@@V?$CustomAllocator@U_List_position@?$_Hash@V?$_Hmap_traits@KPAVServerSession@@V?$hash_compare@KU?$less@K@std@@@stdext@@V?$CustomAllocator@PAVServerSession@@@util@@$0A@@stdext@@@stdext@@@util@@@std@@KAXXZ 00446458 f   ServerInfoManager.obj
 0001:00045480       __unwindfunclet$?AddServer@?$ServerTree@UsSERVER_INFO@@@@QAEPAUsSERVER_INFO@@UtagSERVER_KEY@@PAU2@@Z$0 00446480 f   ServerInfoManager.obj
 0001:0004548b       __unwindfunclet$?AddServer@?$ServerTree@UsSERVER_INFO@@@@QAEPAUsSERVER_INFO@@UtagSERVER_KEY@@PAU2@@Z$1 0044648b f   ServerInfoManager.obj
 0001:00045496       __ehhandler$?AddServer@?$ServerTree@UsSERVER_INFO@@@@QAEPAUsSERVER_INFO@@UtagSERVER_KEY@@PAU2@@Z 00446496 f   ServerInfoManager.obj
 0001:000454c0       __unwindfunclet$?CreateInstance@ServerInfoManager@@SAXXZ$0 004464c0 f   ServerInfoManager.obj
 0001:000454cb       __ehhandler$?CreateInstance@ServerInfoManager@@SAXXZ 004464cb f   ServerInfoManager.obj
 0001:000454f0       __unwindfunclet$?OnAM_CONNECTION_CCU_REPORT_NTF@Handler_AM@@CAXPAVAgentServerSession@@PAUMSG_BASE@@G@Z$0 004464f0 f   Handler_AM.obj
 0001:00045503       __ehhandler$?OnAM_CONNECTION_CCU_REPORT_NTF@Handler_AM@@CAXPAVAgentServerSession@@PAUMSG_BASE@@G@Z 00446503 f   Handler_AM.obj
 0001:0004551e       __unwindfunclet$?RegisterHandler_ALL@Handler_AM@@SAXV?$Delegator@VPacketHandler@@@@@Z$0 0044651e f   Handler_AM.obj
 0001:00045526       __ehhandler$?RegisterHandler_ALL@Handler_AM@@SAXV?$Delegator@VPacketHandler@@@@@Z 00446526 f   Handler_AM.obj
 0001:00045550       __unwindfunclet$?RegisterHandler_ALL@Handler_DM@@SAXV?$Delegator@VPacketHandler@@@@@Z$0 00446550 f   Handler_DM.obj
 0001:00045558       __ehhandler$?RegisterHandler_ALL@Handler_DM@@SAXV?$Delegator@VPacketHandler@@@@@Z 00446558 f   Handler_DM.obj
 0001:00045580       __unwindfunclet$?RegisterHandler_ALL@Handler_GM@@SAXV?$Delegator@VPacketHandler@@@@@Z$0 00446580 f   Handler_GM.obj
 0001:00045588       __ehhandler$?RegisterHandler_ALL@Handler_GM@@SAXV?$Delegator@VPacketHandler@@@@@Z 00446588 f   Handler_GM.obj
 0001:000455b0       __unwindfunclet$?RegisterHandler_ALL@Handler_ME@@SAXV?$Delegator@VPacketHandler@@@@@Z$0 004465b0 f   Handler_ME.obj
 0001:000455b8       __ehhandler$?RegisterHandler_ALL@Handler_ME@@SAXV?$Delegator@VPacketHandler@@@@@Z 004465b8 f   Handler_ME.obj
 0001:000455e0       __unwindfunclet$?OnMO_RTTG_USERMONEY_REQ@Handler_MO@@CAXPAVOpServerSession@@PAUMSG_BASE_INTERNAL@@G@Z$0 004465e0 f   Handler_MO.obj
 0001:000455f3       __ehhandler$?OnMO_RTTG_USERMONEY_REQ@Handler_MO@@CAXPAVOpServerSession@@PAUMSG_BASE_INTERNAL@@G@Z 004465f3 f   Handler_MO.obj
 0001:0004560e       __unwindfunclet$?OnMO_RTTG_GAMESTATISTICS_REQ@Handler_MO@@CAXPAVOpServerSession@@PAUMSG_BASE_INTERNAL@@G@Z$0 0044660e f   Handler_MO.obj
 0001:00045627       __ehhandler$?OnMO_RTTG_GAMESTATISTICS_REQ@Handler_MO@@CAXPAVOpServerSession@@PAUMSG_BASE_INTERNAL@@G@Z 00446627 f   Handler_MO.obj
 0001:00045648       __unwindfunclet$?RegisterHandler_ALL@Handler_MO@@SAXV?$Delegator@VPacketHandler@@@@@Z$0 00446648 f   Handler_MO.obj
 0001:00045650       __ehhandler$?RegisterHandler_ALL@Handler_MO@@SAXV?$Delegator@VPacketHandler@@@@@Z 00446650 f   Handler_MO.obj
 0001:00045670       __unwindfunclet$?RegisterHandler_ALL@Handler_MW@@SAXV?$Delegator@VPacketHandler@@@@@Z$0 00446670 f   Handler_MW.obj
 0001:00045678       __ehhandler$?RegisterHandler_ALL@Handler_MW@@SAXV?$Delegator@VPacketHandler@@@@@Z 00446678 f   Handler_MW.obj
 0001:000456a0       __unwindfunclet$?RegisterHandler_ALL@Handler_MX@@SAXV?$Delegator@VPacketHandler@@@@@Z$0 004466a0 f   Handler_MX.obj
 0001:000456a8       __ehhandler$?RegisterHandler_ALL@Handler_MX@@SAXV?$Delegator@VPacketHandler@@@@@Z 004466a8 f   Handler_MX.obj
 0001:000456d0       __unwindfunclet$?RegisterHandler_ALL@Handler_MZ@@SAXV?$Delegator@VPacketHandler@@@@@Z$0 004466d0 f   Handler_MZ.obj
 0001:000456d8       __ehhandler$?RegisterHandler_ALL@Handler_MZ@@SAXV?$Delegator@VPacketHandler@@@@@Z 004466d8 f   Handler_MZ.obj
 0001:00045700       __unwindfunclet$?RegisterHandler_ALL@Handler_SM@@SAXV?$Delegator@VPacketHandler@@@@@Z$0 00446700 f   Handler_SM.obj
 0001:00045708       __ehhandler$?RegisterHandler_ALL@Handler_SM@@SAXV?$Delegator@VPacketHandler@@@@@Z 00446708 f   Handler_SM.obj
 0001:00045730       __unwindfunclet$?_ParsePacket@PacketHandler@@AAEHW4eSERVER_TYPE@@PAVServerSession@@PAUMSG_BASE@@G@Z$0 00446730 f   PacketHandler.obj
 0001:00045738       __ehhandler$?_ParsePacket@PacketHandler@@AAEHW4eSERVER_TYPE@@PAVServerSession@@PAUMSG_BASE@@G@Z 00446738 f   PacketHandler.obj
 0001:00045753       __unwindfunclet$?_ParsePacket@PacketHandler@@AAEHW4eSERVER_TYPE@@PAVServerSession@@PAUMSG_BASE_INTERNAL@@G@Z$0 00446753 f   PacketHandler.obj
 0001:0004575b       __ehhandler$?_ParsePacket@PacketHandler@@AAEHW4eSERVER_TYPE@@PAVServerSession@@PAUMSG_BASE_INTERNAL@@G@Z 0044675b f   PacketHandler.obj
 0001:00045776       __unwindfunclet$??1PacketHandler@@QAE@XZ$0 00446776 f   PacketHandler.obj
 0001:0004578c       __ehhandler$??1PacketHandler@@QAE@XZ 0044678c f   PacketHandler.obj
 0001:000457a7       __unwindfunclet$?_Initialize@PacketHandler@@AAEXXZ$0 004467a7 f   PacketHandler.obj
 0001:000457b2       __unwindfunclet$?_Initialize@PacketHandler@@AAEXXZ$2 004467b2 f   PacketHandler.obj
 0001:000457bd       __unwindfunclet$?_Initialize@PacketHandler@@AAEXXZ$4 004467bd f   PacketHandler.obj
 0001:000457c8       __unwindfunclet$?_Initialize@PacketHandler@@AAEXXZ$6 004467c8 f   PacketHandler.obj
 0001:000457d3       __unwindfunclet$?_Initialize@PacketHandler@@AAEXXZ$8 004467d3 f   PacketHandler.obj
 0001:000457de       __unwindfunclet$?_Initialize@PacketHandler@@AAEXXZ$10 004467de f   PacketHandler.obj
 0001:000457e9       __unwindfunclet$?_Initialize@PacketHandler@@AAEXXZ$12 004467e9 f   PacketHandler.obj
 0001:000457f4       __unwindfunclet$?_Initialize@PacketHandler@@AAEXXZ$14 004467f4 f   PacketHandler.obj
 0001:000457ff       __unwindfunclet$?_Initialize@PacketHandler@@AAEXXZ$16 004467ff f   PacketHandler.obj
 0001:0004580a       __unwindfunclet$?_Initialize@PacketHandler@@AAEXXZ$18 0044680a f   PacketHandler.obj
 0001:00045815       __ehhandler$?_Initialize@PacketHandler@@AAEXXZ 00446815 f   PacketHandler.obj
 0001:00045830       __unwindfunclet$?_RegisterHandler@PacketHandler@@AAEHW4eSERVER_TYPE@@PAUsPACKET_HANDLER_INFO@@@Z$1 00446830 f   PacketHandler.obj
 0001:00045838       __ehhandler$?_RegisterHandler@PacketHandler@@AAEHW4eSERVER_TYPE@@PAUsPACKET_HANDLER_INFO@@@Z 00446838 f   PacketHandler.obj
 0001:00045853       __unwindfunclet$??0PacketHandler@@QAE@XZ$0 00446853 f   PacketHandler.obj
 0001:00045869       __ehhandler$??0PacketHandler@@QAE@XZ 00446869 f   PacketHandler.obj
 0001:00045884       __unwindfunclet$?RegisterHandler@PacketHandler@@SAXXZ$0 00446884 f   PacketHandler.obj
 0001:0004588f       __ehhandler$?RegisterHandler@PacketHandler@@SAXXZ 0044688f f   PacketHandler.obj
 0001:000458b0       __ehhandler$?_Insert_n@?$vector@U_List_position@?$_Hash@V?$_Hmap_traits@KPAVBASE_FUNC@util@@V?$hash_compare@KU?$less@K@std@@@stdext@@V?$allocator@U?$pair@$$CBKPAVBASE_FUNC@util@@@std@@@std@@$0A@@stdext@@@stdext@@V?$allocator@U_List_position@?$_Hash@V?$_Hmap_traits@KPAVBASE_FUNC@util@@V?$hash_compare@KU?$less@K@std@@@stdext@@V?$allocator@U?$pair@$$CBKPAVBASE_FUNC@util@@@std@@@std@@$0A@@stdext@@@stdext@@@std@@@std@@IAEXV?$_Vector_const_iterator@U_List_position@?$_Hash@V?$_Hmap_traits@KPAVBASE_FUNC@util@@V?$hash_compare@KU?$less@K@std@@@stdext@@V?$allocator@U?$pair@$$CBKPAVBASE_FUNC@util@@@std@@@std@@$0A@@stdext@@@stdext@@V?$allocator@U_List_position@?$_Hash@V?$_Hmap_traits@KPAVBASE_FUNC@util@@V?$hash_compare@KU?$less@K@std@@@stdext@@V?$allocator@U?$pair@$$CBKPAVBASE_FUNC@util@@@std@@@std@@$0A@@stdext@@@stdext@@@std@@@2@IABU_List_position@?$_Hash@V?$_Hmap_traits@KPAVBASE_FUNC@util@@V?$hash_compare@KU?$less@K@std@@@stdext@@V?$allocator@U?$pair@$$CBKPAVBASE_FUNC@util@@@std@@@std@@$0A@@stdext@@@stdext@@@Z 004468b0 f   PacketHandler.obj
 0001:000458d0       __unwindfunclet$??1FunctionMap@util@@QAE@XZ$0 004468d0 f   PacketHandler.obj
 0001:000458d8       __ehhandler$??1FunctionMap@util@@QAE@XZ 004468d8 f   PacketHandler.obj
 0001:00045900       __unwindfunclet$??0?$_Hash@V?$_Hmap_traits@KPAVBASE_FUNC@util@@V?$hash_compare@KU?$less@K@std@@@stdext@@V?$allocator@U?$pair@$$CBKPAVBASE_FUNC@util@@@std@@@std@@$0A@@stdext@@@stdext@@QAE@ABV?$hash_compare@KU?$less@K@std@@@1@ABV?$allocator@U?$pair@$$CBKPAVBASE_FUNC@util@@@std@@@std@@@Z$0 00446900 f   PacketHandler.obj
 0001:0004590b       __unwindfunclet$??0?$_Hash@V?$_Hmap_traits@KPAVBASE_FUNC@util@@V?$hash_compare@KU?$less@K@std@@@stdext@@V?$allocator@U?$pair@$$CBKPAVBASE_FUNC@util@@@std@@@std@@$0A@@stdext@@@stdext@@QAE@ABV?$hash_compare@KU?$less@K@std@@@1@ABV?$allocator@U?$pair@$$CBKPAVBASE_FUNC@util@@@std@@@std@@@Z$1 0044690b f   PacketHandler.obj
 0001:00045916       __ehhandler$??0?$_Hash@V?$_Hmap_traits@KPAVBASE_FUNC@util@@V?$hash_compare@KU?$less@K@std@@@stdext@@V?$allocator@U?$pair@$$CBKPAVBASE_FUNC@util@@@std@@@std@@$0A@@stdext@@@stdext@@QAE@ABV?$hash_compare@KU?$less@K@std@@@1@ABV?$allocator@U?$pair@$$CBKPAVBASE_FUNC@util@@@std@@@std@@@Z 00446916 f   PacketHandler.obj
 0001:00045940       __unwindfunclet$?InitializeLogger@MasterServerEx@@AAEHXZ$0 00446940 f   MasterServerEx.obj
 0001:0004594e       __unwindfunclet$?InitializeLogger@MasterServerEx@@AAEHXZ$1 0044694e f   MasterServerEx.obj
 0001:0004595c       __ehhandler$?InitializeLogger@MasterServerEx@@AAEHXZ 0044695c f   MasterServerEx.obj
 0001:0004598a       __unwindfunclet$?InitializeDataLoad@MasterServerEx@@AAEXXZ$0 0044698a f   MasterServerEx.obj
 0001:00045995       __ehhandler$?InitializeDataLoad@MasterServerEx@@AAEXXZ 00446995 f   MasterServerEx.obj
 0001:000459b0       __unwindfunclet$??0MasterServerEx@@QAE@XZ$0 004469b0 f   MasterServerEx.obj
 0001:000459b8       __unwindfunclet$??0MasterServerEx@@QAE@XZ$1 004469b8 f   MasterServerEx.obj
 0001:000459c6       __ehhandler$??0MasterServerEx@@QAE@XZ 004469c6 f   MasterServerEx.obj
 0001:000459e1       __unwindfunclet$??1MasterServerEx@@UAE@XZ$0 004469e1 f   MasterServerEx.obj
 0001:000459e9       __unwindfunclet$??1MasterServerEx@@UAE@XZ$1 004469e9 f   MasterServerEx.obj
 0001:000459f7       __ehhandler$??1MasterServerEx@@UAE@XZ 004469f7 f   MasterServerEx.obj
 0001:00045a20       __unwindfunclet$??0?$WorkLoadContainer@K@@QAE@XZ$0 00446a20 f   MasterServerEx.obj
 0001:00045a28       __ehhandler$??0?$WorkLoadContainer@K@@QAE@XZ 00446a28 f   MasterServerEx.obj
 0001:00045a50       __unwindfunclet$??1?$WorkLoadContainer@K@@QAE@XZ$0 00446a50 f   MasterServerEx.obj
 0001:00045a58       __ehhandler$??1?$WorkLoadContainer@K@@QAE@XZ 00446a58 f   MasterServerEx.obj
 0001:00045a80       __unwindfunclet$?Init@GameServerSession@@UAEXXZ$0 00446a80 f   GameServerSession.obj
 0001:00045a8b       __ehhandler$?Init@GameServerSession@@UAEXXZ 00446a8b f   GameServerSession.obj
 0001:00045ab0       __unwindfunclet$?OnRecv@OpServerSession@@MAEXPAEG@Z$0 00446ab0 f   OpServerSession.obj
 0001:00045ab8       __ehhandler$?OnRecv@OpServerSession@@MAEXPAEG@Z 00446ab8 f   OpServerSession.obj
 0001:00045ad3       __unwindfunclet$?AllServerInfo_OnLIVE@SendFunc@OpServerSession@@SAXPAV2@@Z$0 00446ad3 f   OpServerSession.obj
 0001:00045aec       __ehhandler$?AllServerInfo_OnLIVE@SendFunc@OpServerSession@@SAXPAV2@@Z 00446aec f   OpServerSession.obj
 0001:00045b10       __unwindfunclet$?OnRecv@ServerSessionEx@@MAEXPAEG@Z$0 00446b10 f   ServerSessionEx.obj
 0001:00045b18       __ehhandler$?OnRecv@ServerSessionEx@@MAEXPAEG@Z 00446b18 f   ServerSessionEx.obj
 0001:00045b40       __unwindfunclet$??1?$CMemoryPoolFactory@VTempServerSessionEx@@@util@@UAE@XZ$0 00446b40 f   ServerSessionManager.obj
 0001:00045b40       __unwindfunclet$??1?$CMemoryPoolFactory@VAbuseUser@@@util@@UAE@XZ$0 00446b40 f   ServerSessionManager.obj
 0001:00045b40       __unwindfunclet$??1?$CMemoryPoolFactory@VAgentServerSession@@@util@@UAE@XZ$0 00446b40 f   ServerSessionManager.obj
 0001:00045b40       __unwindfunclet$??1?$CMemoryPoolFactory@VFieldServerSession@@@util@@UAE@XZ$0 00446b40 f   ServerSessionManager.obj
 0001:00045b40       __unwindfunclet$??1?$CMemoryPoolFactory@VBattleServerSession@@@util@@UAE@XZ$0 00446b40 f   ServerSessionManager.obj
 0001:00045b40       __unwindfunclet$??1?$CMemoryPoolFactory@VGameDBProxySession@@@util@@UAE@XZ$0 00446b40 f   ServerSessionManager.obj
 0001:00045b40       __unwindfunclet$??1?$CMemoryPoolFactory@VOpServerSession@@@util@@UAE@XZ$0 00446b40 f   ServerSessionManager.obj
 0001:00045b40       __unwindfunclet$??1?$CMemoryPoolFactory@VAccountDBProxySession@@@util@@UAE@XZ$0 00446b40 f   ServerSessionManager.obj
 0001:00045b40       __unwindfunclet$??1?$CMemoryPoolFactory@VSolarAuthServerSession@@@util@@UAE@XZ$0 00446b40 f   ServerSessionManager.obj
 0001:00045b40       __unwindfunclet$??1?$CMemoryPoolFactory@VGuildServerSession@@@util@@UAE@XZ$0 00446b40 f   ServerSessionManager.obj
 0001:00045b40       __unwindfunclet$??1?$CMemoryPoolFactory@VWorldServerSession@@@util@@UAE@XZ$0 00446b40 f   ServerSessionManager.obj
 0001:00045b48       __ehhandler$??1?$CMemoryPoolFactory@VWorldServerSession@@@util@@UAE@XZ 00446b48 f   ServerSessionManager.obj
 0001:00045b48       __ehhandler$??1?$CMemoryPoolFactory@VFieldServerSession@@@util@@UAE@XZ 00446b48 f   ServerSessionManager.obj
 0001:00045b48       __ehhandler$??1?$CMemoryPoolFactory@VGameDBProxySession@@@util@@UAE@XZ 00446b48 f   ServerSessionManager.obj
 0001:00045b48       __ehhandler$??1?$CMemoryPoolFactory@VOpServerSession@@@util@@UAE@XZ 00446b48 f   ServerSessionManager.obj
 0001:00045b48       __ehhandler$??1?$CMemoryPoolFactory@VGuildServerSession@@@util@@UAE@XZ 00446b48 f   ServerSessionManager.obj
 0001:00045b48       __ehhandler$??1?$CMemoryPoolFactory@VSolarAuthServerSession@@@util@@UAE@XZ 00446b48 f   ServerSessionManager.obj
 0001:00045b48       __ehhandler$??1?$CMemoryPoolFactory@VAgentServerSession@@@util@@UAE@XZ 00446b48 f   ServerSessionManager.obj
 0001:00045b48       __ehhandler$??1?$CMemoryPoolFactory@VAbuseUser@@@util@@UAE@XZ 00446b48 f   ServerSessionManager.obj
 0001:00045b48       __ehhandler$??1?$CMemoryPoolFactory@VBattleServerSession@@@util@@UAE@XZ 00446b48 f   ServerSessionManager.obj
 0001:00045b48       __ehhandler$??1?$CMemoryPoolFactory@VAccountDBProxySession@@@util@@UAE@XZ 00446b48 f   ServerSessionManager.obj
 0001:00045b48       __ehhandler$??1?$CMemoryPoolFactory@VTempServerSessionEx@@@util@@UAE@XZ 00446b48 f   ServerSessionManager.obj
 0001:00045b70       __unwindfunclet$?Create@?$VariableSizeChunkImpl@VSolarAuthServerSession@@@internal@util@@CAXPAX@Z$0 00446b70 f   ServerSessionManager.obj
 0001:00045b70       __unwindfunclet$?Create@?$VariableSizeChunkImpl@VTempServerSessionEx@@@internal@util@@CAXPAX@Z$0 00446b70 f   ServerSessionManager.obj
 0001:00045b70       __unwindfunclet$?Create@?$VariableSizeChunkImpl@VAbuseUser@@@internal@util@@CAXPAX@Z$0 00446b70 f   ServerSessionManager.obj
 0001:00045b70       __unwindfunclet$?construct@?$CustomAllocator@U?$pair@$$CBKV?$chunk_set@KU?$less@K@std@@@util@@@std@@@util@@QAEXPAU?$pair@$$CBKV?$chunk_set@KU?$less@K@std@@@util@@@std@@ABU34@@Z$0 00446b70 f   ServerSessionManager.obj
 0001:00045b81       __ehhandler$?Create@?$VariableSizeChunkImpl@VAbuseUser@@@internal@util@@CAXPAX@Z 00446b81 f   ServerSessionManager.obj
 0001:00045b81       __ehhandler$?Create@?$VariableSizeChunkImpl@VSolarAuthServerSession@@@internal@util@@CAXPAX@Z 00446b81 f   ServerSessionManager.obj
 0001:00045b81       __ehhandler$?construct@?$CustomAllocator@U?$pair@$$CBKV?$chunk_set@KU?$less@K@std@@@util@@@std@@@util@@QAEXPAU?$pair@$$CBKV?$chunk_set@KU?$less@K@std@@@util@@@std@@ABU34@@Z 00446b81 f   ServerSessionManager.obj
 0001:00045b81       __ehhandler$?Create@?$VariableSizeChunkImpl@VTempServerSessionEx@@@internal@util@@CAXPAX@Z 00446b81 f   ServerSessionManager.obj
 0001:00045ba0       __unwindfunclet$?CreateImpl@?$CMemoryPoolFactory@VFieldServerSession@@@util@@QAEXH@Z$3 00446ba0 f   ServerSessionManager.obj
 0001:00045ba0       __unwindfunclet$?CreateImpl@?$CMemoryPoolFactory@VGameDBProxySession@@@util@@QAEXH@Z$3 00446ba0 f   ServerSessionManager.obj
 0001:00045ba0       __unwindfunclet$?CreateImpl@?$CMemoryPoolFactory@VAccountDBProxySession@@@util@@QAEXH@Z$3 00446ba0 f   ServerSessionManager.obj
 0001:00045ba0       __unwindfunclet$?CreateImpl@?$CMemoryPoolFactory@VBattleServerSession@@@util@@QAEXH@Z$3 00446ba0 f   ServerSessionManager.obj
 0001:00045ba0       __unwindfunclet$?CreateImpl@?$CMemoryPoolFactory@VWorldServerSession@@@util@@QAEXH@Z$3 00446ba0 f   ServerSessionManager.obj
 0001:00045ba0       __unwindfunclet$?CreateImpl@?$CMemoryPoolFactory@VTempServerSessionEx@@@util@@QAEXH@Z$3 00446ba0 f   ServerSessionManager.obj
 0001:00045ba0       __unwindfunclet$?CreateImpl@?$CMemoryPoolFactory@VSolarAuthServerSession@@@util@@QAEXH@Z$3 00446ba0 f   ServerSessionManager.obj
 0001:00045ba0       __unwindfunclet$?CreateImpl@?$CMemoryPoolFactory@VGuildServerSession@@@util@@QAEXH@Z$3 00446ba0 f   ServerSessionManager.obj
 0001:00045ba0       __unwindfunclet$?CreateImpl@?$CMemoryPoolFactory@VOpServerSession@@@util@@QAEXH@Z$3 00446ba0 f   ServerSessionManager.obj
 0001:00045ba0       __unwindfunclet$?CreateImpl@?$CMemoryPoolFactory@VAgentServerSession@@@util@@QAEXH@Z$3 00446ba0 f   ServerSessionManager.obj
 0001:00045ba0       __unwindfunclet$?CreateImpl@?$CMemoryPoolFactory@VAbuseUser@@@util@@QAEXH@Z$3 00446ba0 f   ServerSessionManager.obj
 0001:00045bab       __unwindfunclet$?CreateImpl@?$CMemoryPoolFactory@VAccountDBProxySession@@@util@@QAEXH@Z$1 00446bab f   ServerSessionManager.obj
 0001:00045bab       __unwindfunclet$?CreateImpl@?$CMemoryPoolFactory@VAgentServerSession@@@util@@QAEXH@Z$1 00446bab f   ServerSessionManager.obj
 0001:00045bab       __unwindfunclet$?CreateImpl@?$CMemoryPoolFactory@VWorldServerSession@@@util@@QAEXH@Z$1 00446bab f   ServerSessionManager.obj
 0001:00045bab       __unwindfunclet$?CreateImpl@?$CMemoryPoolFactory@VOpServerSession@@@util@@QAEXH@Z$1 00446bab f   ServerSessionManager.obj
 0001:00045bab       __unwindfunclet$?CreateImpl@?$CMemoryPoolFactory@VTempServerSessionEx@@@util@@QAEXH@Z$1 00446bab f   ServerSessionManager.obj
 0001:00045bab       __unwindfunclet$?CreateImpl@?$CMemoryPoolFactory@VFieldServerSession@@@util@@QAEXH@Z$1 00446bab f   ServerSessionManager.obj
 0001:00045bab       __unwindfunclet$?CreateImpl@?$CMemoryPoolFactory@VGameDBProxySession@@@util@@QAEXH@Z$1 00446bab f   ServerSessionManager.obj
 0001:00045bab       __unwindfunclet$?CreateImpl@?$CMemoryPoolFactory@VGuildServerSession@@@util@@QAEXH@Z$1 00446bab f   ServerSessionManager.obj
 0001:00045bab       __unwindfunclet$?CreateImpl@?$CMemoryPoolFactory@VSolarAuthServerSession@@@util@@QAEXH@Z$1 00446bab f   ServerSessionManager.obj
 0001:00045bab       __unwindfunclet$?CreateImpl@?$CMemoryPoolFactory@VBattleServerSession@@@util@@QAEXH@Z$1 00446bab f   ServerSessionManager.obj
 0001:00045bab       __unwindfunclet$?CreateImpl@?$CMemoryPoolFactory@VAbuseUser@@@util@@QAEXH@Z$1 00446bab f   ServerSessionManager.obj
 0001:00045bb6       __ehhandler$?CreateImpl@?$CMemoryPoolFactory@VFieldServerSession@@@util@@QAEXH@Z 00446bb6 f   ServerSessionManager.obj
 0001:00045bb6       __ehhandler$?CreateImpl@?$CMemoryPoolFactory@VOpServerSession@@@util@@QAEXH@Z 00446bb6 f   ServerSessionManager.obj
 0001:00045bb6       __ehhandler$?CreateImpl@?$CMemoryPoolFactory@VGameDBProxySession@@@util@@QAEXH@Z 00446bb6 f   ServerSessionManager.obj
 0001:00045bb6       __ehhandler$?CreateImpl@?$CMemoryPoolFactory@VGuildServerSession@@@util@@QAEXH@Z 00446bb6 f   ServerSessionManager.obj
 0001:00045bb6       __ehhandler$?CreateImpl@?$CMemoryPoolFactory@VSolarAuthServerSession@@@util@@QAEXH@Z 00446bb6 f   ServerSessionManager.obj
 0001:00045bb6       __ehhandler$?CreateImpl@?$CMemoryPoolFactory@VAgentServerSession@@@util@@QAEXH@Z 00446bb6 f   ServerSessionManager.obj
 0001:00045bb6       __ehhandler$?CreateImpl@?$CMemoryPoolFactory@VAccountDBProxySession@@@util@@QAEXH@Z 00446bb6 f   ServerSessionManager.obj
 0001:00045bb6       __ehhandler$?CreateImpl@?$CMemoryPoolFactory@VAbuseUser@@@util@@QAEXH@Z 00446bb6 f   ServerSessionManager.obj
 0001:00045bb6       __ehhandler$?CreateImpl@?$CMemoryPoolFactory@VBattleServerSession@@@util@@QAEXH@Z 00446bb6 f   ServerSessionManager.obj
 0001:00045bb6       __ehhandler$?CreateImpl@?$CMemoryPoolFactory@VTempServerSessionEx@@@util@@QAEXH@Z 00446bb6 f   ServerSessionManager.obj
 0001:00045bb6       __ehhandler$?CreateImpl@?$CMemoryPoolFactory@VWorldServerSession@@@util@@QAEXH@Z 00446bb6 f   ServerSessionManager.obj
 0001:00045be0       __unwindfunclet$??1ServerSessionManager@@AAE@XZ$0 00446be0 f   ServerSessionManager.obj
 0001:00045be8       __ehhandler$??1ServerSessionManager@@AAE@XZ 00446be8 f   ServerSessionManager.obj
 0001:00045c03       __unwindfunclet$?RemoveServer@ServerSessionManager@@SAXUtagSERVER_KEY@@@Z$0 00446c03 f   ServerSessionManager.obj
 0001:00045c1c       __ehhandler$?RemoveServer@ServerSessionManager@@SAXUtagSERVER_KEY@@@Z 00446c1c f   ServerSessionManager.obj
 0001:00045c3d       __unwindfunclet$??0ServerSessionManager@@AAE@XZ$0 00446c3d f   ServerSessionManager.obj
 0001:00045c45       __ehhandler$??0ServerSessionManager@@AAE@XZ 00446c45 f   ServerSessionManager.obj
 0001:00045c60       __unwindfunclet$?CreateInstance@ServerSessionManager@@SAHXZ$0 00446c60 f   ServerSessionManager.obj
 0001:00045c6b       __ehhandler$?CreateInstance@ServerSessionManager@@SAHXZ 00446c6b f   ServerSessionManager.obj
 0001:00045c86       __unwindfunclet$?AddServer@ServerSessionManager@@SAHPAVServerSessionEx@@@Z$0 00446c86 f   ServerSessionManager.obj
 0001:00045c9f       __ehhandler$?AddServer@ServerSessionManager@@SAHPAVServerSessionEx@@@Z 00446c9f f   ServerSessionManager.obj
 0001:00045cc0       __unwindfunclet$?Initialize@?$ServerTree@UsSERVER_NODE@@@@AAEXXZ$0 00446cc0 f   ServerSessionManager.obj
 0001:00045cc0       __unwindfunclet$?Initialize@?$ServerTree@UsSERVER_INFO@@@@AAEXXZ$0 00446cc0 f   ServerSessionManager.obj
 0001:00045ccb       __unwindfunclet$?Initialize@?$ServerTree@UsSERVER_INFO@@@@AAEXXZ$1 00446ccb f   ServerSessionManager.obj
 0001:00045ccb       __unwindfunclet$?Initialize@?$ServerTree@UsSERVER_NODE@@@@AAEXXZ$1 00446ccb f   ServerSessionManager.obj
 0001:00045cd6       __ehhandler$?Initialize@?$ServerTree@UsSERVER_INFO@@@@AAEXXZ 00446cd6 f   ServerSessionManager.obj
 0001:00045cd6       __ehhandler$?Initialize@?$ServerTree@UsSERVER_NODE@@@@AAEXXZ 00446cd6 f   ServerSessionManager.obj
 0001:00045d00       __unwindfunclet$?AddServer@?$ServerTree@UsSERVER_NODE@@@@QAEPAUsSERVER_NODE@@UtagSERVER_KEY@@PAU2@@Z$0 00446d00 f   ServerSessionManager.obj
 0001:00045d0b       __unwindfunclet$?AddServer@?$ServerTree@UsSERVER_NODE@@@@QAEPAUsSERVER_NODE@@UtagSERVER_KEY@@PAU2@@Z$1 00446d0b f   ServerSessionManager.obj
 0001:00045d16       __ehhandler$?AddServer@?$ServerTree@UsSERVER_NODE@@@@QAEPAUsSERVER_NODE@@UtagSERVER_KEY@@PAU2@@Z 00446d16 f   ServerSessionManager.obj
 0001:00045d40       __unwindfunclet$??0TempServerSessionEx@@QAE@XZ$0 00446d40 f   ServerSessionManager.obj
 0001:00045d48       __ehhandler$??0TempServerSessionEx@@QAE@XZ 00446d48 f   ServerSessionManager.obj
 0001:00045d70       __unwindfunclet$??1TempServerSessionEx@@UAE@XZ$0 00446d70 f   ServerSessionManager.obj
 0001:00045d78       __ehhandler$??1TempServerSessionEx@@UAE@XZ 00446d78 f   ServerSessionManager.obj
 0001:00045da0       __unwindfunclet$??1ServerSessionEx@@UAE@XZ$0 00446da0 f   ServerSessionManager.obj
 0001:00045da0       __unwindfunclet$??0ServerSessionEx@@QAE@XZ$0 00446da0 f   ServerSessionManager.obj
 0001:00045da8       __ehhandler$??0ServerSessionEx@@QAE@XZ 00446da8 f   ServerSessionManager.obj
 0001:00045da8       __ehhandler$??1ServerSessionEx@@UAE@XZ 00446da8 f   ServerSessionManager.obj
 0001:00045dd0       __unwindfunclet$?Alloc@?$FixedSizeChunkImpl@VGuildServerSession@@@internal@util@@UAEPAXXZ$0 00446dd0 f   ServerSessionManager.obj
 0001:00045dd0       __unwindfunclet$?Alloc@?$NotUseChunkImpl@VGuildServerSession@@@internal@util@@UAEPAXXZ$0 00446dd0 f   ServerSessionManager.obj
 0001:00045dd0       __unwindfunclet$?Alloc@?$FixedSizeChunkImpl@VAbuseUser@@@internal@util@@UAEPAXXZ$0 00446dd0 f   ServerSessionManager.obj
 0001:00045dd0       __unwindfunclet$?Alloc@?$FixedSizeChunkImpl@VWorldServerSession@@@internal@util@@UAEPAXXZ$0 00446dd0 f   ServerSessionManager.obj
 0001:00045dd0       __unwindfunclet$?Alloc@?$NotUseChunkImpl@VAccountDBProxySession@@@internal@util@@UAEPAXXZ$0 00446dd0 f   ServerSessionManager.obj
 0001:00045dd0       __unwindfunclet$?Alloc@?$FixedSizeChunkImpl@VTempServerSessionEx@@@internal@util@@UAEPAXXZ$0 00446dd0 f   ServerSessionManager.obj
 0001:00045dd0       __unwindfunclet$?Alloc@?$FixedSizeChunkImpl@VAccountDBProxySession@@@internal@util@@UAEPAXXZ$0 00446dd0 f   ServerSessionManager.obj
 0001:00045dd0       __unwindfunclet$?Alloc@?$NotUseChunkImpl@VWorldServerSession@@@internal@util@@UAEPAXXZ$0 00446dd0 f   ServerSessionManager.obj
 0001:00045dd0       __unwindfunclet$?Alloc@?$NotUseChunkImpl@VTempServerSessionEx@@@internal@util@@UAEPAXXZ$0 00446dd0 f   ServerSessionManager.obj
 0001:00045dd0       __unwindfunclet$?Alloc@?$NotUseChunkImpl@VSolarAuthServerSession@@@internal@util@@UAEPAXXZ$0 00446dd0 f   ServerSessionManager.obj
 0001:00045dd0       __unwindfunclet$?Alloc@?$NotUseChunkImpl@VBattleServerSession@@@internal@util@@UAEPAXXZ$0 00446dd0 f   ServerSessionManager.obj
 0001:00045dd0       __unwindfunclet$?Initialize@?$SolarHashTable@HK@util@@QAE_NK@Z$0 00446dd0 f   ServerSessionManager.obj
 0001:00045dd0       __unwindfunclet$?Alloc@?$NotUseChunkImpl@VGameDBProxySession@@@internal@util@@UAEPAXXZ$0 00446dd0 f   ServerSessionManager.obj
 0001:00045dd0       __unwindfunclet$?Alloc@?$NotUseChunkImpl@VAgentServerSession@@@internal@util@@UAEPAXXZ$0 00446dd0 f   ServerSessionManager.obj
 0001:00045dd0       __unwindfunclet$?Alloc@?$FixedSizeChunkImpl@VGameDBProxySession@@@internal@util@@UAEPAXXZ$0 00446dd0 f   ServerSessionManager.obj
 0001:00045dd0       __unwindfunclet$?Alloc@?$FixedSizeChunkImpl@VBattleServerSession@@@internal@util@@UAEPAXXZ$0 00446dd0 f   ServerSessionManager.obj
 0001:00045dd0       __unwindfunclet$?Alloc@?$FixedSizeChunkImpl@VFieldServerSession@@@internal@util@@UAEPAXXZ$0 00446dd0 f   ServerSessionManager.obj
 0001:00045dd0       __unwindfunclet$?Alloc@?$NotUseChunkImpl@VFieldServerSession@@@internal@util@@UAEPAXXZ$0 00446dd0 f   ServerSessionManager.obj
 0001:00045dd0       __unwindfunclet$?Alloc@?$NotUseChunkImpl@VAbuseUser@@@internal@util@@UAEPAXXZ$0 00446dd0 f   ServerSessionManager.obj
 0001:00045dd0       __unwindfunclet$?Alloc@?$FixedSizeChunkImpl@VSolarAuthServerSession@@@internal@util@@UAEPAXXZ$0 00446dd0 f   ServerSessionManager.obj
 0001:00045dd0       __unwindfunclet$?Alloc@?$FixedSizeChunkImpl@VAgentServerSession@@@internal@util@@UAEPAXXZ$0 00446dd0 f   ServerSessionManager.obj
 0001:00045dd0       __unwindfunclet$?Alloc@?$FixedSizeChunkImpl@VOpServerSession@@@internal@util@@UAEPAXXZ$0 00446dd0 f   ServerSessionManager.obj
 0001:00045dd0       __unwindfunclet$?Alloc@?$NotUseChunkImpl@VOpServerSession@@@internal@util@@UAEPAXXZ$0 00446dd0 f   ServerSessionManager.obj
 0001:00045de1       __ehhandler$?Alloc@?$NotUseChunkImpl@VOpServerSession@@@internal@util@@UAEPAXXZ 00446de1 f   ServerSessionManager.obj
 0001:00045de1       __ehhandler$?Alloc@?$FixedSizeChunkImpl@VOpServerSession@@@internal@util@@UAEPAXXZ 00446de1 f   ServerSessionManager.obj
 0001:00045de1       __ehhandler$?Initialize@?$SolarHashTable@HK@util@@QAE_NK@Z 00446de1 f   ServerSessionManager.obj
 0001:00045de1       __ehhandler$?Alloc@?$NotUseChunkImpl@VFieldServerSession@@@internal@util@@UAEPAXXZ 00446de1 f   ServerSessionManager.obj
 0001:00045de1       __ehhandler$?Alloc@?$FixedSizeChunkImpl@VAccountDBProxySession@@@internal@util@@UAEPAXXZ 00446de1 f   ServerSessionManager.obj
 0001:00045de1       __ehhandler$?Alloc@?$NotUseChunkImpl@VSolarAuthServerSession@@@internal@util@@UAEPAXXZ 00446de1 f   ServerSessionManager.obj
 0001:00045de1       __ehhandler$?Alloc@?$NotUseChunkImpl@VAbuseUser@@@internal@util@@UAEPAXXZ 00446de1 f   ServerSessionManager.obj
 0001:00045de1       __ehhandler$?Alloc@?$NotUseChunkImpl@VAccountDBProxySession@@@internal@util@@UAEPAXXZ 00446de1 f   ServerSessionManager.obj
 0001:00045de1       __ehhandler$?Alloc@?$NotUseChunkImpl@VTempServerSessionEx@@@internal@util@@UAEPAXXZ 00446de1 f   ServerSessionManager.obj
 0001:00045de1       __ehhandler$?Alloc@?$FixedSizeChunkImpl@VGuildServerSession@@@internal@util@@UAEPAXXZ 00446de1 f   ServerSessionManager.obj
 0001:00045de1       __ehhandler$?Alloc@?$FixedSizeChunkImpl@VFieldServerSession@@@internal@util@@UAEPAXXZ 00446de1 f   ServerSessionManager.obj
 0001:00045de1       __ehhandler$?Alloc@?$NotUseChunkImpl@VGuildServerSession@@@internal@util@@UAEPAXXZ 00446de1 f   ServerSessionManager.obj
 0001:00045de1       __ehhandler$?Alloc@?$FixedSizeChunkImpl@VAgentServerSession@@@internal@util@@UAEPAXXZ 00446de1 f   ServerSessionManager.obj
 0001:00045de1       __ehhandler$?Alloc@?$FixedSizeChunkImpl@VWorldServerSession@@@internal@util@@UAEPAXXZ 00446de1 f   ServerSessionManager.obj
 0001:00045de1       __ehhandler$?Alloc@?$FixedSizeChunkImpl@VTempServerSessionEx@@@internal@util@@UAEPAXXZ 00446de1 f   ServerSessionManager.obj
 0001:00045de1       __ehhandler$?Alloc@?$NotUseChunkImpl@VWorldServerSession@@@internal@util@@UAEPAXXZ 00446de1 f   ServerSessionManager.obj
 0001:00045de1       __ehhandler$?Alloc@?$NotUseChunkImpl@VBattleServerSession@@@internal@util@@UAEPAXXZ 00446de1 f   ServerSessionManager.obj
 0001:00045de1       __ehhandler$?Alloc@?$FixedSizeChunkImpl@VGameDBProxySession@@@internal@util@@UAEPAXXZ 00446de1 f   ServerSessionManager.obj
 0001:00045de1       __ehhandler$?Alloc@?$FixedSizeChunkImpl@VSolarAuthServerSession@@@internal@util@@UAEPAXXZ 00446de1 f   ServerSessionManager.obj
 0001:00045de1       __ehhandler$?Alloc@?$NotUseChunkImpl@VGameDBProxySession@@@internal@util@@UAEPAXXZ 00446de1 f   ServerSessionManager.obj
 0001:00045de1       __ehhandler$?Alloc@?$NotUseChunkImpl@VAgentServerSession@@@internal@util@@UAEPAXXZ 00446de1 f   ServerSessionManager.obj
 0001:00045de1       __ehhandler$?Alloc@?$FixedSizeChunkImpl@VBattleServerSession@@@internal@util@@UAEPAXXZ 00446de1 f   ServerSessionManager.obj
 0001:00045de1       __ehhandler$?Alloc@?$FixedSizeChunkImpl@VAbuseUser@@@internal@util@@UAEPAXXZ 00446de1 f   ServerSessionManager.obj
 0001:00045e00       __unwindfunclet$?Create@?$VariableSizeChunkImpl@VAccountDBProxySession@@@internal@util@@CAXPAX@Z$0 00446e00 f   ServerSessionManager.obj
 0001:00045e00       __unwindfunclet$?Create@?$VariableSizeChunkImpl@VGuildServerSession@@@internal@util@@CAXPAX@Z$0 00446e00 f   ServerSessionManager.obj
 0001:00045e00       __unwindfunclet$?Create@?$VariableSizeChunkImpl@VWorldServerSession@@@internal@util@@CAXPAX@Z$0 00446e00 f   ServerSessionManager.obj
 0001:00045e00       __unwindfunclet$?Create@?$VariableSizeChunkImpl@VBattleServerSession@@@internal@util@@CAXPAX@Z$0 00446e00 f   ServerSessionManager.obj
 0001:00045e00       __unwindfunclet$?Create@?$VariableSizeChunkImpl@VFieldServerSession@@@internal@util@@CAXPAX@Z$0 00446e00 f   ServerSessionManager.obj
 0001:00045e00       __unwindfunclet$?Create@?$VariableSizeChunkImpl@VAgentServerSession@@@internal@util@@CAXPAX@Z$0 00446e00 f   ServerSessionManager.obj
 0001:00045e00       __unwindfunclet$?Create@?$VariableSizeChunkImpl@VGameDBProxySession@@@internal@util@@CAXPAX@Z$0 00446e00 f   ServerSessionManager.obj
 0001:00045e00       __unwindfunclet$?Create@?$VariableSizeChunkImpl@VOpServerSession@@@internal@util@@CAXPAX@Z$0 00446e00 f   ServerSessionManager.obj
 0001:00045e11       __ehhandler$?Create@?$VariableSizeChunkImpl@VGuildServerSession@@@internal@util@@CAXPAX@Z 00446e11 f   ServerSessionManager.obj
 0001:00045e11       __ehhandler$?Create@?$VariableSizeChunkImpl@VAccountDBProxySession@@@internal@util@@CAXPAX@Z 00446e11 f   ServerSessionManager.obj
 0001:00045e11       __ehhandler$?Create@?$VariableSizeChunkImpl@VWorldServerSession@@@internal@util@@CAXPAX@Z 00446e11 f   ServerSessionManager.obj
 0001:00045e11       __ehhandler$?Create@?$VariableSizeChunkImpl@VGameDBProxySession@@@internal@util@@CAXPAX@Z 00446e11 f   ServerSessionManager.obj
 0001:00045e11       __ehhandler$?Create@?$VariableSizeChunkImpl@VBattleServerSession@@@internal@util@@CAXPAX@Z 00446e11 f   ServerSessionManager.obj
 0001:00045e11       __ehhandler$?Create@?$VariableSizeChunkImpl@VFieldServerSession@@@internal@util@@CAXPAX@Z 00446e11 f   ServerSessionManager.obj
 0001:00045e11       __ehhandler$?Create@?$VariableSizeChunkImpl@VAgentServerSession@@@internal@util@@CAXPAX@Z 00446e11 f   ServerSessionManager.obj
 0001:00045e11       __ehhandler$?Create@?$VariableSizeChunkImpl@VOpServerSession@@@internal@util@@CAXPAX@Z 00446e11 f   ServerSessionManager.obj
 0001:00045e30       __unwindfunclet$??1?$VariableSizeChunkImpl@VSolarAuthServerSession@@@internal@util@@UAE@XZ$0 00446e30 f   ServerSessionManager.obj
 0001:00045e30       __unwindfunclet$??1?$VariableSizeChunkImpl@VFieldServerSession@@@internal@util@@UAE@XZ$0 00446e30 f   ServerSessionManager.obj
 0001:00045e30       __unwindfunclet$??1?$VariableSizeChunkImpl@VWorldServerSession@@@internal@util@@UAE@XZ$0 00446e30 f   ServerSessionManager.obj
 0001:00045e30       __unwindfunclet$??1?$VariableSizeChunkImpl@VTempServerSessionEx@@@internal@util@@UAE@XZ$0 00446e30 f   ServerSessionManager.obj
 0001:00045e30       __unwindfunclet$??1?$VariableSizeChunkImpl@VOpServerSession@@@internal@util@@UAE@XZ$0 00446e30 f   ServerSessionManager.obj
 0001:00045e30       __unwindfunclet$??1?$VariableSizeChunkImpl@VBattleServerSession@@@internal@util@@UAE@XZ$0 00446e30 f   ServerSessionManager.obj
 0001:00045e30       __unwindfunclet$??1?$VariableSizeChunkImpl@VGuildServerSession@@@internal@util@@UAE@XZ$0 00446e30 f   ServerSessionManager.obj
 0001:00045e30       __unwindfunclet$??1?$VariableSizeChunkImpl@VAbuseUser@@@internal@util@@UAE@XZ$0 00446e30 f   ServerSessionManager.obj
 0001:00045e30       __unwindfunclet$??1?$VariableSizeChunkImpl@VAccountDBProxySession@@@internal@util@@UAE@XZ$0 00446e30 f   ServerSessionManager.obj
 0001:00045e30       __unwindfunclet$??1?$VariableSizeChunkImpl@VAgentServerSession@@@internal@util@@UAE@XZ$0 00446e30 f   ServerSessionManager.obj
 0001:00045e30       __unwindfunclet$??1?$VariableSizeChunkImpl@VGameDBProxySession@@@internal@util@@UAE@XZ$0 00446e30 f   ServerSessionManager.obj
 0001:00045e38       __unwindfunclet$??1?$VariableSizeChunkImpl@VAccountDBProxySession@@@internal@util@@UAE@XZ$1 00446e38 f   ServerSessionManager.obj
 0001:00045e38       __unwindfunclet$??1?$VariableSizeChunkImpl@VFieldServerSession@@@internal@util@@UAE@XZ$1 00446e38 f   ServerSessionManager.obj
 0001:00045e38       __unwindfunclet$??1?$VariableSizeChunkImpl@VAbuseUser@@@internal@util@@UAE@XZ$1 00446e38 f   ServerSessionManager.obj
 0001:00045e38       __unwindfunclet$??1?$VariableSizeChunkImpl@VGuildServerSession@@@internal@util@@UAE@XZ$1 00446e38 f   ServerSessionManager.obj
 0001:00045e38       __unwindfunclet$??1?$VariableSizeChunkImpl@VBattleServerSession@@@internal@util@@UAE@XZ$1 00446e38 f   ServerSessionManager.obj
 0001:00045e38       __unwindfunclet$??1?$VariableSizeChunkImpl@VOpServerSession@@@internal@util@@UAE@XZ$1 00446e38 f   ServerSessionManager.obj
 0001:00045e38       __unwindfunclet$??1?$VariableSizeChunkImpl@VWorldServerSession@@@internal@util@@UAE@XZ$1 00446e38 f   ServerSessionManager.obj
 0001:00045e38       __unwindfunclet$??1?$VariableSizeChunkImpl@VSolarAuthServerSession@@@internal@util@@UAE@XZ$1 00446e38 f   ServerSessionManager.obj
 0001:00045e38       __unwindfunclet$??1?$VariableSizeChunkImpl@VTempServerSessionEx@@@internal@util@@UAE@XZ$1 00446e38 f   ServerSessionManager.obj
 0001:00045e38       __unwindfunclet$??1?$VariableSizeChunkImpl@VAgentServerSession@@@internal@util@@UAE@XZ$1 00446e38 f   ServerSessionManager.obj
 0001:00045e38       __unwindfunclet$??1?$VariableSizeChunkImpl@VGameDBProxySession@@@internal@util@@UAE@XZ$1 00446e38 f   ServerSessionManager.obj
 0001:00045e43       __ehhandler$??1?$VariableSizeChunkImpl@VBattleServerSession@@@internal@util@@UAE@XZ 00446e43 f   ServerSessionManager.obj
 0001:00045e43       __ehhandler$??1?$VariableSizeChunkImpl@VGameDBProxySession@@@internal@util@@UAE@XZ 00446e43 f   ServerSessionManager.obj
 0001:00045e43       __ehhandler$??1?$VariableSizeChunkImpl@VWorldServerSession@@@internal@util@@UAE@XZ 00446e43 f   ServerSessionManager.obj
 0001:00045e43       __ehhandler$??1?$VariableSizeChunkImpl@VFieldServerSession@@@internal@util@@UAE@XZ 00446e43 f   ServerSessionManager.obj
 0001:00045e43       __ehhandler$??1?$VariableSizeChunkImpl@VOpServerSession@@@internal@util@@UAE@XZ 00446e43 f   ServerSessionManager.obj
 0001:00045e43       __ehhandler$??1?$VariableSizeChunkImpl@VAgentServerSession@@@internal@util@@UAE@XZ 00446e43 f   ServerSessionManager.obj
 0001:00045e43       __ehhandler$??1?$VariableSizeChunkImpl@VGuildServerSession@@@internal@util@@UAE@XZ 00446e43 f   ServerSessionManager.obj
 0001:00045e43       __ehhandler$??1?$VariableSizeChunkImpl@VAccountDBProxySession@@@internal@util@@UAE@XZ 00446e43 f   ServerSessionManager.obj
 0001:00045e43       __ehhandler$??1?$VariableSizeChunkImpl@VTempServerSessionEx@@@internal@util@@UAE@XZ 00446e43 f   ServerSessionManager.obj
 0001:00045e43       __ehhandler$??1?$VariableSizeChunkImpl@VAbuseUser@@@internal@util@@UAE@XZ 00446e43 f   ServerSessionManager.obj
 0001:00045e43       __ehhandler$??1?$VariableSizeChunkImpl@VSolarAuthServerSession@@@internal@util@@UAE@XZ 00446e43 f   ServerSessionManager.obj
 0001:00045e60       __unwindfunclet$?OnRecv@SolarAuthServerSession@@MAEXPAEG@Z$0 00446e60 f   SolarAuthServerSession.obj
 0001:00045e68       __ehhandler$?OnRecv@SolarAuthServerSession@@MAEXPAEG@Z 00446e68 f   SolarAuthServerSession.obj
 0001:00045e83       __unwindfunclet$?OnRecv@SolarAuthServerSessionCrypted@@MAEXPAEG@Z$0 00446e83 f   SolarAuthServerSession.obj
 0001:00045e8b       __ehhandler$?OnRecv@SolarAuthServerSessionCrypted@@MAEXPAEG@Z 00446e8b f   SolarAuthServerSession.obj
 0001:00045ea6       __unwindfunclet$??0SolarAuthServerSession@@QAE@XZ$0 00446ea6 f   SolarAuthServerSession.obj
 0001:00045eae       __ehhandler$??0SolarAuthServerSession@@QAE@XZ 00446eae f   SolarAuthServerSession.obj
 0001:00045ed0       __unwindfunclet$??$RegisterObject@VSolarAuthServerSessionCrypted@@@sOBJECT_CHANGER@@QAEHK@Z$0 00446ed0 f   SolarAuthServerSession.obj
 0001:00045ed0       __unwindfunclet$??$RegisterObject@VSolarAuthServerSession@@@sOBJECT_CHANGER@@QAEHK@Z$0 00446ed0 f   SolarAuthServerSession.obj
 0001:00045ee7       __ehhandler$??$RegisterObject@VSolarAuthServerSession@@@sOBJECT_CHANGER@@QAEHK@Z 00446ee7 f   SolarAuthServerSession.obj
 0001:00045ee7       __ehhandler$??$RegisterObject@VSolarAuthServerSessionCrypted@@@sOBJECT_CHANGER@@QAEHK@Z 00446ee7 f   SolarAuthServerSession.obj
 0001:00045f20       __unwindfunclet$?OnRecv@TempServerSessionEx@@MAEXPAEG@Z$0 00446f20 f   TempServerSessionEx.obj
 0001:00045f28       __ehhandler$?OnRecv@TempServerSessionEx@@MAEXPAEG@Z 00446f28 f   TempServerSessionEx.obj
 0001:00045f50       __unwindfunclet$??0?$vector@U_List_position@?$_Hash@V?$_Hmap_traits@KPAVServerSession@@V?$hash_compare@KU?$less@K@std@@@stdext@@V?$CustomAllocator@PAVServerSession@@@util@@$0A@@stdext@@@stdext@@V?$CustomAllocator@U_List_position@?$_Hash@V?$_Hmap_traits@KPAVServerSession@@V?$hash_compare@KU?$less@K@std@@@stdext@@V?$CustomAllocator@PAVServerSession@@@util@@$0A@@stdext@@@stdext@@@util@@@std@@QAE@ABV?$CustomAllocator@U_List_position@?$_Hash@V?$_Hmap_traits@KPAVServerSession@@V?$hash_compare@KU?$less@K@std@@@stdext@@V?$CustomAllocator@PAVServerSession@@@util@@$0A@@stdext@@@stdext@@@util@@@Z$0 00446f50 f   MasterScriptParserManager.obj
 0001:00045f50       __unwindfunclet$??0?$vector@U_List_position@?$_Hash@V?$_Hmap_traits@W4eSCRIPT_CODE@@PAUsSCRIPT_DATA_INFO_NODE_INTERNAL@@V?$hash_compare@W4eSCRIPT_CODE@@U?$less@W4eSCRIPT_CODE@@@std@@@stdext@@V?$CustomAllocator@PAUsSCRIPT_DATA_INFO_NODE_INTERNAL@@@util@@$0A@@stdext@@@stdext@@V?$CustomAllocator@U_List_position@?$_Hash@V?$_Hmap_traits@W4eSCRIPT_CODE@@PAUsSCRIPT_DATA_INFO_NODE_INTERNAL@@V?$hash_compare@W4eSCRIPT_CODE@@U?$less@W4eSCRIPT_CODE@@@std@@@stdext@@V?$CustomAllocator@PAUsSCRIPT_DATA_INFO_NODE_INTERNAL@@@util@@$0A@@stdext@@@stdext@@@util@@@std@@QAE@ABV?$CustomAllocator@U_List_position@?$_Hash@V?$_Hmap_traits@W4eSCRIPT_CODE@@PAUsSCRIPT_DATA_INFO_NODE_INTERNAL@@V?$hash_compare@W4eSCRIPT_CODE@@U?$less@W4eSCRIPT_CODE@@@std@@@stdext@@V?$CustomAllocator@PAUsSCRIPT_DATA_INFO_NODE_INTERNAL@@@util@@$0A@@stdext@@@stdext@@@util@@@Z$0 00446f50 f   MasterScriptParserManager.obj
 0001:00045f50       __unwindfunclet$??0?$list@U?$pair@$$CBKPAVServerSession@@@std@@V?$CustomAllocator@U?$pair@$$CBKPAVServerSession@@@std@@@util@@@std@@QAE@ABV?$CustomAllocator@U?$pair@$$CBKPAVServerSession@@@std@@@util@@@Z$0 00446f50 f   MasterScriptParserManager.obj
 0001:00045f50       __unwindfunclet$??0?$vector@U?$pair@W4eSCRIPT_CODE@@PAUsSCRIPT_DATA_INFO_NODE_INTERNAL@@@std@@V?$CustomAllocator@U?$pair@W4eSCRIPT_CODE@@PAUsSCRIPT_DATA_INFO_NODE_INTERNAL@@@std@@@util@@@std@@QAE@ABV?$CustomAllocator@U?$pair@W4eSCRIPT_CODE@@PAUsSCRIPT_DATA_INFO_NODE_INTERNAL@@@std@@@util@@@Z$0 00446f50 f   MasterScriptParserManager.obj
 0001:00045f50       __unwindfunclet$??0?$list@U?$pair@$$CBKV?$chunk_set@KU?$less@K@std@@@util@@@std@@V?$CustomAllocator@U?$pair@$$CBKV?$chunk_set@KU?$less@K@std@@@util@@@std@@@util@@@std@@QAE@ABV?$CustomAllocator@U?$pair@$$CBKV?$chunk_set@KU?$less@K@std@@@util@@@std@@@util@@@Z$0 00446f50 f   MasterScriptParserManager.obj
 0001:00045f50       __unwindfunclet$??0?$list@U?$pair@$$CBKPAVAbuseUser@@@std@@V?$CustomAllocator@U?$pair@$$CBKPAVAbuseUser@@@std@@@util@@@std@@QAE@ABV?$CustomAllocator@U?$pair@$$CBKPAVAbuseUser@@@std@@@util@@@Z$0 00446f50 f   MasterScriptParserManager.obj
 0001:00045f50       __unwindfunclet$??0?$_Tree@V?$_Tset_traits@KU?$less@K@std@@V?$CustomAllocator@K@util@@$0A@@std@@@std@@QAE@ABU?$less@K@1@ABV?$CustomAllocator@K@util@@@Z$0 00446f50 f   MasterScriptParserManager.obj
 0001:00045f50       __unwindfunclet$??0?$list@PAUSCRIPT_DATA@@V?$CustomAllocator@PAUSCRIPT_DATA@@@util@@@std@@QAE@ABV?$CustomAllocator@PAUSCRIPT_DATA@@@util@@@Z$0 00446f50 f   MasterScriptParserManager.obj
 0001:00045f50       __unwindfunclet$??0?$vector@U_List_position@?$_Hash@V?$_Hmap_traits@KPAVAbuseUser@@V?$hash_compare@KU?$less@K@std@@@stdext@@V?$CustomAllocator@PAVAbuseUser@@@util@@$0A@@stdext@@@stdext@@V?$CustomAllocator@U_List_position@?$_Hash@V?$_Hmap_traits@KPAVAbuseUser@@V?$hash_compare@KU?$less@K@std@@@stdext@@V?$CustomAllocator@PAVAbuseUser@@@util@@$0A@@stdext@@@stdext@@@util@@@std@@QAE@ABV?$CustomAllocator@U_List_position@?$_Hash@V?$_Hmap_traits@KPAVAbuseUser@@V?$hash_compare@KU?$less@K@std@@@stdext@@V?$CustomAllocator@PAVAbuseUser@@@util@@$0A@@stdext@@@stdext@@@util@@@Z$0 00446f50 f   MasterScriptParserManager.obj
 0001:00045f50       __unwindfunclet$??0?$vector@U_List_position@?$_Hash@V?$_Hmap_traits@KV?$chunk_set@KU?$less@K@std@@@util@@V?$hash_compare@KU?$less@K@std@@@stdext@@V?$CustomAllocator@V?$chunk_set@KU?$less@K@std@@@util@@@2@$0A@@stdext@@@stdext@@V?$CustomAllocator@U_List_position@?$_Hash@V?$_Hmap_traits@KV?$chunk_set@KU?$less@K@std@@@util@@V?$hash_compare@KU?$less@K@std@@@stdext@@V?$CustomAllocator@V?$chunk_set@KU?$less@K@std@@@util@@@2@$0A@@stdext@@@stdext@@@util@@@std@@QAE@ABV?$CustomAllocator@U_List_position@?$_Hash@V?$_Hmap_traits@KV?$chunk_set@KU?$less@K@std@@@util@@V?$hash_compare@KU?$less@K@std@@@stdext@@V?$CustomAllocator@V?$chunk_set@KU?$less@K@std@@@util@@@2@$0A@@stdext@@@stdext@@@util@@@Z$0 00446f50 f   MasterScriptParserManager.obj
 0001:00045f50       __unwindfunclet$??0?$list@U?$pair@$$CBW4eSCRIPT_CODE@@PAUsSCRIPT_DATA_INFO_NODE_INTERNAL@@@std@@V?$CustomAllocator@U?$pair@$$CBW4eSCRIPT_CODE@@PAUsSCRIPT_DATA_INFO_NODE_INTERNAL@@@std@@@util@@@std@@QAE@ABV?$CustomAllocator@U?$pair@$$CBW4eSCRIPT_CODE@@PAUsSCRIPT_DATA_INFO_NODE_INTERNAL@@@std@@@util@@@Z$0 00446f50 f   MasterScriptParserManager.obj
 0001:00045f50       __unwindfunclet$??0?$_Tree@V?$_Tmap_traits@KU?$pair@KK@std@@U?$less@K@2@V?$CustomAllocator@U?$pair@KK@std@@@util@@$0A@@std@@@std@@QAE@ABU?$less@K@1@ABV?$CustomAllocator@U?$pair@$$CBKU?$pair@KK@std@@@std@@@util@@@Z$0 00446f50 f   MasterScriptParserManager.obj
 0001:00045f50       __unwindfunclet$??0?$list@W4eSCRIPT_CODE@@V?$CustomAllocator@W4eSCRIPT_CODE@@@util@@@std@@QAE@ABV?$CustomAllocator@W4eSCRIPT_CODE@@@util@@@Z$0 00446f50 f   MasterScriptParserManager.obj
 0001:00045f50       __unwindfunclet$??0?$_Tree@V?$_Tmap_traits@W4eSCRIPT_CODE@@V?$basic_string@DU?$char_traits@D@std@@V?$allocator@D@2@@std@@U?$less@W4eSCRIPT_CODE@@@3@V?$CustomAllocator@V?$basic_string@DU?$char_traits@D@std@@V?$allocator@D@2@@std@@@util@@$0A@@std@@@std@@QAE@ABU?$less@W4eSCRIPT_CODE@@@1@ABV?$CustomAllocator@U?$pair@$$CBW4eSCRIPT_CODE@@V?$basic_string@DU?$char_traits@D@std@@V?$allocator@D@2@@std@@@std@@@util@@@Z$0 00446f50 f   MasterScriptParserManager.obj
 0001:00045f50       __unwindfunclet$??1?$list@U?$pair@$$CBKV?$chunk_set@KU?$less@K@std@@@util@@@std@@V?$CustomAllocator@U?$pair@$$CBKV?$chunk_set@KU?$less@K@std@@@util@@@std@@@util@@@std@@QAE@XZ$0 00446f50 f   MasterScriptParserManager.obj
 0001:00045f50       __unwindfunclet$??0?$_Tree@V?$_Tmap_traits@EPAUABUSING_OPTION_INFO@@U?$less@E@std@@V?$CustomAllocator@PAUABUSING_OPTION_INFO@@@util@@$0A@@std@@@std@@QAE@ABU?$less@E@1@ABV?$CustomAllocator@U?$pair@$$CBEPAUABUSING_OPTION_INFO@@@std@@@util@@@Z$0 00446f50 f   MasterScriptParserManager.obj
 0001:00045f50       __unwindfunclet$??0?$_Tree@V?$_Tmap_traits@KU?$pair@V?$Delegator@VIWorkNode@@@@H@std@@U?$less@K@2@V?$CustomAllocator@U?$pair@V?$Delegator@VIWorkNode@@@@H@std@@@util@@$0A@@std@@@std@@QAE@ABU?$less@K@1@ABV?$CustomAllocator@U?$pair@$$CBKU?$pair@V?$Delegator@VIWorkNode@@@@H@std@@@std@@@util@@@Z$0 00446f50 f   MasterScriptParserManager.obj
 0001:00045f50       __unwindfunclet$??0?$list@KV?$CustomAllocator@K@util@@@std@@QAE@ABV?$CustomAllocator@K@util@@@Z$0 00446f50 f   MasterScriptParserManager.obj
 0001:00045f50       __unwindfunclet$??0?$_Tree@V?$_Tmap_traits@W4eSCRIPT_CODE@@UsCOMPRESS_INFO@ICompressConverter@@U?$less@W4eSCRIPT_CODE@@@std@@V?$CustomAllocator@UsCOMPRESS_INFO@ICompressConverter@@@util@@$0A@@std@@@std@@QAE@ABU?$less@W4eSCRIPT_CODE@@@1@ABV?$CustomAllocator@U?$pair@$$CBW4eSCRIPT_CODE@@UsCOMPRESS_INFO@ICompressConverter@@@std@@@util@@@Z$0 00446f50 f   MasterScriptParserManager.obj
 0001:00045f58       __ehhandler$??0?$vector@U_List_position@?$_Hash@V?$_Hmap_traits@KPAVServerSession@@V?$hash_compare@KU?$less@K@std@@@stdext@@V?$CustomAllocator@PAVServerSession@@@util@@$0A@@stdext@@@stdext@@V?$CustomAllocator@U_List_position@?$_Hash@V?$_Hmap_traits@KPAVServerSession@@V?$hash_compare@KU?$less@K@std@@@stdext@@V?$CustomAllocator@PAVServerSession@@@util@@$0A@@stdext@@@stdext@@@util@@@std@@QAE@ABV?$CustomAllocator@U_List_position@?$_Hash@V?$_Hmap_traits@KPAVServerSession@@V?$hash_compare@KU?$less@K@std@@@stdext@@V?$CustomAllocator@PAVServerSession@@@util@@$0A@@stdext@@@stdext@@@util@@@Z 00446f58 f   MasterScriptParserManager.obj
 0001:00045f58       __ehhandler$??0?$list@KV?$CustomAllocator@K@util@@@std@@QAE@ABV?$CustomAllocator@K@util@@@Z 00446f58 f   MasterScriptParserManager.obj
 0001:00045f58       __ehhandler$??0?$list@PAUSCRIPT_DATA@@V?$CustomAllocator@PAUSCRIPT_DATA@@@util@@@std@@QAE@ABV?$CustomAllocator@PAUSCRIPT_DATA@@@util@@@Z 00446f58 f   MasterScriptParserManager.obj
 0001:00045f58       __ehhandler$??0?$_Tree@V?$_Tmap_traits@KU?$pair@V?$Delegator@VIWorkNode@@@@H@std@@U?$less@K@2@V?$CustomAllocator@U?$pair@V?$Delegator@VIWorkNode@@@@H@std@@@util@@$0A@@std@@@std@@QAE@ABU?$less@K@1@ABV?$CustomAllocator@U?$pair@$$CBKU?$pair@V?$Delegator@VIWorkNode@@@@H@std@@@std@@@util@@@Z 00446f58 f   MasterScriptParserManager.obj
 0001:00045f58       __ehhandler$??0?$list@U?$pair@$$CBKPAVServerSession@@@std@@V?$CustomAllocator@U?$pair@$$CBKPAVServerSession@@@std@@@util@@@std@@QAE@ABV?$CustomAllocator@U?$pair@$$CBKPAVServerSession@@@std@@@util@@@Z 00446f58 f   MasterScriptParserManager.obj
 0001:00045f58       __ehhandler$??0?$vector@U_List_position@?$_Hash@V?$_Hmap_traits@W4eSCRIPT_CODE@@PAUsSCRIPT_DATA_INFO_NODE_INTERNAL@@V?$hash_compare@W4eSCRIPT_CODE@@U?$less@W4eSCRIPT_CODE@@@std@@@stdext@@V?$CustomAllocator@PAUsSCRIPT_DATA_INFO_NODE_INTERNAL@@@util@@$0A@@stdext@@@stdext@@V?$CustomAllocator@U_List_position@?$_Hash@V?$_Hmap_traits@W4eSCRIPT_CODE@@PAUsSCRIPT_DATA_INFO_NODE_INTERNAL@@V?$hash_compare@W4eSCRIPT_CODE@@U?$less@W4eSCRIPT_CODE@@@std@@@stdext@@V?$CustomAllocator@PAUsSCRIPT_DATA_INFO_NODE_INTERNAL@@@util@@$0A@@stdext@@@stdext@@@util@@@std@@QAE@ABV?$CustomAllocator@U_List_position@?$_Hash@V?$_Hmap_traits@W4eSCRIPT_CODE@@PAUsSCRIPT_DATA_INFO_NODE_INTERNAL@@V?$hash_compare@W4eSCRIPT_CODE@@U?$less@W4eSCRIPT_CODE@@@std@@@stdext@@V?$CustomAllocator@PAUsSCRIPT_DATA_INFO_NODE_INTERNAL@@@util@@$0A@@stdext@@@stdext@@@util@@@Z 00446f58 f   MasterScriptParserManager.obj
 0001:00045f58       __ehhandler$??0?$_Tree@V?$_Tmap_traits@W4eSCRIPT_CODE@@UsCOMPRESS_INFO@ICompressConverter@@U?$less@W4eSCRIPT_CODE@@@std@@V?$CustomAllocator@UsCOMPRESS_INFO@ICompressConverter@@@util@@$0A@@std@@@std@@QAE@ABU?$less@W4eSCRIPT_CODE@@@1@ABV?$CustomAllocator@U?$pair@$$CBW4eSCRIPT_CODE@@UsCOMPRESS_INFO@ICompressConverter@@@std@@@util@@@Z 00446f58 f   MasterScriptParserManager.obj
 0001:00045f58       __ehhandler$??0?$list@U?$pair@$$CBKPAVAbuseUser@@@std@@V?$CustomAllocator@U?$pair@$$CBKPAVAbuseUser@@@std@@@util@@@std@@QAE@ABV?$CustomAllocator@U?$pair@$$CBKPAVAbuseUser@@@std@@@util@@@Z 00446f58 f   MasterScriptParserManager.obj
 0001:00045f58       __ehhandler$??0?$list@U?$pair@$$CBKV?$chunk_set@KU?$less@K@std@@@util@@@std@@V?$CustomAllocator@U?$pair@$$CBKV?$chunk_set@KU?$less@K@std@@@util@@@std@@@util@@@std@@QAE@ABV?$CustomAllocator@U?$pair@$$CBKV?$chunk_set@KU?$less@K@std@@@util@@@std@@@util@@@Z 00446f58 f   MasterScriptParserManager.obj
 0001:00045f58       __ehhandler$??0?$_Tree@V?$_Tmap_traits@W4eSCRIPT_CODE@@V?$basic_string@DU?$char_traits@D@std@@V?$allocator@D@2@@std@@U?$less@W4eSCRIPT_CODE@@@3@V?$CustomAllocator@V?$basic_string@DU?$char_traits@D@std@@V?$allocator@D@2@@std@@@util@@$0A@@std@@@std@@QAE@ABU?$less@W4eSCRIPT_CODE@@@1@ABV?$CustomAllocator@U?$pair@$$CBW4eSCRIPT_CODE@@V?$basic_string@DU?$char_traits@D@std@@V?$allocator@D@2@@std@@@std@@@util@@@Z 00446f58 f   MasterScriptParserManager.obj
 0001:00045f58       __ehhandler$??0?$vector@U?$pair@W4eSCRIPT_CODE@@PAUsSCRIPT_DATA_INFO_NODE_INTERNAL@@@std@@V?$CustomAllocator@U?$pair@W4eSCRIPT_CODE@@PAUsSCRIPT_DATA_INFO_NODE_INTERNAL@@@std@@@util@@@std@@QAE@ABV?$CustomAllocator@U?$pair@W4eSCRIPT_CODE@@PAUsSCRIPT_DATA_INFO_NODE_INTERNAL@@@std@@@util@@@Z 00446f58 f   MasterScriptParserManager.obj
 0001:00045f58       __ehhandler$??0?$list@U?$pair@$$CBW4eSCRIPT_CODE@@PAUsSCRIPT_DATA_INFO_NODE_INTERNAL@@@std@@V?$CustomAllocator@U?$pair@$$CBW4eSCRIPT_CODE@@PAUsSCRIPT_DATA_INFO_NODE_INTERNAL@@@std@@@util@@@std@@QAE@ABV?$CustomAllocator@U?$pair@$$CBW4eSCRIPT_CODE@@PAUsSCRIPT_DATA_INFO_NODE_INTERNAL@@@std@@@util@@@Z 00446f58 f   MasterScriptParserManager.obj
 0001:00045f58       __ehhandler$??0?$_Tree@V?$_Tset_traits@KU?$less@K@std@@V?$CustomAllocator@K@util@@$0A@@std@@@std@@QAE@ABU?$less@K@1@ABV?$CustomAllocator@K@util@@@Z 00446f58 f   MasterScriptParserManager.obj
 0001:00045f58       __ehhandler$??0?$vector@U_List_position@?$_Hash@V?$_Hmap_traits@KPAVAbuseUser@@V?$hash_compare@KU?$less@K@std@@@stdext@@V?$CustomAllocator@PAVAbuseUser@@@util@@$0A@@stdext@@@stdext@@V?$CustomAllocator@U_List_position@?$_Hash@V?$_Hmap_traits@KPAVAbuseUser@@V?$hash_compare@KU?$less@K@std@@@stdext@@V?$CustomAllocator@PAVAbuseUser@@@util@@$0A@@stdext@@@stdext@@@util@@@std@@QAE@ABV?$CustomAllocator@U_List_position@?$_Hash@V?$_Hmap_traits@KPAVAbuseUser@@V?$hash_compare@KU?$less@K@std@@@stdext@@V?$CustomAllocator@PAVAbuseUser@@@util@@$0A@@stdext@@@stdext@@@util@@@Z 00446f58 f   MasterScriptParserManager.obj
 0001:00045f58       __ehhandler$??0?$list@W4eSCRIPT_CODE@@V?$CustomAllocator@W4eSCRIPT_CODE@@@util@@@std@@QAE@ABV?$CustomAllocator@W4eSCRIPT_CODE@@@util@@@Z 00446f58 f   MasterScriptParserManager.obj
 0001:00045f58       __ehhandler$??0?$_Tree@V?$_Tmap_traits@EPAUABUSING_OPTION_INFO@@U?$less@E@std@@V?$CustomAllocator@PAUABUSING_OPTION_INFO@@@util@@$0A@@std@@@std@@QAE@ABU?$less@E@1@ABV?$CustomAllocator@U?$pair@$$CBEPAUABUSING_OPTION_INFO@@@std@@@util@@@Z 00446f58 f   MasterScriptParserManager.obj
 0001:00045f58       __ehhandler$??1?$list@U?$pair@$$CBKV?$chunk_set@KU?$less@K@std@@@util@@@std@@V?$CustomAllocator@U?$pair@$$CBKV?$chunk_set@KU?$less@K@std@@@util@@@std@@@util@@@std@@QAE@XZ 00446f58 f   MasterScriptParserManager.obj
 0001:00045f58       __ehhandler$??0?$vector@U_List_position@?$_Hash@V?$_Hmap_traits@KV?$chunk_set@KU?$less@K@std@@@util@@V?$hash_compare@KU?$less@K@std@@@stdext@@V?$CustomAllocator@V?$chunk_set@KU?$less@K@std@@@util@@@2@$0A@@stdext@@@stdext@@V?$CustomAllocator@U_List_position@?$_Hash@V?$_Hmap_traits@KV?$chunk_set@KU?$less@K@std@@@util@@V?$hash_compare@KU?$less@K@std@@@stdext@@V?$CustomAllocator@V?$chunk_set@KU?$less@K@std@@@util@@@2@$0A@@stdext@@@stdext@@@util@@@std@@QAE@ABV?$CustomAllocator@U_List_position@?$_Hash@V?$_Hmap_traits@KV?$chunk_set@KU?$less@K@std@@@util@@V?$hash_compare@KU?$less@K@std@@@stdext@@V?$CustomAllocator@V?$chunk_set@KU?$less@K@std@@@util@@@2@$0A@@stdext@@@stdext@@@util@@@Z 00446f58 f   MasterScriptParserManager.obj
 0001:00045f58       __ehhandler$??0?$_Tree@V?$_Tmap_traits@KU?$pair@KK@std@@U?$less@K@2@V?$CustomAllocator@U?$pair@KK@std@@@util@@$0A@@std@@@std@@QAE@ABU?$less@K@1@ABV?$CustomAllocator@U?$pair@$$CBKU?$pair@KK@std@@@std@@@util@@@Z 00446f58 f   MasterScriptParserManager.obj
 0001:00045f80       __unwindfunclet$??0ICompressConverter@@QAE@XZ$0 00446f80 f   MasterScriptParserManager.obj
 0001:00045f88       __ehhandler$??0ICompressConverter@@QAE@XZ 00446f88 f   MasterScriptParserManager.obj
 0001:00045fb0       __unwindfunclet$??1ICompressConverter@@UAE@XZ$0 00446fb0 f   MasterScriptParserManager.obj
 0001:00045fb8       __ehhandler$??1ICompressConverter@@UAE@XZ 00446fb8 f   MasterScriptParserManager.obj
 0001:00045fe0       __unwindfunclet$??0MasterScriptParserManager@@QAE@XZ$0 00446fe0 f   MasterScriptParserManager.obj
 0001:00045fe8       __ehhandler$??0MasterScriptParserManager@@QAE@XZ 00446fe8 f   MasterScriptParserManager.obj
 0001:00046003       __unwindfunclet$??1MasterScriptParserManager@@UAE@XZ$0 00447003 f   MasterScriptParserManager.obj
 0001:0004600b       __ehhandler$??1MasterScriptParserManager@@UAE@XZ 0044700b f   MasterScriptParserManager.obj
 0001:00046030       __unwindfunclet$??1AbusingOptionParser@@UAE@XZ$0 00447030 f   servercommon:AbusingOptionParser.obj
 0001:00046038       __ehhandler$??1AbusingOptionParser@@UAE@XZ 00447038 f   servercommon:AbusingOptionParser.obj
 0001:00046053       __unwindfunclet$??0AbusingOptionParser@@QAE@XZ$0 00447053 f   servercommon:AbusingOptionParser.obj
 0001:0004605b       __ehhandler$??0AbusingOptionParser@@QAE@XZ 0044705b f   servercommon:AbusingOptionParser.obj
 0001:00046080       __unwindfunclet$??1ServerFrame@@UAE@XZ$0 00447080 f   servercommon:ServerFrame.obj
 0001:0004608e       __unwindfunclet$??1ServerFrame@@UAE@XZ$1 0044708e f   servercommon:ServerFrame.obj
 0001:0004609c       __ehhandler$??1ServerFrame@@UAE@XZ 0044709c f   servercommon:ServerFrame.obj
 0001:000460b7       __unwindfunclet$??0ServerFrame@@QAE@XZ$0 004470b7 f   servercommon:ServerFrame.obj
 0001:000460c5       __unwindfunclet$??0ServerFrame@@QAE@XZ$1 004470c5 f   servercommon:ServerFrame.obj
 0001:000460d3       __unwindfunclet$??0ServerFrame@@QAE@XZ$2 004470d3 f   servercommon:ServerFrame.obj
 0001:000460e1       __ehhandler$??0ServerFrame@@QAE@XZ 004470e1 f   servercommon:ServerFrame.obj
 0001:000460fc       __unwindfunclet$?DoInit@ServerFrame@@QAEHPBDP6APAVNetworkObject@@XZP6AXPAV2@@Z3133@Z$0 004470fc f   servercommon:ServerFrame.obj
 0001:00046107       __ehhandler$?DoInit@ServerFrame@@QAEHPBDP6APAVNetworkObject@@XZP6AXPAV2@@Z3133@Z 00447107 f   servercommon:ServerFrame.obj
 0001:00046130       __unwindfunclet$?_NodeRelease@WorkLoadManager@@AAEXU?$pair@KU?$pair@V?$Delegator@VIWorkNode@@@@H@std@@@std@@@Z$0 00447130 f   servercommon:WorkLoadManager.obj
 0001:00046138       __ehhandler$?_NodeRelease@WorkLoadManager@@AAEXU?$pair@KU?$pair@V?$Delegator@VIWorkNode@@@@H@std@@@std@@@Z 00447138 f   servercommon:WorkLoadManager.obj
 0001:00046152       __unwindfunclet$?ReleaseTask@WorkLoadManager@@SAXKH@Z$0 00447152 f   servercommon:WorkLoadManager.obj
 0001:0004615a       __ehhandler$?ReleaseTask@WorkLoadManager@@SAXKH@Z 0044715a f   servercommon:WorkLoadManager.obj
 0001:00046175       __unwindfunclet$?RegisterTask@WorkLoadManager@@SAKPAVIWorkNode@@HK@Z$0 00447175 f   servercommon:WorkLoadManager.obj
 0001:0004617d       __unwindfunclet$?RegisterTask@WorkLoadManager@@SAKPAVIWorkNode@@HK@Z$1 0044717d f   servercommon:WorkLoadManager.obj
 0001:00046185       __unwindfunclet$?RegisterTask@WorkLoadManager@@SAKPAVIWorkNode@@HK@Z$2 00447185 f   servercommon:WorkLoadManager.obj
 0001:0004618d       __unwindfunclet$?RegisterTask@WorkLoadManager@@SAKPAVIWorkNode@@HK@Z$3 0044718d f   servercommon:WorkLoadManager.obj
 0001:00046195       __ehhandler$?RegisterTask@WorkLoadManager@@SAKPAVIWorkNode@@HK@Z 00447195 f   servercommon:WorkLoadManager.obj
 0001:000461b0       __unwindfunclet$??1WorkLoadManager@@AAE@XZ$0 004471b0 f   servercommon:WorkLoadManager.obj
 0001:000461bb       __unwindfunclet$??1WorkLoadManager@@AAE@XZ$1 004471bb f   servercommon:WorkLoadManager.obj
 0001:000461c6       __ehhandler$??1WorkLoadManager@@AAE@XZ 004471c6 f   servercommon:WorkLoadManager.obj
 0001:000461e1       __unwindfunclet$??0WorkLoadManager@@AAE@XZ$0 004471e1 f   servercommon:WorkLoadManager.obj
 0001:000461ec       __unwindfunclet$??0WorkLoadManager@@AAE@XZ$1 004471ec f   servercommon:WorkLoadManager.obj
 0001:000461f7       __ehhandler$??0WorkLoadManager@@AAE@XZ 004471f7 f   servercommon:WorkLoadManager.obj
 0001:00046212       __unwindfunclet$?CreateInstance@WorkLoadManager@@SAAAV?$Delegator@VWorkLoadManager@@@@XZ$0 00447212 f   servercommon:WorkLoadManager.obj
 0001:0004621d       __ehhandler$?CreateInstance@WorkLoadManager@@SAAAV?$Delegator@VWorkLoadManager@@@@XZ 0044721d f   servercommon:WorkLoadManager.obj
 0001:00046240       __unwindfunclet$??$for_each@Viterator@?$_Tree@V?$_Tmap_traits@KU?$pair@V?$Delegator@VIWorkNode@@@@H@std@@U?$less@K@2@V?$CustomAllocator@U?$pair@V?$Delegator@VIWorkNode@@@@H@std@@@util@@$0A@@std@@@std@@V?$binder1st@V?$mem_fun1_t@XVWorkLoadManager@@U?$pair@KU?$pair@V?$Delegator@VIWorkNode@@@@H@std@@@std@@@std@@@3@@std@@YA?AV?$binder1st@V?$mem_fun1_t@XVWorkLoadManager@@U?$pair@KU?$pair@V?$Delegator@VIWorkNode@@@@H@std@@@std@@@std@@@0@Viterator@?$_Tree@V?$_Tmap_traits@KU?$pair@V?$Delegator@VIWorkNode@@@@H@std@@U?$less@K@2@V?$CustomAllocator@U?$pair@V?$Delegator@VIWorkNode@@@@H@std@@@util@@$0A@@std@@@0@0V10@@Z$0 00447240 f   servercommon:WorkLoadManager.obj
 0001:00046248       __unwindfunclet$??$for_each@Viterator@?$_Tree@V?$_Tmap_traits@KU?$pair@V?$Delegator@VIWorkNode@@@@H@std@@U?$less@K@2@V?$CustomAllocator@U?$pair@V?$Delegator@VIWorkNode@@@@H@std@@@util@@$0A@@std@@@std@@V?$binder1st@V?$mem_fun1_t@XVWorkLoadManager@@U?$pair@KU?$pair@V?$Delegator@VIWorkNode@@@@H@std@@@std@@@std@@@3@@std@@YA?AV?$binder1st@V?$mem_fun1_t@XVWorkLoadManager@@U?$pair@KU?$pair@V?$Delegator@VIWorkNode@@@@H@std@@@std@@@std@@@0@Viterator@?$_Tree@V?$_Tmap_traits@KU?$pair@V?$Delegator@VIWorkNode@@@@H@std@@U?$less@K@2@V?$CustomAllocator@U?$pair@V?$Delegator@VIWorkNode@@@@H@std@@@util@@$0A@@std@@@0@0V10@@Z$1 00447248 f   servercommon:WorkLoadManager.obj
 0001:00046250       __ehhandler$??$for_each@Viterator@?$_Tree@V?$_Tmap_traits@KU?$pair@V?$Delegator@VIWorkNode@@@@H@std@@U?$less@K@2@V?$CustomAllocator@U?$pair@V?$Delegator@VIWorkNode@@@@H@std@@@util@@$0A@@std@@@std@@V?$binder1st@V?$mem_fun1_t@XVWorkLoadManager@@U?$pair@KU?$pair@V?$Delegator@VIWorkNode@@@@H@std@@@std@@@std@@@3@@std@@YA?AV?$binder1st@V?$mem_fun1_t@XVWorkLoadManager@@U?$pair@KU?$pair@V?$Delegator@VIWorkNode@@@@H@std@@@std@@@std@@@0@Viterator@?$_Tree@V?$_Tmap_traits@KU?$pair@V?$Delegator@VIWorkNode@@@@H@std@@U?$less@K@2@V?$CustomAllocator@U?$pair@V?$Delegator@VIWorkNode@@@@H@std@@@util@@$0A@@std@@@0@0V10@@Z 00447250 f   servercommon:WorkLoadManager.obj
 0001:00046270       __unwindfunclet$?Init@CSunLog@@UAEHEEPBD0H@Z$0 00447270 f   servercommon:SunLog.obj
 0001:0004627b       __ehhandler$?Init@CSunLog@@UAEHEEPBD0H@Z 0044727b f   servercommon:SunLog.obj
 0001:000462a0       __unwindfunclet$?_Incsize@?$list@U?$pair@$$CBKV?$chunk_set@KU?$less@K@std@@@util@@@std@@V?$CustomAllocator@U?$pair@$$CBKV?$chunk_set@KU?$less@K@std@@@util@@@std@@@util@@@std@@IAEXI@Z$0 004472a0 f   servercommon:ScriptDataManager.obj
 0001:000462a0       __unwindfunclet$?_Incsize@?$list@KV?$CustomAllocator@K@util@@@std@@IAEXI@Z$0 004472a0 f   servercommon:ScriptDataManager.obj
 0001:000462a0       __unwindfunclet$?_Incsize@?$list@U?$pair@$$CBKPAVAbuseUser@@@std@@V?$CustomAllocator@U?$pair@$$CBKPAVAbuseUser@@@std@@@util@@@std@@IAEXI@Z$0 004472a0 f   servercommon:ScriptDataManager.obj
 0001:000462a0       __unwindfunclet$?_Incsize@?$list@U?$pair@$$CBW4eSCRIPT_CODE@@PAUsSCRIPT_DATA_INFO_NODE_INTERNAL@@@std@@V?$CustomAllocator@U?$pair@$$CBW4eSCRIPT_CODE@@PAUsSCRIPT_DATA_INFO_NODE_INTERNAL@@@std@@@util@@@std@@IAEXI@Z$0 004472a0 f   servercommon:ScriptDataManager.obj
 0001:000462a0       __unwindfunclet$?_Incsize@?$list@PAUSCRIPT_DATA@@V?$CustomAllocator@PAUSCRIPT_DATA@@@util@@@std@@IAEXI@Z$0 004472a0 f   servercommon:ScriptDataManager.obj
 0001:000462a0       __unwindfunclet$?_Incsize@?$list@W4eSCRIPT_CODE@@V?$CustomAllocator@W4eSCRIPT_CODE@@@util@@@std@@IAEXI@Z$0 004472a0 f   servercommon:ScriptDataManager.obj
 0001:000462a0       __unwindfunclet$?_Incsize@?$list@U?$pair@$$CBKPAVBASE_FUNC@util@@@std@@V?$allocator@U?$pair@$$CBKPAVBASE_FUNC@util@@@std@@@2@@std@@IAEXI@Z$0 004472a0 f   servercommon:ScriptDataManager.obj
 0001:000462a0       __unwindfunclet$?_Incsize@?$list@U?$pair@$$CBKPAVServerSession@@@std@@V?$CustomAllocator@U?$pair@$$CBKPAVServerSession@@@std@@@util@@@std@@IAEXI@Z$0 004472a0 f   servercommon:ScriptDataManager.obj
 0001:000462a8       __ehhandler$?_Incsize@?$list@PAUSCRIPT_DATA@@V?$CustomAllocator@PAUSCRIPT_DATA@@@util@@@std@@IAEXI@Z 004472a8 f   servercommon:ScriptDataManager.obj
 0001:000462a8       __ehhandler$?_Incsize@?$list@W4eSCRIPT_CODE@@V?$CustomAllocator@W4eSCRIPT_CODE@@@util@@@std@@IAEXI@Z 004472a8 f   servercommon:ScriptDataManager.obj
 0001:000462a8       __ehhandler$?_Incsize@?$list@U?$pair@$$CBW4eSCRIPT_CODE@@PAUsSCRIPT_DATA_INFO_NODE_INTERNAL@@@std@@V?$CustomAllocator@U?$pair@$$CBW4eSCRIPT_CODE@@PAUsSCRIPT_DATA_INFO_NODE_INTERNAL@@@std@@@util@@@std@@IAEXI@Z 004472a8 f   servercommon:ScriptDataManager.obj
 0001:000462a8       __ehhandler$?_Incsize@?$list@U?$pair@$$CBKPAVServerSession@@@std@@V?$CustomAllocator@U?$pair@$$CBKPAVServerSession@@@std@@@util@@@std@@IAEXI@Z 004472a8 f   servercommon:ScriptDataManager.obj
 0001:000462a8       __ehhandler$?_Incsize@?$list@U?$pair@$$CBKV?$chunk_set@KU?$less@K@std@@@util@@@std@@V?$CustomAllocator@U?$pair@$$CBKV?$chunk_set@KU?$less@K@std@@@util@@@std@@@util@@@std@@IAEXI@Z 004472a8 f   servercommon:ScriptDataManager.obj
 0001:000462a8       __ehhandler$?_Incsize@?$list@KV?$CustomAllocator@K@util@@@std@@IAEXI@Z 004472a8 f   servercommon:ScriptDataManager.obj
 0001:000462a8       __ehhandler$?_Incsize@?$list@U?$pair@$$CBKPAVAbuseUser@@@std@@V?$CustomAllocator@U?$pair@$$CBKPAVAbuseUser@@@std@@@util@@@std@@IAEXI@Z 004472a8 f   servercommon:ScriptDataManager.obj
 0001:000462a8       __ehhandler$?_Incsize@?$list@U?$pair@$$CBKPAVBASE_FUNC@util@@@std@@V?$allocator@U?$pair@$$CBKPAVBASE_FUNC@util@@@std@@@2@@std@@IAEXI@Z 004472a8 f   servercommon:ScriptDataManager.obj
 0001:000462d0       __ehhandler$?_Insert_n@?$vector@U_List_position@?$_Hash@V?$_Hmap_traits@KPAVServerSession@@V?$hash_compare@KU?$less@K@std@@@stdext@@V?$CustomAllocator@PAVServerSession@@@util@@$0A@@stdext@@@stdext@@V?$CustomAllocator@U_List_position@?$_Hash@V?$_Hmap_traits@KPAVServerSession@@V?$hash_compare@KU?$less@K@std@@@stdext@@V?$CustomAllocator@PAVServerSession@@@util@@$0A@@stdext@@@stdext@@@util@@@std@@IAEXV?$_Vector_const_iterator@U_List_position@?$_Hash@V?$_Hmap_traits@KPAVServerSession@@V?$hash_compare@KU?$less@K@std@@@stdext@@V?$CustomAllocator@PAVServerSession@@@util@@$0A@@stdext@@@stdext@@V?$CustomAllocator@U_List_position@?$_Hash@V?$_Hmap_traits@KPAVServerSession@@V?$hash_compare@KU?$less@K@std@@@stdext@@V?$CustomAllocator@PAVServerSession@@@util@@$0A@@stdext@@@stdext@@@util@@@2@IABU_List_position@?$_Hash@V?$_Hmap_traits@KPAVServerSession@@V?$hash_compare@KU?$less@K@std@@@stdext@@V?$CustomAllocator@PAVServerSession@@@util@@$0A@@stdext@@@stdext@@@Z 004472d0 f   servercommon:ScriptDataManager.obj
 0001:000462d0       __ehhandler$?_Insert_n@?$vector@U_List_position@?$_Hash@V?$_Hmap_traits@KV?$chunk_set@KU?$less@K@std@@@util@@V?$hash_compare@KU?$less@K@std@@@stdext@@V?$CustomAllocator@V?$chunk_set@KU?$less@K@std@@@util@@@2@$0A@@stdext@@@stdext@@V?$CustomAllocator@U_List_position@?$_Hash@V?$_Hmap_traits@KV?$chunk_set@KU?$less@K@std@@@util@@V?$hash_compare@KU?$less@K@std@@@stdext@@V?$CustomAllocator@V?$chunk_set@KU?$less@K@std@@@util@@@2@$0A@@stdext@@@stdext@@@util@@@std@@IAEXV?$_Vector_const_iterator@U_List_position@?$_Hash@V?$_Hmap_traits@KV?$chunk_set@KU?$less@K@std@@@util@@V?$hash_compare@KU?$less@K@std@@@stdext@@V?$CustomAllocator@V?$chunk_set@KU?$less@K@std@@@util@@@2@$0A@@stdext@@@stdext@@V?$CustomAllocator@U_List_position@?$_Hash@V?$_Hmap_traits@KV?$chunk_set@KU?$less@K@std@@@util@@V?$hash_compare@KU?$less@K@std@@@stdext@@V?$CustomAllocator@V?$chunk_set@KU?$less@K@std@@@util@@@2@$0A@@stdext@@@stdext@@@util@@@2@IABU_List_position@?$_Hash@V?$_Hmap_traits@KV?$chunk_set@KU?$less@K@std@@@util@@V?$hash_compare@KU?$less@K@std@@@stdext@@V?$CustomAllocator@V?$chunk_set@KU?$less@K@std@@@util@@@2@$0A@@stdext@@@stdext@@@Z 004472d0 f   servercommon:ScriptDataManager.obj
 0001:000462d0       __ehhandler$?_Insert_n@?$vector@U?$pair@W4eSCRIPT_CODE@@PAUsSCRIPT_DATA_INFO_NODE_INTERNAL@@@std@@V?$CustomAllocator@U?$pair@W4eSCRIPT_CODE@@PAUsSCRIPT_DATA_INFO_NODE_INTERNAL@@@std@@@util@@@std@@IAEXV?$_Vector_const_iterator@U?$pair@W4eSCRIPT_CODE@@PAUsSCRIPT_DATA_INFO_NODE_INTERNAL@@@std@@V?$CustomAllocator@U?$pair@W4eSCRIPT_CODE@@PAUsSCRIPT_DATA_INFO_NODE_INTERNAL@@@std@@@util@@@2@IABU?$pair@W4eSCRIPT_CODE@@PAUsSCRIPT_DATA_INFO_NODE_INTERNAL@@@2@@Z 004472d0 f   servercommon:ScriptDataManager.obj
 0001:000462d0       __ehhandler$?_Insert_n@?$vector@U_List_position@?$_Hash@V?$_Hmap_traits@W4eSCRIPT_CODE@@PAUsSCRIPT_DATA_INFO_NODE_INTERNAL@@V?$hash_compare@W4eSCRIPT_CODE@@U?$less@W4eSCRIPT_CODE@@@std@@@stdext@@V?$CustomAllocator@PAUsSCRIPT_DATA_INFO_NODE_INTERNAL@@@util@@$0A@@stdext@@@stdext@@V?$CustomAllocator@U_List_position@?$_Hash@V?$_Hmap_traits@W4eSCRIPT_CODE@@PAUsSCRIPT_DATA_INFO_NODE_INTERNAL@@V?$hash_compare@W4eSCRIPT_CODE@@U?$less@W4eSCRIPT_CODE@@@std@@@stdext@@V?$CustomAllocator@PAUsSCRIPT_DATA_INFO_NODE_INTERNAL@@@util@@$0A@@stdext@@@stdext@@@util@@@std@@IAEXV?$_Vector_const_iterator@U_List_position@?$_Hash@V?$_Hmap_traits@W4eSCRIPT_CODE@@PAUsSCRIPT_DATA_INFO_NODE_INTERNAL@@V?$hash_compare@W4eSCRIPT_CODE@@U?$less@W4eSCRIPT_CODE@@@std@@@stdext@@V?$CustomAllocator@PAUsSCRIPT_DATA_INFO_NODE_INTERNAL@@@util@@$0A@@stdext@@@stdext@@V?$CustomAllocator@U_List_position@?$_Hash@V?$_Hmap_traits@W4eSCRIPT_CODE@@PAUsSCRIPT_DATA_INFO_NODE_INTERNAL@@V?$hash_compare@W4eSCRIPT_CODE@@U?$less@W4eSCRIPT_CODE@@@std@@@stdext@@V?$CustomAllocator@PAUsSCRIPT_DATA_INFO_NODE_INTERNAL@@@util@@$0A@@stdext@@@stdext@@@util@@@2@IABU_List_position@?$_Hash@V?$_Hmap_traits@W4eSCRIPT_CODE@@PAUsSCRIPT_DATA_INFO_NODE_INTERNAL@@V?$hash_compare@W4eSCRIPT_CODE@@U?$less@W4eSCRIPT_CODE@@@std@@@stdext@@V?$CustomAllocator@PAUsSCRIPT_DATA_INFO_NODE_INTERNAL@@@util@@$0A@@stdext@@@stdext@@@Z 004472d0 f   servercommon:ScriptDataManager.obj
 0001:000462d0       __ehhandler$?_Insert_n@?$vector@U_List_position@?$_Hash@V?$_Hmap_traits@KPAVAbuseUser@@V?$hash_compare@KU?$less@K@std@@@stdext@@V?$CustomAllocator@PAVAbuseUser@@@util@@$0A@@stdext@@@stdext@@V?$CustomAllocator@U_List_position@?$_Hash@V?$_Hmap_traits@KPAVAbuseUser@@V?$hash_compare@KU?$less@K@std@@@stdext@@V?$CustomAllocator@PAVAbuseUser@@@util@@$0A@@stdext@@@stdext@@@util@@@std@@IAEXV?$_Vector_const_iterator@U_List_position@?$_Hash@V?$_Hmap_traits@KPAVAbuseUser@@V?$hash_compare@KU?$less@K@std@@@stdext@@V?$CustomAllocator@PAVAbuseUser@@@util@@$0A@@stdext@@@stdext@@V?$CustomAllocator@U_List_position@?$_Hash@V?$_Hmap_traits@KPAVAbuseUser@@V?$hash_compare@KU?$less@K@std@@@stdext@@V?$CustomAllocator@PAVAbuseUser@@@util@@$0A@@stdext@@@stdext@@@util@@@2@IABU_List_position@?$_Hash@V?$_Hmap_traits@KPAVAbuseUser@@V?$hash_compare@KU?$less@K@std@@@stdext@@V?$CustomAllocator@PAVAbuseUser@@@util@@$0A@@stdext@@@stdext@@@Z 004472d0 f   servercommon:ScriptDataManager.obj
 0001:000462f0       __unwindfunclet$??1ScriptDataManagerInternal@@QAE@XZ$0 004472f0 f   servercommon:ScriptDataManager.obj
 0001:000462fb       __unwindfunclet$??1ScriptDataManagerInternal@@QAE@XZ$1 004472fb f   servercommon:ScriptDataManager.obj
 0001:00046306       __unwindfunclet$??1ScriptDataManagerInternal@@QAE@XZ$2 00447306 f   servercommon:ScriptDataManager.obj
 0001:00046311       __ehhandler$??1ScriptDataManagerInternal@@QAE@XZ 00447311 f   servercommon:ScriptDataManager.obj
 0001:00046330       __unwindfunclet$??0ScriptDataManagerInternal@@QAE@XZ$0 00447330 f   servercommon:ScriptDataManager.obj
 0001:0004633b       __unwindfunclet$??0ScriptDataManagerInternal@@QAE@XZ$1 0044733b f   servercommon:ScriptDataManager.obj
 0001:00046346       __unwindfunclet$??0ScriptDataManagerInternal@@QAE@XZ$2 00447346 f   servercommon:ScriptDataManager.obj
 0001:00046351       __ehhandler$??0ScriptDataManagerInternal@@QAE@XZ 00447351 f   servercommon:ScriptDataManager.obj
 0001:00046370       __unwindfunclet$?Load@IParser@@UAEHW4eSCRIPT_CODE@@PBDHW4eSEPERATOR_MODE@@1H@Z$0 00447370 f   programcommon_s:ScriptCode.IParser.Impl.obj
 0001:0004637e       __unwindfunclet$?Load@IParser@@UAEHW4eSCRIPT_CODE@@PBDHW4eSEPERATOR_MODE@@1H@Z$1 0044737e f   programcommon_s:ScriptCode.IParser.Impl.obj
 0001:0004638c       __ehhandler$?Load@IParser@@UAEHW4eSCRIPT_CODE@@PBDHW4eSEPERATOR_MODE@@1H@Z 0044738c f   programcommon_s:ScriptCode.IParser.Impl.obj
 0001:000463ba       __unwindfunclet$?SolarLoad@IParser@@UAEHW4eSCRIPT_CODE@@PAEKH@Z$0 004473ba f   programcommon_s:ScriptCode.IParser.Impl.obj
 0001:000463c8       __unwindfunclet$?SolarLoad@IParser@@UAEHW4eSCRIPT_CODE@@PAEKH@Z$1 004473c8 f   programcommon_s:ScriptCode.IParser.Impl.obj
 0001:000463d6       __ehhandler$?SolarLoad@IParser@@UAEHW4eSCRIPT_CODE@@PAEKH@Z 004473d6 f   programcommon_s:ScriptCode.IParser.Impl.obj
 0001:00046404       __unwindfunclet$?InsertFileName@IParser@@QAEHW4eSCRIPT_CODE@@PBD@Z$0 00447404 f   programcommon_s:ScriptCode.IParser.Impl.obj
 0001:0004640c       __ehhandler$?InsertFileName@IParser@@QAEHW4eSCRIPT_CODE@@PBD@Z 0044740c f   programcommon_s:ScriptCode.IParser.Impl.obj
 0001:00046427       __unwindfunclet$??1IParser@@UAE@XZ$0 00447427 f   programcommon_s:ScriptCode.IParser.Impl.obj
 0001:00046432       __ehhandler$??1IParser@@UAE@XZ 00447432 f   programcommon_s:ScriptCode.IParser.Impl.obj
 0001:00046450       __unwindfunclet$?_Buynode@?$_Tree@V?$_Tmap_traits@W4eSCRIPT_CODE@@V?$basic_string@DU?$char_traits@D@std@@V?$allocator@D@2@@std@@U?$less@W4eSCRIPT_CODE@@@3@V?$CustomAllocator@V?$basic_string@DU?$char_traits@D@std@@V?$allocator@D@2@@std@@@util@@$0A@@std@@@std@@IAEPAU_Node@?$_Tree_nod@V?$_Tmap_traits@W4eSCRIPT_CODE@@V?$basic_string@DU?$char_traits@D@std@@V?$allocator@D@2@@std@@U?$less@W4eSCRIPT_CODE@@@3@V?$CustomAllocator@V?$basic_string@DU?$char_traits@D@std@@V?$allocator@D@2@@std@@@util@@$0A@@std@@@2@PAU342@00ABU?$pair@$$CBW4eSCRIPT_CODE@@V?$basic_string@DU?$char_traits@D@std@@V?$allocator@D@2@@std@@@2@D@Z$2 00447450 f   programcommon_s:ScriptCode.IParser.Impl.obj
 0001:00046461       __ehhandler$?_Buynode@?$_Tree@V?$_Tmap_traits@W4eSCRIPT_CODE@@V?$basic_string@DU?$char_traits@D@std@@V?$allocator@D@2@@std@@U?$less@W4eSCRIPT_CODE@@@3@V?$CustomAllocator@V?$basic_string@DU?$char_traits@D@std@@V?$allocator@D@2@@std@@@util@@$0A@@std@@@std@@IAEPAU_Node@?$_Tree_nod@V?$_Tmap_traits@W4eSCRIPT_CODE@@V?$basic_string@DU?$char_traits@D@std@@V?$allocator@D@2@@std@@U?$less@W4eSCRIPT_CODE@@@3@V?$CustomAllocator@V?$basic_string@DU?$char_traits@D@std@@V?$allocator@D@2@@std@@@util@@$0A@@std@@@2@PAU342@00ABU?$pair@$$CBW4eSCRIPT_CODE@@V?$basic_string@DU?$char_traits@D@std@@V?$allocator@D@2@@std@@@2@D@Z 00447461 f   programcommon_s:ScriptCode.IParser.Impl.obj
 0001:00046480       __unwindfunclet$?_Insert@?$_Tree@V?$_Tmap_traits@W4eSCRIPT_CODE@@UsCOMPRESS_INFO@ICompressConverter@@U?$less@W4eSCRIPT_CODE@@@std@@V?$CustomAllocator@UsCOMPRESS_INFO@ICompressConverter@@@util@@$0A@@std@@@std@@IAE?AViterator@12@_NPAU_Node@?$_Tree_nod@V?$_Tmap_traits@W4eSCRIPT_CODE@@UsCOMPRESS_INFO@ICompressConverter@@U?$less@W4eSCRIPT_CODE@@@std@@V?$CustomAllocator@UsCOMPRESS_INFO@ICompressConverter@@@util@@$0A@@std@@@2@ABU?$pair@$$CBW4eSCRIPT_CODE@@UsCOMPRESS_INFO@ICompressConverter@@@2@@Z$0 00447480 f   programcommon_s:ScriptCode.IParser.Impl.obj
 0001:00046480       __unwindfunclet$?_Insert@?$_Tree@V?$_Tmap_traits@KU?$pair@V?$Delegator@VIWorkNode@@@@H@std@@U?$less@K@2@V?$CustomAllocator@U?$pair@V?$Delegator@VIWorkNode@@@@H@std@@@util@@$0A@@std@@@std@@IAE?AViterator@12@_NPAU_Node@?$_Tree_nod@V?$_Tmap_traits@KU?$pair@V?$Delegator@VIWorkNode@@@@H@std@@U?$less@K@2@V?$CustomAllocator@U?$pair@V?$Delegator@VIWorkNode@@@@H@std@@@util@@$0A@@std@@@2@ABU?$pair@$$CBKU?$pair@V?$Delegator@VIWorkNode@@@@H@std@@@2@@Z$0 00447480 f   programcommon_s:ScriptCode.IParser.Impl.obj
 0001:00046480       __unwindfunclet$?_Insert@?$_Tree@V?$_Tmap_traits@KU?$pair@KK@std@@U?$less@K@2@V?$CustomAllocator@U?$pair@KK@std@@@util@@$0A@@std@@@std@@IAE?AViterator@12@_NPAU_Node@?$_Tree_nod@V?$_Tmap_traits@KU?$pair@KK@std@@U?$less@K@2@V?$CustomAllocator@U?$pair@KK@std@@@util@@$0A@@std@@@2@ABU?$pair@$$CBKU?$pair@KK@std@@@2@@Z$0 00447480 f   programcommon_s:ScriptCode.IParser.Impl.obj
 0001:00046480       __unwindfunclet$?_Insert@?$_Tree@V?$_Tmap_traits@_KUsTEMP_SERVER_LIFETIME@@U?$less@_K@std@@V?$allocator@U?$pair@$$CB_KUsTEMP_SERVER_LIFETIME@@@std@@@3@$0A@@std@@@std@@IAE?AViterator@12@_NPAU_Node@?$_Tree_nod@V?$_Tmap_traits@_KUsTEMP_SERVER_LIFETIME@@U?$less@_K@std@@V?$allocator@U?$pair@$$CB_KUsTEMP_SERVER_LIFETIME@@@std@@@3@$0A@@std@@@2@ABU?$pair@$$CB_KUsTEMP_SERVER_LIFETIME@@@2@@Z$0 00447480 f   programcommon_s:ScriptCode.IParser.Impl.obj
 0001:00046480       __unwindfunclet$?_Insert@?$_Tree@V?$_Tmap_traits@V?$basic_string@DU?$char_traits@D@std@@V?$allocator@D@2@@std@@PAV?$map@V?$basic_string@DU?$char_traits@D@std@@V?$allocator@D@2@@std@@V12@U?$less@V?$basic_string@DU?$char_traits@D@std@@V?$allocator@D@2@@std@@@2@V?$allocator@U?$pair@$$CBV?$basic_string@DU?$char_traits@D@std@@V?$allocator@D@2@@std@@V12@@std@@@2@@2@U?$less@V?$basic_string@DU?$char_traits@D@std@@V?$allocator@D@2@@std@@@2@V?$allocator@U?$pair@$$CBV?$basic_string@DU?$char_traits@D@std@@V?$allocator@D@2@@std@@PAV?$map@V?$basic_string@DU?$char_traits@D@std@@V?$allocator@D@2@@std@@V12@U?$less@V?$basic_string@DU?$char_traits@D@std@@V?$allocator@D@2@@std@@@2@V?$allocator@U?$pair@$$CBV?$basic_string@DU?$char_traits@D@std@@V?$allocator@D@2@@std@@V12@@std@@@2@@2@@std@@@2@$0A@@std@@@std@@IAE?AViterator@12@_NPAU_Node@?$_Tree_nod@V?$_Tmap_traits@V?$basic_string@DU?$char_traits@D@std@@V?$allocator@D@2@@std@@PAV?$map@V?$basic_string@DU?$char_traits@D@std@@V?$allocator@D@2@@std@@V12@U?$less@V?$basic_string@DU?$char_traits@D@std@@V?$allocator@D@2@@std@@@2@V?$allocator@U?$pair@$$CBV?$basic_string@DU?$char_traits@D@std@@V?$allocator@D@2@@std@@V12@@std@@@2@@2@U?$less@V?$basic_string@DU?$char_traits@D@std@@V?$allocator@D@2@@std@@@2@V?$allocator@U?$pair@$$CBV?$basic_string@DU?$char_traits@D@std@@V?$allocator@D@2@@std@@PAV?$map@V?$basic_string@DU?$char_traits@D@std@@V?$allocator@D@2@@std@@V12@U?$less@V?$basic_string@DU?$char_traits@D@std@@V?$allocator@D@2@@std@@@2@V?$allocator@U?$pair@$$CBV?$basic_string@DU?$char_traits@D@std@@V?$allocator@D@2@@std@@V12@@std@@@2@@2@@std@@@2@$0A@@std@@@2@ABU?$pair@$$CBV?$basic_string@DU?$char_traits@D@std@@V?$allocator@D@2@@std@@PAV?$map@V?$basic_string@DU?$char_traits@D@std@@V?$allocator@D@2@@std@@V12@U?$less@V?$basic_string@DU?$char_traits@D@std@@V?$allocator@D@2@@std@@@2@V?$allocator@U?$pair@$$CBV?$basic_string@DU?$char_traits@D@std@@V?$allocator@D@2@@std@@V12@@std@@@2@@2@@2@@Z$0 00447480 f   programcommon_s:ScriptCode.IParser.Impl.obj
 0001:00046480       __unwindfunclet$?_Insert@?$_Tree@V?$_Tmap_traits@PAVServerSessionEx@@HU?$less@PAVServerSessionEx@@@std@@V?$allocator@U?$pair@QAVServerSessionEx@@H@std@@@3@$0A@@std@@@std@@IAE?AViterator@12@_NPAU_Node@?$_Tree_nod@V?$_Tmap_traits@PAVServerSessionEx@@HU?$less@PAVServerSessionEx@@@std@@V?$allocator@U?$pair@QAVServerSessionEx@@H@std@@@3@$0A@@std@@@2@ABU?$pair@QAVServerSessionEx@@H@2@@Z$0 00447480 f   programcommon_s:ScriptCode.IParser.Impl.obj
 0001:00046480       __unwindfunclet$?_Insert@?$_Tree@V?$_Tmap_traits@V?$basic_string@DU?$char_traits@D@std@@V?$allocator@D@2@@std@@V12@U?$less@V?$basic_string@DU?$char_traits@D@std@@V?$allocator@D@2@@std@@@2@V?$allocator@U?$pair@$$CBV?$basic_string@DU?$char_traits@D@std@@V?$allocator@D@2@@std@@V12@@std@@@2@$0A@@std@@@std@@IAE?AViterator@12@_NPAU_Node@?$_Tree_nod@V?$_Tmap_traits@V?$basic_string@DU?$char_traits@D@std@@V?$allocator@D@2@@std@@V12@U?$less@V?$basic_string@DU?$char_traits@D@std@@V?$allocator@D@2@@std@@@2@V?$allocator@U?$pair@$$CBV?$basic_string@DU?$char_traits@D@std@@V?$allocator@D@2@@std@@V12@@std@@@2@$0A@@std@@@2@ABU?$pair@$$CBV?$basic_string@DU?$char_traits@D@std@@V?$allocator@D@2@@std@@V12@@2@@Z$0 00447480 f   programcommon_s:ScriptCode.IParser.Impl.obj
 0001:00046480       __unwindfunclet$?_Insert@?$_Tree@V?$_Tmap_traits@W4eSCRIPT_CODE@@V?$basic_string@DU?$char_traits@D@std@@V?$allocator@D@2@@std@@U?$less@W4eSCRIPT_CODE@@@3@V?$CustomAllocator@V?$basic_string@DU?$char_traits@D@std@@V?$allocator@D@2@@std@@@util@@$0A@@std@@@std@@IAE?AViterator@12@_NPAU_Node@?$_Tree_nod@V?$_Tmap_traits@W4eSCRIPT_CODE@@V?$basic_string@DU?$char_traits@D@std@@V?$allocator@D@2@@std@@U?$less@W4eSCRIPT_CODE@@@3@V?$CustomAllocator@V?$basic_string@DU?$char_traits@D@std@@V?$allocator@D@2@@std@@@util@@$0A@@std@@@2@ABU?$pair@$$CBW4eSCRIPT_CODE@@V?$basic_string@DU?$char_traits@D@std@@V?$allocator@D@2@@std@@@2@@Z$0 00447480 f   programcommon_s:ScriptCode.IParser.Impl.obj
 0001:00046480       __unwindfunclet$?_Insert@?$_Tree@V?$_Tset_traits@KU?$less@K@std@@V?$CustomAllocator@K@util@@$0A@@std@@@std@@IAE?AViterator@12@_NPAU_Node@?$_Tree_nod@V?$_Tset_traits@KU?$less@K@std@@V?$CustomAllocator@K@util@@$0A@@std@@@2@ABK@Z$0 00447480 f   programcommon_s:ScriptCode.IParser.Impl.obj
 0001:00046480       __unwindfunclet$?_Insert@?$_Tree@V?$_Tmap_traits@EPAUABUSING_OPTION_INFO@@U?$less@E@std@@V?$CustomAllocator@PAUABUSING_OPTION_INFO@@@util@@$0A@@std@@@std@@IAE?AViterator@12@_NPAU_Node@?$_Tree_nod@V?$_Tmap_traits@EPAUABUSING_OPTION_INFO@@U?$less@E@std@@V?$CustomAllocator@PAUABUSING_OPTION_INFO@@@util@@$0A@@std@@@2@ABU?$pair@$$CBEPAUABUSING_OPTION_INFO@@@2@@Z$0 00447480 f   programcommon_s:ScriptCode.IParser.Impl.obj
 0001:00046488       __ehhandler$?_Insert@?$_Tree@V?$_Tmap_traits@_KUsTEMP_SERVER_LIFETIME@@U?$less@_K@std@@V?$allocator@U?$pair@$$CB_KUsTEMP_SERVER_LIFETIME@@@std@@@3@$0A@@std@@@std@@IAE?AViterator@12@_NPAU_Node@?$_Tree_nod@V?$_Tmap_traits@_KUsTEMP_SERVER_LIFETIME@@U?$less@_K@std@@V?$allocator@U?$pair@$$CB_KUsTEMP_SERVER_LIFETIME@@@std@@@3@$0A@@std@@@2@ABU?$pair@$$CB_KUsTEMP_SERVER_LIFETIME@@@2@@Z 00447488 f   programcommon_s:ScriptCode.IParser.Impl.obj
 0001:00046488       __ehhandler$?_Insert@?$_Tree@V?$_Tmap_traits@V?$basic_string@DU?$char_traits@D@std@@V?$allocator@D@2@@std@@PAV?$map@V?$basic_string@DU?$char_traits@D@std@@V?$allocator@D@2@@std@@V12@U?$less@V?$basic_string@DU?$char_traits@D@std@@V?$allocator@D@2@@std@@@2@V?$allocator@U?$pair@$$CBV?$basic_string@DU?$char_traits@D@std@@V?$allocator@D@2@@std@@V12@@std@@@2@@2@U?$less@V?$basic_string@DU?$char_traits@D@std@@V?$allocator@D@2@@std@@@2@V?$allocator@U?$pair@$$CBV?$basic_string@DU?$char_traits@D@std@@V?$allocator@D@2@@std@@PAV?$map@V?$basic_string@DU?$char_traits@D@std@@V?$allocator@D@2@@std@@V12@U?$less@V?$basic_string@DU?$char_traits@D@std@@V?$allocator@D@2@@std@@@2@V?$allocator@U?$pair@$$CBV?$basic_string@DU?$char_traits@D@std@@V?$allocator@D@2@@std@@V12@@std@@@2@@2@@std@@@2@$0A@@std@@@std@@IAE?AViterator@12@_NPAU_Node@?$_Tree_nod@V?$_Tmap_traits@V?$basic_string@DU?$char_traits@D@std@@V?$allocator@D@2@@std@@PAV?$map@V?$basic_string@DU?$char_traits@D@std@@V?$allocator@D@2@@std@@V12@U?$less@V?$basic_string@DU?$char_traits@D@std@@V?$allocator@D@2@@std@@@2@V?$allocator@U?$pair@$$CBV?$basic_string@DU?$char_traits@D@std@@V?$allocator@D@2@@std@@V12@@std@@@2@@2@U?$less@V?$basic_string@DU?$char_traits@D@std@@V?$allocator@D@2@@std@@@2@V?$allocator@U?$pair@$$CBV?$basic_string@DU?$char_traits@D@std@@V?$allocator@D@2@@std@@PAV?$map@V?$basic_string@DU?$char_traits@D@std@@V?$allocator@D@2@@std@@V12@U?$less@V?$basic_string@DU?$char_traits@D@std@@V?$allocator@D@2@@std@@@2@V?$allocator@U?$pair@$$CBV?$basic_string@DU?$char_traits@D@std@@V?$allocator@D@2@@std@@V12@@std@@@2@@2@@std@@@2@$0A@@std@@@2@ABU?$pair@$$CBV?$basic_string@DU?$char_traits@D@std@@V?$allocator@D@2@@std@@PAV?$map@V?$basic_string@DU?$char_traits@D@std@@V?$allocator@D@2@@std@@V12@U?$less@V?$basic_string@DU?$char_traits@D@std@@V?$allocator@D@2@@std@@@2@V?$allocator@U?$pair@$$CBV?$basic_string@DU?$char_traits@D@std@@V?$allocator@D@2@@std@@V12@@std@@@2@@2@@2@@Z 00447488 f   programcommon_s:ScriptCode.IParser.Impl.obj
 0001:00046488       __ehhandler$?_Insert@?$_Tree@V?$_Tmap_traits@EPAUABUSING_OPTION_INFO@@U?$less@E@std@@V?$CustomAllocator@PAUABUSING_OPTION_INFO@@@util@@$0A@@std@@@std@@IAE?AViterator@12@_NPAU_Node@?$_Tree_nod@V?$_Tmap_traits@EPAUABUSING_OPTION_INFO@@U?$less@E@std@@V?$CustomAllocator@PAUABUSING_OPTION_INFO@@@util@@$0A@@std@@@2@ABU?$pair@$$CBEPAUABUSING_OPTION_INFO@@@2@@Z 00447488 f   programcommon_s:ScriptCode.IParser.Impl.obj
 0001:00046488       __ehhandler$?_Insert@?$_Tree@V?$_Tmap_traits@W4eSCRIPT_CODE@@UsCOMPRESS_INFO@ICompressConverter@@U?$less@W4eSCRIPT_CODE@@@std@@V?$CustomAllocator@UsCOMPRESS_INFO@ICompressConverter@@@util@@$0A@@std@@@std@@IAE?AViterator@12@_NPAU_Node@?$_Tree_nod@V?$_Tmap_traits@W4eSCRIPT_CODE@@UsCOMPRESS_INFO@ICompressConverter@@U?$less@W4eSCRIPT_CODE@@@std@@V?$CustomAllocator@UsCOMPRESS_INFO@ICompressConverter@@@util@@$0A@@std@@@2@ABU?$pair@$$CBW4eSCRIPT_CODE@@UsCOMPRESS_INFO@ICompressConverter@@@2@@Z 00447488 f   programcommon_s:ScriptCode.IParser.Impl.obj
 0001:00046488       __ehhandler$?_Insert@?$_Tree@V?$_Tmap_traits@KU?$pair@KK@std@@U?$less@K@2@V?$CustomAllocator@U?$pair@KK@std@@@util@@$0A@@std@@@std@@IAE?AViterator@12@_NPAU_Node@?$_Tree_nod@V?$_Tmap_traits@KU?$pair@KK@std@@U?$less@K@2@V?$CustomAllocator@U?$pair@KK@std@@@util@@$0A@@std@@@2@ABU?$pair@$$CBKU?$pair@KK@std@@@2@@Z 00447488 f   programcommon_s:ScriptCode.IParser.Impl.obj
 0001:00046488       __ehhandler$?_Insert@?$_Tree@V?$_Tset_traits@KU?$less@K@std@@V?$CustomAllocator@K@util@@$0A@@std@@@std@@IAE?AViterator@12@_NPAU_Node@?$_Tree_nod@V?$_Tset_traits@KU?$less@K@std@@V?$CustomAllocator@K@util@@$0A@@std@@@2@ABK@Z 00447488 f   programcommon_s:ScriptCode.IParser.Impl.obj
 0001:00046488       __ehhandler$?_Insert@?$_Tree@V?$_Tmap_traits@KU?$pair@V?$Delegator@VIWorkNode@@@@H@std@@U?$less@K@2@V?$CustomAllocator@U?$pair@V?$Delegator@VIWorkNode@@@@H@std@@@util@@$0A@@std@@@std@@IAE?AViterator@12@_NPAU_Node@?$_Tree_nod@V?$_Tmap_traits@KU?$pair@V?$Delegator@VIWorkNode@@@@H@std@@U?$less@K@2@V?$CustomAllocator@U?$pair@V?$Delegator@VIWorkNode@@@@H@std@@@util@@$0A@@std@@@2@ABU?$pair@$$CBKU?$pair@V?$Delegator@VIWorkNode@@@@H@std@@@2@@Z 00447488 f   programcommon_s:ScriptCode.IParser.Impl.obj
 0001:00046488       __ehhandler$?_Insert@?$_Tree@V?$_Tmap_traits@PAVServerSessionEx@@HU?$less@PAVServerSessionEx@@@std@@V?$allocator@U?$pair@QAVServerSessionEx@@H@std@@@3@$0A@@std@@@std@@IAE?AViterator@12@_NPAU_Node@?$_Tree_nod@V?$_Tmap_traits@PAVServerSessionEx@@HU?$less@PAVServerSessionEx@@@std@@V?$allocator@U?$pair@QAVServerSessionEx@@H@std@@@3@$0A@@std@@@2@ABU?$pair@QAVServerSessionEx@@H@2@@Z 00447488 f   programcommon_s:ScriptCode.IParser.Impl.obj
 0001:00046488       __ehhandler$?_Insert@?$_Tree@V?$_Tmap_traits@V?$basic_string@DU?$char_traits@D@std@@V?$allocator@D@2@@std@@V12@U?$less@V?$basic_string@DU?$char_traits@D@std@@V?$allocator@D@2@@std@@@2@V?$allocator@U?$pair@$$CBV?$basic_string@DU?$char_traits@D@std@@V?$allocator@D@2@@std@@V12@@std@@@2@$0A@@std@@@std@@IAE?AViterator@12@_NPAU_Node@?$_Tree_nod@V?$_Tmap_traits@V?$basic_string@DU?$char_traits@D@std@@V?$allocator@D@2@@std@@V12@U?$less@V?$basic_string@DU?$char_traits@D@std@@V?$allocator@D@2@@std@@@2@V?$allocator@U?$pair@$$CBV?$basic_string@DU?$char_traits@D@std@@V?$allocator@D@2@@std@@V12@@std@@@2@$0A@@std@@@2@ABU?$pair@$$CBV?$basic_string@DU?$char_traits@D@std@@V?$allocator@D@2@@std@@V12@@2@@Z 00447488 f   programcommon_s:ScriptCode.IParser.Impl.obj
 0001:00046488       __ehhandler$?_Insert@?$_Tree@V?$_Tmap_traits@W4eSCRIPT_CODE@@V?$basic_string@DU?$char_traits@D@std@@V?$allocator@D@2@@std@@U?$less@W4eSCRIPT_CODE@@@3@V?$CustomAllocator@V?$basic_string@DU?$char_traits@D@std@@V?$allocator@D@2@@std@@@util@@$0A@@std@@@std@@IAE?AViterator@12@_NPAU_Node@?$_Tree_nod@V?$_Tmap_traits@W4eSCRIPT_CODE@@V?$basic_string@DU?$char_traits@D@std@@V?$allocator@D@2@@std@@U?$less@W4eSCRIPT_CODE@@@3@V?$CustomAllocator@V?$basic_string@DU?$char_traits@D@std@@V?$allocator@D@2@@std@@@util@@$0A@@std@@@2@ABU?$pair@$$CBW4eSCRIPT_CODE@@V?$basic_string@DU?$char_traits@D@std@@V?$allocator@D@2@@std@@@2@@Z 00447488 f   programcommon_s:ScriptCode.IParser.Impl.obj
 0001:000464b0       __unwindfunclet$??1?$_Tree@V?$_Tmap_traits@W4eSCRIPT_CODE@@UsCOMPRESS_INFO@ICompressConverter@@U?$less@W4eSCRIPT_CODE@@@std@@V?$CustomAllocator@UsCOMPRESS_INFO@ICompressConverter@@@util@@$0A@@std@@@std@@QAE@XZ$0 004474b0 f   programcommon_s:ScriptCode.IParser.Impl.obj
 0001:000464b0       __unwindfunclet$??1?$_Tree@V?$_Tmap_traits@KU?$pair@V?$Delegator@VIWorkNode@@@@H@std@@U?$less@K@2@V?$CustomAllocator@U?$pair@V?$Delegator@VIWorkNode@@@@H@std@@@util@@$0A@@std@@@std@@QAE@XZ$0 004474b0 f   programcommon_s:ScriptCode.IParser.Impl.obj
 0001:000464b0       __unwindfunclet$??1?$_Tree@V?$_Tset_traits@KU?$less@K@std@@V?$CustomAllocator@K@util@@$0A@@std@@@std@@QAE@XZ$0 004474b0 f   programcommon_s:ScriptCode.IParser.Impl.obj
 0001:000464b0       __unwindfunclet$??1?$_Tree@V?$_Tmap_traits@W4eSCRIPT_CODE@@V?$basic_string@DU?$char_traits@D@std@@V?$allocator@D@2@@std@@U?$less@W4eSCRIPT_CODE@@@3@V?$CustomAllocator@V?$basic_string@DU?$char_traits@D@std@@V?$allocator@D@2@@std@@@util@@$0A@@std@@@std@@QAE@XZ$0 004474b0 f   programcommon_s:ScriptCode.IParser.Impl.obj
 0001:000464b0       __unwindfunclet$??1?$_Tree@V?$_Tmap_traits@KU?$pair@KK@std@@U?$less@K@2@V?$CustomAllocator@U?$pair@KK@std@@@util@@$0A@@std@@@std@@QAE@XZ$0 004474b0 f   programcommon_s:ScriptCode.IParser.Impl.obj
 0001:000464b0       __unwindfunclet$??1?$_Tree@V?$_Tmap_traits@EPAUABUSING_OPTION_INFO@@U?$less@E@std@@V?$CustomAllocator@PAUABUSING_OPTION_INFO@@@util@@$0A@@std@@@std@@QAE@XZ$0 004474b0 f   programcommon_s:ScriptCode.IParser.Impl.obj
 0001:000464b8       __ehhandler$??1?$_Tree@V?$_Tmap_traits@W4eSCRIPT_CODE@@UsCOMPRESS_INFO@ICompressConverter@@U?$less@W4eSCRIPT_CODE@@@std@@V?$CustomAllocator@UsCOMPRESS_INFO@ICompressConverter@@@util@@$0A@@std@@@std@@QAE@XZ 004474b8 f   programcommon_s:ScriptCode.IParser.Impl.obj
 0001:000464b8       __ehhandler$??1?$_Tree@V?$_Tmap_traits@KU?$pair@KK@std@@U?$less@K@2@V?$CustomAllocator@U?$pair@KK@std@@@util@@$0A@@std@@@std@@QAE@XZ 004474b8 f   programcommon_s:ScriptCode.IParser.Impl.obj
 0001:000464b8       __ehhandler$??1?$_Tree@V?$_Tmap_traits@KU?$pair@V?$Delegator@VIWorkNode@@@@H@std@@U?$less@K@2@V?$CustomAllocator@U?$pair@V?$Delegator@VIWorkNode@@@@H@std@@@util@@$0A@@std@@@std@@QAE@XZ 004474b8 f   programcommon_s:ScriptCode.IParser.Impl.obj
 0001:000464b8       __ehhandler$??1?$_Tree@V?$_Tmap_traits@W4eSCRIPT_CODE@@V?$basic_string@DU?$char_traits@D@std@@V?$allocator@D@2@@std@@U?$less@W4eSCRIPT_CODE@@@3@V?$CustomAllocator@V?$basic_string@DU?$char_traits@D@std@@V?$allocator@D@2@@std@@@util@@$0A@@std@@@std@@QAE@XZ 004474b8 f   programcommon_s:ScriptCode.IParser.Impl.obj
 0001:000464b8       __ehhandler$??1?$_Tree@V?$_Tmap_traits@EPAUABUSING_OPTION_INFO@@U?$less@E@std@@V?$CustomAllocator@PAUABUSING_OPTION_INFO@@@util@@$0A@@std@@@std@@QAE@XZ 004474b8 f   programcommon_s:ScriptCode.IParser.Impl.obj
 0001:000464b8       __ehhandler$??1?$_Tree@V?$_Tset_traits@KU?$less@K@std@@V?$CustomAllocator@K@util@@$0A@@std@@@std@@QAE@XZ 004474b8 f   programcommon_s:ScriptCode.IParser.Impl.obj
 0001:000464e0       __unwindfunclet$?_OpenFileAndReadBuffer@TableData@@AAEEPBDE0@Z$0 004474e0 f   programcommon_s:TableData.obj
 0001:000464eb       __ehhandler$?_OpenFileAndReadBuffer@TableData@@AAEEPBDE0@Z 004474eb f   programcommon_s:TableData.obj
 0001:00046520       __unwindfunclet$?OpenFile@INIParser@util@@QAE_NPBD0@Z$0 00447520 f   utility_s:INIParser.obj
 0001:0004652b       __ehhandler$?OpenFile@INIParser@util@@QAE_NPBD0@Z 0044752b f   utility_s:INIParser.obj
 0001:00046560       __unwindfunclet$??0?$pair@$$CBV?$basic_string@DU?$char_traits@D@std@@V?$allocator@D@2@@std@@V12@@std@@QAE@ABU01@@Z$0 00447560 f   utility_s:INIParser.obj
 0001:00046568       __ehhandler$??0?$pair@$$CBV?$basic_string@DU?$char_traits@D@std@@V?$allocator@D@2@@std@@V12@@std@@QAE@ABU01@@Z 00447568 f   utility_s:INIParser.obj
 0001:00046590       __unwindfunclet$?GetData@INIParser@util@@QBEPBDPBD0@Z$0 00447590 f   utility_s:INIParser.obj
 0001:00046598       __unwindfunclet$?GetData@INIParser@util@@QBEPBDPBD0@Z$1 00447598 f   utility_s:INIParser.obj
 0001:000465a0       __ehhandler$?GetData@INIParser@util@@QBEPBDPBD0@Z 004475a0 f   utility_s:INIParser.obj
 0001:000465c0       __unwindfunclet$??$make_pair@V?$basic_string@DU?$char_traits@D@std@@V?$allocator@D@2@@std@@PAV?$map@V?$basic_string@DU?$char_traits@D@std@@V?$allocator@D@2@@std@@V12@U?$less@V?$basic_string@DU?$char_traits@D@std@@V?$allocator@D@2@@std@@@2@V?$allocator@U?$pair@$$CBV?$basic_string@DU?$char_traits@D@std@@V?$allocator@D@2@@std@@V12@@std@@@2@@2@@std@@YA?AU?$pair@V?$basic_string@DU?$char_traits@D@std@@V?$allocator@D@2@@std@@PAV?$map@V?$basic_string@DU?$char_traits@D@std@@V?$allocator@D@2@@std@@V12@U?$less@V?$basic_string@DU?$char_traits@D@std@@V?$allocator@D@2@@std@@@2@V?$allocator@U?$pair@$$CBV?$basic_string@DU?$char_traits@D@std@@V?$allocator@D@2@@std@@V12@@std@@@2@@2@@0@V?$basic_string@DU?$char_traits@D@std@@V?$allocator@D@2@@0@PAV?$map@V?$basic_string@DU?$char_traits@D@std@@V?$allocator@D@2@@std@@V12@U?$less@V?$basic_string@DU?$char_traits@D@std@@V?$allocator@D@2@@std@@@2@V?$allocator@U?$pair@$$CBV?$basic_string@DU?$char_traits@D@std@@V?$allocator@D@2@@std@@V12@@std@@@2@@0@@Z$0 004475c0 f   utility_s:INIParser.obj
 0001:000465c8       __ehhandler$??$make_pair@V?$basic_string@DU?$char_traits@D@std@@V?$allocator@D@2@@std@@PAV?$map@V?$basic_string@DU?$char_traits@D@std@@V?$allocator@D@2@@std@@V12@U?$less@V?$basic_string@DU?$char_traits@D@std@@V?$allocator@D@2@@std@@@2@V?$allocator@U?$pair@$$CBV?$basic_string@DU?$char_traits@D@std@@V?$allocator@D@2@@std@@V12@@std@@@2@@2@@std@@YA?AU?$pair@V?$basic_string@DU?$char_traits@D@std@@V?$allocator@D@2@@std@@PAV?$map@V?$basic_string@DU?$char_traits@D@std@@V?$allocator@D@2@@std@@V12@U?$less@V?$basic_string@DU?$char_traits@D@std@@V?$allocator@D@2@@std@@@2@V?$allocator@U?$pair@$$CBV?$basic_string@DU?$char_traits@D@std@@V?$allocator@D@2@@std@@V12@@std@@@2@@2@@0@V?$basic_string@DU?$char_traits@D@std@@V?$allocator@D@2@@0@PAV?$map@V?$basic_string@DU?$char_traits@D@std@@V?$allocator@D@2@@std@@V12@U?$less@V?$basic_string@DU?$char_traits@D@std@@V?$allocator@D@2@@std@@@2@V?$allocator@U?$pair@$$CBV?$basic_string@DU?$char_traits@D@std@@V?$allocator@D@2@@std@@V12@@std@@@2@@0@@Z 004475c8 f   utility_s:INIParser.obj
 0001:000465f0       __unwindfunclet$??$?0PADPAD@?$pair@$$CBV?$basic_string@DU?$char_traits@D@std@@V?$allocator@D@2@@std@@V12@@std@@QAE@ABU?$pair@PADPAD@1@@Z$0 004475f0 f   utility_s:INIParser.obj
 0001:000465f8       __ehhandler$??$?0PADPAD@?$pair@$$CBV?$basic_string@DU?$char_traits@D@std@@V?$allocator@D@2@@std@@V12@@std@@QAE@ABU?$pair@PADPAD@1@@Z 004475f8 f   utility_s:INIParser.obj
 0001:00046620       __unwindfunclet$?_Buynode@?$_Tree@V?$_Tmap_traits@V?$basic_string@DU?$char_traits@D@std@@V?$allocator@D@2@@std@@PAV?$map@V?$basic_string@DU?$char_traits@D@std@@V?$allocator@D@2@@std@@V12@U?$less@V?$basic_string@DU?$char_traits@D@std@@V?$allocator@D@2@@std@@@2@V?$allocator@U?$pair@$$CBV?$basic_string@DU?$char_traits@D@std@@V?$allocator@D@2@@std@@V12@@std@@@2@@2@U?$less@V?$basic_string@DU?$char_traits@D@std@@V?$allocator@D@2@@std@@@2@V?$allocator@U?$pair@$$CBV?$basic_string@DU?$char_traits@D@std@@V?$allocator@D@2@@std@@PAV?$map@V?$basic_string@DU?$char_traits@D@std@@V?$allocator@D@2@@std@@V12@U?$less@V?$basic_string@DU?$char_traits@D@std@@V?$allocator@D@2@@std@@@2@V?$allocator@U?$pair@$$CBV?$basic_string@DU?$char_traits@D@std@@V?$allocator@D@2@@std@@V12@@std@@@2@@2@@std@@@2@$0A@@std@@@std@@IAEPAU_Node@?$_Tree_nod@V?$_Tmap_traits@V?$basic_string@DU?$char_traits@D@std@@V?$allocator@D@2@@std@@PAV?$map@V?$basic_string@DU?$char_traits@D@std@@V?$allocator@D@2@@std@@V12@U?$less@V?$basic_string@DU?$char_traits@D@std@@V?$allocator@D@2@@std@@@2@V?$allocator@U?$pair@$$CBV?$basic_string@DU?$char_traits@D@std@@V?$allocator@D@2@@std@@V12@@std@@@2@@2@U?$less@V?$basic_string@DU?$char_traits@D@std@@V?$allocator@D@2@@std@@@2@V?$allocator@U?$pair@$$CBV?$basic_string@DU?$char_traits@D@std@@V?$allocator@D@2@@std@@PAV?$map@V?$basic_string@DU?$char_traits@D@std@@V?$allocator@D@2@@std@@V12@U?$less@V?$basic_string@DU?$char_traits@D@std@@V?$allocator@D@2@@std@@@2@V?$allocator@U?$pair@$$CBV?$basic_string@DU?$char_traits@D@std@@V?$allocator@D@2@@std@@V12@@std@@@2@@2@@std@@@2@$0A@@std@@@2@PAU342@00ABU?$pair@$$CBV?$basic_string@DU?$char_traits@D@std@@V?$allocator@D@2@@std@@PAV?$map@V?$basic_string@DU?$char_traits@D@std@@V?$allocator@D@2@@std@@V12@U?$less@V?$basic_string@DU?$char_traits@D@std@@V?$allocator@D@2@@std@@@2@V?$allocator@U?$pair@$$CBV?$basic_string@DU?$char_traits@D@std@@V?$allocator@D@2@@std@@V12@@std@@@2@@2@@2@D@Z$2 00447620 f   utility_s:INIParser.obj
 0001:00046631       __ehhandler$?_Buynode@?$_Tree@V?$_Tmap_traits@V?$basic_string@DU?$char_traits@D@std@@V?$allocator@D@2@@std@@PAV?$map@V?$basic_string@DU?$char_traits@D@std@@V?$allocator@D@2@@std@@V12@U?$less@V?$basic_string@DU?$char_traits@D@std@@V?$allocator@D@2@@std@@@2@V?$allocator@U?$pair@$$CBV?$basic_string@DU?$char_traits@D@std@@V?$allocator@D@2@@std@@V12@@std@@@2@@2@U?$less@V?$basic_string@DU?$char_traits@D@std@@V?$allocator@D@2@@std@@@2@V?$allocator@U?$pair@$$CBV?$basic_string@DU?$char_traits@D@std@@V?$allocator@D@2@@std@@PAV?$map@V?$basic_string@DU?$char_traits@D@std@@V?$allocator@D@2@@std@@V12@U?$less@V?$basic_string@DU?$char_traits@D@std@@V?$allocator@D@2@@std@@@2@V?$allocator@U?$pair@$$CBV?$basic_string@DU?$char_traits@D@std@@V?$allocator@D@2@@std@@V12@@std@@@2@@2@@std@@@2@$0A@@std@@@std@@IAEPAU_Node@?$_Tree_nod@V?$_Tmap_traits@V?$basic_string@DU?$char_traits@D@std@@V?$allocator@D@2@@std@@PAV?$map@V?$basic_string@DU?$char_traits@D@std@@V?$allocator@D@2@@std@@V12@U?$less@V?$basic_string@DU?$char_traits@D@std@@V?$allocator@D@2@@std@@@2@V?$allocator@U?$pair@$$CBV?$basic_string@DU?$char_traits@D@std@@V?$allocator@D@2@@std@@V12@@std@@@2@@2@U?$less@V?$basic_string@DU?$char_traits@D@std@@V?$allocator@D@2@@std@@@2@V?$allocator@U?$pair@$$CBV?$basic_string@DU?$char_traits@D@std@@V?$allocator@D@2@@std@@PAV?$map@V?$basic_string@DU?$char_traits@D@std@@V?$allocator@D@2@@std@@V12@U?$less@V?$basic_string@DU?$char_traits@D@std@@V?$allocator@D@2@@std@@@2@V?$allocator@U?$pair@$$CBV?$basic_string@DU?$char_traits@D@std@@V?$allocator@D@2@@std@@V12@@std@@@2@@2@@std@@@2@$0A@@std@@@2@PAU342@00ABU?$pair@$$CBV?$basic_string@DU?$char_traits@D@std@@V?$allocator@D@2@@std@@PAV?$map@V?$basic_string@DU?$char_traits@D@std@@V?$allocator@D@2@@std@@V12@U?$less@V?$basic_string@DU?$char_traits@D@std@@V?$allocator@D@2@@std@@@2@V?$allocator@U?$pair@$$CBV?$basic_string@DU?$char_traits@D@std@@V?$allocator@D@2@@std@@V12@@std@@@2@@2@@2@D@Z 00447631 f   utility_s:INIParser.obj
 0001:00046650       __unwindfunclet$?_Buynode@?$_Tree@V?$_Tmap_traits@V?$basic_string@DU?$char_traits@D@std@@V?$allocator@D@2@@std@@V12@U?$less@V?$basic_string@DU?$char_traits@D@std@@V?$allocator@D@2@@std@@@2@V?$allocator@U?$pair@$$CBV?$basic_string@DU?$char_traits@D@std@@V?$allocator@D@2@@std@@V12@@std@@@2@$0A@@std@@@std@@IAEPAU_Node@?$_Tree_nod@V?$_Tmap_traits@V?$basic_string@DU?$char_traits@D@std@@V?$allocator@D@2@@std@@V12@U?$less@V?$basic_string@DU?$char_traits@D@std@@V?$allocator@D@2@@std@@@2@V?$allocator@U?$pair@$$CBV?$basic_string@DU?$char_traits@D@std@@V?$allocator@D@2@@std@@V12@@std@@@2@$0A@@std@@@2@PAU342@00ABU?$pair@$$CBV?$basic_string@DU?$char_traits@D@std@@V?$allocator@D@2@@std@@V12@@2@D@Z$2 00447650 f   utility_s:INIParser.obj
 0001:00046661       __ehhandler$?_Buynode@?$_Tree@V?$_Tmap_traits@V?$basic_string@DU?$char_traits@D@std@@V?$allocator@D@2@@std@@V12@U?$less@V?$basic_string@DU?$char_traits@D@std@@V?$allocator@D@2@@std@@@2@V?$allocator@U?$pair@$$CBV?$basic_string@DU?$char_traits@D@std@@V?$allocator@D@2@@std@@V12@@std@@@2@$0A@@std@@@std@@IAEPAU_Node@?$_Tree_nod@V?$_Tmap_traits@V?$basic_string@DU?$char_traits@D@std@@V?$allocator@D@2@@std@@V12@U?$less@V?$basic_string@DU?$char_traits@D@std@@V?$allocator@D@2@@std@@@2@V?$allocator@U?$pair@$$CBV?$basic_string@DU?$char_traits@D@std@@V?$allocator@D@2@@std@@V12@@std@@@2@$0A@@std@@@2@PAU342@00ABU?$pair@$$CBV?$basic_string@DU?$char_traits@D@std@@V?$allocator@D@2@@std@@V12@@2@D@Z 00447661 f   utility_s:INIParser.obj
 0001:00046680       __unwindfunclet$??1?$_Tree@V?$_Tmap_traits@V?$basic_string@DU?$char_traits@D@std@@V?$allocator@D@2@@std@@PAV?$map@V?$basic_string@DU?$char_traits@D@std@@V?$allocator@D@2@@std@@V12@U?$less@V?$basic_string@DU?$char_traits@D@std@@V?$allocator@D@2@@std@@@2@V?$allocator@U?$pair@$$CBV?$basic_string@DU?$char_traits@D@std@@V?$allocator@D@2@@std@@V12@@std@@@2@@2@U?$less@V?$basic_string@DU?$char_traits@D@std@@V?$allocator@D@2@@std@@@2@V?$allocator@U?$pair@$$CBV?$basic_string@DU?$char_traits@D@std@@V?$allocator@D@2@@std@@PAV?$map@V?$basic_string@DU?$char_traits@D@std@@V?$allocator@D@2@@std@@V12@U?$less@V?$basic_string@DU?$char_traits@D@std@@V?$allocator@D@2@@std@@@2@V?$allocator@U?$pair@$$CBV?$basic_string@DU?$char_traits@D@std@@V?$allocator@D@2@@std@@V12@@std@@@2@@2@@std@@@2@$0A@@std@@@std@@QAE@XZ$0 00447680 f   utility_s:INIParser.obj
 0001:00046680       __unwindfunclet$??1?$_Tree@V?$_Tmap_traits@V?$basic_string@DU?$char_traits@D@std@@V?$allocator@D@2@@std@@V12@U?$less@V?$basic_string@DU?$char_traits@D@std@@V?$allocator@D@2@@std@@@2@V?$allocator@U?$pair@$$CBV?$basic_string@DU?$char_traits@D@std@@V?$allocator@D@2@@std@@V12@@std@@@2@$0A@@std@@@std@@QAE@XZ$0 00447680 f   utility_s:INIParser.obj
 0001:00046680       __unwindfunclet$??1?$_Tree@V?$_Tmap_traits@PAVServerSessionEx@@HU?$less@PAVServerSessionEx@@@std@@V?$allocator@U?$pair@QAVServerSessionEx@@H@std@@@3@$0A@@std@@@std@@QAE@XZ$0 00447680 f   utility_s:INIParser.obj
 0001:00046688       __ehhandler$??1?$_Tree@V?$_Tmap_traits@PAVServerSessionEx@@HU?$less@PAVServerSessionEx@@@std@@V?$allocator@U?$pair@QAVServerSessionEx@@H@std@@@3@$0A@@std@@@std@@QAE@XZ 00447688 f   utility_s:INIParser.obj
 0001:00046688       __ehhandler$??1?$_Tree@V?$_Tmap_traits@V?$basic_string@DU?$char_traits@D@std@@V?$allocator@D@2@@std@@PAV?$map@V?$basic_string@DU?$char_traits@D@std@@V?$allocator@D@2@@std@@V12@U?$less@V?$basic_string@DU?$char_traits@D@std@@V?$allocator@D@2@@std@@@2@V?$allocator@U?$pair@$$CBV?$basic_string@DU?$char_traits@D@std@@V?$allocator@D@2@@std@@V12@@std@@@2@@2@U?$less@V?$basic_string@DU?$char_traits@D@std@@V?$allocator@D@2@@std@@@2@V?$allocator@U?$pair@$$CBV?$basic_string@DU?$char_traits@D@std@@V?$allocator@D@2@@std@@PAV?$map@V?$basic_string@DU?$char_traits@D@std@@V?$allocator@D@2@@std@@V12@U?$less@V?$basic_string@DU?$char_traits@D@std@@V?$allocator@D@2@@std@@@2@V?$allocator@U?$pair@$$CBV?$basic_string@DU?$char_traits@D@std@@V?$allocator@D@2@@std@@V12@@std@@@2@@2@@std@@@2@$0A@@std@@@std@@QAE@XZ 00447688 f   utility_s:INIParser.obj
 0001:00046688       __ehhandler$??1?$_Tree@V?$_Tmap_traits@V?$basic_string@DU?$char_traits@D@std@@V?$allocator@D@2@@std@@V12@U?$less@V?$basic_string@DU?$char_traits@D@std@@V?$allocator@D@2@@std@@@2@V?$allocator@U?$pair@$$CBV?$basic_string@DU?$char_traits@D@std@@V?$allocator@D@2@@std@@V12@@std@@@2@$0A@@std@@@std@@QAE@XZ 00447688 f   utility_s:INIParser.obj
 0001:000466b0       __unwindfunclet$?INILoad@INIParser@util@@QAE_NXZ$0 004476b0 f   utility_s:INIParser.obj
 0001:000466b8       __unwindfunclet$?INILoad@INIParser@util@@QAE_NXZ$1 004476b8 f   utility_s:INIParser.obj
 0001:000466c6       __unwindfunclet$?INILoad@INIParser@util@@QAE_NXZ$3 004476c6 f   utility_s:INIParser.obj
 0001:000466ce       __unwindfunclet$?INILoad@INIParser@util@@QAE_NXZ$4 004476ce f   utility_s:INIParser.obj
 0001:000466d9       __unwindfunclet$?INILoad@INIParser@util@@QAE_NXZ$5 004476d9 f   utility_s:INIParser.obj
 0001:000466e1       __ehhandler$?INILoad@INIParser@util@@QAE_NXZ 004476e1 f   utility_s:INIParser.obj
 0001:00046710       __unwindfunclet$??1INIParser@util@@QAE@XZ$0 00447710 f   utility_s:INIParser.obj
 0001:00046718       __ehhandler$??1INIParser@util@@QAE@XZ 00447718 f   utility_s:INIParser.obj
 0001:00046740       __unwindfunclet$?make_balanced_buckets@WxHashTableBase@internal@util@@SAXPAV123@@Z$0 00447740 f   utility_s:SolarHashTable.obj
 0001:00046748       __ehhandler$?make_balanced_buckets@WxHashTableBase@internal@util@@SAXPAV123@@Z 00447748 f   utility_s:SolarHashTable.obj
 0001:00046763       __unwindfunclet$?_Xran@_String_base@std@@SAXXZ$0 00447763 f   libcpmt:string.obj
 0001:00046763       __unwindfunclet$?_Xlen@_String_base@std@@SAXXZ$0 00447763 f   libcpmt:string.obj
 0001:0004676b       __ehhandler$?_Xran@_String_base@std@@SAXXZ 0044776b f   libcpmt:string.obj
 0001:0004676b       __ehhandler$?_Xlen@_String_base@std@@SAXXZ 0044776b f   libcpmt:string.obj
 0001:00046790       __unwindfunclet$?system_category@system@boost@@YAABVerror_category@12@XZ$0 00447790 f   libboost_system-vc90-mt-s-1_60:error_code.obj
 0001:0004679e       __ehhandler$?system_category@system@boost@@YAABVerror_category@12@XZ 0044779e f   libboost_system-vc90-mt-s-1_60:error_code.obj
 0001:000467c0       __unwindfunclet$?generic_category@system@boost@@YAABVerror_category@12@XZ$0 004477c0 f   libboost_system-vc90-mt-s-1_60:error_code.obj
 0001:000467ce       __ehhandler$?generic_category@system@boost@@YAABVerror_category@12@XZ 004477ce f   libboost_system-vc90-mt-s-1_60:error_code.obj
 0001:000467f0       __unwindfunclet$?message@generic_error_category@?A0xa00a0bbd@system@boost@@UBE?AV?$basic_string@DU?$char_traits@D@std@@V?$allocator@D@2@@std@@H@Z$0 004477f0 f   libboost_system-vc90-mt-s-1_60:error_code.obj
 0001:000467fe       __unwindfunclet$?message@generic_error_category@?A0xa00a0bbd@system@boost@@UBE?AV?$basic_string@DU?$char_traits@D@std@@V?$allocator@D@2@@std@@H@Z$1 004477fe f   libboost_system-vc90-mt-s-1_60:error_code.obj
 0001:00046817       __unwindfunclet$?message@generic_error_category@?A0xa00a0bbd@system@boost@@UBE?AV?$basic_string@DU?$char_traits@D@std@@V?$allocator@D@2@@std@@H@Z$2 00447817 f   libboost_system-vc90-mt-s-1_60:error_code.obj
 0001:00046830       __ehhandler$?message@generic_error_category@?A0xa00a0bbd@system@boost@@UBE?AV?$basic_string@DU?$char_traits@D@std@@V?$allocator@D@2@@std@@H@Z 00447830 f   libboost_system-vc90-mt-s-1_60:error_code.obj
 0001:00046850       __unwindfunclet$?message@system_error_category@?A0xa00a0bbd@system@boost@@UBE?AV?$basic_string@DU?$char_traits@D@std@@V?$allocator@D@2@@std@@H@Z$0 00447850 f   libboost_system-vc90-mt-s-1_60:error_code.obj
 0001:00046858       __unwindfunclet$?message@system_error_category@?A0xa00a0bbd@system@boost@@UBE?AV?$basic_string@DU?$char_traits@D@std@@V?$allocator@D@2@@std@@H@Z$1 00447858 f   libboost_system-vc90-mt-s-1_60:error_code.obj
 0001:00046871       __unwindfunclet$?message@system_error_category@?A0xa00a0bbd@system@boost@@UBE?AV?$basic_string@DU?$char_traits@D@std@@V?$allocator@D@2@@std@@H@Z$2 00447871 f   libboost_system-vc90-mt-s-1_60:error_code.obj
 0001:00046879       __ehhandler$?message@system_error_category@?A0xa00a0bbd@system@boost@@UBE?AV?$basic_string@DU?$char_traits@D@std@@V?$allocator@D@2@@std@@H@Z 00447879 f   libboost_system-vc90-mt-s-1_60:error_code.obj
 0001:000468b0       $L40232                    004478b0 f   Network:IOCPServer.obj
 0001:000468bb       __ehhandler$?CreateIoHandler@IOCPServer@@AAEXPAUtagIOHANDLER_DESC@@@Z 004478bb f   Network:IOCPServer.obj
 0001:000468d0       $L40895                    004478d0 f   Network:IOCPServer.obj
 0001:000468db       __ehhandler$??0IOCPServer@@QAE@XZ 004478db f   Network:IOCPServer.obj
 0001:000468f0       $L31399                    004478f0 f   Network:Session.obj
 0001:000468f0       $L31423                    004478f0 f   Network:Session.obj
 0001:000468f0       $L30909                    004478f0 f   Network:Session.obj
 0001:000468f0       $L35090                    004478f0 f   Network:Session.obj
 0001:000468f0       $L32821                    004478f0 f   Network:Session.obj
 0001:00046901       __ehhandler$?Allocate@?$TAllocator@VSendBuffer@@@module@@SAPAVSendBuffer@@XZ 00447901 f   Network:Session.obj
 0001:00046901       __ehhandler$?Allocate@?$TAllocator@VRecvBuffer@@@module@@SAPAVRecvBuffer@@XZ 00447901 f   Network:Session.obj
 0001:00046901       __ehhandler$?Allocate@?$TAllocator@VSessionList@@@module@@SAPAVSessionList@@XZ 00447901 f   Network:Session.obj
 0001:00046901       __ehhandler$?Create@SendBuffer@@QAEXKK@Z 00447901 f   Network:Session.obj
 0001:00046901       __ehhandler$?Create@SessionPool@@AAEXKKKKKKH@Z 00447901 f   Network:Session.obj
 0001:00046910       $L30964                    00447910 f   Network:SendBuffer.obj
 0001:00046918       __ehhandler$?PrepareSend@SendBuffer@@QAE_NQAURingBufferInfo@module@@@Z 00447918 f   Network:SendBuffer.obj
 0001:00046930       $L30911                    00447930 f   Network:RecvBuffer.obj
 0001:00046941       __ehhandler$?Create@RecvBuffer@@QAEXHK@Z 00447941 f   Network:RecvBuffer.obj
 0001:00046950       $L30973                    00447950 f   Network:RecvBuffer.obj
 0001:00046958       __ehhandler$?PrepareRecv@RecvBuffer@@QAE_NQAURingBufferInfo@module@@@Z 00447958 f   Network:RecvBuffer.obj
 0001:00046970       $L33963                    00447970 f   Network:IoHandler.obj
 0001:0004697b       $L33964                    0044797b f   Network:IoHandler.obj
 0001:00046986       $L33965                    00447986 f   Network:IoHandler.obj
 0001:00046991       $L33966                    00447991 f   Network:IoHandler.obj
 0001:0004699c       $L33967                    0044799c f   Network:IoHandler.obj
 0001:000469a7       $L33968                    004479a7 f   Network:IoHandler.obj
 0001:000469b2       $L33969                    004479b2 f   Network:IoHandler.obj
 0001:000469bd       $L33970                    004479bd f   Network:IoHandler.obj
 0001:000469c8       $L33971                    004479c8 f   Network:IoHandler.obj
 0001:000469d3       $L33972                    004479d3 f   Network:IoHandler.obj
 0001:000469de       __ehhandler$?Init@IoHandler@@QAEXPAVIOCPServer@@PAUtagIOHANDLER_DESC@@@Z 004479de f   Network:IoHandler.obj
 0001:000469f0       $L39289                    004479f0 f   Network:IoHandler.obj
 0001:000469f0       $L36366                    004479f0 f   Network:IoHandler.obj
 0001:000469f0       $L38681                    004479f0 f   Network:IoHandler.obj
 0001:000469f8       __ehhandler$?_Insert@?$_Tree@V?$_Tmap_traits@KPAVIoHandler@@U?$less@K@std@@V?$RedirectedAllocator@PAVIoHandler@@@module@@$0A@@std@@@std@@IAE?AViterator@12@_NPAU_Node@?$_Tree_nod@V?$_Tmap_traits@KPAVIoHandler@@U?$less@K@std@@V?$RedirectedAllocator@PAVIoHandler@@@module@@$0A@@std@@@2@ABU?$pair@$$CBKPAVIoHandler@@@2@@Z 004479f8 f   Network:IoHandler.obj
 0001:000469f8       __ehhandler$?_Incsize@?$list@PAVSession@@V?$RedirectedAllocator@PAVSession@@@module@@@std@@IAEXI@Z 004479f8 f   Network:IoHandler.obj
 0001:000469f8       __ehhandler$?erase@?$_Tree@V?$_Tmap_traits@KPAVIoHandler@@U?$less@K@std@@V?$RedirectedAllocator@PAVIoHandler@@@module@@$0A@@std@@@std@@QAE?AViterator@12@V312@@Z 004479f8 f   Network:IoHandler.obj
 0001:00046a10       __ehhandler$??$_Insert@Viterator@?$list@PAVSession@@V?$RedirectedAllocator@PAVSession@@@module@@@std@@@?$list@PAVSession@@V?$RedirectedAllocator@PAVSession@@@module@@@std@@QAEXViterator@01@00Uforward_iterator_tag@1@@Z 00447a10 f   Network:IoHandler.obj
 0001:00046a20       $L32816                    00447a20 f   Network:Connector.obj
 0001:00046a2b       __ehhandler$?Init@Connector@@QAEXPAVIoHandler@@K@Z 00447a2b f   Network:Connector.obj
 0001:00046a40       $L32932                    00447a40 f   Network:SessionList.obj
 0001:00046a48       __ehhandler$??1SessionList@@QAE@XZ 00447a48 f   Network:SessionList.obj
 0001:00046a60       $L20875                    00447a60 f   MOLA_DDA:CryptManagerS2S.obj
 0001:00046a6b       __ehhandler$?CreateCryptManagerFromCryptKeyStream@CryptManagerS2S@@SAPAV1@EPAUsCRYPT_KEY_STREAM@@E@Z 00447a6b f   MOLA_DDA:CryptManagerS2S.obj
 0001:00046a80       $L20388                    00447a80 f   MOLA_DDA:CryptHSEL.obj
 0001:00046a80       $L20373                    00447a80 f   MOLA_DDA:CryptHSEL.obj
 0001:00046a8e       __ehhandler$??1CryptHSEL@@UAE@XZ 00447a8e f   MOLA_DDA:CryptHSEL.obj
 0001:00046a8e       __ehhandler$??0CryptHSEL@@QAE@XZ 00447a8e f   MOLA_DDA:CryptHSEL.obj
 0001:00046a98       __ehhandler$?CallUnexpected@@YAXPBU_s_ESTypeList@@@Z 00447a98 f   LIBCMT:frame.obj
 0001:00046ab3       __ehhandler$??2@YAPAXIABUnothrow_t@std@@@Z 00447ab3 f   LIBCMT:newopnt.obj
 0001:00046ad0       ??__Es_pPacketHandler@@YAXXZ 00447ad0 f   PacketHandler.obj
 0001:00046ae0       ??__Eg_Console@@YAXXZ      00447ae0 f   main.obj
 0001:00046b00       ??__Eposix_category@system@boost@@YAXXZ 00447b00 f   stdafx.obj
 0001:00046b10       ??__Eerrno_ecat@system@boost@@YAXXZ 00447b10 f   stdafx.obj
 0001:00046b20       ??__Enative_ecat@system@boost@@YAXXZ 00447b20 f   stdafx.obj
 0001:00046b30       ??__Es_WorkLoadManagerDelegator@@YAXXZ 00447b30 f   servercommon:WorkLoadManager.obj
 0001:00046b40       ??__Eg_sSUNLOG@@YAXXZ      00447b40 f   servercommon:SunLog.obj
 0001:00046b90       ??__Eg_StatisticsManager@@YAXXZ 00447b90 f   servercommon:StatisticsManager.obj
 0001:00046ba0       ??__Es_ScriptDataManagerInteral@@YAXXZ 00447ba0 f   servercommon:ScriptDataManager.obj
 0001:00046bc0       ??__Einterchecker_main_thread_id_static@util@@YAXXZ 00447bc0 f   utility_s:SolarDateTime.obj
 0001:00046bd0       ??__Eautofree@@YAXXZ       00447bd0 f   utility_s:FilePackerManager.obj
 0001:00046bdc       ??__Einitlocks@std@@YAXXZ  00447bdc f   libcpmt:xlock.obj
 0001:00046c00       ??__Eposix_category@system@boost@@YAXXZ 00447c00 f   libboost_system-vc90-mt-s-1_60:error_code.obj
 0001:00046c10       ??__Eerrno_ecat@system@boost@@YAXXZ 00447c10 f   libboost_system-vc90-mt-s-1_60:error_code.obj
 0001:00046c20       ??__Enative_ecat@system@boost@@YAXXZ 00447c20 f   libboost_system-vc90-mt-s-1_60:error_code.obj
 0001:00046c30       ??__Ethrows@system@boost@@YAXXZ 00447c30 f   libboost_system-vc90-mt-s-1_60:error_code.obj
 0001:00046c40       ??__Fs_pPacketHandler@@YAXXZ 00447c40 f   PacketHandler.obj
 0001:00046c50       ??__Fg_Console@@YAXXZ      00447c50 f   main.obj
 0001:00046c60       ??__Fs_WorkLoadManagerDelegator@@YAXXZ 00447c60 f   servercommon:WorkLoadManager.obj
 0001:00046c70       ??__Fg_sSUNLOG@@YAXXZ      00447c70 f   servercommon:SunLog.obj
 0001:00046cd0       ??__Fg_StatisticsManager@@YAXXZ 00447cd0 f   servercommon:StatisticsManager.obj
 0001:00046ce0       ??__Fs_ScriptDataManagerInteral@@YAXXZ 00447ce0 f   servercommon:ScriptDataManager.obj
 0001:00046cf0       ??__Fautofree@@YAXXZ       00447cf0 f   utility_s:FilePackerManager.obj
 0001:00046cf1       ??__Finitlocks@std@@YAXXZ  00447cf1 f   libcpmt:xlock.obj
 0001:00046d00       ??__Fsystem_category_const@?1??system_category@system@boost@@YAABVerror_category@12@XZ@YAXXZ 00447d00 f   libboost_system-vc90-mt-s-1_60:error_code.obj
 0001:00046d10       ??__Fgeneric_category_const@?1??generic_category@system@boost@@YAABVerror_category@12@XZ@YAXXZ 00447d10 f   libboost_system-vc90-mt-s-1_60:error_code.obj
 0001:00046d20       ??__Funknown_err@?1??message@generic_error_category@?A0xa00a0bbd@system@boost@@UBE?AV?$basic_string@DU?$char_traits@D@std@@V?$allocator@D@2@@std@@H@Z@YAXXZ 00447d20 f   libboost_system-vc90-mt-s-1_60:error_code.obj
 0001:00046d4e       ??__Fnomem@?5???2@YAPAXI@Z@YAXXZ 00447d4e f   LIBCMT:new.obj
