 WorldServer

 Timestamp is 6160c503 (Sat Oct 09 07:24:03 2021)

 Preferred load address is 00400000

 Start         Length     Name                   Class
 0001:00000000 000b8ef2H .text                   CODE
 0001:000b8f00 00002a98H .text$x                 CODE
 0001:000bb9a0 000002e6H .text$yc                CODE
 0001:000bbc90 0000025eH .text$yd                CODE
 0002:00000000 000002dcH .idata$5                DATA
 0002:000002dc 00000004H .CRT$XCA                DATA
 0002:000002e0 00000004H .CRT$XCC                DATA
 0002:000002e4 00000068H .CRT$XCU                DATA
 0002:0000034c 00000004H .CRT$XCZ                DATA
 0002:00000350 00000004H .CRT$XIA                DATA
 0002:00000354 00000018H .CRT$XIC                DATA
 0002:0000036c 00000004H .CRT$XIY                DATA
 0002:00000370 00000004H .CRT$XIZ                DATA
 0002:00000374 00000004H .CRT$XPA                DATA
 0002:00000378 00000004H .CRT$XPX                DATA
 0002:0000037c 00000004H .CRT$XPXA               DATA
 0002:00000380 00000004H .CRT$XPY                DATA
 0002:00000384 00000004H .CRT$XPZ                DATA
 0002:00000388 00000004H .CRT$XTA                DATA
 0002:0000038c 00000004H .CRT$XTZ                DATA
 0002:00000390 00010218H .rdata                  DATA
 0002:000105a8 00000047H .rdata$debug            DATA
 0002:000105f0 00003400H .rdata$r                DATA
 0002:000139f0 00000360H .rdata$sxdata           DATA
 0002:00013d50 00000004H .rtc$IAA                DATA
 0002:00013d54 00000004H .rtc$IZZ                DATA
 0002:00013d58 00000004H .rtc$TAA                DATA
 0002:00013d5c 00000004H .rtc$TZZ                DATA
 0002:00013d60 000036bcH .xdata$x                DATA
 0002:0001741c 0000008cH .idata$2                DATA
 0002:000174a8 00000014H .idata$3                DATA
 0002:000174bc 000002dcH .idata$4                DATA
 0002:00017798 00000e0aH .idata$6                DATA
 0002:000185a2 00000000H .edata                  DATA
 0003:00000000 00004d64H .data                   DATA
 0003:00004d80 0000e348H .bss                    DATA

  Address         Publics by Value              Rva+Base       Lib:Object

 0000:00000000       __except_list              00000000     <absolute>
 0000:000000d8       ___safe_se_handler_count   000000d8     <absolute>
 0000:00000000       ___ImageBase               00400000     <linker-defined>
 0001:00000000       ?StartScanMemoryLeak@MemoryLeakReporter@util@@SAHXZ 00401000 f i main.obj
 0001:00000020       ?SharedMemoryAllocHook@MemoryLeakReporter@util@@CAXK@Z 00401020 f i main.obj
 0001:00000030       ?OnShutDown@WorldServiceApp@@UAEXXZ 00401030 f i main.obj
 0001:00000040       ?StartWorldServiceAppFunction@@YAXKPAPAD@Z 00401040 f   main.obj
 0001:00000060       ?ControlWorldServiceAppFunction@@YAXK@Z 00401060 f   main.obj
 0001:000000b0       ?SunEntryPoint@@YAHXZ      004010b0 f   main.obj
 0001:000000c0       _WinMain@16                004010c0 f   main.obj
 0001:00000200       ?Instance@?$Singleton@VWorldServer@@$00@util@@SAPAVWorldServer@@XZ 00401200 f i main.obj
 0001:00000280       ?Instance@?$Singleton@VWorldServerInfoParser@@$00@util@@SAPAVWorldServerInfoParser@@XZ 00401280 f i main.obj
 0001:00000300       ?RegisterSharedMemoryLeakReporter@MemoryLeakReporter@util@@SAHXZ 00401300 f i main.obj
 0001:00000310       ?Update@WorldServiceApp@@UAEXXZ 00401310 f i main.obj
 0001:00000340       ?OnStop@WorldServiceApp@@UAEXXZ 00401340 f i main.obj
 0001:00000350       ??_GWorldServiceApp@@UAEPAXI@Z 00401350 f i main.obj
 0001:00000350       ??_EWorldServiceApp@@UAEPAXI@Z 00401350 f i main.obj
 0001:00000370       ?DestroyInstance@?$Singleton@VWorldServer@@$00@util@@SAXXZ 00401370 f i main.obj
 0001:000003a0       ??1bad_alloc@std@@UAE@XZ   004013a0 f i WorldServer.obj
 0001:000003b0       ??_Gbad_alloc@std@@UAEPAXI@Z 004013b0 f i WorldServer.obj
 0001:000003b0       ??_Ebad_alloc@std@@UAEPAXI@Z 004013b0 f i WorldServer.obj
 0001:000003e0       ?Load3DTerrainLibrary@@YAPAUHINSTANCE__@@PBDPAP6APAXW4ENUM_CONTACT_TERRAIN@@PAX@Z@Z 004013e0 f i WorldServer.obj
 0001:00000420       ?DestroyClientSideConnectedObject@@YAXPAVNetworkObject@@@Z 00401420 f   WorldServer.obj
 0001:00000430       ?DestroyServerSideConnectedObject@@YAXPAVNetworkObject@@@Z 00401430 f   WorldServer.obj
 0001:00000440       ?StartListen@WorldServer@@QAEXPADG0G@Z 00401440 f   WorldServer.obj
 0001:00000500       ?ConnectToServer@WorldServer@@QAEXPAVNetworkObject@@PADG@Z 00401500 f   WorldServer.obj
 0001:00000520       ?SetGameDBProxyServerAddr@WorldServer@@QAEXPADG@Z 00401520 f   WorldServer.obj
 0001:00000530       ?SendGameDBProxy@WorldServer@@QAEXPAEG@Z 00401530 f   WorldServer.obj
 0001:00000550       ?GetGameDBProxy@WorldServer@@QBEPAVServerSession@@XZ 00401550 f   WorldServer.obj
 0001:00000560       ?ConnectToDBProxyServer@WorldServer@@QAEXXZ 00401560 f   WorldServer.obj
 0001:00000570       ?UpdateFPS@WorldServer@@AAEXXZ 00401570 f   WorldServer.obj
 0001:00000610       ?IsConnectedTo@WorldServer@@QAEHW4eSERVER_TYPE@@@Z 00401610 f   WorldServer.obj
 0001:00000640       ?StartWorldServer@WorldServer@@SAXXZ 00401640 f   WorldServer.obj
 0001:00000650       ?CreateClientSideAcceptedObject@@YAPAVNetworkObject@@XZ 00401650 f   WorldServer.obj
 0001:00000660       ?DestroyClientSideAcceptedObject@@YAXPAVNetworkObject@@@Z 00401660 f   WorldServer.obj
 0001:00000680       ?CreateServerSideAcceptedObject@@YAPAVNetworkObject@@XZ 00401680 f   WorldServer.obj
 0001:00000690       ?DestroyServerSideAcceptedObject@@YAXPAVNetworkObject@@@Z 00401690 f   WorldServer.obj
 0001:000006b0       ??0WorldServer@@QAE@XZ     004016b0 f   WorldServer.obj
 0001:000006f0       ??1WorldServer@@QAE@XZ     004016f0 f   WorldServer.obj
 0001:00000730       ?UpdateServerTitle@WorldServer@@QAEXXZ 00401730 f   WorldServer.obj
 0001:00000790       ?StartListen@WorldServer@@QAEXXZ 00401790 f   WorldServer.obj
 0001:000008e0       ?ReadAndSendNotice@WorldServer@@QAEXXZ 004018e0 f   WorldServer.obj
 0001:00000a20       ?DisplayServerInfo@WorldServer@@AAEXXZ 00401a20 f   WorldServer.obj
 0001:00000ad0       ?CreateSunLog@WorldServer@@AAEHXZ 00401ad0 f   WorldServer.obj
 0001:00000c10       ?CreateGameLog@WorldServer@@AAEHXZ 00401c10 f   WorldServer.obj
 0001:00000dd0       ?Release@WorldServer@@QAEXXZ 00401dd0 f   WorldServer.obj
 0001:00001110       ?MaintainConnection@WorldServer@@AAEXXZ 00402110 f   WorldServer.obj
 0001:000011d0       ?ConnectToGameDBProxyServer@WorldServer@@QAEXXZ 004021d0 f   WorldServer.obj
 0001:00001210       ?Init@WorldServer@@QAEHXZ  00402210 f   WorldServer.obj
 0001:000015f0       ?DisplayServerListInfo@WorldServer@@QAEXXZ 004025f0 f   WorldServer.obj
 0001:000017f0       ?ProcessConsole@WorldServer@@QAEHXZ 004027f0 f   WorldServer.obj
 0001:00001970       ?Update@WorldServer@@QAEHXZ 00402970 f   WorldServer.obj
 0001:00001a40       ?Run@WorldServer@@QAEXXZ   00402a40 f   WorldServer.obj
 0001:00001ad0       ?Instance@?$Singleton@VPacketHandler@@$00@util@@SAPAVPacketHandler@@XZ 00402ad0 f i WorldServer.obj
 0001:00001b50       ?Instance@?$Singleton@VServerSessionFactory@@$00@util@@SAPAVServerSessionFactory@@XZ 00402b50 f i WorldServer.obj
 0001:00001bd0       ?Instance@?$Singleton@VServerSessionManager@@$00@util@@SAPAVServerSessionManager@@XZ 00402bd0 f i WorldServer.obj
 0001:00001c50       ?Instance@?$Singleton@VUserFactory@@$00@util@@SAPAVUserFactory@@XZ 00402c50 f i WorldServer.obj
 0001:00001cd0       ?Instance@?$Singleton@VWaitingUserList@@$00@util@@SAPAVWaitingUserList@@XZ 00402cd0 f i WorldServer.obj
 0001:00001d50       ?Instance@?$Singleton@VUserManager@@$00@util@@SAPAVUserManager@@XZ 00402d50 f i WorldServer.obj
 0001:00001dd0       ?Instance@?$Singleton@VChatZoneFactory@@$00@util@@SAPAVChatZoneFactory@@XZ 00402dd0 f i WorldServer.obj
 0001:00001e50       ?Instance@?$Singleton@VViewPortZoneFactory@@$00@util@@SAPAVViewPortZoneFactory@@XZ 00402e50 f i WorldServer.obj
 0001:00001ed0       ?Instance@?$Singleton@VVillageZoneFactory@@$00@util@@SAPAVVillageZoneFactory@@XZ 00402ed0 f i WorldServer.obj
 0001:00001f50       ?Instance@?$Singleton@VChatRoomManager@@$00@util@@SAPAVChatRoomManager@@XZ 00402f50 f i WorldServer.obj
 0001:00001fd0       ?_Max@?$_Tree@V?$_Tmap_traits@KPAVFriendInvitationCommand@@U?$less@K@std@@V?$CustomAllocator@PAVFriendInvitationCommand@@@util@@$0A@@std@@@std@@KAPAU_Node@?$_Tree_nod@V?$_Tmap_traits@KPAVFriendInvitationCommand@@U?$less@K@std@@V?$CustomAllocator@PAVFriendInvitationCommand@@@util@@$0A@@std@@@2@PAU342@@Z 00402fd0 f i servercommon:FriendInvitationInvoker.obj
 0001:00001fd0       ?_Max@?$_Tree@V?$_Tmap_traits@KPAVChannel@@U?$less@K@std@@V?$CustomAllocator@PAVChannel@@@util@@$0A@@std@@@std@@KAPAU_Node@?$_Tree_nod@V?$_Tmap_traits@KPAVChannel@@U?$less@K@std@@V?$CustomAllocator@PAVChannel@@@util@@$0A@@std@@@2@PAU342@@Z 00402fd0 f i ChannelManager.obj
 0001:00001fd0       ?_Max@?$_Tree@V?$_Tmap_traits@KPAUSTRUCT_BLOCK_INFO@@U?$less@K@std@@V?$CustomAllocator@PAUSTRUCT_BLOCK_INFO@@@util@@$0A@@std@@@std@@KAPAU_Node@?$_Tree_nod@V?$_Tmap_traits@KPAUSTRUCT_BLOCK_INFO@@U?$less@K@std@@V?$CustomAllocator@PAUSTRUCT_BLOCK_INFO@@@util@@$0A@@std@@@2@PAU342@@Z 00402fd0 f i User.obj
 0001:00001fd0       ?_Max@?$_Tree@V?$_Tmap_traits@KPAVUser@@U?$less@K@std@@V?$CustomAllocator@PAVUser@@@util@@$0A@@std@@@std@@KAPAU_Node@?$_Tree_nod@V?$_Tmap_traits@KPAVUser@@U?$less@K@std@@V?$CustomAllocator@PAVUser@@@util@@$0A@@std@@@2@PAU342@@Z 00402fd0 f i User.obj
 0001:00001fd0       ?_Max@?$_Tree@V?$_Tmap_traits@KPAUSTRUCT_REVENGE_INFO@@U?$less@K@std@@V?$CustomAllocator@PAUSTRUCT_REVENGE_INFO@@@util@@$0A@@std@@@std@@KAPAU_Node@?$_Tree_nod@V?$_Tmap_traits@KPAUSTRUCT_REVENGE_INFO@@U?$less@K@std@@V?$CustomAllocator@PAUSTRUCT_REVENGE_INFO@@@util@@$0A@@std@@@2@PAU342@@Z 00402fd0 f i User.obj
 0001:00001fd0       ?_Max@?$_Tree@V?$_Tmap_traits@KPAVServerSession@@U?$less@K@std@@V?$CustomAllocator@PAVServerSession@@@util@@$0A@@std@@@std@@KAPAU_Node@?$_Tree_nod@V?$_Tmap_traits@KPAVServerSession@@U?$less@K@std@@V?$CustomAllocator@PAVServerSession@@@util@@$0A@@std@@@2@PAU342@@Z 00402fd0 f i WorldServer.obj
 0001:00001fd0       ?_Max@?$_Tree@V?$_Tmap_traits@KPAVFieldInfo@@U?$less@K@std@@V?$CustomAllocator@PAVFieldInfo@@@util@@$0A@@std@@@std@@KAPAU_Node@?$_Tree_nod@V?$_Tmap_traits@KPAVFieldInfo@@U?$less@K@std@@V?$CustomAllocator@PAVFieldInfo@@@util@@$0A@@std@@@2@PAU342@@Z 00402fd0 f i ChannelManager.obj
 0001:00001fd0       ?_Max@?$_Tree@V?$_Tmap_traits@KPAUSTRUCT_FRIEND_INFO@@U?$less@K@std@@V?$CustomAllocator@PAUSTRUCT_FRIEND_INFO@@@util@@$0A@@std@@@std@@KAPAU_Node@?$_Tree_nod@V?$_Tmap_traits@KPAUSTRUCT_FRIEND_INFO@@U?$less@K@std@@V?$CustomAllocator@PAUSTRUCT_FRIEND_INFO@@@util@@$0A@@std@@@2@PAU342@@Z 00402fd0 f i FriendMap.obj
 0001:00001fd0       ?_Max@?$_Tree@V?$_Tmap_traits@KPAUSTRUCT_GROUP_MEMBER_INFO@@U?$less@K@std@@V?$CustomAllocator@PAUSTRUCT_GROUP_MEMBER_INFO@@@util@@$0A@@std@@@std@@KAPAU_Node@?$_Tree_nod@V?$_Tmap_traits@KPAUSTRUCT_GROUP_MEMBER_INFO@@U?$less@K@std@@V?$CustomAllocator@PAUSTRUCT_GROUP_MEMBER_INFO@@@util@@$0A@@std@@@2@PAU342@@Z 00402fd0 f i User.obj
 0001:00001fd0       ?_Max@?$_Tree@V?$_Tmap_traits@KPBUsMAP_ENTERENCE_PORTAL_BASE@@U?$less@K@std@@V?$CustomAllocator@PBUsMAP_ENTERENCE_PORTAL_BASE@@@util@@$0A@@std@@@std@@KAPAU_Node@?$_Tree_nod@V?$_Tmap_traits@KPBUsMAP_ENTERENCE_PORTAL_BASE@@U?$less@K@std@@V?$CustomAllocator@PBUsMAP_ENTERENCE_PORTAL_BASE@@@util@@$0A@@std@@@2@PAU342@@Z 00402fd0 f i programcommon_s:MapInfoParser.obj
 0001:00001ff0       ?_Min@?$_Tree@V?$_Tmap_traits@KPAUSTRUCT_FRIEND_INFO@@U?$less@K@std@@V?$CustomAllocator@PAUSTRUCT_FRIEND_INFO@@@util@@$0A@@std@@@std@@KAPAU_Node@?$_Tree_nod@V?$_Tmap_traits@KPAUSTRUCT_FRIEND_INFO@@U?$less@K@std@@V?$CustomAllocator@PAUSTRUCT_FRIEND_INFO@@@util@@$0A@@std@@@2@PAU342@@Z 00402ff0 f i User.obj
 0001:00001ff0       ?_Min@?$_Tree@V?$_Tmap_traits@KPAUSTRUCT_GROUP_MEMBER_INFO@@U?$less@K@std@@V?$CustomAllocator@PAUSTRUCT_GROUP_MEMBER_INFO@@@util@@$0A@@std@@@std@@KAPAU_Node@?$_Tree_nod@V?$_Tmap_traits@KPAUSTRUCT_GROUP_MEMBER_INFO@@U?$less@K@std@@V?$CustomAllocator@PAUSTRUCT_GROUP_MEMBER_INFO@@@util@@$0A@@std@@@2@PAU342@@Z 00402ff0 f i User.obj
 0001:00001ff0       ?_Min@?$_Tree@V?$_Tmap_traits@KPAVServerSession@@U?$less@K@std@@V?$CustomAllocator@PAVServerSession@@@util@@$0A@@std@@@std@@KAPAU_Node@?$_Tree_nod@V?$_Tmap_traits@KPAVServerSession@@U?$less@K@std@@V?$CustomAllocator@PAVServerSession@@@util@@$0A@@std@@@2@PAU342@@Z 00402ff0 f i WorldServer.obj
 0001:00001ff0       ?_Min@?$_Tree@V?$_Tmap_traits@KPBUsMAP_ENTERENCE_PORTAL_BASE@@U?$less@K@std@@V?$CustomAllocator@PBUsMAP_ENTERENCE_PORTAL_BASE@@@util@@$0A@@std@@@std@@KAPAU_Node@?$_Tree_nod@V?$_Tmap_traits@KPBUsMAP_ENTERENCE_PORTAL_BASE@@U?$less@K@std@@V?$CustomAllocator@PBUsMAP_ENTERENCE_PORTAL_BASE@@@util@@$0A@@std@@@2@PAU342@@Z 00402ff0 f i programcommon_s:MapInfoParser.obj
 0001:00001ff0       ?_Min@?$_Tree@V?$_Tmap_traits@KPAVUser@@U?$less@K@std@@V?$CustomAllocator@PAVUser@@@util@@$0A@@std@@@std@@KAPAU_Node@?$_Tree_nod@V?$_Tmap_traits@KPAVUser@@U?$less@K@std@@V?$CustomAllocator@PAVUser@@@util@@$0A@@std@@@2@PAU342@@Z 00402ff0 f i User.obj
 0001:00001ff0       ?_Min@?$_Tree@V?$_Tmap_traits@KPAVChannel@@U?$less@K@std@@V?$CustomAllocator@PAVChannel@@@util@@$0A@@std@@@std@@KAPAU_Node@?$_Tree_nod@V?$_Tmap_traits@KPAVChannel@@U?$less@K@std@@V?$CustomAllocator@PAVChannel@@@util@@$0A@@std@@@2@PAU342@@Z 00402ff0 f i Handler_MW.obj
 0001:00001ff0       ?_Min@?$_Tree@V?$_Tmap_traits@KPAUSTRUCT_BLOCK_INFO@@U?$less@K@std@@V?$CustomAllocator@PAUSTRUCT_BLOCK_INFO@@@util@@$0A@@std@@@std@@KAPAU_Node@?$_Tree_nod@V?$_Tmap_traits@KPAUSTRUCT_BLOCK_INFO@@U?$less@K@std@@V?$CustomAllocator@PAUSTRUCT_BLOCK_INFO@@@util@@$0A@@std@@@2@PAU342@@Z 00402ff0 f i User.obj
 0001:00001ff0       ?_Min@?$_Tree@V?$_Tmap_traits@KPAVFieldInfo@@U?$less@K@std@@V?$CustomAllocator@PAVFieldInfo@@@util@@$0A@@std@@@std@@KAPAU_Node@?$_Tree_nod@V?$_Tmap_traits@KPAVFieldInfo@@U?$less@K@std@@V?$CustomAllocator@PAVFieldInfo@@@util@@$0A@@std@@@2@PAU342@@Z 00402ff0 f i ChannelManager.obj
 0001:00001ff0       ?_Min@?$_Tree@V?$_Tmap_traits@KPAUSTRUCT_REVENGE_INFO@@U?$less@K@std@@V?$CustomAllocator@PAUSTRUCT_REVENGE_INFO@@@util@@$0A@@std@@@std@@KAPAU_Node@?$_Tree_nod@V?$_Tmap_traits@KPAUSTRUCT_REVENGE_INFO@@U?$less@K@std@@V?$CustomAllocator@PAUSTRUCT_REVENGE_INFO@@@util@@$0A@@std@@@2@PAU342@@Z 00402ff0 f i User.obj
 0001:00001ff0       ?_Min@?$_Tree@V?$_Tmap_traits@KPAVFriendInvitationCommand@@U?$less@K@std@@V?$CustomAllocator@PAVFriendInvitationCommand@@@util@@$0A@@std@@@std@@KAPAU_Node@?$_Tree_nod@V?$_Tmap_traits@KPAVFriendInvitationCommand@@U?$less@K@std@@V?$CustomAllocator@PAVFriendInvitationCommand@@@util@@$0A@@std@@@2@PAU342@@Z 00402ff0 f i servercommon:FriendInvitationInvoker.obj
 0001:00002010       ??$_Allocate@D@std@@YAPADIPAD@Z 00403010 f i WorldServer.obj
 0001:00002070       ??0bad_alloc@std@@QAE@ABV01@@Z 00403070 f i WorldServer.obj
 0001:00002090       ?Instance@?$Singleton@VChannelManager@@$01@util@@SAPAVChannelManager@@XZ 00403090 f i WorldServer.obj
 0001:00002100       ?Reset@Timer@util@@QAEXXZ  00403100 f i WorldServer.obj
 0001:00002130       ?_Copy@?$basic_string@DU?$char_traits@D@std@@V?$allocator@D@2@@std@@IAEXII@Z 00403130 f i WorldServer.obj
 0001:00002270       ?what@logic_error@std@@UBEPBDXZ 00403270 f i WorldServer.obj
 0001:00002280       ?assign@?$basic_string@DU?$char_traits@D@std@@V?$allocator@D@2@@std@@QAEAAV12@ABV12@II@Z 00403280 f i WorldServer.obj
 0001:00002360       ?assign@?$basic_string@DU?$char_traits@D@std@@V?$allocator@D@2@@std@@QAEAAV12@PBDI@Z 00403360 f i WorldServer.obj
 0001:00002440       ??0logic_error@std@@QAE@ABV?$basic_string@DU?$char_traits@D@std@@V?$allocator@D@2@@1@@Z 00403440 f i WorldServer.obj
 0001:000024b0       ??0out_of_range@std@@QAE@ABV?$basic_string@DU?$char_traits@D@std@@V?$allocator@D@2@@1@@Z 004034b0 f i WorldServer.obj
 0001:000024d0       ??_Elogic_error@std@@UAEPAXI@Z 004034d0 f i WorldServer.obj
 0001:000024d0       ??_Gout_of_range@std@@UAEPAXI@Z 004034d0 f i WorldServer.obj
 0001:000024d0       ??_Eout_of_range@std@@UAEPAXI@Z 004034d0 f i WorldServer.obj
 0001:000024d0       ??_Glength_error@std@@UAEPAXI@Z 004034d0 f i PacketHandler.obj
 0001:000024d0       ??_Glogic_error@std@@UAEPAXI@Z 004034d0 f i WorldServer.obj
 0001:000024d0       ??_Elength_error@std@@UAEPAXI@Z 004034d0 f i PacketHandler.obj
 0001:00002520       ??0?$basic_string@DU?$char_traits@D@std@@V?$allocator@D@2@@std@@QAE@PBD@Z 00403520 f i WorldServer.obj
 0001:00002560       ??0logic_error@std@@QAE@ABV01@@Z 00403560 f i WorldServer.obj
 0001:000025e0       ??0out_of_range@std@@QAE@ABV01@@Z 004035e0 f i WorldServer.obj
 0001:00002600       ?_Tidy@?$_Tree@V?$_Tmap_traits@KPAVServerSession@@U?$less@K@std@@V?$CustomAllocator@PAVServerSession@@@util@@$0A@@std@@@std@@IAEXXZ 00403600 f i WorldServer.obj
 0001:00002600       ?_Tidy@?$_Tree@V?$_Tmap_traits@KPAVUser@@U?$less@K@std@@V?$CustomAllocator@PAVUser@@@util@@$0A@@std@@@std@@IAEXXZ 00403600 f i User.obj
 0001:00002640       ?ParseINI@WorldServerInfoParser@@QAEHPAD@Z 00403640 f   WorldServerInfoParser.obj
 0001:00002b10       ?ReloadShoutInterval@WorldServerInfoParser@@QAEXXZ 00403b10 f   WorldServerInfoParser.obj
 0001:00002b40       ?ReloadFileNotice@WorldServerInfoParser@@QAEXXZ 00403b40 f   WorldServerInfoParser.obj
 0001:00002b70       ??0WorldServerInfoParser@@QAE@XZ 00403b70 f   WorldServerInfoParser.obj
 0001:00002b90       ??1WorldServerInfoParser@@QAE@XZ 00403b90 f   WorldServerInfoParser.obj
 0001:00002ba0       ??$_Allocate@U_List_position@?$_Hash@V?$_Hmap_traits@KPAVBASE_FUNC@util@@V?$hash_compare@KU?$less@K@std@@@stdext@@V?$allocator@U?$pair@$$CBKPAVBASE_FUNC@util@@@std@@@std@@$0A@@stdext@@@stdext@@@std@@YAPAU_List_position@?$_Hash@V?$_Hmap_traits@KPAVBASE_FUNC@util@@V?$hash_compare@KU?$less@K@std@@@stdext@@V?$allocator@U?$pair@$$CBKPAVBASE_FUNC@util@@@std@@@std@@$0A@@stdext@@@stdext@@IPAU123@@Z 00403ba0 f i PacketHandler.obj
 0001:00002ba0       ??$_Allocate@U_List_position@?$_Hash@V?$_Hmap_traits@HULottoEntry@@V?$hash_compare@HU?$less@H@std@@@stdext@@V?$allocator@U?$pair@$$CBHULottoEntry@@@std@@@std@@$0A@@stdext@@@stdext@@@std@@YAPAU_List_position@?$_Hash@V?$_Hmap_traits@HULottoEntry@@V?$hash_compare@HU?$less@H@std@@@stdext@@V?$allocator@U?$pair@$$CBHULottoEntry@@@std@@@std@@$0A@@stdext@@@stdext@@IPAU123@@Z 00403ba0 f i Lotto.obj
 0001:00002c00       ??_EFUNC_GW@PacketHandler@@UAEPAXI@Z 00403c00 f i PacketHandler.obj
 0001:00002c00       ??_EFUNC_DW@PacketHandler@@UAEPAXI@Z 00403c00 f i PacketHandler.obj
 0001:00002c00       ??_EFUNC_BW@PacketHandler@@UAEPAXI@Z 00403c00 f i PacketHandler.obj
 0001:00002c00       ??_GFUNC_FW@PacketHandler@@UAEPAXI@Z 00403c00 f i PacketHandler.obj
 0001:00002c00       ??_EFUNC_AW@PacketHandler@@UAEPAXI@Z 00403c00 f i PacketHandler.obj
 0001:00002c00       ??_EFUNC_CW@PacketHandler@@UAEPAXI@Z 00403c00 f i PacketHandler.obj
 0001:00002c00       ??_GFUNC_AW@PacketHandler@@UAEPAXI@Z 00403c00 f i PacketHandler.obj
 0001:00002c00       ??_GBASE_FUNC@util@@UAEPAXI@Z 00403c00 f i PacketHandler.obj
 0001:00002c00       ??_GFUNC_DW@PacketHandler@@UAEPAXI@Z 00403c00 f i PacketHandler.obj
 0001:00002c00       ??_GFUNC_CW@PacketHandler@@UAEPAXI@Z 00403c00 f i PacketHandler.obj
 0001:00002c00       ??_EFUNC_TW@PacketHandler@@UAEPAXI@Z 00403c00 f i PacketHandler.obj
 0001:00002c00       ??_GFUNC_GW@PacketHandler@@UAEPAXI@Z 00403c00 f i PacketHandler.obj
 0001:00002c00       ??_EBASE_FUNC@util@@UAEPAXI@Z 00403c00 f i PacketHandler.obj
 0001:00002c00       ??_GFUNC_MW@PacketHandler@@UAEPAXI@Z 00403c00 f i PacketHandler.obj
 0001:00002c00       ??_GFUNC_BW@PacketHandler@@UAEPAXI@Z 00403c00 f i PacketHandler.obj
 0001:00002c00       ??_EFUNC_MW@PacketHandler@@UAEPAXI@Z 00403c00 f i PacketHandler.obj
 0001:00002c00       ??_EFUNC_FW@PacketHandler@@UAEPAXI@Z 00403c00 f i PacketHandler.obj
 0001:00002c00       ??_GFUNC_TW@PacketHandler@@UAEPAXI@Z 00403c00 f i PacketHandler.obj
 0001:00002c20       ??1?$_Vector_val@ULottoWinner@@V?$allocator@ULottoWinner@@@std@@@std@@QAE@XZ 00403c20 f i Lotto.obj
 0001:00002c20       ??1?$_Vector_val@U_List_position@?$_Hash@V?$_Hmap_traits@HULottoEntry@@V?$hash_compare@HU?$less@H@std@@@stdext@@V?$allocator@U?$pair@$$CBHULottoEntry@@@std@@@std@@$0A@@stdext@@@stdext@@V?$allocator@U_List_position@?$_Hash@V?$_Hmap_traits@HULottoEntry@@V?$hash_compare@HU?$less@H@std@@@stdext@@V?$allocator@U?$pair@$$CBHULottoEntry@@@std@@@std@@$0A@@stdext@@@stdext@@@std@@@std@@QAE@XZ 00403c20 f i Lotto.obj
 0001:00002c20       ??1?$_List_val@UNotificationInfo@@V?$allocator@UNotificationInfo@@@std@@@std@@QAE@XZ 00403c20 f i NotificationManager.obj
 0001:00002c20       ??1?$_Tree_val@V?$_Tmap_traits@V?$basic_string@DU?$char_traits@D@std@@V?$allocator@D@2@@std@@PAV?$map@V?$basic_string@DU?$char_traits@D@std@@V?$allocator@D@2@@std@@V12@U?$less@V?$basic_string@DU?$char_traits@D@std@@V?$allocator@D@2@@std@@@2@V?$allocator@U?$pair@$$CBV?$basic_string@DU?$char_traits@D@std@@V?$allocator@D@2@@std@@V12@@std@@@2@@2@U?$less@V?$basic_string@DU?$char_traits@D@std@@V?$allocator@D@2@@std@@@2@V?$allocator@U?$pair@$$CBV?$basic_string@DU?$char_traits@D@std@@V?$allocator@D@2@@std@@PAV?$map@V?$basic_string@DU?$char_traits@D@std@@V?$allocator@D@2@@std@@V12@U?$less@V?$basic_string@DU?$char_traits@D@std@@V?$allocator@D@2@@std@@@2@V?$allocator@U?$pair@$$CBV?$basic_string@DU?$char_traits@D@std@@V?$allocator@D@2@@std@@V12@@std@@@2@@2@@std@@@2@$0A@@std@@@std@@QAE@XZ 00403c20 f i utility_s:INIParser.obj
 0001:00002c20       ??1?$_List_val@U?$pair@$$CBHULottoEntry@@@std@@V?$allocator@U?$pair@$$CBHULottoEntry@@@std@@@2@@std@@QAE@XZ 00403c20 f i Lotto.obj
 0001:00002c20       ??1?$_List_val@U?$pair@$$CBKPAVBASE_FUNC@util@@@std@@V?$allocator@U?$pair@$$CBKPAVBASE_FUNC@util@@@std@@@2@@std@@QAE@XZ 00403c20 f i PacketHandler.obj
 0001:00002c20       ??1?$_Tree_val@V?$_Tmap_traits@EUEVENT_SUB_INFO@@U?$less@E@std@@V?$allocator@U?$pair@$$CBEUEVENT_SUB_INFO@@@std@@@3@$00@std@@@std@@QAE@XZ 00403c20 f i programcommon_s:SunEventInfoParser.obj
 0001:00002c20       ??1?$_Tree_val@V?$_Tmap_traits@V?$basic_string@DU?$char_traits@D@std@@V?$allocator@D@2@@std@@V12@U?$less@V?$basic_string@DU?$char_traits@D@std@@V?$allocator@D@2@@std@@@2@V?$allocator@U?$pair@$$CBV?$basic_string@DU?$char_traits@D@std@@V?$allocator@D@2@@std@@V12@@std@@@2@$0A@@std@@@std@@QAE@XZ 00403c20 f i utility_s:INIParser.obj
 0001:00002c20       ??1?$_Vector_val@PAUEVENT_INFO@@V?$allocator@PAUEVENT_INFO@@@std@@@std@@QAE@XZ 00403c20 f i programcommon_s:SunEventInfoParser.obj
 0001:00002c20       ??1?$_Deque_val@ULottoTicket@@V?$allocator@ULottoTicket@@@std@@@std@@QAE@XZ 00403c20 f i Lotto.obj
 0001:00002c20       ??1?$_Tree_val@V?$_Tmap_traits@KUEVENT_INFO@@U?$less@K@std@@V?$allocator@U?$pair@$$CBKUEVENT_INFO@@@std@@@3@$0A@@std@@@std@@QAE@XZ 00403c20 f i programcommon_s:SunEventInfoParser.obj
 0001:00002c20       ??1?$_Tree_val@V?$_Tmap_traits@GUNotificationParserStruct@@U?$less@G@std@@V?$allocator@U?$pair@$$CBGUNotificationParserStruct@@@std@@@3@$0A@@std@@@std@@QAE@XZ 00403c20 f i WorldScriptParserManager.obj
 0001:00002c20       ??1?$_Vector_val@HV?$allocator@H@std@@@std@@QAE@XZ 00403c20 f i LottoConfig.obj
 0001:00002c20       ??1?$_Tree_val@V?$_Tmap_traits@KUEVENT_MINMAX_TYPE_INFO@@U?$less@K@std@@V?$allocator@U?$pair@$$CBKUEVENT_MINMAX_TYPE_INFO@@@std@@@3@$0A@@std@@@std@@QAE@XZ 00403c20 f i programcommon_s:SunEventInfoParser.obj
 0001:00002c20       ??1?$_Vector_val@U_List_position@?$_Hash@V?$_Hmap_traits@KPAVBASE_FUNC@util@@V?$hash_compare@KU?$less@K@std@@@stdext@@V?$allocator@U?$pair@$$CBKPAVBASE_FUNC@util@@@std@@@std@@$0A@@stdext@@@stdext@@V?$allocator@U_List_position@?$_Hash@V?$_Hmap_traits@KPAVBASE_FUNC@util@@V?$hash_compare@KU?$less@K@std@@@stdext@@V?$allocator@U?$pair@$$CBKPAVBASE_FUNC@util@@@std@@@std@@$0A@@stdext@@@stdext@@@std@@@std@@QAE@XZ 00403c20 f i PacketHandler.obj
 0001:00002c30       ?_Buynode@?$list@U?$pair@$$CBKPAVBASE_FUNC@util@@@std@@V?$allocator@U?$pair@$$CBKPAVBASE_FUNC@util@@@std@@@2@@std@@IAEPAU_Node@?$_List_nod@U?$pair@$$CBKPAVBASE_FUNC@util@@@std@@V?$allocator@U?$pair@$$CBKPAVBASE_FUNC@util@@@std@@@2@@2@XZ 00403c30 f i PacketHandler.obj
 0001:00002c50       ?_Buynode@?$list@U?$pair@$$CBKPAVBASE_FUNC@util@@@std@@V?$allocator@U?$pair@$$CBKPAVBASE_FUNC@util@@@std@@@2@@std@@IAEPAU_Node@?$_List_nod@U?$pair@$$CBKPAVBASE_FUNC@util@@@std@@V?$allocator@U?$pair@$$CBKPAVBASE_FUNC@util@@@std@@@2@@2@PAU342@0ABU?$pair@$$CBKPAVBASE_FUNC@util@@@2@@Z 00403c50 f i PacketHandler.obj
 0001:00002c90       ?erase@?$_Hash@V?$_Hmap_traits@KPAVBASE_FUNC@util@@V?$hash_compare@KU?$less@K@std@@@stdext@@V?$allocator@U?$pair@$$CBKPAVBASE_FUNC@util@@@std@@@std@@$0A@@stdext@@@stdext@@QAE?AV?$_Iterator@$00@?$list@U?$pair@$$CBKPAVBASE_FUNC@util@@@std@@V?$allocator@U?$pair@$$CBKPAVBASE_FUNC@util@@@std@@@2@@std@@V?$_Const_iterator@$00@45@@Z 00403c90 f i PacketHandler.obj
 0001:00002d90       ??1?$list@U?$pair@$$CBKPAVBASE_FUNC@util@@@std@@V?$allocator@U?$pair@$$CBKPAVBASE_FUNC@util@@@std@@@2@@std@@QAE@XZ 00403d90 f i PacketHandler.obj
 0001:00002db0       ??0?$list@U?$pair@$$CBKPAVBASE_FUNC@util@@@std@@V?$allocator@U?$pair@$$CBKPAVBASE_FUNC@util@@@std@@@2@@std@@QAE@ABV?$allocator@U?$pair@$$CBKPAVBASE_FUNC@util@@@std@@@1@@Z 00403db0 f i PacketHandler.obj
 0001:00002e20       ?Find@FunctionMap@util@@QAEPAVBASE_FUNC@2@K@Z 00403e20 f i PacketHandler.obj
 0001:00002ea0       ??0length_error@std@@QAE@ABV?$basic_string@DU?$char_traits@D@std@@V?$allocator@D@2@@1@@Z 00403ea0 f i PacketHandler.obj
 0001:00002ec0       ??1out_of_range@std@@UAE@XZ 00403ec0 f i WorldServer.obj
 0001:00002ec0       ??1length_error@std@@UAE@XZ 00403ec0 f i PacketHandler.obj
 0001:00002f00       ?ParsePacket_CW@PacketHandler@@QAEHPAVUser@@PAUMSG_BASE@@G@Z 00403f00 f   PacketHandler.obj
 0001:00002f60       ?ParsePacket_DW@PacketHandler@@QAEHPAVGameDBProxySession@@PAUMSG_BASE@@G@Z 00403f60 f   PacketHandler.obj
 0001:00002fc0       ?ParsePacket_TW@PacketHandler@@QAEHPAVAccountDBProxySession@@PAUMSG_BASE@@G@Z 00403fc0 f   PacketHandler.obj
 0001:00003020       ?ParsePacket_GW@PacketHandler@@QAEHPAVGameServerSession@@PAUMSG_BASE@@G@Z 00404020 f   PacketHandler.obj
 0001:00003080       ?ParsePacket_BW@PacketHandler@@QAEHPAVBattleServerSession@@PAUMSG_BASE@@G@Z 00404080 f   PacketHandler.obj
 0001:000030d0       ?ParsePacket_FW@PacketHandler@@QAEHPAVFieldServerSession@@PAUMSG_BASE@@G@Z 004040d0 f   PacketHandler.obj
 0001:00003120       ?ParsePacket_AW@PacketHandler@@QAEHPAVAgentServerSession@@PAUMSG_BASE@@G@Z 00404120 f   PacketHandler.obj
 0001:00003170       ?ParsePacket_MW@PacketHandler@@QAEHPAVMasterServerSession@@PAUMSG_BASE@@G@Z 00404170 f   PacketHandler.obj
 0001:000031d0       ?ParsePacket_WZ@PacketHandler@@QAEHPAVGameDBProxySession@@PAUMSG_BASE@@G@Z 004041d0 f   PacketHandler.obj
 0001:00003230       ??1PacketHandler@@QAE@XZ   00404230 f   PacketHandler.obj
 0001:000032f0       ??0PacketHandler@@QAE@XZ   004042f0 f   PacketHandler.obj
 0001:00003520       ?RegClientPacket@PacketHandler@@AAEHEEP6AXPAVUser@@PAUMSG_BASE@@G@Z@Z 00404520 f   PacketHandler.obj
 0001:00003570       ?RegGameDBProxyPacket@PacketHandler@@AAEHEEP6AXPAVGameDBProxySession@@PAUMSG_BASE@@G@Z@Z 00404570 f   PacketHandler.obj
 0001:000035c0       ?RegAccountDBProxyPacket@PacketHandler@@AAEHEEP6AXPAVAccountDBProxySession@@PAUMSG_BASE@@G@Z@Z 004045c0 f   PacketHandler.obj
 0001:00003610       ?RegGameServerPacket@PacketHandler@@AAEHEEP6AXPAVGameServerSession@@PAUMSG_BASE@@G@Z@Z 00404610 f   PacketHandler.obj
 0001:00003660       ?RegBattleServerPacket@PacketHandler@@AAEHEEP6AXPAVBattleServerSession@@PAUMSG_BASE@@G@Z@Z 00404660 f   PacketHandler.obj
 0001:000036b0       ?RegFieldServerPacket@PacketHandler@@AAEHEEP6AXPAVFieldServerSession@@PAUMSG_BASE@@G@Z@Z 004046b0 f   PacketHandler.obj
 0001:00003700       ?RegAgentServerPacket@PacketHandler@@AAEHEEP6AXPAVAgentServerSession@@PAUMSG_BASE@@G@Z@Z 00404700 f   PacketHandler.obj
 0001:00003750       ?RegMasterServerPacket@PacketHandler@@AAEHEEP6AXPAVMasterServerSession@@PAUMSG_BASE@@G@Z@Z 00404750 f   PacketHandler.obj
 0001:000037a0       ?RegGuildServerPacket@PacketHandler@@AAE_NEEP6AXPAVGameDBProxySession@@PAUMSG_BASE@@G@Z@Z 004047a0 f   PacketHandler.obj
 0001:000037f0       ?RegisterPackets@PacketHandler@@QAEHXZ 004047f0 f   PacketHandler.obj
 0001:00004b70       ??0length_error@std@@QAE@ABV01@@Z 00405b70 f i PacketHandler.obj
 0001:00004b90       ??1?$hash_map@KPAVBASE_FUNC@util@@V?$hash_compare@KU?$less@K@std@@@stdext@@V?$allocator@U?$pair@$$CBKPAVBASE_FUNC@util@@@std@@@std@@@stdext@@QAE@XZ 00405b90 f i PacketHandler.obj
 0001:00004be0       ??1FunctionMap@util@@QAE@XZ 00405be0 f i PacketHandler.obj
 0001:00004cd0       ?insert@?$list@U?$pair@$$CBKPAVBASE_FUNC@util@@@std@@V?$allocator@U?$pair@$$CBKPAVBASE_FUNC@util@@@std@@@2@@std@@QAE?AV?$_Iterator@$00@12@V?$_Const_iterator@$00@12@ABU?$pair@$$CBKPAVBASE_FUNC@util@@@2@@Z 00405cd0 f i PacketHandler.obj
 0001:00004d60       ?splice@?$list@U?$pair@$$CBKPAVChatZone@@@std@@V?$CustomAllocator@U?$pair@$$CBKPAVChatZone@@@std@@@util@@@std@@QAEXV?$_Const_iterator@$00@12@AAV12@0@Z 00405d60 f i Channel.obj
 0001:00004d60       ?splice@?$list@U?$pair@$$CBKPAVVillageZone@@@std@@V?$CustomAllocator@U?$pair@$$CBKPAVVillageZone@@@std@@@util@@@std@@QAEXV?$_Const_iterator@$00@12@AAV12@0@Z 00405d60 f i Channel.obj
 0001:00004d60       ?splice@?$list@U?$pair@$$CBKPAVViewPortZone@@@std@@V?$CustomAllocator@U?$pair@$$CBKPAVViewPortZone@@@std@@@util@@@std@@QAEXV?$_Const_iterator@$00@12@AAV12@0@Z 00405d60 f i BaseZone.obj
 0001:00004d60       ?splice@?$list@U?$pair@$$CBKPAVUser@@@std@@V?$CustomAllocator@U?$pair@$$CBKPAVUser@@@std@@@util@@@std@@QAEXV?$_Const_iterator@$00@12@AAV12@0@Z 00405d60 f i GuidUserList.obj
 0001:00004d60       ?splice@?$list@U?$pair@$$CBKPBUsWMOINFO_BASE@@@std@@V?$CustomAllocator@U?$pair@$$CBKPBUsWMOINFO_BASE@@@std@@@util@@@std@@QAEXV?$_Const_iterator@$00@12@AAV12@0@Z 00405d60 f i programcommon_s:MapInfoParser.obj
 0001:00004d60       ?splice@?$list@U?$pair@$$CBKPBVMapGroupBase@@@std@@V?$CustomAllocator@U?$pair@$$CBKPBVMapGroupBase@@@std@@@util@@@std@@QAEXV?$_Const_iterator@$00@12@AAV12@0@Z 00405d60 f i programcommon_s:MapInfoParser.obj
 0001:00004d60       ?splice@?$list@U?$pair@$$CBKPAVBaseZone@@@std@@V?$CustomAllocator@U?$pair@$$CBKPAVBaseZone@@@std@@@util@@@std@@QAEXV?$_Const_iterator@$00@12@AAV12@0@Z 00405d60 f i BaseZone.obj
 0001:00004d60       ?splice@?$list@U?$pair@$$CBKPAVBASE_FUNC@util@@@std@@V?$allocator@U?$pair@$$CBKPAVBASE_FUNC@util@@@std@@@2@@std@@QAEXV?$_Const_iterator@$00@12@AAV12@0@Z 00405d60 f i PacketHandler.obj
 0001:00004d60       ?splice@?$list@U?$pair@$$CBKPBUsFIELDINFO_BASE@@@std@@V?$CustomAllocator@U?$pair@$$CBKPBUsFIELDINFO_BASE@@@std@@@util@@@std@@QAEXV?$_Const_iterator@$00@12@AAV12@0@Z 00405d60 f i programcommon_s:MapInfoParser.obj
 0001:00004d60       ?splice@?$list@U?$pair@$$CBKPBUsMAPINFO_BASE@@@std@@V?$CustomAllocator@U?$pair@$$CBKPBUsMAPINFO_BASE@@@std@@@util@@@std@@QAEXV?$_Const_iterator@$00@12@AAV12@0@Z 00405d60 f i programcommon_s:MapInfoParser.obj
 0001:00004d60       ?splice@?$list@U?$pair@$$CBKPBUsWUTINFO_BASE@@@std@@V?$CustomAllocator@U?$pair@$$CBKPBUsWUTINFO_BASE@@@std@@@util@@@std@@QAEXV?$_Const_iterator@$00@12@AAV12@0@Z 00405d60 f i programcommon_s:MapInfoParser.obj
 0001:00004e20       ??0?$_Hash@V?$_Hmap_traits@KPAVBASE_FUNC@util@@V?$hash_compare@KU?$less@K@std@@@stdext@@V?$allocator@U?$pair@$$CBKPAVBASE_FUNC@util@@@std@@@std@@$0A@@stdext@@@stdext@@QAE@ABV?$hash_compare@KU?$less@K@std@@@1@ABV?$allocator@U?$pair@$$CBKPAVBASE_FUNC@util@@@std@@@std@@@Z 00405e20 f i PacketHandler.obj
 0001:00004ee0       ?_Insert@?$_Hash@V?$_Hmap_traits@KPAVBASE_FUNC@util@@V?$hash_compare@KU?$less@K@std@@@stdext@@V?$allocator@U?$pair@$$CBKPAVBASE_FUNC@util@@@std@@@std@@$0A@@stdext@@@stdext@@IAE?AU?$pair@V?$_Iterator@$00@?$list@U?$pair@$$CBKPAVBASE_FUNC@util@@@std@@V?$allocator@U?$pair@$$CBKPAVBASE_FUNC@util@@@std@@@2@@std@@_N@std@@ABU?$pair@$$CBKPAVBASE_FUNC@util@@@4@V?$_Iterator@$00@?$list@U?$pair@$$CBKPAVBASE_FUNC@util@@@std@@V?$allocator@U?$pair@$$CBKPAVBASE_FUNC@util@@@std@@@2@@4@@Z 00405ee0 f i PacketHandler.obj
 0001:00005260       ?_Reinsert@?$_Hash@V?$_Hmap_traits@KPAVBASE_FUNC@util@@V?$hash_compare@KU?$less@K@std@@@stdext@@V?$allocator@U?$pair@$$CBKPAVBASE_FUNC@util@@@std@@@std@@$0A@@stdext@@@stdext@@IAEXXZ 00406260 f i PacketHandler.obj
 0001:000052f0       ?Add@FunctionMap@util@@QAEHPAVBASE_FUNC@2@@Z 004062f0 f i PacketHandler.obj
 0001:000053a0       ?SetCrypt@User@@QAEXXZ     004063a0 f i Handler_CW.obj
 0001:000053d0       ?OnCW_HEARTBEAT@Handler_CW@@SAXPAVUser@@PAUMSG_BASE@@G@Z 004063d0 f   Handler_CW.obj
 0001:000053e0       ?OnCW_NOTICE_SYN@Handler_CW@@SAXPAVUser@@PAUMSG_BASE@@G@Z 004063e0 f   Handler_CW.obj
 0001:000053f0       ?OnCW_GM_STRING_CMD_SYN@Handler_CW@@SAXPAVUser@@PAUMSG_BASE@@G@Z 004063f0 f   Handler_CW.obj
 0001:00005410       ?OnCW_ARMORKIT_FINDHACK_SYN@Handler_CW@@SAXPAVUser@@PAUMSG_BASE@@G@Z 00406410 f   Handler_CW.obj
 0001:00005420       ?OnCW_CRYPTOGRAPHY_NAK@Handler_CW@@SAXPAVUser@@PAUMSG_BASE@@G@Z 00406420 f   Handler_CW.obj
 0001:00005450       ?OnCW_CRYPTOGRAPHY_ACK@Handler_CW@@SAXPAVUser@@PAUMSG_BASE@@G@Z 00406450 f   Handler_CW.obj
 0001:000054f0       ?OnCW_CHAT_PARTY_MIC_STATUS_REQ@Handler_CW@@SAXPAVUser@@PAUMSG_BASE@@G@Z 004064f0 f   Handler_CW.obj
 0001:000055e0       ?OnCW_LOTTO_INFO_SYN@Handler_CW@@SAXPAVUser@@PAUMSG_BASE@@G@Z 004065e0 f   Handler_CW.obj
 0001:00005630       ?OnCW_LOTTO_ENTRY_SYN@Handler_CW@@SAXPAVUser@@PAUMSG_BASE@@G@Z 00406630 f   Handler_CW.obj
 0001:00005680       ?OnCW_LOTTO_NOTICE_LIST_SYN@Handler_CW@@SAXPAVUser@@PAUMSG_BASE@@G@Z 00406680 f   Handler_CW.obj
 0001:000056d0       ?OnCW_LOTTO_NOTICE_CONFIRM@Handler_CW@@SAXPAVUser@@PAUMSG_BASE@@G@Z 004066d0 f   Handler_CW.obj
 0001:00005720       ?OnCW_GROUP_ADDBLOCK_SYN@Handler_CW@@SAXPAVUser@@PAUMSG_BASE@@G@Z 00406720 f   Handler_CW.obj
 0001:00005770       ?OnCW_NOTIFICATION_PREV_SYN@Handler_CW@@SAXPAVUser@@PAUMSG_BASE@@G@Z 00406770 f   Handler_CW.obj
 0001:00005870       ?OnCW_WHISPER_SET_SYN@Handler_CW@@SAXPAVUser@@PAUMSG_BASE@@G@Z 00406870 f   Handler_CW.obj
 0001:00005900       ?OnCW_CHAT_SHOUT_SYN@Handler_CW@@SAXPAVUser@@PAUMSG_BASE@@G@Z 00406900 f   Handler_CW.obj
 0001:00005da0       ?OnCW_GM_NOTICE_SYN@Handler_CW@@SAXPAVUser@@PAUMSG_BASE@@G@Z 00406da0 f   Handler_CW.obj
 0001:00006290       ?OnCW_VIEWPORT_CHARSTATE@Handler_CW@@SAXPAVUser@@PAUMSG_BASE@@G@Z 00407290 f   Handler_CW.obj
 0001:00006510       ?OnCW_FRIEND_NEWLIST_SYN@Handler_CW@@SAXPAVUser@@PAUMSG_BASE@@G@Z 00407510 f   Handler_CW.obj
 0001:000067f0       ?OnCW_FRIEND_DEL_SYN@Handler_CW@@SAXPAVUser@@PAUMSG_BASE@@G@Z 004077f0 f   Handler_CW.obj
 0001:00006960       ?OnCW_FRIEND_BLOCK_SYN@Handler_CW@@SAXPAVUser@@PAUMSG_BASE@@G@Z 00407960 f   Handler_CW.obj
 0001:00006c30       ?OnCW_FRIEND_BLOCK_FREE_SYN@Handler_CW@@SAXPAVUser@@PAUMSG_BASE@@G@Z 00407c30 f   Handler_CW.obj
 0001:00006d50       ?OnCW_FRIEND_CHATBLOCK_SYN@Handler_CW@@SAXPAVUser@@PAUMSG_BASE@@G@Z 00407d50 f   Handler_CW.obj
 0001:00006dc0       ?OnCW_GUILD_CHAT_SYN@Handler_CW@@SAXPAVUser@@PAUMSG_BASE@@G@Z 00407dc0 f   Handler_CW.obj
 0001:00007140       ?OnCW_CHAT_PARTY_SYN@Handler_CW@@SAXPAVUser@@PAUMSG_BASE@@G@Z 00408140 f   Handler_CW.obj
 0001:00007400       ?OnCW_CHAT_VOICE_ACCEPT_SYN@Handler_CW@@SAXPAVUser@@PAUMSG_BASE@@G@Z 00408400 f   Handler_CW.obj
 0001:000075d0       ?OnCW_CHAT_VOICE_REJECT_SYN@Handler_CW@@SAXPAVUser@@PAUMSG_BASE@@G@Z 004085d0 f   Handler_CW.obj
 0001:000076e0       ?OnCW_CHAT_VOICE_MIC_STATUS_SYN@Handler_CW@@SAXPAVUser@@PAUMSG_BASE@@G@Z 004086e0 f   Handler_CW.obj
 0001:00007780       ?OnCW_CHAT_CHANNEL_JOIN_SYN@Handler_CW@@SAXPAVUser@@PAUMSG_BASE@@G@Z 00408780 f   Handler_CW.obj
 0001:000078a0       ?OnCW_CHAT_CHANNEL_SEND_SYN@Handler_CW@@SAXPAVUser@@PAUMSG_BASE@@G@Z 004088a0 f   Handler_CW.obj
 0001:00007a80       ?OnCW_CHAT_CHANNEL_OUT_SYN@Handler_CW@@SAXPAVUser@@PAUMSG_BASE@@G@Z 00408a80 f   Handler_CW.obj
 0001:00007ac0       ?OnCW_CHAT_CHANNEL_INFO_REQ@Handler_CW@@SAXPAVUser@@PAUMSG_BASE@@G@Z 00408ac0 f   Handler_CW.obj
 0001:00007bc0       ?OnCW_FRIEND_STATUS_REQ@Handler_CW@@SAXPAVUser@@PAUMSG_BASE@@G@Z 00408bc0 f   Handler_CW.obj
 0001:00007cb0       ?OnCW_FRIEND_MEMO_UPDATE_SYN@Handler_CW@@SAXPAVUser@@PAUMSG_BASE@@G@Z 00408cb0 f   Handler_CW.obj
 0001:00007da0       ?OnCW_REVENGE_DEL_SYN@Handler_CW@@SAXPAVUser@@PAUMSG_BASE@@G@Z 00408da0 f   Handler_CW.obj
 0001:00007f90       ?OnCW_MEMO_LIST_REQ@Handler_CW@@SAXPAVUser@@PAUMSG_BASE@@G@Z 00408f90 f   Handler_CW.obj
 0001:00008150       ?OnCW_MEMO_VIEW_REQ@Handler_CW@@SAXPAVUser@@PAUMSG_BASE@@G@Z 00409150 f   Handler_CW.obj
 0001:000082a0       ?OnCW_MEMO_DELETE_SYN@Handler_CW@@SAXPAVUser@@PAUMSG_BASE@@G@Z 004092a0 f   Handler_CW.obj
 0001:000083e0       ?OnCW_GUILD_CHANGE_NOTICE_SYN@Handler_CW@@SAXPAVUser@@PAUMSG_BASE@@G@Z 004093e0 f   Handler_CW.obj
 0001:00008530       ?OnCW_GUILD_SELECT_NOTICE_SYN@Handler_CW@@SAXPAVUser@@PAUMSG_BASE@@G@Z 00409530 f   Handler_CW.obj
 0001:00008660       ?OnCW_GUILD_WAREHOUSE_LOGLIST_REQ@Handler_CW@@SAXPAVUser@@PAUMSG_BASE@@G@Z 00409660 f   Handler_CW.obj
 0001:000086d0       ?OnCW_GROUP_GROUPLIST_REQ@Handler_CW@@SAXPAVUser@@PAUMSG_BASE@@G@Z 004096d0 f   Handler_CW.obj
 0001:000086f0       ?OnCW_GROUP_DEL_SYN@Handler_CW@@SAXPAVUser@@PAUMSG_BASE@@G@Z 004096f0 f   Handler_CW.obj
 0001:00008850       ?OnCW_GROUP_RESTOR_CMD@Handler_CW@@SAXPAVUser@@PAUMSG_BASE@@G@Z 00409850 f   Handler_CW.obj
 0001:00008870       ?OnCW_DOMINATION_RETURN_HEIM_CMD@Handler_CW@@SAXPAVUser@@PAUMSG_BASE@@G@Z 00409870 f   Handler_CW.obj
 0001:00008920       ?OnCW_CHAT_NORMAL_SYN@Handler_CW@@SAXPAVUser@@PAUMSG_BASE@@G@Z 00409920 f   Handler_CW.obj
 0001:00008cd0       ?OnCW_FRIEND_ADD_SYN@Handler_CW@@SAXPAVUser@@PAUMSG_BASE@@G@Z 00409cd0 f   Handler_CW.obj
 0001:00008f00       ?OnCW_WHISPER_SYN@Handler_CW@@SAXPAVUser@@PAUMSG_BASE@@G@Z 00409f00 f   Handler_CW.obj
 0001:00009530       ?OnCW_FRIEND_CHAT_SYN@Handler_CW@@SAXPAVUser@@PAUMSG_BASE@@G@Z 0040a530 f   Handler_CW.obj
 0001:00009b60       ?OnCW_CHAT_VOICE_REQUEST_SYN@Handler_CW@@SAXPAVUser@@PAUMSG_BASE@@G@Z 0040ab60 f   Handler_CW.obj
 0001:00009e00       ?OnCW_CHAT_VOICE_DISCONNECT_SYN@Handler_CW@@SAXPAVUser@@PAUMSG_BASE@@G@Z 0040ae00 f   Handler_CW.obj
 0001:0000a000       ?OnCW_CHAT_PLAYER_MIC_STATUS_REQ@Handler_CW@@SAXPAVUser@@PAUMSG_BASE@@G@Z 0040b000 f   Handler_CW.obj
 0001:0000a1e0       ?OnCW_COMM_USERID_REQ@Handler_CW@@SAXPAVUser@@PAUMSG_BASE@@G@Z 0040b1e0 f   Handler_CW.obj
 0001:0000a3b0       ?OnCW_CHAT_CHANNEL_INVITE_SYN@Handler_CW@@SAXPAVUser@@PAUMSG_BASE@@G@Z 0040b3b0 f   Handler_CW.obj
 0001:0000a660       ?OnCW_CHAT_CHANNEL_INVITE_NAK@Handler_CW@@SAXPAVUser@@PAUMSG_BASE@@G@Z 0040b660 f   Handler_CW.obj
 0001:0000a810       ?OnCW_FRIEND_STATUS_JOIN_SYN@Handler_CW@@SAXPAVUser@@PAUMSG_BASE@@G@Z 0040b810 f   Handler_CW.obj
 0001:0000ab00       ?OnCW_MEMO_SEND_SYN@Handler_CW@@SAXPAVUser@@PAUMSG_BASE@@G@Z 0040bb00 f   Handler_CW.obj
 0001:0000ae90       ?OnCW_GROUP_ADD_SYN@Handler_CW@@SAXPAVUser@@PAUMSG_BASE@@G@Z 0040be90 f   Handler_CW.obj
 0001:0000b020       ?OnCW_GROUP_ADD_RESPONSE_ACK@Handler_CW@@SAXPAVUser@@PAUMSG_BASE@@G@Z 0040c020 f   Handler_CW.obj
 0001:0000b160       ?OnCW_GROUP_ADD_RESPONSE_NAK@Handler_CW@@SAXPAVUser@@PAUMSG_BASE@@G@Z 0040c160 f   Handler_CW.obj
 0001:0000b290       ?OnCW_GROUP_STATUS_REQ@Handler_CW@@SAXPAVUser@@PAUMSG_BASE@@G@Z 0040c290 f   Handler_CW.obj
 0001:0000b560       ?Instance@?$Singleton@VProhibitionWordParser@@$00@util@@SAPAVProhibitionWordParser@@XZ 0040c560 f i Handler_CW.obj
 0001:0000b5e0       ?Instance@?$Singleton@VGameOptionParser@@$00@util@@SAPAVGameOptionParser@@XZ 0040c5e0 f i Handler_CW.obj
 0001:0000b660       ?Instance@?$Singleton@VWFriendInvitationController@@$00@util@@SAPAVWFriendInvitationController@@XZ 0040c660 f i Handler_CW.obj
 0001:0000b6e0       ?Instance@?$Singleton@VNotificationManager@@$00@util@@SAPAVNotificationManager@@XZ 0040c6e0 f i Handler_CW.obj
 0001:0000b760       ?GetUserType@TempUser@@UBE?AW4eUSER_TYPE@@XZ 0040c760 f i TempUser.obj
 0001:0000b760       ?IsReadOnly@cSTRING_REF@util@@UAEHXZ 0040c760 f i Handler_CW.obj
 0001:0000b760       ?GetServerType@AgentServerSession@@UAE?AW4eSERVER_TYPE@@XZ 0040c760 f i AgentServerSession.obj
 0001:0000b770       ?GetCalcStringLength@cSTRING_REF@util@@MAEHXZ 0040c770 f i Handler_CW.obj
 0001:0000b7d0       ?CopyFromString@cSTRING_REF@util@@QAEHPBD@Z 0040c7d0 f i Handler_CW.obj
 0001:0000b850       ?GetCalcStringLength@cSTRING_REF_RW@util@@MAEHXZ 0040c850 f i Handler_CW.obj
 0001:0000b8c0       ?MakeSafeString@cSTRING_REF_RW@util@@UAEHXZ 0040c8c0 f i Handler_CW.obj
 0001:0000b910       ?SetTmpDecreeMsg@User@@QAEXPAD@Z 0040c910 f i Handler_CW.obj
 0001:0000b930       ?IsExpiredChatTimer@User@@QAEHXZ 0040c930 f i Handler_CW.obj
 0001:0000b970       ??1?$cSTRING_REF_RW_WITH_BUFFER@$0GF@@util@@QAE@XZ 0040c970 f i Handler_CW.obj
 0001:0000b970       ??1cSTRING_REF_RW@util@@QAE@XZ 0040c970 f i Handler_CW.obj
 0001:0000b970       ??1?$cSTRING_REF_RW_WITH_BUFFER@$0MJ@@util@@QAE@XZ 0040c970 f i Handler_CW.obj
 0001:0000b970       ??1?$cSTRING_REF_RW_WITH_BUFFER@$0BB@@util@@QAE@XZ 0040c970 f i Handler_CW.obj
 0001:0000b970       ??1cSTRING_REF@util@@QAE@XZ 0040c970 f i Handler_CW.obj
 0001:0000b980       ?Instance@?$Singleton@VGroupManager@@$01@util@@SAPAVGroupManager@@XZ 0040c980 f i Handler_CW.obj
 0001:0000b9f0       ?Instance@?$Singleton@VWorldGuildManager@@$01@util@@SAPAVWorldGuildManager@@XZ 0040c9f0 f i Handler_CW.obj
 0001:0000ba60       ??0?$cSTRING_REF_RW_WITH_BUFFER@$0BB@@util@@QAE@XZ 0040ca60 f i Handler_CW.obj
 0001:0000ba90       ??0?$cSTRING_REF_RW_WITH_BUFFER@$0GF@@util@@QAE@XZ 0040ca90 f i Handler_CW.obj
 0001:0000bac0       ??$CopyTo@V?$cSTRING_REF_RW_WITH_BUFFER@$0MJ@@util@@@cSTRING_REF@util@@QAEHAAV?$cSTRING_REF_RW_WITH_BUFFER@$0MJ@@1@@Z 0040cac0 f i Handler_CW.obj
 0001:0000bac0       ??$CopyTo@V?$cSTRING_REF_RW_WITH_BUFFER@$0BB@@util@@@cSTRING_REF@util@@QAEHAAV?$cSTRING_REF_RW_WITH_BUFFER@$0BB@@1@@Z 0040cac0 f i Handler_CW.obj
 0001:0000bac0       ??$CopyTo@V?$cSTRING_REF_RW_WITH_BUFFER@$0GF@@util@@@cSTRING_REF@util@@QAEHAAV?$cSTRING_REF_RW_WITH_BUFFER@$0GF@@1@@Z 0040cac0 f i Handler_CW.obj
 0001:0000bac0       ??$CopyTo@VcSTRING_REF_RW@util@@@cSTRING_REF@util@@QAEHAAVcSTRING_REF_RW@1@@Z 0040cac0 f i Handler_CW.obj
 0001:0000bba0       ??$CopyFrom@VcSTRING_REF@util@@@cSTRING_REF@util@@QAEHAAV01@@Z 0040cba0 f i Handler_CW.obj
 0001:0000bc70       ?FindMember@WorldGuild@@QAEPAVWorldGuildMember@@H@Z 0040cc70 f i Handler_CW.obj
 0001:0000bc70       ?FindGuild@WorldGuildManager@@QAEPAVWorldGuild@@H@Z 0040cc70 f i Handler_CW.obj
 0001:0000bca0       ??0MSG_MW_MULTIMEMO_SEND_ACK@@QAE@XZ 0040cca0 f i Handler_MW.obj
 0001:0000bce0       ?OnMW_SERVER_INFO_CMD@Handler_MW@@SAXPAVMasterServerSession@@PAUMSG_BASE@@G@Z 0040cce0 f   Handler_MW.obj
 0001:0000bd70       ?OnSERVERCOMMON_SERVERSHUTDOWN_REQ@Handler_MW@@SAXPAVMasterServerSession@@PAUMSG_BASE@@G@Z 0040cd70 f   Handler_MW.obj
 0001:0000bda0       ?OnMW_MULTIMEMO_SEND_SYN@Handler_MW@@SAXPAVMasterServerSession@@PAUMSG_BASE@@G@Z 0040cda0 f   Handler_MW.obj
 0001:0000bfd0       ?OnMW_NOTICE_CMD@Handler_MW@@SAXPAVMasterServerSession@@PAUMSG_BASE@@G@Z 0040cfd0 f   Handler_MW.obj
 0001:0000c350       ?OnMW_BATTLEZONEINFO_REQ@Handler_MW@@SAXPAVMasterServerSession@@PAUMSG_BASE@@G@Z 0040d350 f   Handler_MW.obj
 0001:0000c460       ?OnAW_USER_STATUS_HEIM_CONSUMPTION_NTF@Handler_AW@@SAXPAVAgentServerSession@@PAUMSG_BASE@@G@Z 0040d460 f   Handler_AW.obj
 0001:0000c480       ?OnAW_USER_LOTTO_REWARD_ACK@Handler_AW@@SAXPAVAgentServerSession@@PAUMSG_BASE@@G@Z 0040d480 f   Handler_AW.obj
 0001:0000c4a0       ?OnAW_USER_SYSTEMMEMO_SEND_CMD@Handler_AW@@SAXPAVAgentServerSession@@PAUMSG_BASE@@G@Z 0040d4a0 f   Handler_AW.obj
 0001:0000c4c0       ?OnAW_CHAO_REQUEST_REVENGEINFO_SYN@Handler_AW@@SAXPAVAgentServerSession@@PAUMSG_BASE@@G@Z 0040d4c0 f   Handler_AW.obj
 0001:0000c660       ?OnAW_CHAO_REMOVE_REVENGE_CHAR_SYN@Handler_AW@@SAXPAVAgentServerSession@@PAUMSG_BASE@@G@Z 0040d660 f   Handler_AW.obj
 0001:0000c780       ?OnAW_CHAO_ADD_REVENGE_CHAR_SYN@Handler_AW@@SAXPAVAgentServerSession@@PAUMSG_BASE@@G@Z 0040d780 f   Handler_AW.obj
 0001:0000c8f0       ?OnAW_ITEM_CHANGE_SPECIAL_ITEM_OWN_CMD@Handler_AW@@SAXPAVAgentServerSession@@PAUMSG_BASE@@G@Z 0040d8f0 f   Handler_AW.obj
 0001:0000c990       ?OnAW_ITEM_SPECIAL_ITEM_CLEAR_CMD@Handler_AW@@SAXPAVAgentServerSession@@PAUMSG_BASE@@G@Z 0040d990 f   Handler_AW.obj
 0001:0000c9c0       ?OnAW_ITEM_USE_DECREE_ITEM_NAK@Handler_AW@@SAXPAVAgentServerSession@@PAUMSG_BASE@@G@Z 0040d9c0 f   Handler_AW.obj
 0001:0000ca00       ?OnAW_USER_STATUS_INTERCEPTION_SYN@Handler_AW@@SAXPAVAgentServerSession@@PAUMSG_BASE@@G@Z 0040da00 f   Handler_AW.obj
 0001:0000ca30       ?OnAW_GM_NOTICE_CMD@Handler_AW@@SAXPAVAgentServerSession@@PAUMSG_BASE@@G@Z 0040da30 f   Handler_AW.obj
 0001:0000ca60       ?OnAW_GM_LOTTO_NUM_CMD@Handler_AW@@SAXPAVAgentServerSession@@PAUMSG_BASE@@G@Z 0040da60 f   Handler_AW.obj
 0001:0000cae0       ?OnAW_GM_LOTTO_SETTLE_CMD@Handler_AW@@SAXPAVAgentServerSession@@PAUMSG_BASE@@G@Z 0040dae0 f   Handler_AW.obj
 0001:0000cb10       ?OnAW_GM_LOTTO_FUND_CMD@Handler_AW@@SAXPAVAgentServerSession@@PAUMSG_BASE@@G@Z 0040db10 f   Handler_AW.obj
 0001:0000cb40       ?OnAW_STATUS_GROUP_START_CMD@Handler_AW@@SAXPAVAgentServerSession@@PAUMSG_BASE@@G@Z 0040db40 f   Handler_AW.obj
 0001:0000cb80       ?OnAW_USER_STATUS_PCBANG_BILLING_NTF@Handler_AW@@SAXPAVAgentServerSession@@PAUMSG_BASE@@G@Z 0040db80 f   Handler_AW.obj
 0001:0000cbd0       ?OnAW_FRIEND_INVITATIONR_INSERT_CMD@Handler_AW@@SAXPAVAgentServerSession@@PAUMSG_BASE@@G@Z 0040dbd0 f   Handler_AW.obj
 0001:0000cbf0       ?OnAW_AGENTSERVER_INFO_SYN@Handler_AW@@SAXPAVAgentServerSession@@PAUMSG_BASE@@G@Z 0040dbf0 f   Handler_AW.obj
 0001:0000cc80       ?OnAW_USER_ENTER_ZONE_SYN@Handler_AW@@SAXPAVAgentServerSession@@PAUMSG_BASE@@G@Z 0040dc80 f   Handler_AW.obj
 0001:0000cd10       ?OnAW_USER_LEAVE_ZONE_SYN@Handler_AW@@SAXPAVAgentServerSession@@PAUMSG_BASE@@G@Z 0040dd10 f   Handler_AW.obj
 0001:0000ce20       ?OnAW_USER_LOGOUT@Handler_AW@@SAXPAVAgentServerSession@@PAUMSG_BASE@@G@Z 0040de20 f   Handler_AW.obj
 0001:0000ce80       ?OnAW_PARTY_MAKE_SYN@Handler_AW@@SAXPAVAgentServerSession@@PAUMSG_BASE@@G@Z 0040de80 f   Handler_AW.obj
 0001:0000cef0       ?OnAW_PARTY_JOIN_MEMBER_SYN@Handler_AW@@SAXPAVAgentServerSession@@PAUMSG_BASE@@G@Z 0040def0 f   Handler_AW.obj
 0001:0000cfa0       ?OnAW_PARTY_WITHDRAW_MEMBER_SYN@Handler_AW@@SAXPAVAgentServerSession@@PAUMSG_BASE@@G@Z 0040dfa0 f   Handler_AW.obj
 0001:0000d050       ?OnAW_PARTY_DESTROY_SYN@Handler_AW@@SAXPAVAgentServerSession@@PAUMSG_BASE@@G@Z 0040e050 f   Handler_AW.obj
 0001:0000d0c0       ?OnAW_GM_WHISPER_SET_CMD@Handler_AW@@SAXPAVAgentServerSession@@PAUMSG_BASE@@G@Z 0040e0c0 f   Handler_AW.obj
 0001:0000d150       ?OnAW_GM_USERCHAT_BLOCK_CMD@Handler_AW@@SAXPAVAgentServerSession@@PAUMSG_BASE@@G@Z 0040e150 f   Handler_AW.obj
 0001:0000d3e0       ?OnAW_USER_LEVELUP_CMD@Handler_AW@@SAXPAVAgentServerSession@@PAUMSG_BASE@@G@Z 0040e3e0 f   Handler_AW.obj
 0001:0000d510       ?OnAW_ITEM_USE_DECREE_ITEM_ACK@Handler_AW@@SAXPAVAgentServerSession@@PAUMSG_BASE@@G@Z 0040e510 f   Handler_AW.obj
 0001:0000d720       ?OnAW_OPERATION_ROOM_CTRL_CMD@Handler_AW@@SAXPAVAgentServerSession@@PAUMSG_BASE@@G@Z 0040e720 f   Handler_AW.obj
 0001:0000d7b0       ?OnAW_STATUS_GROUP_EXP_ACQUISITION_CMD@Handler_AW@@SAXPAVAgentServerSession@@PAUMSG_BASE@@G@Z 0040e7b0 f   Handler_AW.obj
 0001:0000d830       ?OnAW_USER_STATUS_HEIM_ACQUISITION_NTF@Handler_AW@@SAXPAVAgentServerSession@@PAUMSG_BASE@@G@Z 0040e830 f   Handler_AW.obj
 0001:0000d8a0       ?OnAW_PARTY_ROOM_KEY_SYN@Handler_AW@@SAXPAVAgentServerSession@@PAUMSG_BASE@@G@Z 0040e8a0 f   Handler_AW.obj
 0001:0000d8f0       ?OnAW_PREPARE_NEW_USER_SYN@Handler_AW@@SAXPAVAgentServerSession@@PAUMSG_BASE@@G@Z 0040e8f0 f   Handler_AW.obj
 0001:0000daa0       ?OnAW_USER_SET_CHARNAME_SYN@Handler_AW@@SAXPAVAgentServerSession@@PAUMSG_BASE@@G@Z 0040eaa0 f   Handler_AW.obj
 0001:0000dd90       ?OnAW_USER_UNSET_CHARNAME_SYN@Handler_AW@@SAXPAVAgentServerSession@@PAUMSG_BASE@@G@Z 0040ed90 f   Handler_AW.obj
 0001:0000de80       ?OnAW_USER_RESTORE_CMD@Handler_AW@@SAXPAVAgentServerSession@@PAUMSG_BASE@@G@Z 0040ee80 f   Handler_AW.obj
 0001:0000e240       ?SetCharName@User@@QAEXV?$basic_string@DU?$char_traits@D@std@@V?$allocator@D@2@@std@@@Z 0040f240 f i Handler_AW.obj
 0001:0000e2b0       ?compare@?$char_traits@D@std@@SAHPBD0I@Z 0040f2b0 f i Handler_DW.obj
 0001:0000e330       ?IsGM@User@@QBEHXZ         0040f330 f i Handler_DW.obj
 0001:0000e350       ?OnDW_CONNECTION_SERVER_INFO_CMD@Handler_DW@@SAXPAVGameDBProxySession@@PAUMSG_BASE@@G@Z 0040f350 f   Handler_DW.obj
 0001:0000e360       ?OnDW_GM_CHATBLOCK_UPDATE_NAK@Handler_DW@@SAXPAVGameDBProxySession@@PAUMSG_BASE@@G@Z 0040f360 f   Handler_DW.obj
 0001:0000e380       ?OnDW_GUILD_SELECT_NOTICE_NAK@Handler_DW@@SAXPAVGameDBProxySession@@PAUMSG_BASE@@G@Z 0040f380 f   Handler_DW.obj
 0001:0000e390       ?OnDW_LOTTO_LOAD_ACK@Handler_DW@@SAXPAVGameDBProxySession@@PAUMSG_BASE@@G@Z 0040f390 f   Handler_DW.obj
 0001:0000e3b0       ?OnDW_LOTTO_SAVE_ENTRY_ACK@Handler_DW@@SAXPAVGameDBProxySession@@PAUMSG_BASE@@G@Z 0040f3b0 f   Handler_DW.obj
 0001:0000e3d0       ?OnDW_LOTTO_ROLLOVER_ACK@Handler_DW@@SAXPAVGameDBProxySession@@PAUMSG_BASE@@G@Z 0040f3d0 f   Handler_DW.obj
 0001:0000e3f0       ?OnDW_LOTTO_ADD_TICKET_ACK@Handler_DW@@SAXPAVGameDBProxySession@@PAUMSG_BASE@@G@Z 0040f3f0 f   Handler_DW.obj
 0001:0000e410       ?OnDW_LOTTO_REWARD_ACK@Handler_DW@@SAXPAVGameDBProxySession@@PAUMSG_BASE@@G@Z 0040f410 f   Handler_DW.obj
 0001:0000e430       ?OnDW_LOTTO_NOTICE_DEL_ACK@Handler_DW@@SAXPAVGameDBProxySession@@PAUMSG_BASE@@G@Z 0040f430 f   Handler_DW.obj
 0001:0000e450       ?OnDW_FRIEND_DATAIL_INFO_ACK@Handler_DW@@SAXPAVGameDBProxySession@@PAUMSG_BASE@@G@Z 0040f450 f   Handler_DW.obj
 0001:0000e590       ?OnDW_FRIEND_MEMO_UPDATE_ACK@Handler_DW@@SAXPAVGameDBProxySession@@PAUMSG_BASE@@G@Z 0040f590 f   Handler_DW.obj
 0001:0000e5d0       ?OnDW_GM_CHATBLOCK_ACK@Handler_DW@@SAXPAVGameDBProxySession@@PAUMSG_BASE@@G@Z 0040f5d0 f   Handler_DW.obj
 0001:0000e6a0       ?OnDW_GM_CHATBLOCK_NAK@Handler_DW@@SAXPAVGameDBProxySession@@PAUMSG_BASE@@G@Z 0040f6a0 f   Handler_DW.obj
 0001:0000e720       ?OnDW_GM_CHATALLOW_ACK@Handler_DW@@SAXPAVGameDBProxySession@@PAUMSG_BASE@@G@Z 0040f720 f   Handler_DW.obj
 0001:0000e7d0       ?OnDW_GM_CHATALLOW_NAK@Handler_DW@@SAXPAVGameDBProxySession@@PAUMSG_BASE@@G@Z 0040f7d0 f   Handler_DW.obj
 0001:0000e850       ?OnDW_GM_CHATBLOCKTIME_ANS@Handler_DW@@SAXPAVGameDBProxySession@@PAUMSG_BASE@@G@Z 0040f850 f   Handler_DW.obj
 0001:0000e8d0       ?OnDW_GM_CHATBLOCKTIME_NAK@Handler_DW@@SAXPAVGameDBProxySession@@PAUMSG_BASE@@G@Z 0040f8d0 f   Handler_DW.obj
 0001:0000e920       ?OnDW_CHAO_ADD_REVENGE_CHAR_NAK@Handler_DW@@SAXPAVGameDBProxySession@@PAUMSG_BASE@@G@Z 0040f920 f   Handler_DW.obj
 0001:0000e9d0       ?OnDW_CHAO_PK_REVENGE_CHAR_ACK@Handler_DW@@SAXPAVGameDBProxySession@@PAUMSG_BASE@@G@Z 0040f9d0 f   Handler_DW.obj
 0001:0000eb60       ?OnDW_CHAO_PK_REVENGE_CHAR_NAK@Handler_DW@@SAXPAVGameDBProxySession@@PAUMSG_BASE@@G@Z 0040fb60 f   Handler_DW.obj
 0001:0000ec00       ?OnDW_STATUS_INTERCEPTION_ANS@Handler_DW@@SAXPAVGameDBProxySession@@PAUMSG_BASE@@G@Z 0040fc00 f   Handler_DW.obj
 0001:0000ec30       ?OnDW_STATUS_INTERCEPTION_NAK@Handler_DW@@SAXPAVGameDBProxySession@@PAUMSG_BASE@@G@Z 0040fc30 f   Handler_DW.obj
 0001:0000ec70       ?OnDW_GUILD_WAREHOUSE_LOGLIST_ANS@Handler_DW@@SAXPAVGameDBProxySession@@PAUMSG_BASE@@G@Z 0040fc70 f   Handler_DW.obj
 0001:0000ed40       ?OnDW_GUILD_WAREHOUSE_LOGLIST_NAK@Handler_DW@@SAXPAVGameDBProxySession@@PAUMSG_BASE@@G@Z 0040fd40 f   Handler_DW.obj
 0001:0000ed80       ?OnDW_MULTIMEMO_SEND_ACK@Handler_DW@@SAXPAVGameDBProxySession@@PAUMSG_BASE@@G@Z 0040fd80 f   Handler_DW.obj
 0001:0000eed0       ?OnDW_GROUP_ADD_NAK@Handler_DW@@SAXPAVGameDBProxySession@@PAUMSG_BASE@@G@Z 0040fed0 f   Handler_DW.obj
 0001:0000ef70       ?OnDW_LOTTO_LOAD_ENTRY_ACK@Handler_DW@@SAXPAVGameDBProxySession@@PAUMSG_BASE@@G@Z 0040ff70 f   Handler_DW.obj
 0001:0000efb0       ?OnDW_LOTTO_WINNER_LIST_ACK@Handler_DW@@SAXPAVGameDBProxySession@@PAUMSG_BASE@@G@Z 0040ffb0 f   Handler_DW.obj
 0001:0000eff0       ?OnDW_LOTTO_NOTICE_LIST_ACK@Handler_DW@@SAXPAVGameDBProxySession@@PAUMSG_BASE@@G@Z 0040fff0 f   Handler_DW.obj
 0001:0000f030       ?OnDW_DOMINATION_FINDMONEY_ACK@Handler_DW@@SAXPAVGameDBProxySession@@PAUMSG_BASE@@G@Z 00410030 f   Handler_DW.obj
 0001:0000f190       ?OnDW_NOTIFICATION_ITEM_SYN@Handler_DW@@SAXPAVGameDBProxySession@@PAUMSG_BASE@@G@Z 00410190 f   Handler_DW.obj
 0001:0000f1d0       ?OnDW_NOTIFICATION_CLEAR_SYN@Handler_DW@@SAXPAVGameDBProxySession@@PAUMSG_BASE@@G@Z 004101d0 f   Handler_DW.obj
 0001:0000f210       ?OnDW_FRIEND_GETLIST_ACK@Handler_DW@@SAXPAVGameDBProxySession@@PAUMSG_BASE@@G@Z 00410210 f   Handler_DW.obj
 0001:0000f670       ?OnDW_FRIEND_GETLIST_NAK@Handler_DW@@SAXPAVGameDBProxySession@@PAUMSG_BASE@@G@Z 00410670 f   Handler_DW.obj
 0001:0000f710       ?OnDW_FRIEND_ADD_NAK@Handler_DW@@SAXPAVGameDBProxySession@@PAUMSG_BASE@@G@Z 00410710 f   Handler_DW.obj
 0001:0000f7a0       ?OnDW_FRIEND_DEL_ACK@Handler_DW@@SAXPAVGameDBProxySession@@PAUMSG_BASE@@G@Z 004107a0 f   Handler_DW.obj
 0001:0000f930       ?OnDW_FRIEND_DEL_NAK@Handler_DW@@SAXPAVGameDBProxySession@@PAUMSG_BASE@@G@Z 00410930 f   Handler_DW.obj
 0001:0000f9d0       ?OnDW_FRIEND_BLOCK_ACK@Handler_DW@@SAXPAVGameDBProxySession@@PAUMSG_BASE@@G@Z 004109d0 f   Handler_DW.obj
 0001:0000fb70       ?OnDW_FRIEND_BLOCK_NAK@Handler_DW@@SAXPAVGameDBProxySession@@PAUMSG_BASE@@G@Z 00410b70 f   Handler_DW.obj
 0001:0000fc00       ?OnDW_FRIEND_BLOCK_FREE_ACK@Handler_DW@@SAXPAVGameDBProxySession@@PAUMSG_BASE@@G@Z 00410c00 f   Handler_DW.obj
 0001:0000fd50       ?OnDW_FRIEND_BLOCK_FREE_NAK@Handler_DW@@SAXPAVGameDBProxySession@@PAUMSG_BASE@@G@Z 00410d50 f   Handler_DW.obj
 0001:0000fde0       ?OnDW_FRIEND_DETAIL_INFO_NAK@Handler_DW@@SAXPAVGameDBProxySession@@PAUMSG_BASE@@G@Z 00410de0 f   Handler_DW.obj
 0001:0000fe50       ?OnDW_FRIEND_MEMO_UPDATE_NAK@Handler_DW@@SAXPAVGameDBProxySession@@PAUMSG_BASE@@G@Z 00410e50 f   Handler_DW.obj
 0001:0000fec0       ?OnDW_CHAO_ADD_REVENGE_CHAR_ACK@Handler_DW@@SAXPAVGameDBProxySession@@PAUMSG_BASE@@G@Z 00410ec0 f   Handler_DW.obj
 0001:00010180       ?OnDW_CHAO_REMOVE_REVENGE_CHAR_ACK@Handler_DW@@SAXPAVGameDBProxySession@@PAUMSG_BASE@@G@Z 00411180 f   Handler_DW.obj
 0001:00010350       ?OnDW_CHAO_REMOVE_REVENGE_CHAR_NAK@Handler_DW@@SAXPAVGameDBProxySession@@PAUMSG_BASE@@G@Z 00411350 f   Handler_DW.obj
 0001:00010410       ?OnDW_MEMO_SEND_NAK@Handler_DW@@SAXPAVGameDBProxySession@@PAUMSG_BASE@@G@Z 00411410 f   Handler_DW.obj
 0001:000104c0       ?OnDW_MEMO_LIST_ANS@Handler_DW@@SAXPAVGameDBProxySession@@PAUMSG_BASE@@G@Z 004114c0 f   Handler_DW.obj
 0001:000105f0       ?OnDW_MEMO_LIST_NAK@Handler_DW@@SAXPAVGameDBProxySession@@PAUMSG_BASE@@G@Z 004115f0 f   Handler_DW.obj
 0001:00010690       ?OnDW_MEMO_VIEW_ANS@Handler_DW@@SAXPAVGameDBProxySession@@PAUMSG_BASE@@G@Z 00411690 f   Handler_DW.obj
 0001:00010810       ?OnDW_MEMO_VIEW_NAK@Handler_DW@@SAXPAVGameDBProxySession@@PAUMSG_BASE@@G@Z 00411810 f   Handler_DW.obj
 0001:000108b0       ?OnDW_MEMO_DELETE_ACK@Handler_DW@@SAXPAVGameDBProxySession@@PAUMSG_BASE@@G@Z 004118b0 f   Handler_DW.obj
 0001:00010a20       ?OnDW_MEMO_DELETE_NAK@Handler_DW@@SAXPAVGameDBProxySession@@PAUMSG_BASE@@G@Z 00411a20 f   Handler_DW.obj
 0001:00010ac0       ?OnDW_GUILD_SELECT_NOTICE_ACK@Handler_DW@@SAXPAVGameDBProxySession@@PAUMSG_BASE@@G@Z 00411ac0 f   Handler_DW.obj
 0001:00010be0       ?OnDW_GROUP_ADD_ACK@Handler_DW@@SAXPAVGameDBProxySession@@PAUMSG_BASE@@G@Z 00411be0 f   Handler_DW.obj
 0001:00010ce0       ?OnDW_GROUP_DEL_ACK@Handler_DW@@SAXPAVGameDBProxySession@@PAUMSG_BASE@@G@Z 00411ce0 f   Handler_DW.obj
 0001:00010e50       ?OnDW_GROUP_DEL_NAK@Handler_DW@@SAXPAVGameDBProxySession@@PAUMSG_BASE@@G@Z 00411e50 f   Handler_DW.obj
 0001:00010f20       ?OnDW_GROUP_LIST_ACK@Handler_DW@@SAXPAVGameDBProxySession@@PAUMSG_BASE@@G@Z 00411f20 f   Handler_DW.obj
 0001:00011170       ?OnDW_FRIEND_ADD_ACK@Handler_DW@@SAXPAVGameDBProxySession@@PAUMSG_BASE@@G@Z 00412170 f   Handler_DW.obj
 0001:000113f0       ?OnDW_MEMO_SEND_ACK@Handler_DW@@SAXPAVGameDBProxySession@@PAUMSG_BASE@@G@Z 004123f0 f   Handler_DW.obj
 0001:00011770       ?substr@?$basic_string@DU?$char_traits@D@std@@V?$allocator@D@2@@std@@QBE?AV12@II@Z 00412770 f i Handler_DW.obj
 0001:000117b0       ?OnSERVERCOMMON_HEARTBEAT@Handler_WZ@@SAXPAVGameDBProxySession@@PAUMSG_BASE@@G@Z 004127b0 f   Handler_WZ.obj
 0001:000117c0       ?OnWZ_GUILD_NOTICE_CMD@Handler_WZ@@SAXPAVGameDBProxySession@@PAUMSG_BASE@@G@Z 004127c0 f   Handler_WZ.obj
 0001:000117d0       ?OnWZ_GUILD_CHANGE_NOTICE_NAK@Handler_WZ@@SAXPAVGameDBProxySession@@PAUMSG_BASE@@G@Z 004127d0 f   Handler_WZ.obj
 0001:00011810       ?OnWZ_GUILD_CHECK_CONDITION_ACCESS_DETAIL_INFO_ACK@Handler_WZ@@SAXPAVGameDBProxySession@@PAUMSG_BASE@@G@Z 00412810 f   Handler_WZ.obj
 0001:00011890       ?OnWZ_GUILD_CHECK_CONDITION_ACCESS_DETAIL_INFO_NAK@Handler_WZ@@SAXPAVGameDBProxySession@@PAUMSG_BASE@@G@Z 00412890 f   Handler_WZ.obj
 0001:000118d0       ?OnWZ_GUILD_DESTROY_GUILD_CMD@Handler_WZ@@SAXPAVGameDBProxySession@@PAUMSG_BASE@@G@Z 004128d0 f   Handler_WZ.obj
 0001:000118f0       ?OnWZ_GUILD_JOIN_GUILD_CMD@Handler_WZ@@SAXPAVGameDBProxySession@@PAUMSG_BASE@@G@Z 004128f0 f   Handler_WZ.obj
 0001:00011a30       ?OnWZ_GUILD_WITHDRAW_GUILD_CMD@Handler_WZ@@SAXPAVGameDBProxySession@@PAUMSG_BASE@@G@Z 00412a30 f   Handler_WZ.obj
 0001:00011a70       ?OnWZ_GUILD_CHANGE_DUTY_CMD@Handler_WZ@@SAXPAVGameDBProxySession@@PAUMSG_BASE@@G@Z 00412a70 f   Handler_WZ.obj
 0001:00011ab0       ?OnWZ_GUILD_CHANGE_MASTER_CMD@Handler_WZ@@SAXPAVGameDBProxySession@@PAUMSG_BASE@@G@Z 00412ab0 f   Handler_WZ.obj
 0001:00011af0       ?OnWZ_GUILD_CHANGE_COMMANDER_CMD@Handler_WZ@@SAXPAVGameDBProxySession@@PAUMSG_BASE@@G@Z 00412af0 f   Handler_WZ.obj
 0001:00011b10       ?OnWZ_GUILD_CHANGE_CORPS_CMD@Handler_WZ@@SAXPAVGameDBProxySession@@PAUMSG_BASE@@G@Z 00412b10 f   Handler_WZ.obj
 0001:00011b30       ?OnWZ_GUILD_CREATE_REAR_CAMP_CMD@Handler_WZ@@SAXPAVGameDBProxySession@@PAUMSG_BASE@@G@Z 00412b30 f   Handler_WZ.obj
 0001:00011b50       ?OnWZ_GUILD_DESTROY_REAR_CAMP_CMD@Handler_WZ@@SAXPAVGameDBProxySession@@PAUMSG_BASE@@G@Z 00412b50 f   Handler_WZ.obj
 0001:00011b70       ?OnWZ_GUILD_CREATE_CMD@Handler_WZ@@SAXPAVGameDBProxySession@@PAUMSG_BASE@@G@Z 00412b70 f   Handler_WZ.obj
 0001:00011bd0       ?OnWZ_GUILD_RESTORE_ACK@Handler_WZ@@SAXPAVGameDBProxySession@@PAUMSG_BASE@@G@Z 00412bd0 f   Handler_WZ.obj
 0001:00011bf0       ?OnWZ_GUILD_LOGIN_CHAR_CMD@Handler_WZ@@SAXPAVGameDBProxySession@@PAUMSG_BASE@@G@Z 00412bf0 f   Handler_WZ.obj
 0001:00011ce0       ?OnWZ_GUILD_LOGOUT_CHAR_CMD@Handler_WZ@@SAXPAVGameDBProxySession@@PAUMSG_BASE@@G@Z 00412ce0 f   Handler_WZ.obj
 0001:00011d00       ?OnWZ_GUILD_KICK_PLAYER_CMD@Handler_WZ@@SAXPAVGameDBProxySession@@PAUMSG_BASE@@G@Z 00412d00 f   Handler_WZ.obj
 0001:00011d40       ?OnWZ_GUILD_MEMBER_INFO_REQ_ACK@Handler_WZ@@SAXPAVGameDBProxySession@@PAUMSG_BASE@@G@Z 00412d40 f   Handler_WZ.obj
 0001:00011d60       ?OnWZ_GUILD_RECOVERY_GUILD_CMD@Handler_WZ@@SAXPAVGameDBProxySession@@PAUMSG_BASE@@G@Z 00412d60 f   Handler_WZ.obj
 0001:00011dc0       ?OnWZ_GUILD_DESTROY_WAIT_CMD@Handler_WZ@@SAXPAVGameDBProxySession@@PAUMSG_BASE@@G@Z 00412dc0 f   Handler_WZ.obj
 0001:00011e20       ?OnWZ_GUILD_GUILDMARK_REGISTER_CMD@Handler_WZ@@SAXPAVGameDBProxySession@@PAUMSG_BASE@@G@Z 00412e20 f   Handler_WZ.obj
 0001:00011e90       ?OnWZ_GUILD_GUILDMARK_DELETE_CMD@Handler_WZ@@SAXPAVGameDBProxySession@@PAUMSG_BASE@@G@Z 00412e90 f   Handler_WZ.obj
 0001:00011f00       ?OnWZ_GUILD_CHANGE_NOTICE_CMD@Handler_WZ@@SAXPAVGameDBProxySession@@PAUMSG_BASE@@G@Z 00412f00 f   Handler_WZ.obj
 0001:00011fb0       ?OnWZ_GUILD_NAME_CHANGE_CMD@Handler_WZ@@SAXPAVGameDBProxySession@@PAUMSG_BASE@@G@Z 00412fb0 f   Handler_WZ.obj
 0001:00011ff0       ?OnWZ_GUILD_RENAME_CHAR_CMD@Handler_WZ@@SAXPAVGameDBProxySession@@PAUMSG_BASE@@G@Z 00412ff0 f   Handler_WZ.obj
 0001:00012050       ?OnWZ_GUILD_DOMINATION_RETURNHIME_CMD@Handler_WZ@@SAXPAVGameDBProxySession@@PAUMSG_BASE@@G@Z 00413050 f   Handler_WZ.obj
 0001:00012070       ??0AccountDBProxySession@@QAE@XZ 00413070 f   AccountDBProxySession.obj
 0001:00012090       ??1AccountDBProxySession@@UAE@XZ 00413090 f   AccountDBProxySession.obj
 0001:000120a0       ?Init@AccountDBProxySession@@UAEXXZ 004130a0 f   AccountDBProxySession.obj
 0001:000120b0       ?Release@AccountDBProxySession@@UAEXXZ 004130b0 f   AccountDBProxySession.obj
 0001:000120c0       ?Update@AccountDBProxySession@@UAEXXZ 004130c0 f   AccountDBProxySession.obj
 0001:000120d0       ?OnAccept@AccountDBProxySession@@MAEXK@Z 004130d0 f   AccountDBProxySession.obj
 0001:000120e0       ?OnDisconnect@AccountDBProxySession@@MAEXXZ 004130e0 f   AccountDBProxySession.obj
 0001:00012100       ?SendReqServerInfo@AccountDBProxySession@@AAEXXZ 00413100 f   AccountDBProxySession.obj
 0001:00012110       ?OnConnect@AccountDBProxySession@@MAEXHK@Z 00413110 f   AccountDBProxySession.obj
 0001:00012140       ?OnRecv@AccountDBProxySession@@MAEXPAEG@Z 00413140 f   AccountDBProxySession.obj
 0001:00012160       ?GetServerType@AccountDBProxySession@@UAE?AW4eSERVER_TYPE@@XZ 00413160 f i AccountDBProxySession.obj
 0001:00012170       ??_GAccountDBProxySession@@UAEPAXI@Z 00413170 f i AccountDBProxySession.obj
 0001:00012170       ??_EAccountDBProxySession@@UAEPAXI@Z 00413170 f i AccountDBProxySession.obj
 0001:000121a0       ??0AgentServerSession@@QAE@XZ 004131a0 f   AgentServerSession.obj
 0001:000121c0       ??1AgentServerSession@@UAE@XZ 004131c0 f   AgentServerSession.obj
 0001:000121d0       ?Init@AgentServerSession@@UAEXXZ 004131d0 f   AgentServerSession.obj
 0001:000121f0       ?Release@AgentServerSession@@UAEXXZ 004131f0 f   AgentServerSession.obj
 0001:00012200       ?Update@AgentServerSession@@UAEXXZ 00413200 f   AgentServerSession.obj
 0001:00012210       ?OnRedirect@AgentServerSession@@UAEXXZ 00413210 f   AgentServerSession.obj
 0001:00012230       ?OnConnect@AgentServerSession@@MAEXHK@Z 00413230 f   AgentServerSession.obj
 0001:00012240       ?OnRecv@AgentServerSession@@MAEXPAEG@Z 00413240 f   AgentServerSession.obj
 0001:00012260       ?OnDisconnect@AgentServerSession@@MAEXXZ 00413260 f   AgentServerSession.obj
 0001:00012290       ??_GAgentServerSession@@UAEPAXI@Z 00413290 f i AgentServerSession.obj
 0001:00012290       ??_EAgentServerSession@@UAEPAXI@Z 00413290 f i AgentServerSession.obj
 0001:000122c0       ??0BattleServerSession@@QAE@XZ 004132c0 f   BattleServerSession.obj
 0001:000122e0       ??1BattleServerSession@@UAE@XZ 004132e0 f   BattleServerSession.obj
 0001:000122f0       ?Init@BattleServerSession@@UAEXXZ 004132f0 f   BattleServerSession.obj
 0001:00012300       ?Release@BattleServerSession@@UAEXXZ 00413300 f   BattleServerSession.obj
 0001:00012310       ?Update@BattleServerSession@@UAEXXZ 00413310 f   BattleServerSession.obj
 0001:00012320       ?OnRedirect@BattleServerSession@@UAEXXZ 00413320 f   BattleServerSession.obj
 0001:00012350       ?OnConnect@BattleServerSession@@MAEXHK@Z 00413350 f   BattleServerSession.obj
 0001:00012360       ?OnDisconnect@BattleServerSession@@MAEXXZ 00413360 f   BattleServerSession.obj
 0001:00012380       ?OnRecv@BattleServerSession@@MAEXPAEG@Z 00413380 f   BattleServerSession.obj
 0001:000123b0       ??_GBattleServerSession@@UAEPAXI@Z 004133b0 f i BattleServerSession.obj
 0001:000123b0       ??_EBattleServerSession@@UAEPAXI@Z 004133b0 f i BattleServerSession.obj
 0001:000123e0       ??0FieldServerSession@@QAE@XZ 004133e0 f   FieldServerSession.obj
 0001:00012400       ??1FieldServerSession@@UAE@XZ 00413400 f   FieldServerSession.obj
 0001:00012410       ?Init@FieldServerSession@@UAEXXZ 00413410 f   FieldServerSession.obj
 0001:00012420       ?Release@FieldServerSession@@UAEXXZ 00413420 f   FieldServerSession.obj
 0001:00012430       ?Update@FieldServerSession@@UAEXXZ 00413430 f   FieldServerSession.obj
 0001:00012440       ?OnRedirect@FieldServerSession@@UAEXXZ 00413440 f   FieldServerSession.obj
 0001:00012470       ?OnConnect@FieldServerSession@@MAEXHK@Z 00413470 f   FieldServerSession.obj
 0001:00012480       ?OnDisconnect@FieldServerSession@@MAEXXZ 00413480 f   FieldServerSession.obj
 0001:000124a0       ?OnRecv@FieldServerSession@@MAEXPAEG@Z 004134a0 f   FieldServerSession.obj
 0001:000124d0       ??_GFieldServerSession@@UAEPAXI@Z 004134d0 f i FieldServerSession.obj
 0001:000124d0       ??_EFieldServerSession@@UAEPAXI@Z 004134d0 f i FieldServerSession.obj
 0001:00012500       ??0GameDBProxySession@@QAE@XZ 00413500 f   GameDBProxySession.obj
 0001:00012520       ??1GameDBProxySession@@UAE@XZ 00413520 f   GameDBProxySession.obj
 0001:00012530       ?Init@GameDBProxySession@@UAEXXZ 00413530 f   GameDBProxySession.obj
 0001:00012540       ?Release@GameDBProxySession@@UAEXXZ 00413540 f   GameDBProxySession.obj
 0001:00012550       ?Update@GameDBProxySession@@UAEXXZ 00413550 f   GameDBProxySession.obj
 0001:00012560       ?OnRedirect@GameDBProxySession@@UAEXXZ 00413560 f   GameDBProxySession.obj
 0001:00012570       ?OnConnect@GameDBProxySession@@MAEXHK@Z 00413570 f   GameDBProxySession.obj
 0001:000125a0       ?OnDisconnect@GameDBProxySession@@MAEXXZ 004135a0 f   GameDBProxySession.obj
 0001:000125c0       ?OnRecv@GameDBProxySession@@MAEXPAEG@Z 004135c0 f   GameDBProxySession.obj
 0001:000125e0       ?GetServerType@GameDBProxySession@@UAE?AW4eSERVER_TYPE@@XZ 004135e0 f i GameDBProxySession.obj
 0001:000125f0       ??_EGameDBProxySession@@UAEPAXI@Z 004135f0 f i GameDBProxySession.obj
 0001:000125f0       ??_GGameDBProxySession@@UAEPAXI@Z 004135f0 f i GameDBProxySession.obj
 0001:00012620       ??0GameServerSession@@QAE@XZ 00413620 f   GameServerSession.obj
 0001:00012640       ??1GameServerSession@@UAE@XZ 00413640 f   GameServerSession.obj
 0001:00012650       ?Init@GameServerSession@@UAEXXZ 00413650 f   GameServerSession.obj
 0001:00012660       ?Release@GameServerSession@@UAEXXZ 00413660 f   GameServerSession.obj
 0001:00012670       ?Update@GameServerSession@@UAEXXZ 00413670 f   GameServerSession.obj
 0001:00012680       ?OnRedirect@GameServerSession@@UAEXXZ 00413680 f   GameServerSession.obj
 0001:00012690       ?OnConnect@GameServerSession@@MAEXHK@Z 00413690 f   GameServerSession.obj
 0001:000126a0       ?OnDisconnect@GameServerSession@@MAEXXZ 004136a0 f   GameServerSession.obj
 0001:000126b0       ?SendDBProxyServerInfo@GameServerSession@@AAEXXZ 004136b0 f   GameServerSession.obj
 0001:000126c0       ?OnRecv@GameServerSession@@MAEXPAEG@Z 004136c0 f   GameServerSession.obj
 0001:00012700       ?GetServerType@BattleServerSession@@UAE?AW4eSERVER_TYPE@@XZ 00413700 f i BattleServerSession.obj
 0001:00012700       ?GetServerType@GameServerSession@@UAE?AW4eSERVER_TYPE@@XZ 00413700 f i GameServerSession.obj
 0001:00012710       ??_GGameServerSession@@UAEPAXI@Z 00413710 f i GameServerSession.obj
 0001:00012710       ??_EGameServerSession@@UAEPAXI@Z 00413710 f i GameServerSession.obj
 0001:00012740       ??0MasterServerSession@@QAE@XZ 00413740 f   MasterServerSession.obj
 0001:00012760       ??1MasterServerSession@@UAE@XZ 00413760 f   MasterServerSession.obj
 0001:00012770       ?Init@MasterServerSession@@UAEXXZ 00413770 f   MasterServerSession.obj
 0001:00012780       ?Release@MasterServerSession@@UAEXXZ 00413780 f   MasterServerSession.obj
 0001:00012790       ?Update@MasterServerSession@@UAEXXZ 00413790 f   MasterServerSession.obj
 0001:000127a0       ?OnRedirect@MasterServerSession@@UAEXXZ 004137a0 f   MasterServerSession.obj
 0001:000127c0       ?OnConnect@MasterServerSession@@MAEXHK@Z 004137c0 f   MasterServerSession.obj
 0001:00012800       ?OnDisconnect@MasterServerSession@@MAEXXZ 00413800 f   MasterServerSession.obj
 0001:00012830       ?OnRecv@MasterServerSession@@MAEXPAEG@Z 00413830 f   MasterServerSession.obj
 0001:00012850       ?GetServerType@MasterServerSession@@UAE?AW4eSERVER_TYPE@@XZ 00413850 f i MasterServerSession.obj
 0001:00012860       ??_EMasterServerSession@@UAEPAXI@Z 00413860 f i MasterServerSession.obj
 0001:00012860       ??_GMasterServerSession@@UAEPAXI@Z 00413860 f i MasterServerSession.obj
 0001:00012890       ?Release@ServerSession@@UAEXXZ 00413890 f   ServerSession.obj
 0001:000128a0       ?Update@ServerSession@@UAEXXZ 004138a0 f   ServerSession.obj
 0001:000128d0       ?SendServerType@ServerSession@@AAEXXZ 004138d0 f   ServerSession.obj
 0001:00012900       ?OnLogString@ServerSession@@MAEXPAD@Z 00413900 f   ServerSession.obj
 0001:00012920       ?OnConnect@ServerSession@@MAEXHK@Z 00413920 f   ServerSession.obj
 0001:00012980       ?OnAccept@ServerSession@@MAEXK@Z 00413980 f   ServerSession.obj
 0001:000129d0       ?OnDisconnect@ServerSession@@MAEXXZ 004139d0 f   ServerSession.obj
 0001:000129f0       ??0ServerSession@@QAE@XZ   004139f0 f   ServerSession.obj
 0001:00012a20       ??1ServerSession@@UAE@XZ   00413a20 f   ServerSession.obj
 0001:00012a60       ?Init@ServerSession@@UAEXXZ 00413a60 f   ServerSession.obj
 0001:00012a90       ?SetAddr@ServerSession@@QAEXPADG@Z 00413a90 f   ServerSession.obj
 0001:00012ad0       ??0?$_String_const_iterator@DU?$char_traits@D@std@@V?$CustomAllocator@D@util@@@std@@QAE@PBDPBV_Container_base_secure@1@@Z 00413ad0 f i servercommon:GMCmdParser.obj
 0001:00012ad0       ??0?$_String_const_iterator@DU?$char_traits@D@std@@V?$allocator@D@2@@std@@QAE@PBDPBV_Container_base_secure@1@@Z 00413ad0 f i ServerSession.obj
 0001:00012b30       ?GetServerType@ServerSession@@UAE?AW4eSERVER_TYPE@@XZ 00413b30 f i ServerSession.obj
 0001:00012b30       ?GetPoolBasicSize@IMemoryPoolFactoryImpl@internal@util@@UBEHXZ 00413b30 f i ServerSessionFactory.obj
 0001:00012b30       ?GetNumberOfBands@IMemoryPoolFactoryImpl@internal@util@@UBEHXZ 00413b30 f i ServerSessionFactory.obj
 0001:00012b30       ?GetAvailableNumberOfTypes@IMemoryPoolFactoryImpl@internal@util@@UBEHXZ 00413b30 f i ServerSessionFactory.obj
 0001:00012b30       ?IsReadOnly@cSTRING_REF_RW@util@@UAEHXZ 00413b30 f i Handler_CW.obj
 0001:00012b30       ?MakeSafeString@cSTRING_REF@util@@UAEHXZ 00413b30 f i Handler_CW.obj
 0001:00012b30       ?GetPoolExtendSize@IMemoryPoolFactoryImpl@internal@util@@UBEHXZ 00413b30 f i ServerSessionFactory.obj
 0001:00012b40       ?erase@?$basic_string@DU?$char_traits@D@std@@V?$CustomAllocator@D@util@@@std@@QAE?AV?$_String_iterator@DU?$char_traits@D@std@@V?$CustomAllocator@D@util@@@2@V?$_String_const_iterator@DU?$char_traits@D@std@@V?$CustomAllocator@D@util@@@2@0@Z 00413b40 f i servercommon:GMCmdParser.obj
 0001:00012b40       ?erase@?$basic_string@DU?$char_traits@D@std@@V?$allocator@D@2@@std@@QAE?AV?$_String_iterator@DU?$char_traits@D@std@@V?$allocator@D@2@@2@V?$_String_const_iterator@DU?$char_traits@D@std@@V?$allocator@D@2@@2@0@Z 00413b40 f i ServerSession.obj
 0001:00012c20       ??_GServerSession@@UAEPAXI@Z 00413c20 f i ServerSession.obj
 0001:00012c20       ??_EServerSession@@UAEPAXI@Z 00413c20 f i ServerSession.obj
 0001:00012c70       ?clear@?$basic_string@DU?$char_traits@D@std@@V?$CustomAllocator@D@util@@@std@@QAEXXZ 00413c70 f i servercommon:GMCmdParser.obj
 0001:00012c70       ?clear@?$basic_string@DU?$char_traits@D@std@@V?$allocator@D@2@@std@@QAEXXZ 00413c70 f i ServerSession.obj
 0001:00012d10       ??0TempServerSession@@QAE@XZ 00413d10 f   TempServerSession.obj
 0001:00012d30       ??1TempServerSession@@UAE@XZ 00413d30 f   TempServerSession.obj
 0001:00012d40       ?Release@TempServerSession@@UAEXXZ 00413d40 f   TempServerSession.obj
 0001:00012d50       ?OnAccept@TempServerSession@@MAEXK@Z 00413d50 f   TempServerSession.obj
 0001:00012d60       ?OnRecv@TempServerSession@@MAEXPAEG@Z 00413d60 f   TempServerSession.obj
 0001:00012de0       ?GetServerType@TempServerSession@@UAE?AW4eSERVER_TYPE@@XZ 00413de0 f i TempServerSession.obj
 0001:00012df0       ??_GTempServerSession@@UAEPAXI@Z 00413df0 f i TempServerSession.obj
 0001:00012df0       ??_ETempServerSession@@UAEPAXI@Z 00413df0 f i TempServerSession.obj
 0001:00012e20       ?AllocServerSession@ServerSessionFactory@@QAEPAVServerSession@@W4eSERVER_TYPE@@@Z 00413e20 f   ServerSessionFactory.obj
 0001:00012ed0       ?FreeServerSession@ServerSessionFactory@@QAEHPAVServerSession@@@Z 00413ed0 f   ServerSessionFactory.obj
 0001:00012fb0       ??1ServerSessionFactory@@QAE@XZ 00413fb0 f   ServerSessionFactory.obj
 0001:00013020       ??0ServerSessionFactory@@QAE@XZ 00414020 f   ServerSessionFactory.obj
 0001:00013170       ?Create@?$VariableSizeChunkImpl@VTempServerSession@@@internal@util@@CAXPAX@Z 00414170 f i ServerSessionFactory.obj
 0001:000131c0       ??1?$NotUseChunkImpl@VCryptHSEL@@@internal@util@@UAE@XZ 004141c0 f i MOLA_s:CryptManager.Server.obj
 0001:000131c0       ??1IMemoryPoolFactoryImpl@internal@util@@UAE@XZ 004141c0 f i ServerSessionFactory.obj
 0001:000131d0       ?Initialize@IMemoryPoolFactoryImpl@internal@util@@UAE_NIIPBD@Z 004141d0 f i ServerSessionFactory.obj
 0001:000131e0       ?Alloc@?$NotUseChunkImpl@VTempServerSession@@@internal@util@@UAEPAXXZ 004141e0 f i ServerSessionFactory.obj
 0001:00013240       ??0?$VariableSizeChunkImpl@VTempServerSession@@@internal@util@@QAE@XZ 00414240 f i ServerSessionFactory.obj
 0001:000132a0       ?Release@?$VariableSizeChunkImpl@VBattleServerSession@@@internal@util@@UAEXXZ 004142a0 f i ServerSessionFactory.obj
 0001:000132a0       ?Release@?$VariableSizeChunkImpl@VTempServerSession@@@internal@util@@UAEXXZ 004142a0 f i ServerSessionFactory.obj
 0001:000132a0       ?Release@?$VariableSizeChunkImpl@VFieldServerSession@@@internal@util@@UAEXXZ 004142a0 f i ServerSessionFactory.obj
 0001:000132a0       ?Release@?$VariableSizeChunkImpl@VVillageZone@@@internal@util@@UAEXXZ 004142a0 f i ZoneFactory.obj
 0001:000132a0       ?Release@?$VariableSizeChunkImpl@USTRUCT_FRIEND_INFO@@@internal@util@@UAEXXZ 004142a0 f i UserManager.obj
 0001:000132a0       ?Release@?$VariableSizeChunkImpl@VViewPortZone@@@internal@util@@UAEXXZ 004142a0 f i ZoneFactory.obj
 0001:000132a0       ?Release@?$VariableSizeChunkImpl@VNODE@?$CLinkedlist@PAVSectorInfo@@K@util@@@internal@util@@UAEXXZ 004142a0 f i FieldInfo.obj
 0001:000132a0       ?Release@?$VariableSizeChunkImpl@VTempUser@@@internal@util@@UAEXXZ 004142a0 f i UserFactory.obj
 0001:000132a0       ?Release@?$VariableSizeChunkImpl@USTRUCT_REVENGE_INFO@@@internal@util@@UAEXXZ 004142a0 f i UserManager.obj
 0001:000132a0       ?Release@?$VariableSizeChunkImpl@VActiveUser@@@internal@util@@UAEXXZ 004142a0 f i UserFactory.obj
 0001:000132a0       ?Release@?$VariableSizeChunkImpl@VWorldGuildMember@@@internal@util@@UAEXXZ 004142a0 f i WorldGuildMember.obj
 0001:000132a0       ?Release@?$VariableSizeChunkImpl@VCommChatZone@@@internal@util@@UAEXXZ 004142a0 f i ChatRoomManager.obj
 0001:000132a0       ?Release@?$VariableSizeChunkImpl@VGameDBProxySession@@@internal@util@@UAEXXZ 004142a0 f i ServerSessionFactory.obj
 0001:000132a0       ?Release@?$VariableSizeChunkImpl@VNODE@?$CLinkedlist@PAVBaseZone@@K@util@@@internal@util@@UAEXXZ 004142a0 f i BaseZone.obj
 0001:000132a0       ?Release@?$VariableSizeChunkImpl@VCryptHSEL@@@internal@util@@UAEXXZ 004142a0 f i MOLA_s:CryptManager.Server.obj
 0001:000132a0       ?Release@?$VariableSizeChunkImpl@USTRUCT_GROUP_MEMBER_INFO@@@internal@util@@UAEXXZ 004142a0 f i GroupManager.obj
 0001:000132a0       ?Release@?$VariableSizeChunkImpl@VAgentServerSession@@@internal@util@@UAEXXZ 004142a0 f i ServerSessionFactory.obj
 0001:000132a0       ?Release@?$VariableSizeChunkImpl@VWorldGuild@@@internal@util@@UAEXXZ 004142a0 f i WorldGuild.obj
 0001:000132a0       ?Release@?$VariableSizeChunkImpl@VChatZone@@@internal@util@@UAEXXZ 004142a0 f i ZoneFactory.obj
 0001:000132a0       ?Release@?$VariableSizeChunkImpl@USTRUCT_BLOCK_INFO@@@internal@util@@UAEXXZ 004142a0 f i UserManager.obj
 0001:000132a0       ?Release@?$VariableSizeChunkImpl@VChannel@@@internal@util@@UAEXXZ 004142a0 f i ChannelManager.obj
 0001:000132a0       ?Release@?$VariableSizeChunkImpl@VAccountDBProxySession@@@internal@util@@UAEXXZ 004142a0 f i ServerSessionFactory.obj
 0001:000132a0       ?Release@?$VariableSizeChunkImpl@VMasterServerSession@@@internal@util@@UAEXXZ 004142a0 f i ServerSessionFactory.obj
 0001:000132b0       ?Free@?$VariableSizeChunkImpl@VMasterServerSession@@@internal@util@@UAEXQAX@Z 004142b0 f i ServerSessionFactory.obj
 0001:000132b0       ?Free@?$VariableSizeChunkImpl@VCommChatZone@@@internal@util@@UAEXQAX@Z 004142b0 f i ChatRoomManager.obj
 0001:000132b0       ?Free@?$VariableSizeChunkImpl@VNODE@?$CLinkedlist@PAVBaseZone@@K@util@@@internal@util@@UAEXQAX@Z 004142b0 f i BaseZone.obj
 0001:000132b0       ?Free@?$VariableSizeChunkImpl@VGameDBProxySession@@@internal@util@@UAEXQAX@Z 004142b0 f i ServerSessionFactory.obj
 0001:000132b0       ?Free@?$VariableSizeChunkImpl@VBattleServerSession@@@internal@util@@UAEXQAX@Z 004142b0 f i ServerSessionFactory.obj
 0001:000132b0       ?Free@?$VariableSizeChunkImpl@USTRUCT_REVENGE_INFO@@@internal@util@@UAEXQAX@Z 004142b0 f i UserManager.obj
 0001:000132b0       ?Free@?$VariableSizeChunkImpl@VTempServerSession@@@internal@util@@UAEXQAX@Z 004142b0 f i ServerSessionFactory.obj
 0001:000132b0       ?Free@?$VariableSizeChunkImpl@VWorldGuild@@@internal@util@@UAEXQAX@Z 004142b0 f i WorldGuild.obj
 0001:000132b0       ?Free@?$VariableSizeChunkImpl@VChatZone@@@internal@util@@UAEXQAX@Z 004142b0 f i ZoneFactory.obj
 0001:000132b0       ?Free@?$VariableSizeChunkImpl@VVillageZone@@@internal@util@@UAEXQAX@Z 004142b0 f i ZoneFactory.obj
 0001:000132b0       ?Free@?$VariableSizeChunkImpl@USTRUCT_GROUP_MEMBER_INFO@@@internal@util@@UAEXQAX@Z 004142b0 f i GroupManager.obj
 0001:000132b0       ?Free@?$VariableSizeChunkImpl@VAccountDBProxySession@@@internal@util@@UAEXQAX@Z 004142b0 f i ServerSessionFactory.obj
 0001:000132b0       ?Free@?$VariableSizeChunkImpl@VChannel@@@internal@util@@UAEXQAX@Z 004142b0 f i ChannelManager.obj
 0001:000132b0       ?Free@?$VariableSizeChunkImpl@VCryptHSEL@@@internal@util@@UAEXQAX@Z 004142b0 f i MOLA_s:CryptManager.Server.obj
 0001:000132b0       ?Free@?$VariableSizeChunkImpl@VTempUser@@@internal@util@@UAEXQAX@Z 004142b0 f i UserFactory.obj
 0001:000132b0       ?Free@?$VariableSizeChunkImpl@USTRUCT_BLOCK_INFO@@@internal@util@@UAEXQAX@Z 004142b0 f i UserManager.obj
 0001:000132b0       ?Free@?$VariableSizeChunkImpl@VViewPortZone@@@internal@util@@UAEXQAX@Z 004142b0 f i ZoneFactory.obj
 0001:000132b0       ?Free@?$VariableSizeChunkImpl@VFieldServerSession@@@internal@util@@UAEXQAX@Z 004142b0 f i ServerSessionFactory.obj
 0001:000132b0       ?Free@?$VariableSizeChunkImpl@VNODE@?$CLinkedlist@PAVSectorInfo@@K@util@@@internal@util@@UAEXQAX@Z 004142b0 f i FieldInfo.obj
 0001:000132b0       ?Free@?$VariableSizeChunkImpl@USTRUCT_FRIEND_INFO@@@internal@util@@UAEXQAX@Z 004142b0 f i UserManager.obj
 0001:000132b0       ?Free@?$VariableSizeChunkImpl@VAgentServerSession@@@internal@util@@UAEXQAX@Z 004142b0 f i ServerSessionFactory.obj
 0001:000132b0       ?Free@?$VariableSizeChunkImpl@VActiveUser@@@internal@util@@UAEXQAX@Z 004142b0 f i UserFactory.obj
 0001:000132b0       ?Free@?$VariableSizeChunkImpl@VWorldGuildMember@@@internal@util@@UAEXQAX@Z 004142b0 f i WorldGuildMember.obj
 0001:000132c0       ??1?$VariableSizeChunkImpl@VTempServerSession@@@internal@util@@UAE@XZ 004142c0 f i ServerSessionFactory.obj
 0001:00013330       ??_G?$VariableSizeChunkImpl@VTempServerSession@@@internal@util@@UAEPAXI@Z 00414330 f i ServerSessionFactory.obj
 0001:00013330       ??_E?$VariableSizeChunkImpl@VTempServerSession@@@internal@util@@UAEPAXI@Z 00414330 f i ServerSessionFactory.obj
 0001:00013350       ??1?$CMemoryPoolFactory@VTempServerSession@@@util@@UAE@XZ 00414350 f i ServerSessionFactory.obj
 0001:000133c0       ?Create@?$VariableSizeChunkImpl@VBattleServerSession@@@internal@util@@CAXPAX@Z 004143c0 f i ServerSessionFactory.obj
 0001:00013410       ?Alloc@?$NotUseChunkImpl@VBattleServerSession@@@internal@util@@UAEPAXXZ 00414410 f i ServerSessionFactory.obj
 0001:00013470       ??0?$VariableSizeChunkImpl@VBattleServerSession@@@internal@util@@QAE@XZ 00414470 f i ServerSessionFactory.obj
 0001:000134d0       ?Alloc@?$VariableSizeChunkImpl@USTRUCT_REVENGE_INFO@@@internal@util@@UAEPAXXZ 004144d0 f i UserManager.obj
 0001:000134d0       ?Alloc@?$VariableSizeChunkImpl@USTRUCT_BLOCK_INFO@@@internal@util@@UAEPAXXZ 004144d0 f i UserManager.obj
 0001:000134d0       ?Alloc@?$VariableSizeChunkImpl@VAgentServerSession@@@internal@util@@UAEPAXXZ 004144d0 f i ServerSessionFactory.obj
 0001:000134d0       ?Alloc@?$VariableSizeChunkImpl@VGameDBProxySession@@@internal@util@@UAEPAXXZ 004144d0 f i ServerSessionFactory.obj
 0001:000134d0       ?Alloc@?$VariableSizeChunkImpl@VWorldGuild@@@internal@util@@UAEPAXXZ 004144d0 f i WorldGuild.obj
 0001:000134d0       ?Alloc@?$VariableSizeChunkImpl@VCommChatZone@@@internal@util@@UAEPAXXZ 004144d0 f i ChatRoomManager.obj
 0001:000134d0       ?Alloc@?$VariableSizeChunkImpl@VChannel@@@internal@util@@UAEPAXXZ 004144d0 f i ChannelManager.obj
 0001:000134d0       ?Alloc@?$VariableSizeChunkImpl@VFieldServerSession@@@internal@util@@UAEPAXXZ 004144d0 f i ServerSessionFactory.obj
 0001:000134d0       ?Alloc@?$VariableSizeChunkImpl@VCryptHSEL@@@internal@util@@UAEPAXXZ 004144d0 f i MOLA_s:CryptManager.Server.obj
 0001:000134d0       ?Alloc@?$VariableSizeChunkImpl@VActiveUser@@@internal@util@@UAEPAXXZ 004144d0 f i UserFactory.obj
 0001:000134d0       ?Alloc@?$VariableSizeChunkImpl@VMasterServerSession@@@internal@util@@UAEPAXXZ 004144d0 f i ServerSessionFactory.obj
 0001:000134d0       ?Alloc@?$VariableSizeChunkImpl@VBattleServerSession@@@internal@util@@UAEPAXXZ 004144d0 f i ServerSessionFactory.obj
 0001:000134d0       ?Alloc@?$VariableSizeChunkImpl@VNODE@?$CLinkedlist@PAVSectorInfo@@K@util@@@internal@util@@UAEPAXXZ 004144d0 f i FieldInfo.obj
 0001:000134d0       ?Alloc@?$VariableSizeChunkImpl@VNODE@?$CLinkedlist@PAVBaseZone@@K@util@@@internal@util@@UAEPAXXZ 004144d0 f i BaseZone.obj
 0001:000134d0       ?Alloc@?$VariableSizeChunkImpl@VTempUser@@@internal@util@@UAEPAXXZ 004144d0 f i UserFactory.obj
 0001:000134d0       ?Alloc@?$VariableSizeChunkImpl@VVillageZone@@@internal@util@@UAEPAXXZ 004144d0 f i ZoneFactory.obj
 0001:000134d0       ?Alloc@?$VariableSizeChunkImpl@VViewPortZone@@@internal@util@@UAEPAXXZ 004144d0 f i ZoneFactory.obj
 0001:000134d0       ?Alloc@?$VariableSizeChunkImpl@VWorldGuildMember@@@internal@util@@UAEPAXXZ 004144d0 f i WorldGuildMember.obj
 0001:000134d0       ?Alloc@?$VariableSizeChunkImpl@VChatZone@@@internal@util@@UAEPAXXZ 004144d0 f i ZoneFactory.obj
 0001:000134d0       ?Alloc@?$VariableSizeChunkImpl@USTRUCT_GROUP_MEMBER_INFO@@@internal@util@@UAEPAXXZ 004144d0 f i GroupManager.obj
 0001:000134d0       ?Alloc@?$VariableSizeChunkImpl@VTempServerSession@@@internal@util@@UAEPAXXZ 004144d0 f i ServerSessionFactory.obj
 0001:000134d0       ?Alloc@?$VariableSizeChunkImpl@VAccountDBProxySession@@@internal@util@@UAEPAXXZ 004144d0 f i ServerSessionFactory.obj
 0001:000134d0       ?Alloc@?$VariableSizeChunkImpl@USTRUCT_FRIEND_INFO@@@internal@util@@UAEPAXXZ 004144d0 f i UserManager.obj
 0001:000134e0       ??1?$VariableSizeChunkImpl@VBattleServerSession@@@internal@util@@UAE@XZ 004144e0 f i ServerSessionFactory.obj
 0001:00013550       ??_E?$VariableSizeChunkImpl@VBattleServerSession@@@internal@util@@UAEPAXI@Z 00414550 f i ServerSessionFactory.obj
 0001:00013550       ??_G?$VariableSizeChunkImpl@VBattleServerSession@@@internal@util@@UAEPAXI@Z 00414550 f i ServerSessionFactory.obj
 0001:00013570       ??1?$CMemoryPoolFactory@VBattleServerSession@@@util@@UAE@XZ 00414570 f i ServerSessionFactory.obj
 0001:000135e0       ?Create@?$VariableSizeChunkImpl@VFieldServerSession@@@internal@util@@CAXPAX@Z 004145e0 f i ServerSessionFactory.obj
 0001:00013630       ?Alloc@?$NotUseChunkImpl@VFieldServerSession@@@internal@util@@UAEPAXXZ 00414630 f i ServerSessionFactory.obj
 0001:00013690       ??0?$VariableSizeChunkImpl@VFieldServerSession@@@internal@util@@QAE@XZ 00414690 f i ServerSessionFactory.obj
 0001:000136f0       ??1?$VariableSizeChunkImpl@VFieldServerSession@@@internal@util@@UAE@XZ 004146f0 f i ServerSessionFactory.obj
 0001:00013760       ?GetNumberOfBands@?$VariableSizeChunkImpl@USTRUCT_GROUP_MEMBER_INFO@@@internal@util@@UBEHXZ 00414760 f i GroupManager.obj
 0001:00013760       ?GetNumberOfBands@?$VariableSizeChunkImpl@USTRUCT_REVENGE_INFO@@@internal@util@@UBEHXZ 00414760 f i UserManager.obj
 0001:00013760       ?GetNumberOfBands@?$VariableSizeChunkImpl@VCommChatZone@@@internal@util@@UBEHXZ 00414760 f i ChatRoomManager.obj
 0001:00013760       ?GetNumberOfBands@?$VariableSizeChunkImpl@VFieldServerSession@@@internal@util@@UBEHXZ 00414760 f i ServerSessionFactory.obj
 0001:00013760       ?GetNumberOfBands@?$VariableSizeChunkImpl@VViewPortZone@@@internal@util@@UBEHXZ 00414760 f i ZoneFactory.obj
 0001:00013760       ?GetNumberOfBands@?$VariableSizeChunkImpl@VVillageZone@@@internal@util@@UBEHXZ 00414760 f i ZoneFactory.obj
 0001:00013760       ?GetNumberOfBands@?$VariableSizeChunkImpl@VChannel@@@internal@util@@UBEHXZ 00414760 f i ChannelManager.obj
 0001:00013760       ?GetNumberOfBands@?$VariableSizeChunkImpl@VNODE@?$CLinkedlist@PAVBaseZone@@K@util@@@internal@util@@UBEHXZ 00414760 f i BaseZone.obj
 0001:00013760       ?GetNumberOfBands@?$VariableSizeChunkImpl@VWorldGuildMember@@@internal@util@@UBEHXZ 00414760 f i WorldGuildMember.obj
 0001:00013760       ?GetNumberOfBands@?$VariableSizeChunkImpl@VActiveUser@@@internal@util@@UBEHXZ 00414760 f i UserFactory.obj
 0001:00013760       ?GetNumberOfBands@?$VariableSizeChunkImpl@VBattleServerSession@@@internal@util@@UBEHXZ 00414760 f i ServerSessionFactory.obj
 0001:00013760       ?GetNumberOfBands@?$VariableSizeChunkImpl@VAgentServerSession@@@internal@util@@UBEHXZ 00414760 f i ServerSessionFactory.obj
 0001:00013760       ?GetNumberOfBands@?$VariableSizeChunkImpl@VChatZone@@@internal@util@@UBEHXZ 00414760 f i ZoneFactory.obj
 0001:00013760       ?GetNumberOfBands@?$VariableSizeChunkImpl@USTRUCT_FRIEND_INFO@@@internal@util@@UBEHXZ 00414760 f i UserManager.obj
 0001:00013760       ?GetNumberOfBands@?$VariableSizeChunkImpl@USTRUCT_BLOCK_INFO@@@internal@util@@UBEHXZ 00414760 f i UserManager.obj
 0001:00013760       ?GetNumberOfBands@?$VariableSizeChunkImpl@VTempServerSession@@@internal@util@@UBEHXZ 00414760 f i ServerSessionFactory.obj
 0001:00013760       ?GetNumberOfBands@?$VariableSizeChunkImpl@VWorldGuild@@@internal@util@@UBEHXZ 00414760 f i WorldGuild.obj
 0001:00013760       ?GetNumberOfBands@?$VariableSizeChunkImpl@VNODE@?$CLinkedlist@PAVSectorInfo@@K@util@@@internal@util@@UBEHXZ 00414760 f i FieldInfo.obj
 0001:00013760       ?GetNumberOfBands@?$VariableSizeChunkImpl@VMasterServerSession@@@internal@util@@UBEHXZ 00414760 f i ServerSessionFactory.obj
 0001:00013760       ?GetNumberOfBands@?$VariableSizeChunkImpl@VGameDBProxySession@@@internal@util@@UBEHXZ 00414760 f i ServerSessionFactory.obj
 0001:00013760       ?GetNumberOfBands@?$VariableSizeChunkImpl@VTempUser@@@internal@util@@UBEHXZ 00414760 f i UserFactory.obj
 0001:00013760       ?GetNumberOfBands@?$VariableSizeChunkImpl@VCryptHSEL@@@internal@util@@UBEHXZ 00414760 f i MOLA_s:CryptManager.Server.obj
 0001:00013760       ?GetNumberOfBands@?$VariableSizeChunkImpl@VAccountDBProxySession@@@internal@util@@UBEHXZ 00414760 f i ServerSessionFactory.obj
 0001:00013770       ??_G?$VariableSizeChunkImpl@VFieldServerSession@@@internal@util@@UAEPAXI@Z 00414770 f i ServerSessionFactory.obj
 0001:00013770       ??_E?$VariableSizeChunkImpl@VFieldServerSession@@@internal@util@@UAEPAXI@Z 00414770 f i ServerSessionFactory.obj
 0001:00013790       ??1?$CMemoryPoolFactory@VFieldServerSession@@@util@@UAE@XZ 00414790 f i ServerSessionFactory.obj
 0001:00013800       ?Create@?$VariableSizeChunkImpl@VGameDBProxySession@@@internal@util@@CAXPAX@Z 00414800 f i ServerSessionFactory.obj
 0001:00013850       ?Alloc@?$NotUseChunkImpl@VGameDBProxySession@@@internal@util@@UAEPAXXZ 00414850 f i ServerSessionFactory.obj
 0001:000138b0       ??0?$VariableSizeChunkImpl@VGameDBProxySession@@@internal@util@@QAE@XZ 004148b0 f i ServerSessionFactory.obj
 0001:00013910       ??1?$VariableSizeChunkImpl@VGameDBProxySession@@@internal@util@@UAE@XZ 00414910 f i ServerSessionFactory.obj
 0001:00013980       ??_G?$NotUseChunkImpl@VGameDBProxySession@@@internal@util@@UAEPAXI@Z 00414980 f i ServerSessionFactory.obj
 0001:00013980       ??_G?$NotUseChunkImpl@USTRUCT_GROUP_MEMBER_INFO@@@internal@util@@UAEPAXI@Z 00414980 f i GroupManager.obj
 0001:00013980       ??_E?$NotUseChunkImpl@VTempUser@@@internal@util@@UAEPAXI@Z 00414980 f i UserFactory.obj
 0001:00013980       ??_G?$NotUseChunkImpl@VCommChatZone@@@internal@util@@UAEPAXI@Z 00414980 f i ChatRoomManager.obj
 0001:00013980       ??_G?$NotUseChunkImpl@VWorldGuildMember@@@internal@util@@UAEPAXI@Z 00414980 f i WorldGuildMember.obj
 0001:00013980       ??_E?$NotUseChunkImpl@VWorldGuildMember@@@internal@util@@UAEPAXI@Z 00414980 f i WorldGuildMember.obj
 0001:00013980       ??_G?$NotUseChunkImpl@VWorldGuild@@@internal@util@@UAEPAXI@Z 00414980 f i WorldGuild.obj
 0001:00013980       ??_GIMemoryPoolFactoryImpl@internal@util@@UAEPAXI@Z 00414980 f i ServerSessionFactory.obj
 0001:00013980       ??_G?$NotUseChunkImpl@VChannel@@@internal@util@@UAEPAXI@Z 00414980 f i ChannelManager.obj
 0001:00013980       ??_G?$NotUseChunkImpl@VTempUser@@@internal@util@@UAEPAXI@Z 00414980 f i UserFactory.obj
 0001:00013980       ??_EIMemoryPoolFactoryImpl@internal@util@@UAEPAXI@Z 00414980 f i ServerSessionFactory.obj
 0001:00013980       ??_E?$NotUseChunkImpl@VFieldServerSession@@@internal@util@@UAEPAXI@Z 00414980 f i ServerSessionFactory.obj
 0001:00013980       ??_G?$NotUseChunkImpl@VChatZone@@@internal@util@@UAEPAXI@Z 00414980 f i ZoneFactory.obj
 0001:00013980       ??_G?$NotUseChunkImpl@VMasterServerSession@@@internal@util@@UAEPAXI@Z 00414980 f i ServerSessionFactory.obj
 0001:00013980       ??_G?$NotUseChunkImpl@VActiveUser@@@internal@util@@UAEPAXI@Z 00414980 f i UserFactory.obj
 0001:00013980       ??_G?$NotUseChunkImpl@VTempServerSession@@@internal@util@@UAEPAXI@Z 00414980 f i ServerSessionFactory.obj
 0001:00013980       ??_G?$NotUseChunkImpl@VAccountDBProxySession@@@internal@util@@UAEPAXI@Z 00414980 f i ServerSessionFactory.obj
 0001:00013980       ??_G?$NotUseChunkImpl@VVillageZone@@@internal@util@@UAEPAXI@Z 00414980 f i ZoneFactory.obj
 0001:00013980       ??_G?$NotUseChunkImpl@VAgentServerSession@@@internal@util@@UAEPAXI@Z 00414980 f i ServerSessionFactory.obj
 0001:00013980       ??_E?$NotUseChunkImpl@VAgentServerSession@@@internal@util@@UAEPAXI@Z 00414980 f i ServerSessionFactory.obj
 0001:00013980       ??_E?$NotUseChunkImpl@VTempServerSession@@@internal@util@@UAEPAXI@Z 00414980 f i ServerSessionFactory.obj
 0001:00013980       ??_E?$NotUseChunkImpl@USTRUCT_REVENGE_INFO@@@internal@util@@UAEPAXI@Z 00414980 f i UserManager.obj
 0001:00013980       ??_E?$NotUseChunkImpl@VBattleServerSession@@@internal@util@@UAEPAXI@Z 00414980 f i ServerSessionFactory.obj
 0001:00013980       ??_E?$NotUseChunkImpl@VChannel@@@internal@util@@UAEPAXI@Z 00414980 f i ChannelManager.obj
 0001:00013980       ??_E?$NotUseChunkImpl@VCommChatZone@@@internal@util@@UAEPAXI@Z 00414980 f i ChatRoomManager.obj
 0001:00013980       ??_E?$NotUseChunkImpl@VViewPortZone@@@internal@util@@UAEPAXI@Z 00414980 f i ZoneFactory.obj
 0001:00013980       ??_E?$NotUseChunkImpl@VGameDBProxySession@@@internal@util@@UAEPAXI@Z 00414980 f i ServerSessionFactory.obj
 0001:00013980       ??_G?$NotUseChunkImpl@USTRUCT_BLOCK_INFO@@@internal@util@@UAEPAXI@Z 00414980 f i UserManager.obj
 0001:00013980       ??_G?$NotUseChunkImpl@VBattleServerSession@@@internal@util@@UAEPAXI@Z 00414980 f i ServerSessionFactory.obj
 0001:00013980       ??_E?$NotUseChunkImpl@VAccountDBProxySession@@@internal@util@@UAEPAXI@Z 00414980 f i ServerSessionFactory.obj
 0001:00013980       ??_G?$NotUseChunkImpl@VViewPortZone@@@internal@util@@UAEPAXI@Z 00414980 f i ZoneFactory.obj
 0001:00013980       ??_E?$NotUseChunkImpl@VMasterServerSession@@@internal@util@@UAEPAXI@Z 00414980 f i ServerSessionFactory.obj
 0001:00013980       ??_E?$NotUseChunkImpl@VVillageZone@@@internal@util@@UAEPAXI@Z 00414980 f i ZoneFactory.obj
 0001:00013980       ??_G?$NotUseChunkImpl@VFieldServerSession@@@internal@util@@UAEPAXI@Z 00414980 f i ServerSessionFactory.obj
 0001:00013980       ??_G?$NotUseChunkImpl@VNODE@?$CLinkedlist@PAVBaseZone@@K@util@@@internal@util@@UAEPAXI@Z 00414980 f i BaseZone.obj
 0001:00013980       ??_G?$NotUseChunkImpl@USTRUCT_REVENGE_INFO@@@internal@util@@UAEPAXI@Z 00414980 f i UserManager.obj
 0001:00013980       ??_E?$NotUseChunkImpl@VNODE@?$CLinkedlist@PAVSectorInfo@@K@util@@@internal@util@@UAEPAXI@Z 00414980 f i FieldInfo.obj
 0001:00013980       ??_E?$NotUseChunkImpl@USTRUCT_FRIEND_INFO@@@internal@util@@UAEPAXI@Z 00414980 f i UserManager.obj
 0001:00013980       ??_E?$NotUseChunkImpl@USTRUCT_GROUP_MEMBER_INFO@@@internal@util@@UAEPAXI@Z 00414980 f i GroupManager.obj
 0001:00013980       ??_G?$NotUseChunkImpl@VNODE@?$CLinkedlist@PAVSectorInfo@@K@util@@@internal@util@@UAEPAXI@Z 00414980 f i FieldInfo.obj
 0001:00013980       ??_E?$NotUseChunkImpl@USTRUCT_BLOCK_INFO@@@internal@util@@UAEPAXI@Z 00414980 f i UserManager.obj
 0001:00013980       ??_E?$NotUseChunkImpl@VNODE@?$CLinkedlist@PAVBaseZone@@K@util@@@internal@util@@UAEPAXI@Z 00414980 f i BaseZone.obj
 0001:00013980       ??_E?$NotUseChunkImpl@VActiveUser@@@internal@util@@UAEPAXI@Z 00414980 f i UserFactory.obj
 0001:00013980       ??_G?$NotUseChunkImpl@USTRUCT_FRIEND_INFO@@@internal@util@@UAEPAXI@Z 00414980 f i UserManager.obj
 0001:00013980       ??_E?$NotUseChunkImpl@VWorldGuild@@@internal@util@@UAEPAXI@Z 00414980 f i WorldGuild.obj
 0001:00013980       ??_E?$NotUseChunkImpl@VChatZone@@@internal@util@@UAEPAXI@Z 00414980 f i ZoneFactory.obj
 0001:000139a0       ??_G?$VariableSizeChunkImpl@VGameDBProxySession@@@internal@util@@UAEPAXI@Z 004149a0 f i ServerSessionFactory.obj
 0001:000139a0       ??_E?$VariableSizeChunkImpl@VGameDBProxySession@@@internal@util@@UAEPAXI@Z 004149a0 f i ServerSessionFactory.obj
 0001:000139c0       ??1?$CMemoryPoolFactory@VGameDBProxySession@@@util@@UAE@XZ 004149c0 f i ServerSessionFactory.obj
 0001:00013a30       ?Create@?$VariableSizeChunkImpl@VAccountDBProxySession@@@internal@util@@CAXPAX@Z 00414a30 f i ServerSessionFactory.obj
 0001:00013a80       ?Alloc@?$NotUseChunkImpl@VAccountDBProxySession@@@internal@util@@UAEPAXXZ 00414a80 f i ServerSessionFactory.obj
 0001:00013ae0       ??0?$VariableSizeChunkImpl@VAccountDBProxySession@@@internal@util@@QAE@XZ 00414ae0 f i ServerSessionFactory.obj
 0001:00013b40       ??1?$VariableSizeChunkImpl@VAccountDBProxySession@@@internal@util@@UAE@XZ 00414b40 f i ServerSessionFactory.obj
 0001:00013bb0       ?SetTypeName@?$VariableSizeChunkImpl@VMasterServerSession@@@internal@util@@UAEXPBD@Z 00414bb0 f i ServerSessionFactory.obj
 0001:00013bb0       ?SetTypeName@?$VariableSizeChunkImpl@VWorldGuild@@@internal@util@@UAEXPBD@Z 00414bb0 f i WorldGuild.obj
 0001:00013bb0       ?SetTypeName@?$VariableSizeChunkImpl@VTempServerSession@@@internal@util@@UAEXPBD@Z 00414bb0 f i ServerSessionFactory.obj
 0001:00013bb0       ?SetTypeName@?$VariableSizeChunkImpl@VChatZone@@@internal@util@@UAEXPBD@Z 00414bb0 f i ZoneFactory.obj
 0001:00013bb0       ?SetTypeName@?$VariableSizeChunkImpl@VAgentServerSession@@@internal@util@@UAEXPBD@Z 00414bb0 f i ServerSessionFactory.obj
 0001:00013bb0       ?SetTypeName@?$VariableSizeChunkImpl@USTRUCT_GROUP_MEMBER_INFO@@@internal@util@@UAEXPBD@Z 00414bb0 f i GroupManager.obj
 0001:00013bb0       ?SetTypeName@?$VariableSizeChunkImpl@VCommChatZone@@@internal@util@@UAEXPBD@Z 00414bb0 f i ChatRoomManager.obj
 0001:00013bb0       ?SetTypeName@?$VariableSizeChunkImpl@VVillageZone@@@internal@util@@UAEXPBD@Z 00414bb0 f i ZoneFactory.obj
 0001:00013bb0       ?SetTypeName@?$VariableSizeChunkImpl@VFieldServerSession@@@internal@util@@UAEXPBD@Z 00414bb0 f i ServerSessionFactory.obj
 0001:00013bb0       ?SetTypeName@?$VariableSizeChunkImpl@VActiveUser@@@internal@util@@UAEXPBD@Z 00414bb0 f i UserFactory.obj
 0001:00013bb0       ?SetTypeName@?$VariableSizeChunkImpl@VNODE@?$CLinkedlist@PAVSectorInfo@@K@util@@@internal@util@@UAEXPBD@Z 00414bb0 f i FieldInfo.obj
 0001:00013bb0       ?SetTypeName@?$VariableSizeChunkImpl@VChannel@@@internal@util@@UAEXPBD@Z 00414bb0 f i ChannelManager.obj
 0001:00013bb0       ?SetTypeName@?$VariableSizeChunkImpl@VTempUser@@@internal@util@@UAEXPBD@Z 00414bb0 f i UserFactory.obj
 0001:00013bb0       ?SetTypeName@?$VariableSizeChunkImpl@USTRUCT_FRIEND_INFO@@@internal@util@@UAEXPBD@Z 00414bb0 f i UserManager.obj
 0001:00013bb0       ?SetTypeName@?$VariableSizeChunkImpl@VAccountDBProxySession@@@internal@util@@UAEXPBD@Z 00414bb0 f i ServerSessionFactory.obj
 0001:00013bb0       ?SetTypeName@?$VariableSizeChunkImpl@VViewPortZone@@@internal@util@@UAEXPBD@Z 00414bb0 f i ZoneFactory.obj
 0001:00013bb0       ?SetTypeName@?$VariableSizeChunkImpl@VWorldGuildMember@@@internal@util@@UAEXPBD@Z 00414bb0 f i WorldGuildMember.obj
 0001:00013bb0       ?SetTypeName@?$VariableSizeChunkImpl@VCryptHSEL@@@internal@util@@UAEXPBD@Z 00414bb0 f i MOLA_s:CryptManager.Server.obj
 0001:00013bb0       ?SetTypeName@?$VariableSizeChunkImpl@VGameDBProxySession@@@internal@util@@UAEXPBD@Z 00414bb0 f i ServerSessionFactory.obj
 0001:00013bb0       ?SetTypeName@?$VariableSizeChunkImpl@USTRUCT_BLOCK_INFO@@@internal@util@@UAEXPBD@Z 00414bb0 f i UserManager.obj
 0001:00013bb0       ?SetTypeName@?$VariableSizeChunkImpl@USTRUCT_REVENGE_INFO@@@internal@util@@UAEXPBD@Z 00414bb0 f i UserManager.obj
 0001:00013bb0       ?SetTypeName@?$VariableSizeChunkImpl@VBattleServerSession@@@internal@util@@UAEXPBD@Z 00414bb0 f i ServerSessionFactory.obj
 0001:00013bb0       ?SetTypeName@?$VariableSizeChunkImpl@VNODE@?$CLinkedlist@PAVBaseZone@@K@util@@@internal@util@@UAEXPBD@Z 00414bb0 f i BaseZone.obj
 0001:00013bc0       ??_E?$VariableSizeChunkImpl@VAccountDBProxySession@@@internal@util@@UAEPAXI@Z 00414bc0 f i ServerSessionFactory.obj
 0001:00013bc0       ??_G?$VariableSizeChunkImpl@VAccountDBProxySession@@@internal@util@@UAEPAXI@Z 00414bc0 f i ServerSessionFactory.obj
 0001:00013be0       ??1?$CMemoryPoolFactory@VAccountDBProxySession@@@util@@UAE@XZ 00414be0 f i ServerSessionFactory.obj
 0001:00013c50       ?Create@?$VariableSizeChunkImpl@VAgentServerSession@@@internal@util@@CAXPAX@Z 00414c50 f i ServerSessionFactory.obj
 0001:00013ca0       ?Alloc@?$NotUseChunkImpl@VAgentServerSession@@@internal@util@@UAEPAXXZ 00414ca0 f i ServerSessionFactory.obj
 0001:00013d00       ??0?$VariableSizeChunkImpl@VAgentServerSession@@@internal@util@@QAE@XZ 00414d00 f i ServerSessionFactory.obj
 0001:00013d60       ??1?$VariableSizeChunkImpl@VAgentServerSession@@@internal@util@@UAE@XZ 00414d60 f i ServerSessionFactory.obj
 0001:00013dd0       ?GetAvailableNumberOfTypes@?$VariableSizeChunkImpl@USTRUCT_FRIEND_INFO@@@internal@util@@UBEHXZ 00414dd0 f i UserManager.obj
 0001:00013dd0       ?GetAvailableNumberOfTypes@?$VariableSizeChunkImpl@VWorldGuildMember@@@internal@util@@UBEHXZ 00414dd0 f i WorldGuildMember.obj
 0001:00013dd0       ?GetAvailableNumberOfTypes@?$VariableSizeChunkImpl@VCryptHSEL@@@internal@util@@UBEHXZ 00414dd0 f i MOLA_s:CryptManager.Server.obj
 0001:00013dd0       ?GetAvailableNumberOfTypes@?$VariableSizeChunkImpl@VActiveUser@@@internal@util@@UBEHXZ 00414dd0 f i UserFactory.obj
 0001:00013dd0       ?GetAvailableNumberOfTypes@?$VariableSizeChunkImpl@VTempServerSession@@@internal@util@@UBEHXZ 00414dd0 f i ServerSessionFactory.obj
 0001:00013dd0       ?GetAvailableNumberOfTypes@?$VariableSizeChunkImpl@VWorldGuild@@@internal@util@@UBEHXZ 00414dd0 f i WorldGuild.obj
 0001:00013dd0       ?GetAvailableNumberOfTypes@?$VariableSizeChunkImpl@VChatZone@@@internal@util@@UBEHXZ 00414dd0 f i ZoneFactory.obj
 0001:00013dd0       ?GetAvailableNumberOfTypes@?$VariableSizeChunkImpl@VCommChatZone@@@internal@util@@UBEHXZ 00414dd0 f i ChatRoomManager.obj
 0001:00013dd0       ?GetAvailableNumberOfTypes@?$VariableSizeChunkImpl@VAccountDBProxySession@@@internal@util@@UBEHXZ 00414dd0 f i ServerSessionFactory.obj
 0001:00013dd0       ?GetAvailableNumberOfTypes@?$VariableSizeChunkImpl@VMasterServerSession@@@internal@util@@UBEHXZ 00414dd0 f i ServerSessionFactory.obj
 0001:00013dd0       ?GetAvailableNumberOfTypes@?$VariableSizeChunkImpl@USTRUCT_REVENGE_INFO@@@internal@util@@UBEHXZ 00414dd0 f i UserManager.obj
 0001:00013dd0       ?GetAvailableNumberOfTypes@?$VariableSizeChunkImpl@VNODE@?$CLinkedlist@PAVSectorInfo@@K@util@@@internal@util@@UBEHXZ 00414dd0 f i FieldInfo.obj
 0001:00013dd0       ?GetAvailableNumberOfTypes@?$VariableSizeChunkImpl@VNODE@?$CLinkedlist@PAVBaseZone@@K@util@@@internal@util@@UBEHXZ 00414dd0 f i BaseZone.obj
 0001:00013dd0       ?GetAvailableNumberOfTypes@?$VariableSizeChunkImpl@USTRUCT_BLOCK_INFO@@@internal@util@@UBEHXZ 00414dd0 f i UserManager.obj
 0001:00013dd0       ?GetAvailableNumberOfTypes@?$VariableSizeChunkImpl@VAgentServerSession@@@internal@util@@UBEHXZ 00414dd0 f i ServerSessionFactory.obj
 0001:00013dd0       ?GetAvailableNumberOfTypes@?$VariableSizeChunkImpl@VChannel@@@internal@util@@UBEHXZ 00414dd0 f i ChannelManager.obj
 0001:00013dd0       ?GetAvailableNumberOfTypes@?$VariableSizeChunkImpl@VFieldServerSession@@@internal@util@@UBEHXZ 00414dd0 f i ServerSessionFactory.obj
 0001:00013dd0       ?GetAvailableNumberOfTypes@?$VariableSizeChunkImpl@VGameDBProxySession@@@internal@util@@UBEHXZ 00414dd0 f i ServerSessionFactory.obj
 0001:00013dd0       ?GetAvailableNumberOfTypes@?$VariableSizeChunkImpl@VViewPortZone@@@internal@util@@UBEHXZ 00414dd0 f i ZoneFactory.obj
 0001:00013dd0       ?GetAvailableNumberOfTypes@?$VariableSizeChunkImpl@USTRUCT_GROUP_MEMBER_INFO@@@internal@util@@UBEHXZ 00414dd0 f i GroupManager.obj
 0001:00013dd0       ?GetAvailableNumberOfTypes@?$VariableSizeChunkImpl@VBattleServerSession@@@internal@util@@UBEHXZ 00414dd0 f i ServerSessionFactory.obj
 0001:00013dd0       ?GetAvailableNumberOfTypes@?$VariableSizeChunkImpl@VTempUser@@@internal@util@@UBEHXZ 00414dd0 f i UserFactory.obj
 0001:00013dd0       ?GetAvailableNumberOfTypes@?$VariableSizeChunkImpl@VVillageZone@@@internal@util@@UBEHXZ 00414dd0 f i ZoneFactory.obj
 0001:00013de0       ??_G?$VariableSizeChunkImpl@VAgentServerSession@@@internal@util@@UAEPAXI@Z 00414de0 f i ServerSessionFactory.obj
 0001:00013de0       ??_E?$VariableSizeChunkImpl@VAgentServerSession@@@internal@util@@UAEPAXI@Z 00414de0 f i ServerSessionFactory.obj
 0001:00013e00       ??1?$CMemoryPoolFactory@VAgentServerSession@@@util@@UAE@XZ 00414e00 f i ServerSessionFactory.obj
 0001:00013e70       ?Create@?$VariableSizeChunkImpl@VMasterServerSession@@@internal@util@@CAXPAX@Z 00414e70 f i ServerSessionFactory.obj
 0001:00013ec0       ?Alloc@?$NotUseChunkImpl@VMasterServerSession@@@internal@util@@UAEPAXXZ 00414ec0 f i ServerSessionFactory.obj
 0001:00013f20       ??0?$VariableSizeChunkImpl@VMasterServerSession@@@internal@util@@QAE@XZ 00414f20 f i ServerSessionFactory.obj
 0001:00013f80       ??1?$VariableSizeChunkImpl@VMasterServerSession@@@internal@util@@UAE@XZ 00414f80 f i ServerSessionFactory.obj
 0001:00013ff0       ??_E?$VariableSizeChunkImpl@VMasterServerSession@@@internal@util@@UAEPAXI@Z 00414ff0 f i ServerSessionFactory.obj
 0001:00013ff0       ??_G?$VariableSizeChunkImpl@VMasterServerSession@@@internal@util@@UAEPAXI@Z 00414ff0 f i ServerSessionFactory.obj
 0001:00014010       ??1?$CMemoryPoolFactory@VMasterServerSession@@@util@@UAE@XZ 00415010 f i ServerSessionFactory.obj
 0001:00014080       ??_E?$CMemoryPoolFactory@VTempServerSession@@@util@@UAEPAXI@Z 00415080 f i ServerSessionFactory.obj
 0001:00014080       ??_G?$CMemoryPoolFactory@VTempServerSession@@@util@@UAEPAXI@Z 00415080 f i ServerSessionFactory.obj
 0001:000140a0       ??_G?$CMemoryPoolFactory@VBattleServerSession@@@util@@UAEPAXI@Z 004150a0 f i ServerSessionFactory.obj
 0001:000140a0       ??_E?$CMemoryPoolFactory@VBattleServerSession@@@util@@UAEPAXI@Z 004150a0 f i ServerSessionFactory.obj
 0001:000140c0       ??_G?$CMemoryPoolFactory@VFieldServerSession@@@util@@UAEPAXI@Z 004150c0 f i ServerSessionFactory.obj
 0001:000140c0       ??_E?$CMemoryPoolFactory@VFieldServerSession@@@util@@UAEPAXI@Z 004150c0 f i ServerSessionFactory.obj
 0001:000140e0       ??_G?$CMemoryPoolFactory@VGameDBProxySession@@@util@@UAEPAXI@Z 004150e0 f i ServerSessionFactory.obj
 0001:000140e0       ??_E?$CMemoryPoolFactory@VGameDBProxySession@@@util@@UAEPAXI@Z 004150e0 f i ServerSessionFactory.obj
 0001:00014100       ??_G?$CMemoryPoolFactory@VAccountDBProxySession@@@util@@UAEPAXI@Z 00415100 f i ServerSessionFactory.obj
 0001:00014100       ??_E?$CMemoryPoolFactory@VAccountDBProxySession@@@util@@UAEPAXI@Z 00415100 f i ServerSessionFactory.obj
 0001:00014120       ??_G?$CMemoryPoolFactory@VAgentServerSession@@@util@@UAEPAXI@Z 00415120 f i ServerSessionFactory.obj
 0001:00014120       ??_E?$CMemoryPoolFactory@VAgentServerSession@@@util@@UAEPAXI@Z 00415120 f i ServerSessionFactory.obj
 0001:00014140       ??_G?$CMemoryPoolFactory@VMasterServerSession@@@util@@UAEPAXI@Z 00415140 f i ServerSessionFactory.obj
 0001:00014140       ??_E?$CMemoryPoolFactory@VMasterServerSession@@@util@@UAEPAXI@Z 00415140 f i ServerSessionFactory.obj
 0001:00014160       ?purge_memory@?$pool@Udefault_user_allocator_new_delete@boost@@@boost@@QAE_NXZ 00415160 f i ServerSessionFactory.obj
 0001:000141a0       ?add_block@?$simple_segregated_storage@I@boost@@QAEXQAXII@Z 004151a0 f i ServerSessionFactory.obj
 0001:000141f0       ?malloc_need_resize@?$pool@Udefault_user_allocator_new_delete@boost@@@boost@@AAEPAXXZ 004151f0 f i ServerSessionFactory.obj
 0001:00014300       ?release_memory@?$pool@Udefault_user_allocator_new_delete@boost@@@boost@@QAE_NXZ 00415300 f i ServerSessionFactory.obj
 0001:00014440       ?Alloc@?$FixedSizeChunkImpl@VTempServerSession@@@internal@util@@UAEPAXXZ 00415440 f i ServerSessionFactory.obj
 0001:000144b0       ?Alloc@?$FixedSizeChunkImpl@VBattleServerSession@@@internal@util@@UAEPAXXZ 004154b0 f i ServerSessionFactory.obj
 0001:00014520       ?Free@?$FixedSizeChunkImpl@VCommChatZone@@@internal@util@@UAEXQAX@Z 00415520 f i ChatRoomManager.obj
 0001:00014520       ?Free@?$FixedSizeChunkImpl@VBattleServerSession@@@internal@util@@UAEXQAX@Z 00415520 f i ServerSessionFactory.obj
 0001:00014520       ?Free@?$FixedSizeChunkImpl@VTempServerSession@@@internal@util@@UAEXQAX@Z 00415520 f i ServerSessionFactory.obj
 0001:00014520       ?Free@?$FixedSizeChunkImpl@VFieldServerSession@@@internal@util@@UAEXQAX@Z 00415520 f i ServerSessionFactory.obj
 0001:00014520       ?Free@?$FixedSizeChunkImpl@VChatZone@@@internal@util@@UAEXQAX@Z 00415520 f i ZoneFactory.obj
 0001:00014520       ?Free@?$FixedSizeChunkImpl@VViewPortZone@@@internal@util@@UAEXQAX@Z 00415520 f i ZoneFactory.obj
 0001:00014520       ?Free@?$FixedSizeChunkImpl@VAccountDBProxySession@@@internal@util@@UAEXQAX@Z 00415520 f i ServerSessionFactory.obj
 0001:00014520       ?Free@?$FixedSizeChunkImpl@VMasterServerSession@@@internal@util@@UAEXQAX@Z 00415520 f i ServerSessionFactory.obj
 0001:00014520       ?Free@?$FixedSizeChunkImpl@VVillageZone@@@internal@util@@UAEXQAX@Z 00415520 f i ZoneFactory.obj
 0001:00014520       ?Free@?$FixedSizeChunkImpl@VTempUser@@@internal@util@@UAEXQAX@Z 00415520 f i UserFactory.obj
 0001:00014520       ?Free@?$FixedSizeChunkImpl@VWorldGuildMember@@@internal@util@@UAEXQAX@Z 00415520 f i WorldGuildMember.obj
 0001:00014520       ?Free@?$FixedSizeChunkImpl@VActiveUser@@@internal@util@@UAEXQAX@Z 00415520 f i UserFactory.obj
 0001:00014520       ?Free@?$FixedSizeChunkImpl@VWorldGuild@@@internal@util@@UAEXQAX@Z 00415520 f i WorldGuild.obj
 0001:00014520       ?Free@?$FixedSizeChunkImpl@VAgentServerSession@@@internal@util@@UAEXQAX@Z 00415520 f i ServerSessionFactory.obj
 0001:00014520       ?Free@?$FixedSizeChunkImpl@VGameDBProxySession@@@internal@util@@UAEXQAX@Z 00415520 f i ServerSessionFactory.obj
 0001:00014550       ?Alloc@?$FixedSizeChunkImpl@VFieldServerSession@@@internal@util@@UAEPAXXZ 00415550 f i ServerSessionFactory.obj
 0001:000145c0       ?Alloc@?$FixedSizeChunkImpl@VGameDBProxySession@@@internal@util@@UAEPAXXZ 004155c0 f i ServerSessionFactory.obj
 0001:00014630       ?Alloc@?$FixedSizeChunkImpl@VAccountDBProxySession@@@internal@util@@UAEPAXXZ 00415630 f i ServerSessionFactory.obj
 0001:000146a0       ?Alloc@?$FixedSizeChunkImpl@VAgentServerSession@@@internal@util@@UAEPAXXZ 004156a0 f i ServerSessionFactory.obj
 0001:00014710       ?Alloc@?$FixedSizeChunkImpl@VMasterServerSession@@@internal@util@@UAEPAXXZ 00415710 f i ServerSessionFactory.obj
 0001:00014780       ??_E?$FixedSizeChunkImpl@VTempServerSession@@@internal@util@@UAEPAXI@Z 00415780 f i ServerSessionFactory.obj
 0001:00014780       ??_G?$FixedSizeChunkImpl@VTempServerSession@@@internal@util@@UAEPAXI@Z 00415780 f i ServerSessionFactory.obj
 0001:000147b0       ??_G?$FixedSizeChunkImpl@VBattleServerSession@@@internal@util@@UAEPAXI@Z 004157b0 f i ServerSessionFactory.obj
 0001:000147b0       ??_E?$FixedSizeChunkImpl@VBattleServerSession@@@internal@util@@UAEPAXI@Z 004157b0 f i ServerSessionFactory.obj
 0001:000147e0       ??_G?$FixedSizeChunkImpl@VFieldServerSession@@@internal@util@@UAEPAXI@Z 004157e0 f i ServerSessionFactory.obj
 0001:000147e0       ??_E?$FixedSizeChunkImpl@VFieldServerSession@@@internal@util@@UAEPAXI@Z 004157e0 f i ServerSessionFactory.obj
 0001:00014810       ??_E?$FixedSizeChunkImpl@VGameDBProxySession@@@internal@util@@UAEPAXI@Z 00415810 f i ServerSessionFactory.obj
 0001:00014810       ??_G?$FixedSizeChunkImpl@VGameDBProxySession@@@internal@util@@UAEPAXI@Z 00415810 f i ServerSessionFactory.obj
 0001:00014840       ??_G?$FixedSizeChunkImpl@VAccountDBProxySession@@@internal@util@@UAEPAXI@Z 00415840 f i ServerSessionFactory.obj
 0001:00014840       ??_E?$FixedSizeChunkImpl@VAccountDBProxySession@@@internal@util@@UAEPAXI@Z 00415840 f i ServerSessionFactory.obj
 0001:00014870       ??_G?$FixedSizeChunkImpl@VAgentServerSession@@@internal@util@@UAEPAXI@Z 00415870 f i ServerSessionFactory.obj
 0001:00014870       ??_E?$FixedSizeChunkImpl@VAgentServerSession@@@internal@util@@UAEPAXI@Z 00415870 f i ServerSessionFactory.obj
 0001:000148a0       ??_G?$FixedSizeChunkImpl@VMasterServerSession@@@internal@util@@UAEPAXI@Z 004158a0 f i ServerSessionFactory.obj
 0001:000148a0       ??_E?$FixedSizeChunkImpl@VMasterServerSession@@@internal@util@@UAEPAXI@Z 004158a0 f i ServerSessionFactory.obj
 0001:000148d0       ?CreateImpl@?$CMemoryPoolFactory@VTempServerSession@@@util@@QAEXH@Z 004158d0 f i ServerSessionFactory.obj
 0001:000149f0       ?CreateImpl@?$CMemoryPoolFactory@VBattleServerSession@@@util@@QAEXH@Z 004159f0 f i ServerSessionFactory.obj
 0001:00014b10       ?CreateImpl@?$CMemoryPoolFactory@VFieldServerSession@@@util@@QAEXH@Z 00415b10 f i ServerSessionFactory.obj
 0001:00014c30       ?CreateImpl@?$CMemoryPoolFactory@VGameDBProxySession@@@util@@QAEXH@Z 00415c30 f i ServerSessionFactory.obj
 0001:00014d50       ?CreateImpl@?$CMemoryPoolFactory@VAccountDBProxySession@@@util@@QAEXH@Z 00415d50 f i ServerSessionFactory.obj
 0001:00014e70       ?CreateImpl@?$CMemoryPoolFactory@VAgentServerSession@@@util@@QAEXH@Z 00415e70 f i ServerSessionFactory.obj
 0001:00014f90       ?CreateImpl@?$CMemoryPoolFactory@VMasterServerSession@@@util@@QAEXH@Z 00415f90 f i ServerSessionFactory.obj
 0001:000150b0       ?Initialize@?$CMemoryPoolFactory@VTempServerSession@@@util@@UAE_NIIPBDPAX@Z 004160b0 f i ServerSessionFactory.obj
 0001:000150e0       ?Initialize@?$CMemoryPoolFactory@VBattleServerSession@@@util@@UAE_NIIPBDPAX@Z 004160e0 f i ServerSessionFactory.obj
 0001:00015110       ?Initialize@?$CMemoryPoolFactory@VFieldServerSession@@@util@@UAE_NIIPBDPAX@Z 00416110 f i ServerSessionFactory.obj
 0001:00015140       ?Initialize@?$CMemoryPoolFactory@VGameDBProxySession@@@util@@UAE_NIIPBDPAX@Z 00416140 f i ServerSessionFactory.obj
 0001:00015170       ?Initialize@?$CMemoryPoolFactory@VAccountDBProxySession@@@util@@UAE_NIIPBDPAX@Z 00416170 f i ServerSessionFactory.obj
 0001:000151a0       ?Initialize@?$CMemoryPoolFactory@VAgentServerSession@@@util@@UAE_NIIPBDPAX@Z 004161a0 f i ServerSessionFactory.obj
 0001:000151d0       ?Initialize@?$CMemoryPoolFactory@VMasterServerSession@@@util@@UAE_NIIPBDPAX@Z 004161d0 f i ServerSessionFactory.obj
 0001:00015200       ?GetGuildServer@ServerSessionManager@@QAEPAVServerSession@@XZ 00416200 f   ServerSessionManager.obj
 0001:00015210       ?Update@ServerSessionManager@@QAEXXZ 00416210 f   ServerSessionManager.obj
 0001:00015290       ?FindAgentServer@ServerSessionManager@@QAEPAVServerSession@@K@Z 00416290 f   ServerSessionManager.obj
 0001:00015370       ?FindServer@ServerSessionManager@@QAEPAVServerSession@@K@Z 00416370 f   ServerSessionManager.obj
 0001:000153e0       ?RemoveServer@ServerSessionManager@@QAEXK@Z 004163e0 f   ServerSessionManager.obj
 0001:000154a0       ?AddServer@ServerSessionManager@@QAEXPAVServerSession@@@Z 004164a0 f   ServerSessionManager.obj
 0001:00015520       ??1ServerSessionManager@@QAE@XZ 00416520 f   ServerSessionManager.obj
 0001:00015530       ??0ServerSessionManager@@QAE@XZ 00416530 f   ServerSessionManager.obj
 0001:00015560       ?_Insert@?$_Tree@V?$_Tmap_traits@KPAUSTRUCT_FRIEND_INFO@@U?$less@K@std@@V?$CustomAllocator@PAUSTRUCT_FRIEND_INFO@@@util@@$0A@@std@@@std@@IAE?AViterator@12@_NPAU_Node@?$_Tree_nod@V?$_Tmap_traits@KPAUSTRUCT_FRIEND_INFO@@U?$less@K@std@@V?$CustomAllocator@PAUSTRUCT_FRIEND_INFO@@@util@@$0A@@std@@@2@ABU?$pair@$$CBKPAUSTRUCT_FRIEND_INFO@@@2@@Z 00416560 f i FriendMap.obj
 0001:00015560       ?_Insert@?$_Tree@V?$_Tmap_traits@KPAVChannel@@U?$less@K@std@@V?$CustomAllocator@PAVChannel@@@util@@$0A@@std@@@std@@IAE?AViterator@12@_NPAU_Node@?$_Tree_nod@V?$_Tmap_traits@KPAVChannel@@U?$less@K@std@@V?$CustomAllocator@PAVChannel@@@util@@$0A@@std@@@2@ABU?$pair@$$CBKPAVChannel@@@2@@Z 00416560 f i ChannelManager.obj
 0001:00015560       ?_Insert@?$_Tree@V?$_Tmap_traits@KPAVUser@@U?$less@K@std@@V?$CustomAllocator@PAVUser@@@util@@$0A@@std@@@std@@IAE?AViterator@12@_NPAU_Node@?$_Tree_nod@V?$_Tmap_traits@KPAVUser@@U?$less@K@std@@V?$CustomAllocator@PAVUser@@@util@@$0A@@std@@@2@ABU?$pair@$$CBKPAVUser@@@2@@Z 00416560 f i User.obj
 0001:00015560       ?_Insert@?$_Tree@V?$_Tmap_traits@KPBUsMAP_ENTERENCE_PORTAL_BASE@@U?$less@K@std@@V?$CustomAllocator@PBUsMAP_ENTERENCE_PORTAL_BASE@@@util@@$0A@@std@@@std@@IAE?AViterator@12@_NPAU_Node@?$_Tree_nod@V?$_Tmap_traits@KPBUsMAP_ENTERENCE_PORTAL_BASE@@U?$less@K@std@@V?$CustomAllocator@PBUsMAP_ENTERENCE_PORTAL_BASE@@@util@@$0A@@std@@@2@ABU?$pair@$$CBKPBUsMAP_ENTERENCE_PORTAL_BASE@@@2@@Z 00416560 f i programcommon_s:MapInfoParser.obj
 0001:00015560       ?_Insert@?$_Tree@V?$_Tmap_traits@KPAVServerSession@@U?$less@K@std@@V?$CustomAllocator@PAVServerSession@@@util@@$0A@@std@@@std@@IAE?AViterator@12@_NPAU_Node@?$_Tree_nod@V?$_Tmap_traits@KPAVServerSession@@U?$less@K@std@@V?$CustomAllocator@PAVServerSession@@@util@@$0A@@std@@@2@ABU?$pair@$$CBKPAVServerSession@@@2@@Z 00416560 f i ServerSessionManager.obj
 0001:00015560       ?_Insert@?$_Tree@V?$_Tmap_traits@KPAUSTRUCT_GROUP_MEMBER_INFO@@U?$less@K@std@@V?$CustomAllocator@PAUSTRUCT_GROUP_MEMBER_INFO@@@util@@$0A@@std@@@std@@IAE?AViterator@12@_NPAU_Node@?$_Tree_nod@V?$_Tmap_traits@KPAUSTRUCT_GROUP_MEMBER_INFO@@U?$less@K@std@@V?$CustomAllocator@PAUSTRUCT_GROUP_MEMBER_INFO@@@util@@$0A@@std@@@2@ABU?$pair@$$CBKPAUSTRUCT_GROUP_MEMBER_INFO@@@2@@Z 00416560 f i GroupManager.obj
 0001:00015560       ?_Insert@?$_Tree@V?$_Tmap_traits@KPAUSTRUCT_REVENGE_INFO@@U?$less@K@std@@V?$CustomAllocator@PAUSTRUCT_REVENGE_INFO@@@util@@$0A@@std@@@std@@IAE?AViterator@12@_NPAU_Node@?$_Tree_nod@V?$_Tmap_traits@KPAUSTRUCT_REVENGE_INFO@@U?$less@K@std@@V?$CustomAllocator@PAUSTRUCT_REVENGE_INFO@@@util@@$0A@@std@@@2@ABU?$pair@$$CBKPAUSTRUCT_REVENGE_INFO@@@2@@Z 00416560 f i User.obj
 0001:00015560       ?_Insert@?$_Tree@V?$_Tmap_traits@KPAVFieldInfo@@U?$less@K@std@@V?$CustomAllocator@PAVFieldInfo@@@util@@$0A@@std@@@std@@IAE?AViterator@12@_NPAU_Node@?$_Tree_nod@V?$_Tmap_traits@KPAVFieldInfo@@U?$less@K@std@@V?$CustomAllocator@PAVFieldInfo@@@util@@$0A@@std@@@2@ABU?$pair@$$CBKPAVFieldInfo@@@2@@Z 00416560 f i ChannelManager.obj
 0001:00015560       ?_Insert@?$_Tree@V?$_Tmap_traits@KPAUSTRUCT_BLOCK_INFO@@U?$less@K@std@@V?$CustomAllocator@PAUSTRUCT_BLOCK_INFO@@@util@@$0A@@std@@@std@@IAE?AViterator@12@_NPAU_Node@?$_Tree_nod@V?$_Tmap_traits@KPAUSTRUCT_BLOCK_INFO@@U?$less@K@std@@V?$CustomAllocator@PAUSTRUCT_BLOCK_INFO@@@util@@$0A@@std@@@2@ABU?$pair@$$CBKPAUSTRUCT_BLOCK_INFO@@@2@@Z 00416560 f i User.obj
 0001:00015560       ?_Insert@?$_Tree@V?$_Tmap_traits@KPAVFriendInvitationCommand@@U?$less@K@std@@V?$CustomAllocator@PAVFriendInvitationCommand@@@util@@$0A@@std@@@std@@IAE?AViterator@12@_NPAU_Node@?$_Tree_nod@V?$_Tmap_traits@KPAVFriendInvitationCommand@@U?$less@K@std@@V?$CustomAllocator@PAVFriendInvitationCommand@@@util@@$0A@@std@@@2@ABU?$pair@$$CBKPAVFriendInvitationCommand@@@2@@Z 00416560 f i servercommon:FriendInvitationInvoker.obj
 0001:00015760       ?insert@?$_Tree@V?$_Tmap_traits@KPAVChannel@@U?$less@K@std@@V?$CustomAllocator@PAVChannel@@@util@@$0A@@std@@@std@@QAE?AU?$pair@Viterator@?$_Tree@V?$_Tmap_traits@KPAVChannel@@U?$less@K@std@@V?$CustomAllocator@PAVChannel@@@util@@$0A@@std@@@std@@_N@2@ABU?$pair@$$CBKPAVChannel@@@2@@Z 00416760 f i ChannelManager.obj
 0001:00015760       ?insert@?$_Tree@V?$_Tmap_traits@KPAVUser@@U?$less@K@std@@V?$CustomAllocator@PAVUser@@@util@@$0A@@std@@@std@@QAE?AU?$pair@Viterator@?$_Tree@V?$_Tmap_traits@KPAVUser@@U?$less@K@std@@V?$CustomAllocator@PAVUser@@@util@@$0A@@std@@@std@@_N@2@ABU?$pair@$$CBKPAVUser@@@2@@Z 00416760 f i User.obj
 0001:00015760       ?insert@?$_Tree@V?$_Tmap_traits@KPAVFieldInfo@@U?$less@K@std@@V?$CustomAllocator@PAVFieldInfo@@@util@@$0A@@std@@@std@@QAE?AU?$pair@Viterator@?$_Tree@V?$_Tmap_traits@KPAVFieldInfo@@U?$less@K@std@@V?$CustomAllocator@PAVFieldInfo@@@util@@$0A@@std@@@std@@_N@2@ABU?$pair@$$CBKPAVFieldInfo@@@2@@Z 00416760 f i ChannelManager.obj
 0001:00015760       ?insert@?$_Tree@V?$_Tmap_traits@KPAVFriendInvitationCommand@@U?$less@K@std@@V?$CustomAllocator@PAVFriendInvitationCommand@@@util@@$0A@@std@@@std@@QAE?AU?$pair@Viterator@?$_Tree@V?$_Tmap_traits@KPAVFriendInvitationCommand@@U?$less@K@std@@V?$CustomAllocator@PAVFriendInvitationCommand@@@util@@$0A@@std@@@std@@_N@2@ABU?$pair@$$CBKPAVFriendInvitationCommand@@@2@@Z 00416760 f i servercommon:FriendInvitationInvoker.obj
 0001:00015760       ?insert@?$_Tree@V?$_Tmap_traits@KPAVServerSession@@U?$less@K@std@@V?$CustomAllocator@PAVServerSession@@@util@@$0A@@std@@@std@@QAE?AU?$pair@Viterator@?$_Tree@V?$_Tmap_traits@KPAVServerSession@@U?$less@K@std@@V?$CustomAllocator@PAVServerSession@@@util@@$0A@@std@@@std@@_N@2@ABU?$pair@$$CBKPAVServerSession@@@2@@Z 00416760 f i ServerSessionManager.obj
 0001:00015760       ?insert@?$_Tree@V?$_Tmap_traits@KPAUSTRUCT_REVENGE_INFO@@U?$less@K@std@@V?$CustomAllocator@PAUSTRUCT_REVENGE_INFO@@@util@@$0A@@std@@@std@@QAE?AU?$pair@Viterator@?$_Tree@V?$_Tmap_traits@KPAUSTRUCT_REVENGE_INFO@@U?$less@K@std@@V?$CustomAllocator@PAUSTRUCT_REVENGE_INFO@@@util@@$0A@@std@@@std@@_N@2@ABU?$pair@$$CBKPAUSTRUCT_REVENGE_INFO@@@2@@Z 00416760 f i User.obj
 0001:00015760       ?insert@?$_Tree@V?$_Tmap_traits@KPAUSTRUCT_FRIEND_INFO@@U?$less@K@std@@V?$CustomAllocator@PAUSTRUCT_FRIEND_INFO@@@util@@$0A@@std@@@std@@QAE?AU?$pair@Viterator@?$_Tree@V?$_Tmap_traits@KPAUSTRUCT_FRIEND_INFO@@U?$less@K@std@@V?$CustomAllocator@PAUSTRUCT_FRIEND_INFO@@@util@@$0A@@std@@@std@@_N@2@ABU?$pair@$$CBKPAUSTRUCT_FRIEND_INFO@@@2@@Z 00416760 f i FriendMap.obj
 0001:00015760       ?insert@?$_Tree@V?$_Tmap_traits@KPAUSTRUCT_GROUP_MEMBER_INFO@@U?$less@K@std@@V?$CustomAllocator@PAUSTRUCT_GROUP_MEMBER_INFO@@@util@@$0A@@std@@@std@@QAE?AU?$pair@Viterator@?$_Tree@V?$_Tmap_traits@KPAUSTRUCT_GROUP_MEMBER_INFO@@U?$less@K@std@@V?$CustomAllocator@PAUSTRUCT_GROUP_MEMBER_INFO@@@util@@$0A@@std@@@std@@_N@2@ABU?$pair@$$CBKPAUSTRUCT_GROUP_MEMBER_INFO@@@2@@Z 00416760 f i GroupManager.obj
 0001:00015760       ?insert@?$_Tree@V?$_Tmap_traits@KPBUsMAP_ENTERENCE_PORTAL_BASE@@U?$less@K@std@@V?$CustomAllocator@PBUsMAP_ENTERENCE_PORTAL_BASE@@@util@@$0A@@std@@@std@@QAE?AU?$pair@Viterator@?$_Tree@V?$_Tmap_traits@KPBUsMAP_ENTERENCE_PORTAL_BASE@@U?$less@K@std@@V?$CustomAllocator@PBUsMAP_ENTERENCE_PORTAL_BASE@@@util@@$0A@@std@@@std@@_N@2@ABU?$pair@$$CBKPBUsMAP_ENTERENCE_PORTAL_BASE@@@2@@Z 00416760 f i programcommon_s:MapInfoParser.obj
 0001:00015760       ?insert@?$_Tree@V?$_Tmap_traits@KPAUSTRUCT_BLOCK_INFO@@U?$less@K@std@@V?$CustomAllocator@PAUSTRUCT_BLOCK_INFO@@@util@@$0A@@std@@@std@@QAE?AU?$pair@Viterator@?$_Tree@V?$_Tmap_traits@KPAUSTRUCT_BLOCK_INFO@@U?$less@K@std@@V?$CustomAllocator@PAUSTRUCT_BLOCK_INFO@@@util@@$0A@@std@@@std@@_N@2@ABU?$pair@$$CBKPAUSTRUCT_BLOCK_INFO@@@2@@Z 00416760 f i User.obj
 0001:00015850       ??0ActiveUser@@QAE@XZ      00416850 f   ActiveUser.obj
 0001:00015870       ??1ActiveUser@@UAE@XZ      00416870 f   ActiveUser.obj
 0001:00015880       ?Init@ActiveUser@@UAEXXZ   00416880 f   ActiveUser.obj
 0001:00015890       ?Release@ActiveUser@@UAEXXZ 00416890 f   ActiveUser.obj
 0001:000158a0       ?Update@ActiveUser@@UAEXXZ 004168a0 f   ActiveUser.obj
 0001:000158b0       ?OnAccept@ActiveUser@@MAEXK@Z 004168b0 f   ActiveUser.obj
 0001:000158d0       ?OnRecv@ActiveUser@@MAEXPAEG@Z 004168d0 f   ActiveUser.obj
 0001:00015a30       ?GetUserType@ActiveUser@@UBE?AW4eUSER_TYPE@@XZ 00416a30 f i ActiveUser.obj
 0001:00015a30       ?GetServerType@FieldServerSession@@UAE?AW4eSERVER_TYPE@@XZ 00416a30 f i FieldServerSession.obj
 0001:00015a40       ??_EActiveUser@@UAEPAXI@Z  00416a40 f i ActiveUser.obj
 0001:00015a40       ??_GActiveUser@@UAEPAXI@Z  00416a40 f i ActiveUser.obj
 0001:00015a70       ?Init@CharNameUserList@@QAEXXZ 00416a70 f   CharNameUserList.obj
 0001:00015a80       ?Find@CharNameUserList@@QAEPAVUser@@V?$basic_string@DU?$char_traits@D@std@@V?$allocator@D@2@@std@@@Z 00416a80 f   CharNameUserList.obj
 0001:00015c50       ?Release@CharNameUserList@@QAEXXZ 00416c50 f   CharNameUserList.obj
 0001:00015c80       ?Remove@CharNameUserList@@QAEXV?$basic_string@DU?$char_traits@D@std@@V?$allocator@D@2@@std@@@Z 00416c80 f   CharNameUserList.obj
 0001:00015e30       ??1CharNameUserList@@QAE@XZ 00416e30 f   CharNameUserList.obj
 0001:00015e40       ?Add@CharNameUserList@@QAEXV?$basic_string@DU?$char_traits@D@std@@V?$allocator@D@2@@std@@PAVUser@@@Z 00416e40 f   CharNameUserList.obj
 0001:000160d0       ??0CharNameUserList@@QAE@XZ 004170d0 f   CharNameUserList.obj
 0001:000160f0       ?_Max@?$_Tree@V?$_Tmap_traits@V?$basic_string@DU?$char_traits@D@std@@V?$allocator@D@2@@std@@PAVCommChatZone@@U?$less@V?$basic_string@DU?$char_traits@D@std@@V?$allocator@D@2@@std@@@2@V?$CustomAllocator@PAVCommChatZone@@@util@@$0A@@std@@@std@@KAPAU_Node@?$_Tree_nod@V?$_Tmap_traits@V?$basic_string@DU?$char_traits@D@std@@V?$allocator@D@2@@std@@PAVCommChatZone@@U?$less@V?$basic_string@DU?$char_traits@D@std@@V?$allocator@D@2@@std@@@2@V?$CustomAllocator@PAVCommChatZone@@@util@@$0A@@std@@@2@PAU342@@Z 004170f0 f i ChatRoomManager.obj
 0001:000160f0       ?_Max@?$_Tree@V?$_Tmap_traits@V?$basic_string@DU?$char_traits@D@std@@V?$allocator@D@2@@std@@PAV?$map@V?$basic_string@DU?$char_traits@D@std@@V?$allocator@D@2@@std@@V12@U?$less@V?$basic_string@DU?$char_traits@D@std@@V?$allocator@D@2@@std@@@2@V?$allocator@U?$pair@$$CBV?$basic_string@DU?$char_traits@D@std@@V?$allocator@D@2@@std@@V12@@std@@@2@@2@U?$less@V?$basic_string@DU?$char_traits@D@std@@V?$allocator@D@2@@std@@@2@V?$allocator@U?$pair@$$CBV?$basic_string@DU?$char_traits@D@std@@V?$allocator@D@2@@std@@PAV?$map@V?$basic_string@DU?$char_traits@D@std@@V?$allocator@D@2@@std@@V12@U?$less@V?$basic_string@DU?$char_traits@D@std@@V?$allocator@D@2@@std@@@2@V?$allocator@U?$pair@$$CBV?$basic_string@DU?$char_traits@D@std@@V?$allocator@D@2@@std@@V12@@std@@@2@@2@@std@@@2@$0A@@std@@@std@@KAPAU_Node@?$_Tree_nod@V?$_Tmap_traits@V?$basic_string@DU?$char_traits@D@std@@V?$allocator@D@2@@std@@PAV?$map@V?$basic_string@DU?$char_traits@D@std@@V?$allocator@D@2@@std@@V12@U?$less@V?$basic_string@DU?$char_traits@D@std@@V?$allocator@D@2@@std@@@2@V?$allocator@U?$pair@$$CBV?$basic_string@DU?$char_traits@D@std@@V?$allocator@D@2@@std@@V12@@std@@@2@@2@U?$less@V?$basic_string@DU?$char_traits@D@std@@V?$allocator@D@2@@std@@@2@V?$allocator@U?$pair@$$CBV?$basic_string@DU?$char_traits@D@std@@V?$allocator@D@2@@std@@PAV?$map@V?$basic_string@DU?$char_traits@D@std@@V?$allocator@D@2@@std@@V12@U?$less@V?$basic_string@DU?$char_traits@D@std@@V?$allocator@D@2@@std@@@2@V?$allocator@U?$pair@$$CBV?$basic_string@DU?$char_traits@D@std@@V?$allocator@D@2@@std@@V12@@std@@@2@@2@@std@@@2@$0A@@std@@@2@PAU342@@Z 004170f0 f i utility_s:INIParser.obj
 0001:000160f0       ?_Max@?$_Tree@V?$_Tmap_traits@W4eSCRIPT_CODE@@V?$basic_string@DU?$char_traits@D@std@@V?$allocator@D@2@@std@@U?$less@W4eSCRIPT_CODE@@@3@V?$CustomAllocator@V?$basic_string@DU?$char_traits@D@std@@V?$allocator@D@2@@std@@@util@@$0A@@std@@@std@@KAPAU_Node@?$_Tree_nod@V?$_Tmap_traits@W4eSCRIPT_CODE@@V?$basic_string@DU?$char_traits@D@std@@V?$allocator@D@2@@std@@U?$less@W4eSCRIPT_CODE@@@3@V?$CustomAllocator@V?$basic_string@DU?$char_traits@D@std@@V?$allocator@D@2@@std@@@util@@$0A@@std@@@2@PAU342@@Z 004170f0 f i programcommon_s:ScriptCode.IParser.Impl.obj
 0001:000160f0       ?_Max@?$_Tree@V?$_Tmap_traits@V?$basic_string@DU?$char_traits@D@std@@V?$allocator@D@2@@std@@PAVUser@@U?$less@V?$basic_string@DU?$char_traits@D@std@@V?$allocator@D@2@@std@@@2@V?$CustomAllocator@PAVUser@@@util@@$0A@@std@@@std@@KAPAU_Node@?$_Tree_nod@V?$_Tmap_traits@V?$basic_string@DU?$char_traits@D@std@@V?$allocator@D@2@@std@@PAVUser@@U?$less@V?$basic_string@DU?$char_traits@D@std@@V?$allocator@D@2@@std@@@2@V?$CustomAllocator@PAVUser@@@util@@$0A@@std@@@2@PAU342@@Z 004170f0 f i CharNameUserList.obj
 0001:00016110       ?_Dec@const_iterator@?$_Tree@V?$_Tmap_traits@V?$basic_string@DU?$char_traits@D@std@@V?$allocator@D@2@@std@@PAVCommChatZone@@U?$less@V?$basic_string@DU?$char_traits@D@std@@V?$allocator@D@2@@std@@@2@V?$CustomAllocator@PAVCommChatZone@@@util@@$0A@@std@@@std@@QAEXXZ 00417110 f i ChatRoomManager.obj
 0001:00016110       ?_Dec@const_iterator@?$_Tree@V?$_Tmap_traits@V?$basic_string@DU?$char_traits@D@std@@V?$allocator@D@2@@std@@PAVUser@@U?$less@V?$basic_string@DU?$char_traits@D@std@@V?$allocator@D@2@@std@@@2@V?$CustomAllocator@PAVUser@@@util@@$0A@@std@@@std@@QAEXXZ 00417110 f i CharNameUserList.obj
 0001:00016110       ?_Dec@const_iterator@?$_Tree@V?$_Tmap_traits@V?$basic_string@DU?$char_traits@D@std@@V?$allocator@D@2@@std@@PAV?$map@V?$basic_string@DU?$char_traits@D@std@@V?$allocator@D@2@@std@@V12@U?$less@V?$basic_string@DU?$char_traits@D@std@@V?$allocator@D@2@@std@@@2@V?$allocator@U?$pair@$$CBV?$basic_string@DU?$char_traits@D@std@@V?$allocator@D@2@@std@@V12@@std@@@2@@2@U?$less@V?$basic_string@DU?$char_traits@D@std@@V?$allocator@D@2@@std@@@2@V?$allocator@U?$pair@$$CBV?$basic_string@DU?$char_traits@D@std@@V?$allocator@D@2@@std@@PAV?$map@V?$basic_string@DU?$char_traits@D@std@@V?$allocator@D@2@@std@@V12@U?$less@V?$basic_string@DU?$char_traits@D@std@@V?$allocator@D@2@@std@@@2@V?$allocator@U?$pair@$$CBV?$basic_string@DU?$char_traits@D@std@@V?$allocator@D@2@@std@@V12@@std@@@2@@2@@std@@@2@$0A@@std@@@std@@QAEXXZ 00417110 f i utility_s:INIParser.obj
 0001:00016110       ?_Dec@const_iterator@?$_Tree@V?$_Tmap_traits@W4eSCRIPT_CODE@@V?$basic_string@DU?$char_traits@D@std@@V?$allocator@D@2@@std@@U?$less@W4eSCRIPT_CODE@@@3@V?$CustomAllocator@V?$basic_string@DU?$char_traits@D@std@@V?$allocator@D@2@@std@@@util@@$0A@@std@@@std@@QAEXXZ 00417110 f i programcommon_s:ScriptCode.IParser.Impl.obj
 0001:000161a0       ??$_Transform@PADPADP6AHH@ZUforward_iterator_tag@std@@@std@@YAPADPAD00P6AHH@ZUforward_iterator_tag@0@U_Range_checked_iterator_tag@0@@Z 004171a0 f i CharNameUserList.obj
 0001:000161e0       ?_Lrotate@?$_Tree@V?$_Tmap_traits@V?$basic_string@DU?$char_traits@D@std@@V?$allocator@D@2@@std@@PAVUser@@U?$less@V?$basic_string@DU?$char_traits@D@std@@V?$allocator@D@2@@std@@@2@V?$CustomAllocator@PAVUser@@@util@@$0A@@std@@@std@@IAEXPAU_Node@?$_Tree_nod@V?$_Tmap_traits@V?$basic_string@DU?$char_traits@D@std@@V?$allocator@D@2@@std@@PAVUser@@U?$less@V?$basic_string@DU?$char_traits@D@std@@V?$allocator@D@2@@std@@@2@V?$CustomAllocator@PAVUser@@@util@@$0A@@std@@@2@@Z 004171e0 f i CharNameUserList.obj
 0001:000161e0       ?_Lrotate@?$_Tree@V?$_Tmap_traits@V?$basic_string@DU?$char_traits@D@std@@V?$allocator@D@2@@std@@PAV?$map@V?$basic_string@DU?$char_traits@D@std@@V?$allocator@D@2@@std@@V12@U?$less@V?$basic_string@DU?$char_traits@D@std@@V?$allocator@D@2@@std@@@2@V?$allocator@U?$pair@$$CBV?$basic_string@DU?$char_traits@D@std@@V?$allocator@D@2@@std@@V12@@std@@@2@@2@U?$less@V?$basic_string@DU?$char_traits@D@std@@V?$allocator@D@2@@std@@@2@V?$allocator@U?$pair@$$CBV?$basic_string@DU?$char_traits@D@std@@V?$allocator@D@2@@std@@PAV?$map@V?$basic_string@DU?$char_traits@D@std@@V?$allocator@D@2@@std@@V12@U?$less@V?$basic_string@DU?$char_traits@D@std@@V?$allocator@D@2@@std@@@2@V?$allocator@U?$pair@$$CBV?$basic_string@DU?$char_traits@D@std@@V?$allocator@D@2@@std@@V12@@std@@@2@@2@@std@@@2@$0A@@std@@@std@@IAEXPAU_Node@?$_Tree_nod@V?$_Tmap_traits@V?$basic_string@DU?$char_traits@D@std@@V?$allocator@D@2@@std@@PAV?$map@V?$basic_string@DU?$char_traits@D@std@@V?$allocator@D@2@@std@@V12@U?$less@V?$basic_string@DU?$char_traits@D@std@@V?$allocator@D@2@@std@@@2@V?$allocator@U?$pair@$$CBV?$basic_string@DU?$char_traits@D@std@@V?$allocator@D@2@@std@@V12@@std@@@2@@2@U?$less@V?$basic_string@DU?$char_traits@D@std@@V?$allocator@D@2@@std@@@2@V?$allocator@U?$pair@$$CBV?$basic_string@DU?$char_traits@D@std@@V?$allocator@D@2@@std@@PAV?$map@V?$basic_string@DU?$char_traits@D@std@@V?$allocator@D@2@@std@@V12@U?$less@V?$basic_string@DU?$char_traits@D@std@@V?$allocator@D@2@@std@@@2@V?$allocator@U?$pair@$$CBV?$basic_string@DU?$char_traits@D@std@@V?$allocator@D@2@@std@@V12@@std@@@2@@2@@std@@@2@$0A@@std@@@2@@Z 004171e0 f i utility_s:INIParser.obj
 0001:000161e0       ?_Lrotate@?$_Tree@V?$_Tmap_traits@W4eSCRIPT_CODE@@V?$basic_string@DU?$char_traits@D@std@@V?$allocator@D@2@@std@@U?$less@W4eSCRIPT_CODE@@@3@V?$CustomAllocator@V?$basic_string@DU?$char_traits@D@std@@V?$allocator@D@2@@std@@@util@@$0A@@std@@@std@@IAEXPAU_Node@?$_Tree_nod@V?$_Tmap_traits@W4eSCRIPT_CODE@@V?$basic_string@DU?$char_traits@D@std@@V?$allocator@D@2@@std@@U?$less@W4eSCRIPT_CODE@@@3@V?$CustomAllocator@V?$basic_string@DU?$char_traits@D@std@@V?$allocator@D@2@@std@@@util@@$0A@@std@@@2@@Z 004171e0 f i programcommon_s:ScriptCode.IParser.Impl.obj
 0001:000161e0       ?_Lrotate@?$_Tree@V?$_Tmap_traits@V?$basic_string@DU?$char_traits@D@std@@V?$allocator@D@2@@std@@PAVCommChatZone@@U?$less@V?$basic_string@DU?$char_traits@D@std@@V?$allocator@D@2@@std@@@2@V?$CustomAllocator@PAVCommChatZone@@@util@@$0A@@std@@@std@@IAEXPAU_Node@?$_Tree_nod@V?$_Tmap_traits@V?$basic_string@DU?$char_traits@D@std@@V?$allocator@D@2@@std@@PAVCommChatZone@@U?$less@V?$basic_string@DU?$char_traits@D@std@@V?$allocator@D@2@@std@@@2@V?$CustomAllocator@PAVCommChatZone@@@util@@$0A@@std@@@2@@Z 004171e0 f i ChatRoomManager.obj
 0001:00016230       ??Y?$_String_const_iterator@DU?$char_traits@D@std@@V?$allocator@D@2@@std@@QAEAAV01@H@Z 00417230 f i CharNameUserList.obj
 0001:00016290       ?_Lbound@?$_Tree@V?$_Tmap_traits@V?$basic_string@DU?$char_traits@D@std@@V?$allocator@D@2@@std@@PAVUser@@U?$less@V?$basic_string@DU?$char_traits@D@std@@V?$allocator@D@2@@std@@@2@V?$CustomAllocator@PAVUser@@@util@@$0A@@std@@@std@@IBEPAU_Node@?$_Tree_nod@V?$_Tmap_traits@V?$basic_string@DU?$char_traits@D@std@@V?$allocator@D@2@@std@@PAVUser@@U?$less@V?$basic_string@DU?$char_traits@D@std@@V?$allocator@D@2@@std@@@2@V?$CustomAllocator@PAVUser@@@util@@$0A@@std@@@2@ABV?$basic_string@DU?$char_traits@D@std@@V?$allocator@D@2@@2@@Z 00417290 f i CharNameUserList.obj
 0001:00016290       ?_Lbound@?$_Tree@V?$_Tmap_traits@V?$basic_string@DU?$char_traits@D@std@@V?$allocator@D@2@@std@@PAV?$map@V?$basic_string@DU?$char_traits@D@std@@V?$allocator@D@2@@std@@V12@U?$less@V?$basic_string@DU?$char_traits@D@std@@V?$allocator@D@2@@std@@@2@V?$allocator@U?$pair@$$CBV?$basic_string@DU?$char_traits@D@std@@V?$allocator@D@2@@std@@V12@@std@@@2@@2@U?$less@V?$basic_string@DU?$char_traits@D@std@@V?$allocator@D@2@@std@@@2@V?$allocator@U?$pair@$$CBV?$basic_string@DU?$char_traits@D@std@@V?$allocator@D@2@@std@@PAV?$map@V?$basic_string@DU?$char_traits@D@std@@V?$allocator@D@2@@std@@V12@U?$less@V?$basic_string@DU?$char_traits@D@std@@V?$allocator@D@2@@std@@@2@V?$allocator@U?$pair@$$CBV?$basic_string@DU?$char_traits@D@std@@V?$allocator@D@2@@std@@V12@@std@@@2@@2@@std@@@2@$0A@@std@@@std@@IBEPAU_Node@?$_Tree_nod@V?$_Tmap_traits@V?$basic_string@DU?$char_traits@D@std@@V?$allocator@D@2@@std@@PAV?$map@V?$basic_string@DU?$char_traits@D@std@@V?$allocator@D@2@@std@@V12@U?$less@V?$basic_string@DU?$char_traits@D@std@@V?$allocator@D@2@@std@@@2@V?$allocator@U?$pair@$$CBV?$basic_string@DU?$char_traits@D@std@@V?$allocator@D@2@@std@@V12@@std@@@2@@2@U?$less@V?$basic_string@DU?$char_traits@D@std@@V?$allocator@D@2@@std@@@2@V?$allocator@U?$pair@$$CBV?$basic_string@DU?$char_traits@D@std@@V?$allocator@D@2@@std@@PAV?$map@V?$basic_string@DU?$char_traits@D@std@@V?$allocator@D@2@@std@@V12@U?$less@V?$basic_string@DU?$char_traits@D@std@@V?$allocator@D@2@@std@@@2@V?$allocator@U?$pair@$$CBV?$basic_string@DU?$char_traits@D@std@@V?$allocator@D@2@@std@@V12@@std@@@2@@2@@std@@@2@$0A@@std@@@2@ABV?$basic_string@DU?$char_traits@D@std@@V?$allocator@D@2@@2@@Z 00417290 f i utility_s:INIParser.obj
 0001:00016290       ?_Lbound@?$_Tree@V?$_Tmap_traits@V?$basic_string@DU?$char_traits@D@std@@V?$allocator@D@2@@std@@PAVCommChatZone@@U?$less@V?$basic_string@DU?$char_traits@D@std@@V?$allocator@D@2@@std@@@2@V?$CustomAllocator@PAVCommChatZone@@@util@@$0A@@std@@@std@@IBEPAU_Node@?$_Tree_nod@V?$_Tmap_traits@V?$basic_string@DU?$char_traits@D@std@@V?$allocator@D@2@@std@@PAVCommChatZone@@U?$less@V?$basic_string@DU?$char_traits@D@std@@V?$allocator@D@2@@std@@@2@V?$CustomAllocator@PAVCommChatZone@@@util@@$0A@@std@@@2@ABV?$basic_string@DU?$char_traits@D@std@@V?$allocator@D@2@@2@@Z 00417290 f i ChatRoomManager.obj
 0001:00016320       ??$_Transform@PADV?$_String_iterator@DU?$char_traits@D@std@@V?$allocator@D@2@@std@@P6AHH@Z@std@@YA?AV?$_String_iterator@DU?$char_traits@D@std@@V?$allocator@D@2@@0@PAD0V10@P6AHH@ZUrandom_access_iterator_tag@0@U_Range_checked_iterator_tag@0@@Z 00417320 f i CharNameUserList.obj
 0001:00016390       ?find@?$_Tree@V?$_Tmap_traits@V?$basic_string@DU?$char_traits@D@std@@V?$allocator@D@2@@std@@PAVCommChatZone@@U?$less@V?$basic_string@DU?$char_traits@D@std@@V?$allocator@D@2@@std@@@2@V?$CustomAllocator@PAVCommChatZone@@@util@@$0A@@std@@@std@@QAE?AViterator@12@ABV?$basic_string@DU?$char_traits@D@std@@V?$allocator@D@2@@2@@Z 00417390 f i ChatRoomManager.obj
 0001:00016390       ?find@?$_Tree@V?$_Tmap_traits@V?$basic_string@DU?$char_traits@D@std@@V?$allocator@D@2@@std@@PAVUser@@U?$less@V?$basic_string@DU?$char_traits@D@std@@V?$allocator@D@2@@std@@@2@V?$CustomAllocator@PAVUser@@@util@@$0A@@std@@@std@@QAE?AViterator@12@ABV?$basic_string@DU?$char_traits@D@std@@V?$allocator@D@2@@2@@Z 00417390 f i CharNameUserList.obj
 0001:00016390       ?find@?$_Tree@V?$_Tmap_traits@V?$basic_string@DU?$char_traits@D@std@@V?$allocator@D@2@@std@@PAV?$map@V?$basic_string@DU?$char_traits@D@std@@V?$allocator@D@2@@std@@V12@U?$less@V?$basic_string@DU?$char_traits@D@std@@V?$allocator@D@2@@std@@@2@V?$allocator@U?$pair@$$CBV?$basic_string@DU?$char_traits@D@std@@V?$allocator@D@2@@std@@V12@@std@@@2@@2@U?$less@V?$basic_string@DU?$char_traits@D@std@@V?$allocator@D@2@@std@@@2@V?$allocator@U?$pair@$$CBV?$basic_string@DU?$char_traits@D@std@@V?$allocator@D@2@@std@@PAV?$map@V?$basic_string@DU?$char_traits@D@std@@V?$allocator@D@2@@std@@V12@U?$less@V?$basic_string@DU?$char_traits@D@std@@V?$allocator@D@2@@std@@@2@V?$allocator@U?$pair@$$CBV?$basic_string@DU?$char_traits@D@std@@V?$allocator@D@2@@std@@V12@@std@@@2@@2@@std@@@2@$0A@@std@@@std@@QBE?AVconst_iterator@12@ABV?$basic_string@DU?$char_traits@D@std@@V?$allocator@D@2@@2@@Z 00417390 f i utility_s:INIParser.obj
 0001:00016420       ??0_Node@?$_Tree_nod@V?$_Tmap_traits@V?$basic_string@DU?$char_traits@D@std@@V?$allocator@D@2@@std@@PAV?$map@V?$basic_string@DU?$char_traits@D@std@@V?$allocator@D@2@@std@@V12@U?$less@V?$basic_string@DU?$char_traits@D@std@@V?$allocator@D@2@@std@@@2@V?$allocator@U?$pair@$$CBV?$basic_string@DU?$char_traits@D@std@@V?$allocator@D@2@@std@@V12@@std@@@2@@2@U?$less@V?$basic_string@DU?$char_traits@D@std@@V?$allocator@D@2@@std@@@2@V?$allocator@U?$pair@$$CBV?$basic_string@DU?$char_traits@D@std@@V?$allocator@D@2@@std@@PAV?$map@V?$basic_string@DU?$char_traits@D@std@@V?$allocator@D@2@@std@@V12@U?$less@V?$basic_string@DU?$char_traits@D@std@@V?$allocator@D@2@@std@@@2@V?$allocator@U?$pair@$$CBV?$basic_string@DU?$char_traits@D@std@@V?$allocator@D@2@@std@@V12@@std@@@2@@2@@std@@@2@$0A@@std@@@std@@QAE@PAU012@00ABU?$pair@$$CBV?$basic_string@DU?$char_traits@D@std@@V?$allocator@D@2@@std@@PAV?$map@V?$basic_string@DU?$char_traits@D@std@@V?$allocator@D@2@@std@@V12@U?$less@V?$basic_string@DU?$char_traits@D@std@@V?$allocator@D@2@@std@@@2@V?$allocator@U?$pair@$$CBV?$basic_string@DU?$char_traits@D@std@@V?$allocator@D@2@@std@@V12@@std@@@2@@2@@2@D@Z 00417420 f i utility_s:INIParser.obj
 0001:00016420       ??0_Node@?$_Tree_nod@V?$_Tmap_traits@V?$basic_string@DU?$char_traits@D@std@@V?$allocator@D@2@@std@@PAVUser@@U?$less@V?$basic_string@DU?$char_traits@D@std@@V?$allocator@D@2@@std@@@2@V?$CustomAllocator@PAVUser@@@util@@$0A@@std@@@std@@QAE@PAU012@00ABU?$pair@$$CBV?$basic_string@DU?$char_traits@D@std@@V?$allocator@D@2@@std@@PAVUser@@@2@D@Z 00417420 f i CharNameUserList.obj
 0001:00016420       ??0_Node@?$_Tree_nod@V?$_Tmap_traits@V?$basic_string@DU?$char_traits@D@std@@V?$allocator@D@2@@std@@PAVCommChatZone@@U?$less@V?$basic_string@DU?$char_traits@D@std@@V?$allocator@D@2@@std@@@2@V?$CustomAllocator@PAVCommChatZone@@@util@@$0A@@std@@@std@@QAE@PAU012@00ABU?$pair@$$CBV?$basic_string@DU?$char_traits@D@std@@V?$allocator@D@2@@std@@PAVCommChatZone@@@2@D@Z 00417420 f i ChatRoomManager.obj
 0001:00016480       ?_Buynode@?$_Tree@V?$_Tmap_traits@V?$basic_string@DU?$char_traits@D@std@@V?$allocator@D@2@@std@@PAVCommChatZone@@U?$less@V?$basic_string@DU?$char_traits@D@std@@V?$allocator@D@2@@std@@@2@V?$CustomAllocator@PAVCommChatZone@@@util@@$0A@@std@@@std@@IAEPAU_Node@?$_Tree_nod@V?$_Tmap_traits@V?$basic_string@DU?$char_traits@D@std@@V?$allocator@D@2@@std@@PAVCommChatZone@@U?$less@V?$basic_string@DU?$char_traits@D@std@@V?$allocator@D@2@@std@@@2@V?$CustomAllocator@PAVCommChatZone@@@util@@$0A@@std@@@2@PAU342@00ABU?$pair@$$CBV?$basic_string@DU?$char_traits@D@std@@V?$allocator@D@2@@std@@PAVCommChatZone@@@2@D@Z 00417480 f i ChatRoomManager.obj
 0001:00016480       ?_Buynode@?$_Tree@V?$_Tmap_traits@V?$basic_string@DU?$char_traits@D@std@@V?$allocator@D@2@@std@@PAVUser@@U?$less@V?$basic_string@DU?$char_traits@D@std@@V?$allocator@D@2@@std@@@2@V?$CustomAllocator@PAVUser@@@util@@$0A@@std@@@std@@IAEPAU_Node@?$_Tree_nod@V?$_Tmap_traits@V?$basic_string@DU?$char_traits@D@std@@V?$allocator@D@2@@std@@PAVUser@@U?$less@V?$basic_string@DU?$char_traits@D@std@@V?$allocator@D@2@@std@@@2@V?$CustomAllocator@PAVUser@@@util@@$0A@@std@@@2@PAU342@00ABU?$pair@$$CBV?$basic_string@DU?$char_traits@D@std@@V?$allocator@D@2@@std@@PAVUser@@@2@D@Z 00417480 f i CharNameUserList.obj
 0001:00016520       ?_Insert@?$_Tree@V?$_Tmap_traits@V?$basic_string@DU?$char_traits@D@std@@V?$allocator@D@2@@std@@PAVUser@@U?$less@V?$basic_string@DU?$char_traits@D@std@@V?$allocator@D@2@@std@@@2@V?$CustomAllocator@PAVUser@@@util@@$0A@@std@@@std@@IAE?AViterator@12@_NPAU_Node@?$_Tree_nod@V?$_Tmap_traits@V?$basic_string@DU?$char_traits@D@std@@V?$allocator@D@2@@std@@PAVUser@@U?$less@V?$basic_string@DU?$char_traits@D@std@@V?$allocator@D@2@@std@@@2@V?$CustomAllocator@PAVUser@@@util@@$0A@@std@@@2@ABU?$pair@$$CBV?$basic_string@DU?$char_traits@D@std@@V?$allocator@D@2@@std@@PAVUser@@@2@@Z 00417520 f i CharNameUserList.obj
 0001:00016520       ?_Insert@?$_Tree@V?$_Tmap_traits@V?$basic_string@DU?$char_traits@D@std@@V?$allocator@D@2@@std@@PAVCommChatZone@@U?$less@V?$basic_string@DU?$char_traits@D@std@@V?$allocator@D@2@@std@@@2@V?$CustomAllocator@PAVCommChatZone@@@util@@$0A@@std@@@std@@IAE?AViterator@12@_NPAU_Node@?$_Tree_nod@V?$_Tmap_traits@V?$basic_string@DU?$char_traits@D@std@@V?$allocator@D@2@@std@@PAVCommChatZone@@U?$less@V?$basic_string@DU?$char_traits@D@std@@V?$allocator@D@2@@std@@@2@V?$CustomAllocator@PAVCommChatZone@@@util@@$0A@@std@@@2@ABU?$pair@$$CBV?$basic_string@DU?$char_traits@D@std@@V?$allocator@D@2@@std@@PAVCommChatZone@@@2@@Z 00417520 f i ChatRoomManager.obj
 0001:00016720       ?insert@?$_Tree@V?$_Tmap_traits@V?$basic_string@DU?$char_traits@D@std@@V?$allocator@D@2@@std@@PAVCommChatZone@@U?$less@V?$basic_string@DU?$char_traits@D@std@@V?$allocator@D@2@@std@@@2@V?$CustomAllocator@PAVCommChatZone@@@util@@$0A@@std@@@std@@QAE?AU?$pair@Viterator@?$_Tree@V?$_Tmap_traits@V?$basic_string@DU?$char_traits@D@std@@V?$allocator@D@2@@std@@PAVCommChatZone@@U?$less@V?$basic_string@DU?$char_traits@D@std@@V?$allocator@D@2@@std@@@2@V?$CustomAllocator@PAVCommChatZone@@@util@@$0A@@std@@@std@@_N@2@ABU?$pair@$$CBV?$basic_string@DU?$char_traits@D@std@@V?$allocator@D@2@@std@@PAVCommChatZone@@@2@@Z 00417720 f i ChatRoomManager.obj
 0001:00016720       ?insert@?$_Tree@V?$_Tmap_traits@V?$basic_string@DU?$char_traits@D@std@@V?$allocator@D@2@@std@@PAVUser@@U?$less@V?$basic_string@DU?$char_traits@D@std@@V?$allocator@D@2@@std@@@2@V?$CustomAllocator@PAVUser@@@util@@$0A@@std@@@std@@QAE?AU?$pair@Viterator@?$_Tree@V?$_Tmap_traits@V?$basic_string@DU?$char_traits@D@std@@V?$allocator@D@2@@std@@PAVUser@@U?$less@V?$basic_string@DU?$char_traits@D@std@@V?$allocator@D@2@@std@@@2@V?$CustomAllocator@PAVUser@@@util@@$0A@@std@@@std@@_N@2@ABU?$pair@$$CBV?$basic_string@DU?$char_traits@D@std@@V?$allocator@D@2@@std@@PAVUser@@@2@@Z 00417720 f i CharNameUserList.obj
 0001:00016880       ?Init@GuidUserList@@QAEXXZ 00417880 f   GuidUserList.obj
 0001:00016890       ?SendToAll@GuidUserList@@QAEXPAEG@Z 00417890 f   GuidUserList.obj
 0001:00016910       ?Remove@GuidUserList@@QAEXK@Z 00417910 f   GuidUserList.obj
 0001:00016960       ?Find@GuidUserList@@QAEPAVUser@@K@Z 00417960 f   GuidUserList.obj
 0001:000169d0       ??1GuidUserList@@QAE@XZ    004179d0 f   GuidUserList.obj
 0001:00016a20       ?Release@GuidUserList@@QAEXXZ 00417a20 f   GuidUserList.obj
 0001:00016a30       ?Add@GuidUserList@@QAEXKPAVUser@@@Z 00417a30 f   GuidUserList.obj
 0001:00016aa0       ??0GuidUserList@@QAE@XZ    00417aa0 f   GuidUserList.obj
 0001:00016ac0       ??$_Uninit_copy@PAU_List_position@?$_Hash@V?$_Hmap_traits@KPBUsMAPINFO_BASE@@V?$hash_compare@KU?$less@K@std@@@stdext@@V?$CustomAllocator@PBUsMAPINFO_BASE@@@util@@$0A@@stdext@@@stdext@@PAU123@V?$CustomAllocator@U_List_position@?$_Hash@V?$_Hmap_traits@KPBUsMAPINFO_BASE@@V?$hash_compare@KU?$less@K@std@@@stdext@@V?$CustomAllocator@PBUsMAPINFO_BASE@@@util@@$0A@@stdext@@@stdext@@@util@@@std@@YAPAU_List_position@?$_Hash@V?$_Hmap_traits@KPBUsMAPINFO_BASE@@V?$hash_compare@KU?$less@K@std@@@stdext@@V?$CustomAllocator@PBUsMAPINFO_BASE@@@util@@$0A@@stdext@@@stdext@@PAU123@00AAV?$CustomAllocator@U_List_position@?$_Hash@V?$_Hmap_traits@KPBUsMAPINFO_BASE@@V?$hash_compare@KU?$less@K@std@@@stdext@@V?$CustomAllocator@PBUsMAPINFO_BASE@@@util@@$0A@@stdext@@@stdext@@@util@@U_Nonscalar_ptr_iterator_tag@0@U_Range_checked_iterator_tag@0@@Z 00417ac0 f i programcommon_s:MapInfoParser.obj
 0001:00016ac0       ??$_Uninit_copy@PAU_List_position@?$_Hash@V?$_Hmap_traits@KPAVBaseZone@@V?$hash_compare@KU?$less@K@std@@@stdext@@V?$CustomAllocator@PAVBaseZone@@@util@@$0A@@stdext@@@stdext@@PAU123@V?$CustomAllocator@U_List_position@?$_Hash@V?$_Hmap_traits@KPAVBaseZone@@V?$hash_compare@KU?$less@K@std@@@stdext@@V?$CustomAllocator@PAVBaseZone@@@util@@$0A@@stdext@@@stdext@@@util@@@std@@YAPAU_List_position@?$_Hash@V?$_Hmap_traits@KPAVBaseZone@@V?$hash_compare@KU?$less@K@std@@@stdext@@V?$CustomAllocator@PAVBaseZone@@@util@@$0A@@stdext@@@stdext@@PAU123@00AAV?$CustomAllocator@U_List_position@?$_Hash@V?$_Hmap_traits@KPAVBaseZone@@V?$hash_compare@KU?$less@K@std@@@stdext@@V?$CustomAllocator@PAVBaseZone@@@util@@$0A@@stdext@@@stdext@@@util@@U_Nonscalar_ptr_iterator_tag@0@U_Range_checked_iterator_tag@0@@Z 00417ac0 f i BaseZone.obj
 0001:00016ac0       ??$_Uninit_copy@PAU_List_position@?$_Hash@V?$_Hmap_traits@KPAVUser@@V?$hash_compare@KU?$less@K@std@@@stdext@@V?$CustomAllocator@PAVUser@@@util@@$0A@@stdext@@@stdext@@PAU123@V?$CustomAllocator@U_List_position@?$_Hash@V?$_Hmap_traits@KPAVUser@@V?$hash_compare@KU?$less@K@std@@@stdext@@V?$CustomAllocator@PAVUser@@@util@@$0A@@stdext@@@stdext@@@util@@@std@@YAPAU_List_position@?$_Hash@V?$_Hmap_traits@KPAVUser@@V?$hash_compare@KU?$less@K@std@@@stdext@@V?$CustomAllocator@PAVUser@@@util@@$0A@@stdext@@@stdext@@PAU123@00AAV?$CustomAllocator@U_List_position@?$_Hash@V?$_Hmap_traits@KPAVUser@@V?$hash_compare@KU?$less@K@std@@@stdext@@V?$CustomAllocator@PAVUser@@@util@@$0A@@stdext@@@stdext@@@util@@U_Nonscalar_ptr_iterator_tag@0@U_Range_checked_iterator_tag@0@@Z 00417ac0 f i GuidUserList.obj
 0001:00016ac0       ??$_Uninit_copy@PAU_List_position@?$_Hash@V?$_Hmap_traits@KPAVChatZone@@V?$hash_compare@KU?$less@K@std@@@stdext@@V?$CustomAllocator@PAVChatZone@@@util@@$0A@@stdext@@@stdext@@PAU123@V?$CustomAllocator@U_List_position@?$_Hash@V?$_Hmap_traits@KPAVChatZone@@V?$hash_compare@KU?$less@K@std@@@stdext@@V?$CustomAllocator@PAVChatZone@@@util@@$0A@@stdext@@@stdext@@@util@@@std@@YAPAU_List_position@?$_Hash@V?$_Hmap_traits@KPAVChatZone@@V?$hash_compare@KU?$less@K@std@@@stdext@@V?$CustomAllocator@PAVChatZone@@@util@@$0A@@stdext@@@stdext@@PAU123@00AAV?$CustomAllocator@U_List_position@?$_Hash@V?$_Hmap_traits@KPAVChatZone@@V?$hash_compare@KU?$less@K@std@@@stdext@@V?$CustomAllocator@PAVChatZone@@@util@@$0A@@stdext@@@stdext@@@util@@U_Nonscalar_ptr_iterator_tag@0@U_Range_checked_iterator_tag@0@@Z 00417ac0 f i Channel.obj
 0001:00016ac0       ??$_Uninit_copy@PAU_List_position@?$_Hash@V?$_Hmap_traits@W4eITEMTYPE@@USPECIAL_ITEM_INFO@@V?$hash_compare@W4eITEMTYPE@@U?$less@W4eITEMTYPE@@@std@@@stdext@@V?$CustomAllocator@USPECIAL_ITEM_INFO@@@util@@$0A@@stdext@@@stdext@@PAU123@V?$CustomAllocator@U_List_position@?$_Hash@V?$_Hmap_traits@W4eITEMTYPE@@USPECIAL_ITEM_INFO@@V?$hash_compare@W4eITEMTYPE@@U?$less@W4eITEMTYPE@@@std@@@stdext@@V?$CustomAllocator@USPECIAL_ITEM_INFO@@@util@@$0A@@stdext@@@stdext@@@util@@@std@@YAPAU_List_position@?$_Hash@V?$_Hmap_traits@W4eITEMTYPE@@USPECIAL_ITEM_INFO@@V?$hash_compare@W4eITEMTYPE@@U?$less@W4eITEMTYPE@@@std@@@stdext@@V?$CustomAllocator@USPECIAL_ITEM_INFO@@@util@@$0A@@stdext@@@stdext@@PAU123@00AAV?$CustomAllocator@U_List_position@?$_Hash@V?$_Hmap_traits@W4eITEMTYPE@@USPECIAL_ITEM_INFO@@V?$hash_compare@W4eITEMTYPE@@U?$less@W4eITEMTYPE@@@std@@@stdext@@V?$CustomAllocator@USPECIAL_ITEM_INFO@@@util@@$0A@@stdext@@@stdext@@@util@@U_Nonscalar_ptr_iterator_tag@0@U_Range_checked_iterator_tag@0@@Z 00417ac0 f i User.obj
 0001:00016ac0       ??$_Uninit_copy@PAU_List_position@?$_Hash@V?$_Hmap_traits@KPBUsFIELDINFO_BASE@@V?$hash_compare@KU?$less@K@std@@@stdext@@V?$CustomAllocator@PBUsFIELDINFO_BASE@@@util@@$0A@@stdext@@@stdext@@PAU123@V?$CustomAllocator@U_List_position@?$_Hash@V?$_Hmap_traits@KPBUsFIELDINFO_BASE@@V?$hash_compare@KU?$less@K@std@@@stdext@@V?$CustomAllocator@PBUsFIELDINFO_BASE@@@util@@$0A@@stdext@@@stdext@@@util@@@std@@YAPAU_List_position@?$_Hash@V?$_Hmap_traits@KPBUsFIELDINFO_BASE@@V?$hash_compare@KU?$less@K@std@@@stdext@@V?$CustomAllocator@PBUsFIELDINFO_BASE@@@util@@$0A@@stdext@@@stdext@@PAU123@00AAV?$CustomAllocator@U_List_position@?$_Hash@V?$_Hmap_traits@KPBUsFIELDINFO_BASE@@V?$hash_compare@KU?$less@K@std@@@stdext@@V?$CustomAllocator@PBUsFIELDINFO_BASE@@@util@@$0A@@stdext@@@stdext@@@util@@U_Nonscalar_ptr_iterator_tag@0@U_Range_checked_iterator_tag@0@@Z 00417ac0 f i programcommon_s:MapInfoParser.obj
 0001:00016ac0       ??$_Uninit_copy@PAU_List_position@?$_Hash@V?$_Hmap_traits@KPBUsWUTINFO_BASE@@V?$hash_compare@KU?$less@K@std@@@stdext@@V?$CustomAllocator@PBUsWUTINFO_BASE@@@util@@$0A@@stdext@@@stdext@@PAU123@V?$CustomAllocator@U_List_position@?$_Hash@V?$_Hmap_traits@KPBUsWUTINFO_BASE@@V?$hash_compare@KU?$less@K@std@@@stdext@@V?$CustomAllocator@PBUsWUTINFO_BASE@@@util@@$0A@@stdext@@@stdext@@@util@@@std@@YAPAU_List_position@?$_Hash@V?$_Hmap_traits@KPBUsWUTINFO_BASE@@V?$hash_compare@KU?$less@K@std@@@stdext@@V?$CustomAllocator@PBUsWUTINFO_BASE@@@util@@$0A@@stdext@@@stdext@@PAU123@00AAV?$CustomAllocator@U_List_position@?$_Hash@V?$_Hmap_traits@KPBUsWUTINFO_BASE@@V?$hash_compare@KU?$less@K@std@@@stdext@@V?$CustomAllocator@PBUsWUTINFO_BASE@@@util@@$0A@@stdext@@@stdext@@@util@@U_Nonscalar_ptr_iterator_tag@0@U_Range_checked_iterator_tag@0@@Z 00417ac0 f i programcommon_s:MapInfoParser.obj
 0001:00016ac0       ??$_Uninit_copy@PAU_List_position@?$_Hash@V?$_Hmap_traits@KPAVVillageZone@@V?$hash_compare@KU?$less@K@std@@@stdext@@V?$CustomAllocator@PAVVillageZone@@@util@@$0A@@stdext@@@stdext@@PAU123@V?$CustomAllocator@U_List_position@?$_Hash@V?$_Hmap_traits@KPAVVillageZone@@V?$hash_compare@KU?$less@K@std@@@stdext@@V?$CustomAllocator@PAVVillageZone@@@util@@$0A@@stdext@@@stdext@@@util@@@std@@YAPAU_List_position@?$_Hash@V?$_Hmap_traits@KPAVVillageZone@@V?$hash_compare@KU?$less@K@std@@@stdext@@V?$CustomAllocator@PAVVillageZone@@@util@@$0A@@stdext@@@stdext@@PAU123@00AAV?$CustomAllocator@U_List_position@?$_Hash@V?$_Hmap_traits@KPAVVillageZone@@V?$hash_compare@KU?$less@K@std@@@stdext@@V?$CustomAllocator@PAVVillageZone@@@util@@$0A@@stdext@@@stdext@@@util@@U_Nonscalar_ptr_iterator_tag@0@U_Range_checked_iterator_tag@0@@Z 00417ac0 f i Channel.obj
 0001:00016ac0       ??$_Uninit_copy@PAU_List_position@?$_Hash@V?$_Hmap_traits@KPBUsWMOINFO_BASE@@V?$hash_compare@KU?$less@K@std@@@stdext@@V?$CustomAllocator@PBUsWMOINFO_BASE@@@util@@$0A@@stdext@@@stdext@@PAU123@V?$CustomAllocator@U_List_position@?$_Hash@V?$_Hmap_traits@KPBUsWMOINFO_BASE@@V?$hash_compare@KU?$less@K@std@@@stdext@@V?$CustomAllocator@PBUsWMOINFO_BASE@@@util@@$0A@@stdext@@@stdext@@@util@@@std@@YAPAU_List_position@?$_Hash@V?$_Hmap_traits@KPBUsWMOINFO_BASE@@V?$hash_compare@KU?$less@K@std@@@stdext@@V?$CustomAllocator@PBUsWMOINFO_BASE@@@util@@$0A@@stdext@@@stdext@@PAU123@00AAV?$CustomAllocator@U_List_position@?$_Hash@V?$_Hmap_traits@KPBUsWMOINFO_BASE@@V?$hash_compare@KU?$less@K@std@@@stdext@@V?$CustomAllocator@PBUsWMOINFO_BASE@@@util@@$0A@@stdext@@@stdext@@@util@@U_Nonscalar_ptr_iterator_tag@0@U_Range_checked_iterator_tag@0@@Z 00417ac0 f i programcommon_s:MapInfoParser.obj
 0001:00016ac0       ??$_Uninit_copy@PAU_List_position@?$_Hash@V?$_Hmap_traits@KPAVViewPortZone@@V?$hash_compare@KU?$less@K@std@@@stdext@@V?$CustomAllocator@PAVViewPortZone@@@util@@$0A@@stdext@@@stdext@@PAU123@V?$CustomAllocator@U_List_position@?$_Hash@V?$_Hmap_traits@KPAVViewPortZone@@V?$hash_compare@KU?$less@K@std@@@stdext@@V?$CustomAllocator@PAVViewPortZone@@@util@@$0A@@stdext@@@stdext@@@util@@@std@@YAPAU_List_position@?$_Hash@V?$_Hmap_traits@KPAVViewPortZone@@V?$hash_compare@KU?$less@K@std@@@stdext@@V?$CustomAllocator@PAVViewPortZone@@@util@@$0A@@stdext@@@stdext@@PAU123@00AAV?$CustomAllocator@U_List_position@?$_Hash@V?$_Hmap_traits@KPAVViewPortZone@@V?$hash_compare@KU?$less@K@std@@@stdext@@V?$CustomAllocator@PAVViewPortZone@@@util@@$0A@@stdext@@@stdext@@@util@@U_Nonscalar_ptr_iterator_tag@0@U_Range_checked_iterator_tag@0@@Z 00417ac0 f i BaseZone.obj
 0001:00016ac0       ??$_Uninit_copy@PAU_List_position@?$_Hash@V?$_Hmap_traits@HULottoEntry@@V?$hash_compare@HU?$less@H@std@@@stdext@@V?$allocator@U?$pair@$$CBHULottoEntry@@@std@@@std@@$0A@@stdext@@@stdext@@PAU123@V?$allocator@U_List_position@?$_Hash@V?$_Hmap_traits@HULottoEntry@@V?$hash_compare@HU?$less@H@std@@@stdext@@V?$allocator@U?$pair@$$CBHULottoEntry@@@std@@@std@@$0A@@stdext@@@stdext@@@std@@@std@@YAPAU_List_position@?$_Hash@V?$_Hmap_traits@HULottoEntry@@V?$hash_compare@HU?$less@H@std@@@stdext@@V?$allocator@U?$pair@$$CBHULottoEntry@@@std@@@std@@$0A@@stdext@@@stdext@@PAU123@00AAV?$allocator@U_List_position@?$_Hash@V?$_Hmap_traits@HULottoEntry@@V?$hash_compare@HU?$less@H@std@@@stdext@@V?$allocator@U?$pair@$$CBHULottoEntry@@@std@@@std@@$0A@@stdext@@@stdext@@@0@U_Nonscalar_ptr_iterator_tag@0@U_Range_checked_iterator_tag@0@@Z 00417ac0 f i Lotto.obj
 0001:00016ac0       ??$_Uninit_copy@PAU_List_position@?$_Hash@V?$_Hmap_traits@KPBVMapGroupBase@@V?$hash_compare@KU?$less@K@std@@@stdext@@V?$CustomAllocator@PBVMapGroupBase@@@util@@$0A@@stdext@@@stdext@@PAU123@V?$CustomAllocator@U_List_position@?$_Hash@V?$_Hmap_traits@KPBVMapGroupBase@@V?$hash_compare@KU?$less@K@std@@@stdext@@V?$CustomAllocator@PBVMapGroupBase@@@util@@$0A@@stdext@@@stdext@@@util@@@std@@YAPAU_List_position@?$_Hash@V?$_Hmap_traits@KPBVMapGroupBase@@V?$hash_compare@KU?$less@K@std@@@stdext@@V?$CustomAllocator@PBVMapGroupBase@@@util@@$0A@@stdext@@@stdext@@PAU123@00AAV?$CustomAllocator@U_List_position@?$_Hash@V?$_Hmap_traits@KPBVMapGroupBase@@V?$hash_compare@KU?$less@K@std@@@stdext@@V?$CustomAllocator@PBVMapGroupBase@@@util@@$0A@@stdext@@@stdext@@@util@@U_Nonscalar_ptr_iterator_tag@0@U_Range_checked_iterator_tag@0@@Z 00417ac0 f i programcommon_s:MapInfoParser.obj
 0001:00016ac0       ??$_Uninit_copy@PAU_List_position@?$_Hash@V?$_Hmap_traits@KPAVBASE_FUNC@util@@V?$hash_compare@KU?$less@K@std@@@stdext@@V?$allocator@U?$pair@$$CBKPAVBASE_FUNC@util@@@std@@@std@@$0A@@stdext@@@stdext@@PAU123@V?$allocator@U_List_position@?$_Hash@V?$_Hmap_traits@KPAVBASE_FUNC@util@@V?$hash_compare@KU?$less@K@std@@@stdext@@V?$allocator@U?$pair@$$CBKPAVBASE_FUNC@util@@@std@@@std@@$0A@@stdext@@@stdext@@@std@@@std@@YAPAU_List_position@?$_Hash@V?$_Hmap_traits@KPAVBASE_FUNC@util@@V?$hash_compare@KU?$less@K@std@@@stdext@@V?$allocator@U?$pair@$$CBKPAVBASE_FUNC@util@@@std@@@std@@$0A@@stdext@@@stdext@@PAU123@00AAV?$allocator@U_List_position@?$_Hash@V?$_Hmap_traits@KPAVBASE_FUNC@util@@V?$hash_compare@KU?$less@K@std@@@stdext@@V?$allocator@U?$pair@$$CBKPAVBASE_FUNC@util@@@std@@@std@@$0A@@stdext@@@stdext@@@0@U_Nonscalar_ptr_iterator_tag@0@U_Range_checked_iterator_tag@0@@Z 00417ac0 f i PacketHandler.obj
 0001:00016af0       ?erase@?$list@U?$pair@$$CBKPBUsWUTINFO_BASE@@@std@@V?$CustomAllocator@U?$pair@$$CBKPBUsWUTINFO_BASE@@@std@@@util@@@std@@QAE?AV?$_Iterator@$00@12@V?$_Const_iterator@$00@12@@Z 00417af0 f i programcommon_s:MapInfoParser.obj
 0001:00016af0       ?erase@?$list@U?$pair@$$CBKPBUsWMOINFO_BASE@@@std@@V?$CustomAllocator@U?$pair@$$CBKPBUsWMOINFO_BASE@@@std@@@util@@@std@@QAE?AV?$_Iterator@$00@12@V?$_Const_iterator@$00@12@@Z 00417af0 f i programcommon_s:MapInfoParser.obj
 0001:00016af0       ?erase@?$list@U?$pair@$$CBKPAVChatZone@@@std@@V?$CustomAllocator@U?$pair@$$CBKPAVChatZone@@@std@@@util@@@std@@QAE?AV?$_Iterator@$00@12@V?$_Const_iterator@$00@12@@Z 00417af0 f i Channel.obj
 0001:00016af0       ?erase@?$list@U?$pair@$$CBKPAVViewPortZone@@@std@@V?$CustomAllocator@U?$pair@$$CBKPAVViewPortZone@@@std@@@util@@@std@@QAE?AV?$_Iterator@$00@12@V?$_Const_iterator@$00@12@@Z 00417af0 f i BaseZone.obj
 0001:00016af0       ?erase@?$list@U?$pair@$$CBKPAVVillageZone@@@std@@V?$CustomAllocator@U?$pair@$$CBKPAVVillageZone@@@std@@@util@@@std@@QAE?AV?$_Iterator@$00@12@V?$_Const_iterator@$00@12@@Z 00417af0 f i Channel.obj
 0001:00016af0       ?erase@?$list@U?$pair@$$CBKPAVBaseZone@@@std@@V?$CustomAllocator@U?$pair@$$CBKPAVBaseZone@@@std@@@util@@@std@@QAE?AV?$_Iterator@$00@12@V?$_Const_iterator@$00@12@@Z 00417af0 f i BaseZone.obj
 0001:00016af0       ?erase@?$list@U?$pair@$$CBKPBUsFIELDINFO_BASE@@@std@@V?$CustomAllocator@U?$pair@$$CBKPBUsFIELDINFO_BASE@@@std@@@util@@@std@@QAE?AV?$_Iterator@$00@12@V?$_Const_iterator@$00@12@@Z 00417af0 f i programcommon_s:MapInfoParser.obj
 0001:00016af0       ?erase@?$list@KV?$CustomAllocator@K@util@@@std@@QAE?AV?$_Iterator@$00@12@V?$_Const_iterator@$00@12@@Z 00417af0 f i servercommon:WorkLoadManager.obj
 0001:00016af0       ?erase@?$list@U?$pair@$$CBKPAVUser@@@std@@V?$CustomAllocator@U?$pair@$$CBKPAVUser@@@std@@@util@@@std@@QAE?AV?$_Iterator@$00@12@V?$_Const_iterator@$00@12@@Z 00417af0 f i GuidUserList.obj
 0001:00016af0       ?erase@?$list@U?$pair@$$CBKPBVMapGroupBase@@@std@@V?$CustomAllocator@U?$pair@$$CBKPBVMapGroupBase@@@std@@@util@@@std@@QAE?AV?$_Iterator@$00@12@V?$_Const_iterator@$00@12@@Z 00417af0 f i programcommon_s:MapInfoParser.obj
 0001:00016af0       ?erase@?$list@U?$pair@$$CBKPBUsMAPINFO_BASE@@@std@@V?$CustomAllocator@U?$pair@$$CBKPBUsMAPINFO_BASE@@@std@@@util@@@std@@QAE?AV?$_Iterator@$00@12@V?$_Const_iterator@$00@12@@Z 00417af0 f i programcommon_s:MapInfoParser.obj
 0001:00016af0       ?erase@?$list@U?$pair@$$CBW4eITEMTYPE@@USPECIAL_ITEM_INFO@@@std@@V?$CustomAllocator@U?$pair@$$CBW4eITEMTYPE@@USPECIAL_ITEM_INFO@@@std@@@util@@@std@@QAE?AV?$_Iterator@$00@12@V?$_Const_iterator@$00@12@@Z 00417af0 f i servercommon:ItemOwnFlag.obj
 0001:00016b70       ??1?$list@U?$pair@$$CBKPAVViewPortZone@@@std@@V?$CustomAllocator@U?$pair@$$CBKPAVViewPortZone@@@std@@@util@@@std@@QAE@XZ 00417b70 f i BaseZone.obj
 0001:00016b70       ??1?$list@U?$pair@$$CBW4eITEMTYPE@@USPECIAL_ITEM_INFO@@@std@@V?$CustomAllocator@U?$pair@$$CBW4eITEMTYPE@@USPECIAL_ITEM_INFO@@@std@@@util@@@std@@QAE@XZ 00417b70 f i User.obj
 0001:00016b70       ??1?$chunk_list@K@util@@QAE@XZ 00417b70 f i servercommon:WorkLoadManager.obj
 0001:00016b70       ??1?$list@U?$pair@$$CBKPAVVillageZone@@@std@@V?$CustomAllocator@U?$pair@$$CBKPAVVillageZone@@@std@@@util@@@std@@QAE@XZ 00417b70 f i Channel.obj
 0001:00016b70       ??1?$list@U?$pair@$$CBKPBVMapGroupBase@@@std@@V?$CustomAllocator@U?$pair@$$CBKPBVMapGroupBase@@@std@@@util@@@std@@QAE@XZ 00417b70 f i programcommon_s:MapInfoParser.obj
 0001:00016b70       ??1?$list@U?$pair@$$CBKPBUsFIELDINFO_BASE@@@std@@V?$CustomAllocator@U?$pair@$$CBKPBUsFIELDINFO_BASE@@@std@@@util@@@std@@QAE@XZ 00417b70 f i programcommon_s:MapInfoParser.obj
 0001:00016b70       ??1?$list@U?$pair@$$CBKPAVBaseZone@@@std@@V?$CustomAllocator@U?$pair@$$CBKPAVBaseZone@@@std@@@util@@@std@@QAE@XZ 00417b70 f i BaseZone.obj
 0001:00016b70       ??1?$list@U?$pair@$$CBKPBUsWMOINFO_BASE@@@std@@V?$CustomAllocator@U?$pair@$$CBKPBUsWMOINFO_BASE@@@std@@@util@@@std@@QAE@XZ 00417b70 f i programcommon_s:MapInfoParser.obj
 0001:00016b70       ??1?$list@U?$pair@$$CBKPBUsMAPINFO_BASE@@@std@@V?$CustomAllocator@U?$pair@$$CBKPBUsMAPINFO_BASE@@@std@@@util@@@std@@QAE@XZ 00417b70 f i programcommon_s:MapInfoParser.obj
 0001:00016b70       ??1?$list@U?$pair@$$CBKPAVUser@@@std@@V?$CustomAllocator@U?$pair@$$CBKPAVUser@@@std@@@util@@@std@@QAE@XZ 00417b70 f i GuidUserList.obj
 0001:00016b70       ??1?$list@U?$pair@$$CBKPAVChatZone@@@std@@V?$CustomAllocator@U?$pair@$$CBKPAVChatZone@@@std@@@util@@@std@@QAE@XZ 00417b70 f i Channel.obj
 0001:00016b70       ??1?$list@U?$pair@$$CBKPBUsWUTINFO_BASE@@@std@@V?$CustomAllocator@U?$pair@$$CBKPBUsWUTINFO_BASE@@@std@@@util@@@std@@QAE@XZ 00417b70 f i programcommon_s:MapInfoParser.obj
 0001:00016b90       ??1?$chunk_hash_map@KPAVVillageZone@@V?$hash_compare@KU?$less@K@std@@@stdext@@@util@@QAE@XZ 00417b90 f i Channel.obj
 0001:00016b90       ??1?$chunk_hash_map@KPBUsWMOINFO_BASE@@V?$hash_compare@KU?$less@K@std@@@stdext@@@util@@QAE@XZ 00417b90 f i programcommon_s:MapInfoParser.obj
 0001:00016b90       ??1?$chunk_hash_map@KPAVBaseZone@@V?$hash_compare@KU?$less@K@std@@@stdext@@@util@@QAE@XZ 00417b90 f i BaseZone.obj
 0001:00016b90       ??1?$chunk_hash_map@KPBUsWUTINFO_BASE@@V?$hash_compare@KU?$less@K@std@@@stdext@@@util@@QAE@XZ 00417b90 f i programcommon_s:MapInfoParser.obj
 0001:00016b90       ??1?$chunk_hash_map@KPBUsMAPINFO_BASE@@V?$hash_compare@KU?$less@K@std@@@stdext@@@util@@QAE@XZ 00417b90 f i programcommon_s:MapInfoParser.obj
 0001:00016b90       ??1?$chunk_hash_map@KPAVChatZone@@V?$hash_compare@KU?$less@K@std@@@stdext@@@util@@QAE@XZ 00417b90 f i Channel.obj
 0001:00016b90       ??1?$chunk_hash_map@KPAVViewPortZone@@V?$hash_compare@KU?$less@K@std@@@stdext@@@util@@QAE@XZ 00417b90 f i BaseZone.obj
 0001:00016b90       ??1?$chunk_hash_map@KPBUsFIELDINFO_BASE@@V?$hash_compare@KU?$less@K@std@@@stdext@@@util@@QAE@XZ 00417b90 f i programcommon_s:MapInfoParser.obj
 0001:00016b90       ??1?$chunk_hash_map@KPBVMapGroupBase@@V?$hash_compare@KU?$less@K@std@@@stdext@@@util@@QAE@XZ 00417b90 f i programcommon_s:MapInfoParser.obj
 0001:00016b90       ??1?$chunk_hash_map@KPAVUser@@V?$hash_compare@KU?$less@K@std@@@stdext@@@util@@QAE@XZ 00417b90 f i GuidUserList.obj
 0001:00016b90       ??1ItemOwnFlag@@QAE@XZ     00417b90 f i User.obj
 0001:00016be0       ?insert@?$list@U?$pair@$$CBKPAVChatZone@@@std@@V?$CustomAllocator@U?$pair@$$CBKPAVChatZone@@@std@@@util@@@std@@QAE?AV?$_Iterator@$00@12@V?$_Const_iterator@$00@12@ABU?$pair@$$CBKPAVChatZone@@@2@@Z 00417be0 f i Channel.obj
 0001:00016be0       ?insert@?$list@U?$pair@$$CBKPBVMapGroupBase@@@std@@V?$CustomAllocator@U?$pair@$$CBKPBVMapGroupBase@@@std@@@util@@@std@@QAE?AV?$_Iterator@$00@12@V?$_Const_iterator@$00@12@ABU?$pair@$$CBKPBVMapGroupBase@@@2@@Z 00417be0 f i programcommon_s:MapInfoParser.obj
 0001:00016be0       ?insert@?$list@U?$pair@$$CBKPBUsWUTINFO_BASE@@@std@@V?$CustomAllocator@U?$pair@$$CBKPBUsWUTINFO_BASE@@@std@@@util@@@std@@QAE?AV?$_Iterator@$00@12@V?$_Const_iterator@$00@12@ABU?$pair@$$CBKPBUsWUTINFO_BASE@@@2@@Z 00417be0 f i programcommon_s:MapInfoParser.obj
 0001:00016be0       ?insert@?$list@U?$pair@$$CBKPAVBaseZone@@@std@@V?$CustomAllocator@U?$pair@$$CBKPAVBaseZone@@@std@@@util@@@std@@QAE?AV?$_Iterator@$00@12@V?$_Const_iterator@$00@12@ABU?$pair@$$CBKPAVBaseZone@@@2@@Z 00417be0 f i BaseZone.obj
 0001:00016be0       ?insert@?$list@U?$pair@$$CBKPAVUser@@@std@@V?$CustomAllocator@U?$pair@$$CBKPAVUser@@@std@@@util@@@std@@QAE?AV?$_Iterator@$00@12@V?$_Const_iterator@$00@12@ABU?$pair@$$CBKPAVUser@@@2@@Z 00417be0 f i GuidUserList.obj
 0001:00016be0       ?insert@?$list@U?$pair@$$CBKPAVVillageZone@@@std@@V?$CustomAllocator@U?$pair@$$CBKPAVVillageZone@@@std@@@util@@@std@@QAE?AV?$_Iterator@$00@12@V?$_Const_iterator@$00@12@ABU?$pair@$$CBKPAVVillageZone@@@2@@Z 00417be0 f i Channel.obj
 0001:00016be0       ?insert@?$list@U?$pair@$$CBKPBUsMAPINFO_BASE@@@std@@V?$CustomAllocator@U?$pair@$$CBKPBUsMAPINFO_BASE@@@std@@@util@@@std@@QAE?AV?$_Iterator@$00@12@V?$_Const_iterator@$00@12@ABU?$pair@$$CBKPBUsMAPINFO_BASE@@@2@@Z 00417be0 f i programcommon_s:MapInfoParser.obj
 0001:00016be0       ?insert@?$list@U?$pair@$$CBKPAVViewPortZone@@@std@@V?$CustomAllocator@U?$pair@$$CBKPAVViewPortZone@@@std@@@util@@@std@@QAE?AV?$_Iterator@$00@12@V?$_Const_iterator@$00@12@ABU?$pair@$$CBKPAVViewPortZone@@@2@@Z 00417be0 f i BaseZone.obj
 0001:00016be0       ?insert@?$list@U?$pair@$$CBKPBUsWMOINFO_BASE@@@std@@V?$CustomAllocator@U?$pair@$$CBKPBUsWMOINFO_BASE@@@std@@@util@@@std@@QAE?AV?$_Iterator@$00@12@V?$_Const_iterator@$00@12@ABU?$pair@$$CBKPBUsWMOINFO_BASE@@@2@@Z 00417be0 f i programcommon_s:MapInfoParser.obj
 0001:00016be0       ?insert@?$list@U?$pair@$$CBKPBUsFIELDINFO_BASE@@@std@@V?$CustomAllocator@U?$pair@$$CBKPBUsFIELDINFO_BASE@@@std@@@util@@@std@@QAE?AV?$_Iterator@$00@12@V?$_Const_iterator@$00@12@ABU?$pair@$$CBKPBUsFIELDINFO_BASE@@@2@@Z 00417be0 f i programcommon_s:MapInfoParser.obj
 0001:00016c70       ?InitCrypt@User@@QAEEEE@Z  00417c70 f i TempUser.obj
 0001:00016ca0       ?GetCryptAlgorithmInfo@User@@QAEEPAE@Z 00417ca0 f i TempUser.obj
 0001:00016cd0       ?CopyCrypt@User@@QAEXABUSTRUCT_CRYPT@@@Z 00417cd0 f i TempUser.obj
 0001:00016cf0       ??0TempUser@@QAE@XZ        00417cf0 f   TempUser.obj
 0001:00016d10       ??1TempUser@@UAE@XZ        00417d10 f   TempUser.obj
 0001:00016d20       ?Init@TempUser@@UAEXXZ     00417d20 f   TempUser.obj
 0001:00016d50       ?SendPacket@TempUser@@IAEHPAEG@Z 00417d50 f   TempUser.obj
 0001:00016dd0       ?OnAccept@TempUser@@MAEXK@Z 00417dd0 f   TempUser.obj
 0001:00016e00       ?OnRecv@TempUser@@MAEXPAEG@Z 00417e00 f   TempUser.obj
 0001:000173d0       ??_ETempUser@@UAEPAXI@Z    004183d0 f i TempUser.obj
 0001:000173d0       ??_GTempUser@@UAEPAXI@Z    004183d0 f i TempUser.obj
 0001:00017400       ??1STRUCT_CRYPT@@QAE@XZ    00418400 f i User.obj
 0001:00017410       ?Update@User@@UAEXXZ       00418410 f   User.obj
 0001:00017420       ?GetFriendMap@User@@QAEPAVFriendMap@@W4FRIEND_TYPE@1@@Z 00418420 f   User.obj
 0001:00017460       ?SendParty@User@@QAEXPAEG@Z 00418460 f   User.obj
 0001:00017490       ?SetChatBlock@User@@QAEXK@Z 00418490 f   User.obj
 0001:000174e0       ?FreeChatBlock@User@@QAEXXZ 004184e0 f   User.obj
 0001:00017510       ?SendChannelChat@User@@QAEHPAEG@Z 00418510 f   User.obj
 0001:00017540       ?OnAccept@User@@MAEXK@Z    00418540 f   User.obj
 0001:00017550       ?OnRecv@User@@MAEXPAEG@Z   00418550 f   User.obj
 0001:00017560       ?OnEnterZone@User@@QAEXPAVBaseZone@@@Z 00418560 f   User.obj
 0001:00017590       ?OnLeaveZone@User@@QAEXPAVBaseZone@@@Z 00418590 f   User.obj
 0001:000175b0       ?OnEnterSector@User@@QAEXPAVBaseZone@@@Z 004185b0 f   User.obj
 0001:000175c0       ?OnLeaveSector@User@@QAEXPAVBaseZone@@@Z 004185c0 f   User.obj
 0001:000175d0       ?SetAccountID@User@@QAEXPBD@Z 004185d0 f   User.obj
 0001:00017610       ?OnLogString@User@@UAEXPAD@Z 00418610 f   User.obj
 0001:00017630       ?SetLastChatMsg@User@@QAEXPBD@Z 00418630 f   User.obj
 0001:00017660       ?SetPremiumService@User@@QAEXK@Z 00418660 f   User.obj
 0001:00017670       ?GetPremiumService@User@@QAEKXZ 00418670 f   User.obj
 0001:00017680       ?CanApplyPCBangBenefit@User@@QAE_NXZ 00418680 f   User.obj
 0001:000176a0       ?CheckGuildList@User@@QAEHXZ 004186a0 f   User.obj
 0001:000176f0       ?UpdateBlockTime@User@@QAEHXZ 004186f0 f   User.obj
 0001:00017840       ?CheckMemoList@User@@QAEHXZ 00418840 f   User.obj
 0001:00017890       ?SendPacket@User@@QAEHPAEG@Z 00418890 f   User.obj
 0001:000179b0       ?SendChatBlock@User@@QAEXW4eCHAT_RESULT@RC@@@Z 004189b0 f   User.obj
 0001:000179e0       ?SendChatBlock@User@@QAEXXZ 004189e0 f   User.obj
 0001:00017a40       ?SetInterceptionOption@User@@QAEHW4eINTERCEPTION_TYPE@@H@Z 00418a40 f   User.obj
 0001:00017ae0       ?GetGroupMemberCount@User@@QAEEXZ 00418ae0 f   User.obj
 0001:00017af0       ?CheckFriendList@User@@QAEHXZ 00418af0 f   User.obj
 0001:00017b30       ?AlarmFriendStatChange@User@@QAEXHPAV1@@Z 00418b30 f   User.obj
 0001:00017da0       ?SendNormalChat@User@@QAEXPAEG@Z 00418da0 f   User.obj
 0001:00017e70       ?SendNomalChatToAll@User@@QAEXPAEG@Z 00418e70 f   User.obj
 0001:00017f20       ?SendUseDecreeItem@User@@QAEXXZ 00418f20 f   User.obj
 0001:00017fb0       ?SetStructMemberInfo@User@@QAEXPAV1@W4eGROUP_STAT@@@Z 00418fb0 f   User.obj
 0001:00017fd0       ?SendWorldChatToAll@User@@QAEXPAEGH@Z 00418fd0 f   User.obj
 0001:00018090       ?InitGroupInfo@User@@QAEXXZ 00419090 f   User.obj
 0001:00018130       ?SendOnlineFriendAll@User@@QAEXPAEG@Z 00419130 f   User.obj
 0001:000181f0       ?GetFirstRevenge@User@@QAEPAUSTRUCT_REVENGE_INFO@@XZ 004191f0 f   User.obj
 0001:00018280       ?GetNextRevenge@User@@QAEPAUSTRUCT_REVENGE_INFO@@XZ 00419280 f   User.obj
 0001:00018310       ?FindRevenge@User@@QAEPAUSTRUCT_REVENGE_INFO@@PAD@Z 00419310 f   User.obj
 0001:000183f0       ?SendOnlineRevengeAll@User@@QAEXPAEG@Z 004193f0 f   User.obj
 0001:000184b0       ?GetFirstBlock@User@@QAEPAUSTRUCT_BLOCK_INFO@@XZ 004194b0 f   User.obj
 0001:00018540       ?GetNextBlock@User@@QAEPAUSTRUCT_BLOCK_INFO@@XZ 00419540 f   User.obj
 0001:000185d0       ?FindBlock@User@@QAEPAUSTRUCT_BLOCK_INFO@@PAD@Z 004195d0 f   User.obj
 0001:000186b0       ?CopyBlockInfo@User@@QAEHPAUSTRUCT_BLOCK_INFO@@H@Z 004196b0 f   User.obj
 0001:00018770       ?FindOnlineFriend@User@@QAEPAV1@K@Z 00419770 f   User.obj
 0001:000187e0       ?FindRevenge@User@@QAEPAUSTRUCT_REVENGE_INFO@@K@Z 004197e0 f   User.obj
 0001:00018850       ?FindOnlineRevenge@User@@QAEPAV1@K@Z 00419850 f   User.obj
 0001:000188c0       ?AlarmRevengeStatChange@User@@QAEXHPAV1@@Z 004198c0 f   User.obj
 0001:00018b10       ?FindBlock@User@@QAEPAUSTRUCT_BLOCK_INFO@@K@Z 00419b10 f   User.obj
 0001:00018b80       ?CheckConditionAccessFriendInfo@User@@QAE?AW4eFRIEND_RESULT@RC@@H@Z 00419b80 f   User.obj
 0001:00018c00       ?Init@User@@UAEXXZ         00419c00 f   User.obj
 0001:00018ef0       ?Release@User@@UAEXXZ      00419ef0 f   User.obj
 0001:00018fd0       ?InitFriendListInit@User@@QAEXXZ 00419fd0 f   User.obj
 0001:00019420       ?ProcessCharLogout@User@@QAEXXZ 0041a420 f   User.obj
 0001:000194b0       ?ProcessLogout@User@@QAEXXZ 0041a4b0 f   User.obj
 0001:000194f0       ?CopyFriendInfo@User@@QAEHPAUSTRUCT_FRIEND_INFO@@H@Z 0041a4f0 f   User.obj
 0001:00019670       ?CopyRevengeInfo@User@@QAEHPAUSTRUCT_REVENGE_INFO@@H@Z 0041a670 f   User.obj
 0001:000197f0       ?CopyRevengeInfo@User@@QAEHPAUSTRUCT_REVENGE_PACKET_INFO@@H@Z 0041a7f0 f   User.obj
 0001:00019970       ?RemoveOnlineFriend@User@@QAEXPAV1@@Z 0041a970 f   User.obj
 0001:000199f0       ?RemoveRevenge@User@@QAEXK@Z 0041a9f0 f   User.obj
 0001:00019a70       ?RemoveOnlineRevenge@User@@QAEXPAV1@@Z 0041aa70 f   User.obj
 0001:00019af0       ?RemoveBlock@User@@QAEXK@Z 0041aaf0 f   User.obj
 0001:00019b70       ?RemoveBlock@User@@QAEXPAD@Z 0041ab70 f   User.obj
 0001:00019c40       ?OnDisconnect@User@@MAEXXZ 0041ac40 f   User.obj
 0001:00019ca0       ?Logout@User@@QAEXXZ       0041aca0 f   User.obj
 0001:00019d10       ?AddOnlineFriend@User@@QAEXPAV1@H@Z 0041ad10 f   User.obj
 0001:00019d60       ?AddRevengeInfo@User@@QAEHPAUSTRUCT_REVENGE_INFO@@@Z 0041ad60 f   User.obj
 0001:00019e30       ?AddOnlineRevenge@User@@QAEXPAV1@H@Z 0041ae30 f   User.obj
 0001:00019e80       ?AddBlockInfo@User@@QAEHPAUSTRUCT_BLOCK_INFO@@@Z 0041ae80 f   User.obj
 0001:00019f60       ?CheckChatTime@User@@QAEHXZ 0041af60 f   User.obj
 0001:00019fe0       ??1User@@UAE@XZ            0041afe0 f   User.obj
 0001:0001a150       ??0User@@QAE@XZ            0041b150 f   User.obj
 0001:0001a2f0       ?_Rrotate@?$_Tree@V?$_Tmap_traits@KPAUSTRUCT_BLOCK_INFO@@U?$less@K@std@@V?$CustomAllocator@PAUSTRUCT_BLOCK_INFO@@@util@@$0A@@std@@@std@@IAEXPAU_Node@?$_Tree_nod@V?$_Tmap_traits@KPAUSTRUCT_BLOCK_INFO@@U?$less@K@std@@V?$CustomAllocator@PAUSTRUCT_BLOCK_INFO@@@util@@$0A@@std@@@2@@Z 0041b2f0 f i User.obj
 0001:0001a2f0       ?_Rrotate@?$_Tree@V?$_Tmap_traits@KPAVServerSession@@U?$less@K@std@@V?$CustomAllocator@PAVServerSession@@@util@@$0A@@std@@@std@@IAEXPAU_Node@?$_Tree_nod@V?$_Tmap_traits@KPAVServerSession@@U?$less@K@std@@V?$CustomAllocator@PAVServerSession@@@util@@$0A@@std@@@2@@Z 0041b2f0 f i WorldServer.obj
 0001:0001a2f0       ?_Rrotate@?$_Tree@V?$_Tmap_traits@KPAVUser@@U?$less@K@std@@V?$CustomAllocator@PAVUser@@@util@@$0A@@std@@@std@@IAEXPAU_Node@?$_Tree_nod@V?$_Tmap_traits@KPAVUser@@U?$less@K@std@@V?$CustomAllocator@PAVUser@@@util@@$0A@@std@@@2@@Z 0041b2f0 f i User.obj
 0001:0001a2f0       ?_Rrotate@?$_Tree@V?$_Tmap_traits@KPAVFieldInfo@@U?$less@K@std@@V?$CustomAllocator@PAVFieldInfo@@@util@@$0A@@std@@@std@@IAEXPAU_Node@?$_Tree_nod@V?$_Tmap_traits@KPAVFieldInfo@@U?$less@K@std@@V?$CustomAllocator@PAVFieldInfo@@@util@@$0A@@std@@@2@@Z 0041b2f0 f i ChannelManager.obj
 0001:0001a2f0       ?_Rrotate@?$_Tree@V?$_Tmap_traits@KPAVChannel@@U?$less@K@std@@V?$CustomAllocator@PAVChannel@@@util@@$0A@@std@@@std@@IAEXPAU_Node@?$_Tree_nod@V?$_Tmap_traits@KPAVChannel@@U?$less@K@std@@V?$CustomAllocator@PAVChannel@@@util@@$0A@@std@@@2@@Z 0041b2f0 f i ChannelManager.obj
 0001:0001a2f0       ?_Rrotate@?$_Tree@V?$_Tmap_traits@KPAUSTRUCT_GROUP_MEMBER_INFO@@U?$less@K@std@@V?$CustomAllocator@PAUSTRUCT_GROUP_MEMBER_INFO@@@util@@$0A@@std@@@std@@IAEXPAU_Node@?$_Tree_nod@V?$_Tmap_traits@KPAUSTRUCT_GROUP_MEMBER_INFO@@U?$less@K@std@@V?$CustomAllocator@PAUSTRUCT_GROUP_MEMBER_INFO@@@util@@$0A@@std@@@2@@Z 0041b2f0 f i User.obj
 0001:0001a2f0       ?_Rrotate@?$_Tree@V?$_Tmap_traits@KPBUsMAP_ENTERENCE_PORTAL_BASE@@U?$less@K@std@@V?$CustomAllocator@PBUsMAP_ENTERENCE_PORTAL_BASE@@@util@@$0A@@std@@@std@@IAEXPAU_Node@?$_Tree_nod@V?$_Tmap_traits@KPBUsMAP_ENTERENCE_PORTAL_BASE@@U?$less@K@std@@V?$CustomAllocator@PBUsMAP_ENTERENCE_PORTAL_BASE@@@util@@$0A@@std@@@2@@Z 0041b2f0 f i programcommon_s:MapInfoParser.obj
 0001:0001a2f0       ?_Rrotate@?$_Tree@V?$_Tmap_traits@KPAUSTRUCT_FRIEND_INFO@@U?$less@K@std@@V?$CustomAllocator@PAUSTRUCT_FRIEND_INFO@@@util@@$0A@@std@@@std@@IAEXPAU_Node@?$_Tree_nod@V?$_Tmap_traits@KPAUSTRUCT_FRIEND_INFO@@U?$less@K@std@@V?$CustomAllocator@PAUSTRUCT_FRIEND_INFO@@@util@@$0A@@std@@@2@@Z 0041b2f0 f i FriendMap.obj
 0001:0001a2f0       ?_Rrotate@?$_Tree@V?$_Tmap_traits@KPAVFriendInvitationCommand@@U?$less@K@std@@V?$CustomAllocator@PAVFriendInvitationCommand@@@util@@$0A@@std@@@std@@IAEXPAU_Node@?$_Tree_nod@V?$_Tmap_traits@KPAVFriendInvitationCommand@@U?$less@K@std@@V?$CustomAllocator@PAVFriendInvitationCommand@@@util@@$0A@@std@@@2@@Z 0041b2f0 f i servercommon:FriendInvitationInvoker.obj
 0001:0001a2f0       ?_Rrotate@?$_Tree@V?$_Tmap_traits@KPAUSTRUCT_REVENGE_INFO@@U?$less@K@std@@V?$CustomAllocator@PAUSTRUCT_REVENGE_INFO@@@util@@$0A@@std@@@std@@IAEXPAU_Node@?$_Tree_nod@V?$_Tmap_traits@KPAUSTRUCT_REVENGE_INFO@@U?$less@K@std@@V?$CustomAllocator@PAUSTRUCT_REVENGE_INFO@@@util@@$0A@@std@@@2@@Z 0041b2f0 f i User.obj
 0001:0001a350       ?_Inc@const_iterator@?$_Tree@V?$_Tmap_traits@KPAVServerSession@@U?$less@K@std@@V?$CustomAllocator@PAVServerSession@@@util@@$0A@@std@@@std@@QAEXXZ 0041b350 f i WorldServer.obj
 0001:0001a350       ?_Inc@const_iterator@?$_Tree@V?$_Tmap_traits@KPAUSTRUCT_REVENGE_INFO@@U?$less@K@std@@V?$CustomAllocator@PAUSTRUCT_REVENGE_INFO@@@util@@$0A@@std@@@std@@QAEXXZ 0041b350 f i User.obj
 0001:0001a350       ?_Inc@const_iterator@?$_Tree@V?$_Tmap_traits@KPAUSTRUCT_GROUP_MEMBER_INFO@@U?$less@K@std@@V?$CustomAllocator@PAUSTRUCT_GROUP_MEMBER_INFO@@@util@@$0A@@std@@@std@@QAEXXZ 0041b350 f i User.obj
 0001:0001a350       ?_Inc@const_iterator@?$_Tree@V?$_Tmap_traits@KPAVChannel@@U?$less@K@std@@V?$CustomAllocator@PAVChannel@@@util@@$0A@@std@@@std@@QAEXXZ 0041b350 f i Handler_MW.obj
 0001:0001a350       ?_Inc@const_iterator@?$_Tree@V?$_Tmap_traits@KPBUsMAP_ENTERENCE_PORTAL_BASE@@U?$less@K@std@@V?$CustomAllocator@PBUsMAP_ENTERENCE_PORTAL_BASE@@@util@@$0A@@std@@@std@@QAEXXZ 0041b350 f i programcommon_s:MapInfoParser.obj
 0001:0001a350       ?_Inc@const_iterator@?$_Tree@V?$_Tmap_traits@KPAVFieldInfo@@U?$less@K@std@@V?$CustomAllocator@PAVFieldInfo@@@util@@$0A@@std@@@std@@QAEXXZ 0041b350 f i ChannelManager.obj
 0001:0001a350       ?_Inc@const_iterator@?$_Tree@V?$_Tmap_traits@KPAUSTRUCT_BLOCK_INFO@@U?$less@K@std@@V?$CustomAllocator@PAUSTRUCT_BLOCK_INFO@@@util@@$0A@@std@@@std@@QAEXXZ 0041b350 f i User.obj
 0001:0001a350       ?_Inc@const_iterator@?$_Tree@V?$_Tmap_traits@KPAVUser@@U?$less@K@std@@V?$CustomAllocator@PAVUser@@@util@@$0A@@std@@@std@@QAEXXZ 0041b350 f i User.obj
 0001:0001a350       ?_Inc@const_iterator@?$_Tree@V?$_Tmap_traits@KPAVFriendInvitationCommand@@U?$less@K@std@@V?$CustomAllocator@PAVFriendInvitationCommand@@@util@@$0A@@std@@@std@@QAEXXZ 0041b350 f i servercommon:FriendInvitationInvoker.obj
 0001:0001a350       ?_Inc@const_iterator@?$_Tree@V?$_Tmap_traits@KPAUSTRUCT_FRIEND_INFO@@U?$less@K@std@@V?$CustomAllocator@PAUSTRUCT_FRIEND_INFO@@@util@@$0A@@std@@@std@@QAEXXZ 0041b350 f i User.obj
 0001:0001a3c0       ?_Lrotate@?$_Tree@V?$_Tmap_traits@KPBUsMAP_ENTERENCE_PORTAL_BASE@@U?$less@K@std@@V?$CustomAllocator@PBUsMAP_ENTERENCE_PORTAL_BASE@@@util@@$0A@@std@@@std@@IAEXPAU_Node@?$_Tree_nod@V?$_Tmap_traits@KPBUsMAP_ENTERENCE_PORTAL_BASE@@U?$less@K@std@@V?$CustomAllocator@PBUsMAP_ENTERENCE_PORTAL_BASE@@@util@@$0A@@std@@@2@@Z 0041b3c0 f i programcommon_s:MapInfoParser.obj
 0001:0001a3c0       ?_Lrotate@?$_Tree@V?$_Tmap_traits@KPAUSTRUCT_BLOCK_INFO@@U?$less@K@std@@V?$CustomAllocator@PAUSTRUCT_BLOCK_INFO@@@util@@$0A@@std@@@std@@IAEXPAU_Node@?$_Tree_nod@V?$_Tmap_traits@KPAUSTRUCT_BLOCK_INFO@@U?$less@K@std@@V?$CustomAllocator@PAUSTRUCT_BLOCK_INFO@@@util@@$0A@@std@@@2@@Z 0041b3c0 f i User.obj
 0001:0001a3c0       ?_Lrotate@?$_Tree@V?$_Tmap_traits@KPAVChannel@@U?$less@K@std@@V?$CustomAllocator@PAVChannel@@@util@@$0A@@std@@@std@@IAEXPAU_Node@?$_Tree_nod@V?$_Tmap_traits@KPAVChannel@@U?$less@K@std@@V?$CustomAllocator@PAVChannel@@@util@@$0A@@std@@@2@@Z 0041b3c0 f i ChannelManager.obj
 0001:0001a3c0       ?_Lrotate@?$_Tree@V?$_Tmap_traits@KPAUSTRUCT_REVENGE_INFO@@U?$less@K@std@@V?$CustomAllocator@PAUSTRUCT_REVENGE_INFO@@@util@@$0A@@std@@@std@@IAEXPAU_Node@?$_Tree_nod@V?$_Tmap_traits@KPAUSTRUCT_REVENGE_INFO@@U?$less@K@std@@V?$CustomAllocator@PAUSTRUCT_REVENGE_INFO@@@util@@$0A@@std@@@2@@Z 0041b3c0 f i User.obj
 0001:0001a3c0       ?_Lrotate@?$_Tree@V?$_Tmap_traits@KPAVFieldInfo@@U?$less@K@std@@V?$CustomAllocator@PAVFieldInfo@@@util@@$0A@@std@@@std@@IAEXPAU_Node@?$_Tree_nod@V?$_Tmap_traits@KPAVFieldInfo@@U?$less@K@std@@V?$CustomAllocator@PAVFieldInfo@@@util@@$0A@@std@@@2@@Z 0041b3c0 f i ChannelManager.obj
 0001:0001a3c0       ?_Lrotate@?$_Tree@V?$_Tmap_traits@KPAVFriendInvitationCommand@@U?$less@K@std@@V?$CustomAllocator@PAVFriendInvitationCommand@@@util@@$0A@@std@@@std@@IAEXPAU_Node@?$_Tree_nod@V?$_Tmap_traits@KPAVFriendInvitationCommand@@U?$less@K@std@@V?$CustomAllocator@PAVFriendInvitationCommand@@@util@@$0A@@std@@@2@@Z 0041b3c0 f i servercommon:FriendInvitationInvoker.obj
 0001:0001a3c0       ?_Lrotate@?$_Tree@V?$_Tmap_traits@KPAVUser@@U?$less@K@std@@V?$CustomAllocator@PAVUser@@@util@@$0A@@std@@@std@@IAEXPAU_Node@?$_Tree_nod@V?$_Tmap_traits@KPAVUser@@U?$less@K@std@@V?$CustomAllocator@PAVUser@@@util@@$0A@@std@@@2@@Z 0041b3c0 f i User.obj
 0001:0001a3c0       ?_Lrotate@?$_Tree@V?$_Tmap_traits@KPAUSTRUCT_GROUP_MEMBER_INFO@@U?$less@K@std@@V?$CustomAllocator@PAUSTRUCT_GROUP_MEMBER_INFO@@@util@@$0A@@std@@@std@@IAEXPAU_Node@?$_Tree_nod@V?$_Tmap_traits@KPAUSTRUCT_GROUP_MEMBER_INFO@@U?$less@K@std@@V?$CustomAllocator@PAUSTRUCT_GROUP_MEMBER_INFO@@@util@@$0A@@std@@@2@@Z 0041b3c0 f i User.obj
 0001:0001a3c0       ?_Lrotate@?$_Tree@V?$_Tmap_traits@KPAUSTRUCT_FRIEND_INFO@@U?$less@K@std@@V?$CustomAllocator@PAUSTRUCT_FRIEND_INFO@@@util@@$0A@@std@@@std@@IAEXPAU_Node@?$_Tree_nod@V?$_Tmap_traits@KPAUSTRUCT_FRIEND_INFO@@U?$less@K@std@@V?$CustomAllocator@PAUSTRUCT_FRIEND_INFO@@@util@@$0A@@std@@@2@@Z 0041b3c0 f i FriendMap.obj
 0001:0001a3c0       ?_Lrotate@?$_Tree@V?$_Tmap_traits@KPAVServerSession@@U?$less@K@std@@V?$CustomAllocator@PAVServerSession@@@util@@$0A@@std@@@std@@IAEXPAU_Node@?$_Tree_nod@V?$_Tmap_traits@KPAVServerSession@@U?$less@K@std@@V?$CustomAllocator@PAVServerSession@@@util@@$0A@@std@@@2@@Z 0041b3c0 f i WorldServer.obj
 0001:0001a410       ?_Buynode@?$_Tree@V?$_Tmap_traits@KPAVServerSession@@U?$less@K@std@@V?$CustomAllocator@PAVServerSession@@@util@@$0A@@std@@@std@@IAEPAU_Node@?$_Tree_nod@V?$_Tmap_traits@KPAVServerSession@@U?$less@K@std@@V?$CustomAllocator@PAVServerSession@@@util@@$0A@@std@@@2@PAU342@00ABU?$pair@$$CBKPAVServerSession@@@2@D@Z 0041b410 f i WorldServer.obj
 0001:0001a410       ?_Buynode@?$_Tree@V?$_Tmap_traits@KPAUSTRUCT_REVENGE_INFO@@U?$less@K@std@@V?$CustomAllocator@PAUSTRUCT_REVENGE_INFO@@@util@@$0A@@std@@@std@@IAEPAU_Node@?$_Tree_nod@V?$_Tmap_traits@KPAUSTRUCT_REVENGE_INFO@@U?$less@K@std@@V?$CustomAllocator@PAUSTRUCT_REVENGE_INFO@@@util@@$0A@@std@@@2@PAU342@00ABU?$pair@$$CBKPAUSTRUCT_REVENGE_INFO@@@2@D@Z 0041b410 f i User.obj
 0001:0001a410       ?_Buynode@?$_Tree@V?$_Tmap_traits@KPAUSTRUCT_GROUP_MEMBER_INFO@@U?$less@K@std@@V?$CustomAllocator@PAUSTRUCT_GROUP_MEMBER_INFO@@@util@@$0A@@std@@@std@@IAEPAU_Node@?$_Tree_nod@V?$_Tmap_traits@KPAUSTRUCT_GROUP_MEMBER_INFO@@U?$less@K@std@@V?$CustomAllocator@PAUSTRUCT_GROUP_MEMBER_INFO@@@util@@$0A@@std@@@2@PAU342@00ABU?$pair@$$CBKPAUSTRUCT_GROUP_MEMBER_INFO@@@2@D@Z 0041b410 f i GroupManager.obj
 0001:0001a410       ?_Buynode@?$_Tree@V?$_Tmap_traits@KPAVFriendInvitationCommand@@U?$less@K@std@@V?$CustomAllocator@PAVFriendInvitationCommand@@@util@@$0A@@std@@@std@@IAEPAU_Node@?$_Tree_nod@V?$_Tmap_traits@KPAVFriendInvitationCommand@@U?$less@K@std@@V?$CustomAllocator@PAVFriendInvitationCommand@@@util@@$0A@@std@@@2@PAU342@00ABU?$pair@$$CBKPAVFriendInvitationCommand@@@2@D@Z 0041b410 f i servercommon:FriendInvitationInvoker.obj
 0001:0001a410       ?_Buynode@?$_Tree@V?$_Tmap_traits@KPAVFieldInfo@@U?$less@K@std@@V?$CustomAllocator@PAVFieldInfo@@@util@@$0A@@std@@@std@@IAEPAU_Node@?$_Tree_nod@V?$_Tmap_traits@KPAVFieldInfo@@U?$less@K@std@@V?$CustomAllocator@PAVFieldInfo@@@util@@$0A@@std@@@2@PAU342@00ABU?$pair@$$CBKPAVFieldInfo@@@2@D@Z 0041b410 f i ChannelManager.obj
 0001:0001a410       ?_Buynode@?$_Tree@V?$_Tmap_traits@KPAUSTRUCT_BLOCK_INFO@@U?$less@K@std@@V?$CustomAllocator@PAUSTRUCT_BLOCK_INFO@@@util@@$0A@@std@@@std@@IAEPAU_Node@?$_Tree_nod@V?$_Tmap_traits@KPAUSTRUCT_BLOCK_INFO@@U?$less@K@std@@V?$CustomAllocator@PAUSTRUCT_BLOCK_INFO@@@util@@$0A@@std@@@2@PAU342@00ABU?$pair@$$CBKPAUSTRUCT_BLOCK_INFO@@@2@D@Z 0041b410 f i User.obj
 0001:0001a410       ?_Buynode@?$_Tree@V?$_Tmap_traits@KPBUsMAP_ENTERENCE_PORTAL_BASE@@U?$less@K@std@@V?$CustomAllocator@PBUsMAP_ENTERENCE_PORTAL_BASE@@@util@@$0A@@std@@@std@@IAEPAU_Node@?$_Tree_nod@V?$_Tmap_traits@KPBUsMAP_ENTERENCE_PORTAL_BASE@@U?$less@K@std@@V?$CustomAllocator@PBUsMAP_ENTERENCE_PORTAL_BASE@@@util@@$0A@@std@@@2@PAU342@00ABU?$pair@$$CBKPBUsMAP_ENTERENCE_PORTAL_BASE@@@2@D@Z 0041b410 f i programcommon_s:MapInfoParser.obj
 0001:0001a410       ?_Buynode@?$_Tree@V?$_Tmap_traits@KPAVUser@@U?$less@K@std@@V?$CustomAllocator@PAVUser@@@util@@$0A@@std@@@std@@IAEPAU_Node@?$_Tree_nod@V?$_Tmap_traits@KPAVUser@@U?$less@K@std@@V?$CustomAllocator@PAVUser@@@util@@$0A@@std@@@2@PAU342@00ABU?$pair@$$CBKPAVUser@@@2@D@Z 0041b410 f i User.obj
 0001:0001a410       ?_Buynode@?$_Tree@V?$_Tmap_traits@KPAVChannel@@U?$less@K@std@@V?$CustomAllocator@PAVChannel@@@util@@$0A@@std@@@std@@IAEPAU_Node@?$_Tree_nod@V?$_Tmap_traits@KPAVChannel@@U?$less@K@std@@V?$CustomAllocator@PAVChannel@@@util@@$0A@@std@@@2@PAU342@00ABU?$pair@$$CBKPAVChannel@@@2@D@Z 0041b410 f i ChannelManager.obj
 0001:0001a410       ?_Buynode@?$_Tree@V?$_Tmap_traits@KPAUSTRUCT_FRIEND_INFO@@U?$less@K@std@@V?$CustomAllocator@PAUSTRUCT_FRIEND_INFO@@@util@@$0A@@std@@@std@@IAEPAU_Node@?$_Tree_nod@V?$_Tmap_traits@KPAUSTRUCT_FRIEND_INFO@@U?$less@K@std@@V?$CustomAllocator@PAUSTRUCT_FRIEND_INFO@@@util@@$0A@@std@@@2@PAU342@00ABU?$pair@$$CBKPAUSTRUCT_FRIEND_INFO@@@2@D@Z 0041b410 f i FriendMap.obj
 0001:0001a450       ?_Buynode@?$list@U?$pair@$$CBW4eITEMTYPE@@USPECIAL_ITEM_INFO@@@std@@V?$CustomAllocator@U?$pair@$$CBW4eITEMTYPE@@USPECIAL_ITEM_INFO@@@std@@@util@@@std@@IAEPAU_Node@?$_List_nod@U?$pair@$$CBW4eITEMTYPE@@USPECIAL_ITEM_INFO@@@std@@V?$CustomAllocator@U?$pair@$$CBW4eITEMTYPE@@USPECIAL_ITEM_INFO@@@std@@@util@@@2@XZ 0041b450 f i User.obj
 0001:0001a470       ?_Buynode@?$_Tree@V?$_Tmap_traits@KPAVFieldInfo@@U?$less@K@std@@V?$CustomAllocator@PAVFieldInfo@@@util@@$0A@@std@@@std@@IAEPAU_Node@?$_Tree_nod@V?$_Tmap_traits@KPAVFieldInfo@@U?$less@K@std@@V?$CustomAllocator@PAVFieldInfo@@@util@@$0A@@std@@@2@XZ 0041b470 f i ChannelManager.obj
 0001:0001a470       ?_Buynode@?$_Tree@V?$_Tmap_traits@KPAVFriendInvitationCommand@@U?$less@K@std@@V?$CustomAllocator@PAVFriendInvitationCommand@@@util@@$0A@@std@@@std@@IAEPAU_Node@?$_Tree_nod@V?$_Tmap_traits@KPAVFriendInvitationCommand@@U?$less@K@std@@V?$CustomAllocator@PAVFriendInvitationCommand@@@util@@$0A@@std@@@2@XZ 0041b470 f i servercommon:FriendInvitationInvoker.obj
 0001:0001a470       ?_Buynode@?$_Tree@V?$_Tmap_traits@KPAVUser@@U?$less@K@std@@V?$CustomAllocator@PAVUser@@@util@@$0A@@std@@@std@@IAEPAU_Node@?$_Tree_nod@V?$_Tmap_traits@KPAVUser@@U?$less@K@std@@V?$CustomAllocator@PAVUser@@@util@@$0A@@std@@@2@XZ 0041b470 f i User.obj
 0001:0001a470       ?_Buynode@?$_Tree@V?$_Tmap_traits@KPAVServerSession@@U?$less@K@std@@V?$CustomAllocator@PAVServerSession@@@util@@$0A@@std@@@std@@IAEPAU_Node@?$_Tree_nod@V?$_Tmap_traits@KPAVServerSession@@U?$less@K@std@@V?$CustomAllocator@PAVServerSession@@@util@@$0A@@std@@@2@XZ 0041b470 f i WorldServer.obj
 0001:0001a470       ?_Buynode@?$_Tree@V?$_Tmap_traits@KPAUSTRUCT_GROUP_MEMBER_INFO@@U?$less@K@std@@V?$CustomAllocator@PAUSTRUCT_GROUP_MEMBER_INFO@@@util@@$0A@@std@@@std@@IAEPAU_Node@?$_Tree_nod@V?$_Tmap_traits@KPAUSTRUCT_GROUP_MEMBER_INFO@@U?$less@K@std@@V?$CustomAllocator@PAUSTRUCT_GROUP_MEMBER_INFO@@@util@@$0A@@std@@@2@XZ 0041b470 f i User.obj
 0001:0001a470       ?_Buynode@?$_Tree@V?$_Tmap_traits@KPBUsMAP_ENTERENCE_PORTAL_BASE@@U?$less@K@std@@V?$CustomAllocator@PBUsMAP_ENTERENCE_PORTAL_BASE@@@util@@$0A@@std@@@std@@IAEPAU_Node@?$_Tree_nod@V?$_Tmap_traits@KPBUsMAP_ENTERENCE_PORTAL_BASE@@U?$less@K@std@@V?$CustomAllocator@PBUsMAP_ENTERENCE_PORTAL_BASE@@@util@@$0A@@std@@@2@XZ 0041b470 f i programcommon_s:MapInfoParser.obj
 0001:0001a470       ?_Buynode@?$_Tree@V?$_Tmap_traits@KPAUSTRUCT_BLOCK_INFO@@U?$less@K@std@@V?$CustomAllocator@PAUSTRUCT_BLOCK_INFO@@@util@@$0A@@std@@@std@@IAEPAU_Node@?$_Tree_nod@V?$_Tmap_traits@KPAUSTRUCT_BLOCK_INFO@@U?$less@K@std@@V?$CustomAllocator@PAUSTRUCT_BLOCK_INFO@@@util@@$0A@@std@@@2@XZ 0041b470 f i User.obj
 0001:0001a470       ?_Buynode@?$_Tree@V?$_Tmap_traits@KPAVChannel@@U?$less@K@std@@V?$CustomAllocator@PAVChannel@@@util@@$0A@@std@@@std@@IAEPAU_Node@?$_Tree_nod@V?$_Tmap_traits@KPAVChannel@@U?$less@K@std@@V?$CustomAllocator@PAVChannel@@@util@@$0A@@std@@@2@XZ 0041b470 f i ChannelManager.obj
 0001:0001a470       ?_Buynode@?$_Tree@V?$_Tmap_traits@KPAUSTRUCT_REVENGE_INFO@@U?$less@K@std@@V?$CustomAllocator@PAUSTRUCT_REVENGE_INFO@@@util@@$0A@@std@@@std@@IAEPAU_Node@?$_Tree_nod@V?$_Tmap_traits@KPAUSTRUCT_REVENGE_INFO@@U?$less@K@std@@V?$CustomAllocator@PAUSTRUCT_REVENGE_INFO@@@util@@$0A@@std@@@2@XZ 0041b470 f i User.obj
 0001:0001a470       ?_Buynode@?$_Tree@V?$_Tmap_traits@KPAUSTRUCT_FRIEND_INFO@@U?$less@K@std@@V?$CustomAllocator@PAUSTRUCT_FRIEND_INFO@@@util@@$0A@@std@@@std@@IAEPAU_Node@?$_Tree_nod@V?$_Tmap_traits@KPAUSTRUCT_FRIEND_INFO@@U?$less@K@std@@V?$CustomAllocator@PAUSTRUCT_FRIEND_INFO@@@util@@$0A@@std@@@2@XZ 0041b470 f i FriendMap.obj
 0001:0001a4b0       ??$fill@PAU_List_position@?$_Hash@V?$_Hmap_traits@KPAVVillageZone@@V?$hash_compare@KU?$less@K@std@@@stdext@@V?$CustomAllocator@PAVVillageZone@@@util@@$0A@@stdext@@@stdext@@U123@@std@@YAXPAU_List_position@?$_Hash@V?$_Hmap_traits@KPAVVillageZone@@V?$hash_compare@KU?$less@K@std@@@stdext@@V?$CustomAllocator@PAVVillageZone@@@util@@$0A@@stdext@@@stdext@@0ABU123@@Z 0041b4b0 f i Channel.obj
 0001:0001a4b0       ??$fill@PAU_List_position@?$_Hash@V?$_Hmap_traits@KPAVChatZone@@V?$hash_compare@KU?$less@K@std@@@stdext@@V?$CustomAllocator@PAVChatZone@@@util@@$0A@@stdext@@@stdext@@U123@@std@@YAXPAU_List_position@?$_Hash@V?$_Hmap_traits@KPAVChatZone@@V?$hash_compare@KU?$less@K@std@@@stdext@@V?$CustomAllocator@PAVChatZone@@@util@@$0A@@stdext@@@stdext@@0ABU123@@Z 0041b4b0 f i Channel.obj
 0001:0001a4b0       ??$fill@PAU_List_position@?$_Hash@V?$_Hmap_traits@KPBUsFIELDINFO_BASE@@V?$hash_compare@KU?$less@K@std@@@stdext@@V?$CustomAllocator@PBUsFIELDINFO_BASE@@@util@@$0A@@stdext@@@stdext@@U123@@std@@YAXPAU_List_position@?$_Hash@V?$_Hmap_traits@KPBUsFIELDINFO_BASE@@V?$hash_compare@KU?$less@K@std@@@stdext@@V?$CustomAllocator@PBUsFIELDINFO_BASE@@@util@@$0A@@stdext@@@stdext@@0ABU123@@Z 0041b4b0 f i programcommon_s:MapInfoParser.obj
 0001:0001a4b0       ??$fill@PAU_List_position@?$_Hash@V?$_Hmap_traits@KPBUsWUTINFO_BASE@@V?$hash_compare@KU?$less@K@std@@@stdext@@V?$CustomAllocator@PBUsWUTINFO_BASE@@@util@@$0A@@stdext@@@stdext@@U123@@std@@YAXPAU_List_position@?$_Hash@V?$_Hmap_traits@KPBUsWUTINFO_BASE@@V?$hash_compare@KU?$less@K@std@@@stdext@@V?$CustomAllocator@PBUsWUTINFO_BASE@@@util@@$0A@@stdext@@@stdext@@0ABU123@@Z 0041b4b0 f i programcommon_s:MapInfoParser.obj
 0001:0001a4b0       ??$fill@PAU_List_position@?$_Hash@V?$_Hmap_traits@KPBUsWMOINFO_BASE@@V?$hash_compare@KU?$less@K@std@@@stdext@@V?$CustomAllocator@PBUsWMOINFO_BASE@@@util@@$0A@@stdext@@@stdext@@U123@@std@@YAXPAU_List_position@?$_Hash@V?$_Hmap_traits@KPBUsWMOINFO_BASE@@V?$hash_compare@KU?$less@K@std@@@stdext@@V?$CustomAllocator@PBUsWMOINFO_BASE@@@util@@$0A@@stdext@@@stdext@@0ABU123@@Z 0041b4b0 f i programcommon_s:MapInfoParser.obj
 0001:0001a4b0       ??$fill@PAU_List_position@?$_Hash@V?$_Hmap_traits@KPAVBASE_FUNC@util@@V?$hash_compare@KU?$less@K@std@@@stdext@@V?$allocator@U?$pair@$$CBKPAVBASE_FUNC@util@@@std@@@std@@$0A@@stdext@@@stdext@@U123@@std@@YAXPAU_List_position@?$_Hash@V?$_Hmap_traits@KPAVBASE_FUNC@util@@V?$hash_compare@KU?$less@K@std@@@stdext@@V?$allocator@U?$pair@$$CBKPAVBASE_FUNC@util@@@std@@@std@@$0A@@stdext@@@stdext@@0ABU123@@Z 0041b4b0 f i PacketHandler.obj
 0001:0001a4b0       ??$fill@PAU_List_position@?$_Hash@V?$_Hmap_traits@KPAVUser@@V?$hash_compare@KU?$less@K@std@@@stdext@@V?$CustomAllocator@PAVUser@@@util@@$0A@@stdext@@@stdext@@U123@@std@@YAXPAU_List_position@?$_Hash@V?$_Hmap_traits@KPAVUser@@V?$hash_compare@KU?$less@K@std@@@stdext@@V?$CustomAllocator@PAVUser@@@util@@$0A@@stdext@@@stdext@@0ABU123@@Z 0041b4b0 f i GuidUserList.obj
 0001:0001a4b0       ??$fill@PAU_List_position@?$_Hash@V?$_Hmap_traits@KPBVMapGroupBase@@V?$hash_compare@KU?$less@K@std@@@stdext@@V?$CustomAllocator@PBVMapGroupBase@@@util@@$0A@@stdext@@@stdext@@U123@@std@@YAXPAU_List_position@?$_Hash@V?$_Hmap_traits@KPBVMapGroupBase@@V?$hash_compare@KU?$less@K@std@@@stdext@@V?$CustomAllocator@PBVMapGroupBase@@@util@@$0A@@stdext@@@stdext@@0ABU123@@Z 0041b4b0 f i programcommon_s:MapInfoParser.obj
 0001:0001a4b0       ??$fill@PAU_List_position@?$_Hash@V?$_Hmap_traits@KPBUsMAPINFO_BASE@@V?$hash_compare@KU?$less@K@std@@@stdext@@V?$CustomAllocator@PBUsMAPINFO_BASE@@@util@@$0A@@stdext@@@stdext@@U123@@std@@YAXPAU_List_position@?$_Hash@V?$_Hmap_traits@KPBUsMAPINFO_BASE@@V?$hash_compare@KU?$less@K@std@@@stdext@@V?$CustomAllocator@PBUsMAPINFO_BASE@@@util@@$0A@@stdext@@@stdext@@0ABU123@@Z 0041b4b0 f i programcommon_s:MapInfoParser.obj
 0001:0001a4b0       ??$fill@PAU_List_position@?$_Hash@V?$_Hmap_traits@HULottoEntry@@V?$hash_compare@HU?$less@H@std@@@stdext@@V?$allocator@U?$pair@$$CBHULottoEntry@@@std@@@std@@$0A@@stdext@@@stdext@@U123@@std@@YAXPAU_List_position@?$_Hash@V?$_Hmap_traits@HULottoEntry@@V?$hash_compare@HU?$less@H@std@@@stdext@@V?$allocator@U?$pair@$$CBHULottoEntry@@@std@@@std@@$0A@@stdext@@@stdext@@0ABU123@@Z 0041b4b0 f i Lotto.obj
 0001:0001a4b0       ??$fill@PAU_List_position@?$_Hash@V?$_Hmap_traits@KPAVBaseZone@@V?$hash_compare@KU?$less@K@std@@@stdext@@V?$CustomAllocator@PAVBaseZone@@@util@@$0A@@stdext@@@stdext@@U123@@std@@YAXPAU_List_position@?$_Hash@V?$_Hmap_traits@KPAVBaseZone@@V?$hash_compare@KU?$less@K@std@@@stdext@@V?$CustomAllocator@PAVBaseZone@@@util@@$0A@@stdext@@@stdext@@0ABU123@@Z 0041b4b0 f i BaseZone.obj
 0001:0001a4b0       ??$fill@PAU_List_position@?$_Hash@V?$_Hmap_traits@W4eITEMTYPE@@USPECIAL_ITEM_INFO@@V?$hash_compare@W4eITEMTYPE@@U?$less@W4eITEMTYPE@@@std@@@stdext@@V?$CustomAllocator@USPECIAL_ITEM_INFO@@@util@@$0A@@stdext@@@stdext@@U123@@std@@YAXPAU_List_position@?$_Hash@V?$_Hmap_traits@W4eITEMTYPE@@USPECIAL_ITEM_INFO@@V?$hash_compare@W4eITEMTYPE@@U?$less@W4eITEMTYPE@@@std@@@stdext@@V?$CustomAllocator@USPECIAL_ITEM_INFO@@@util@@$0A@@stdext@@@stdext@@0ABU123@@Z 0041b4b0 f i User.obj
 0001:0001a4b0       ??$fill@PAU_List_position@?$_Hash@V?$_Hmap_traits@KPAVViewPortZone@@V?$hash_compare@KU?$less@K@std@@@stdext@@V?$CustomAllocator@PAVViewPortZone@@@util@@$0A@@stdext@@@stdext@@U123@@std@@YAXPAU_List_position@?$_Hash@V?$_Hmap_traits@KPAVViewPortZone@@V?$hash_compare@KU?$less@K@std@@@stdext@@V?$CustomAllocator@PAVViewPortZone@@@util@@$0A@@stdext@@@stdext@@0ABU123@@Z 0041b4b0 f i BaseZone.obj
 0001:0001a4e0       ??0?$list@U?$pair@$$CBW4eITEMTYPE@@USPECIAL_ITEM_INFO@@@std@@V?$CustomAllocator@U?$pair@$$CBW4eITEMTYPE@@USPECIAL_ITEM_INFO@@@std@@@util@@@std@@QAE@ABV?$CustomAllocator@U?$pair@$$CBW4eITEMTYPE@@USPECIAL_ITEM_INFO@@@std@@@util@@@Z 0041b4e0 f i User.obj
 0001:0001a550       ?erase@?$_Tree@V?$_Tmap_traits@KPAUSTRUCT_REVENGE_INFO@@U?$less@K@std@@V?$CustomAllocator@PAUSTRUCT_REVENGE_INFO@@@util@@$0A@@std@@@std@@QAE?AViterator@12@Vconst_iterator@12@@Z 0041b550 f i User.obj
 0001:0001a550       ?erase@?$_Tree@V?$_Tmap_traits@KPAVFieldInfo@@U?$less@K@std@@V?$CustomAllocator@PAVFieldInfo@@@util@@$0A@@std@@@std@@QAE?AViterator@12@Vconst_iterator@12@@Z 0041b550 f i ChannelManager.obj
 0001:0001a550       ?erase@?$_Tree@V?$_Tmap_traits@KPAUSTRUCT_GROUP_MEMBER_INFO@@U?$less@K@std@@V?$CustomAllocator@PAUSTRUCT_GROUP_MEMBER_INFO@@@util@@$0A@@std@@@std@@QAE?AViterator@12@Vconst_iterator@12@@Z 0041b550 f i User.obj
 0001:0001a550       ?erase@?$_Tree@V?$_Tmap_traits@KPAVChannel@@U?$less@K@std@@V?$CustomAllocator@PAVChannel@@@util@@$0A@@std@@@std@@QAE?AViterator@12@Vconst_iterator@12@@Z 0041b550 f i ChannelManager.obj
 0001:0001a550       ?erase@?$_Tree@V?$_Tmap_traits@KPAVServerSession@@U?$less@K@std@@V?$CustomAllocator@PAVServerSession@@@util@@$0A@@std@@@std@@QAE?AViterator@12@Vconst_iterator@12@@Z 0041b550 f i WorldServer.obj
 0001:0001a550       ?erase@?$_Tree@V?$_Tmap_traits@KPAVFriendInvitationCommand@@U?$less@K@std@@V?$CustomAllocator@PAVFriendInvitationCommand@@@util@@$0A@@std@@@std@@QAE?AViterator@12@Vconst_iterator@12@@Z 0041b550 f i servercommon:FriendInvitationInvoker.obj
 0001:0001a550       ?erase@?$_Tree@V?$_Tmap_traits@KPAUSTRUCT_BLOCK_INFO@@U?$less@K@std@@V?$CustomAllocator@PAUSTRUCT_BLOCK_INFO@@@util@@$0A@@std@@@std@@QAE?AViterator@12@Vconst_iterator@12@@Z 0041b550 f i User.obj
 0001:0001a550       ?erase@?$_Tree@V?$_Tmap_traits@KPAVUser@@U?$less@K@std@@V?$CustomAllocator@PAVUser@@@util@@$0A@@std@@@std@@QAE?AViterator@12@Vconst_iterator@12@@Z 0041b550 f i User.obj
 0001:0001a550       ?erase@?$_Tree@V?$_Tmap_traits@KPAUSTRUCT_FRIEND_INFO@@U?$less@K@std@@V?$CustomAllocator@PAUSTRUCT_FRIEND_INFO@@@util@@$0A@@std@@@std@@QAE?AViterator@12@Vconst_iterator@12@@Z 0041b550 f i FriendMap.obj
 0001:0001a550       ?erase@?$_Tree@V?$_Tmap_traits@KPBUsMAP_ENTERENCE_PORTAL_BASE@@U?$less@K@std@@V?$CustomAllocator@PBUsMAP_ENTERENCE_PORTAL_BASE@@@util@@$0A@@std@@@std@@QAE?AViterator@12@Vconst_iterator@12@@Z 0041b550 f i programcommon_s:MapInfoParser.obj
 0001:0001a820       ?_Insert_n@?$vector@U_List_position@?$_Hash@V?$_Hmap_traits@KPAVUser@@V?$hash_compare@KU?$less@K@std@@@stdext@@V?$CustomAllocator@PAVUser@@@util@@$0A@@stdext@@@stdext@@V?$CustomAllocator@U_List_position@?$_Hash@V?$_Hmap_traits@KPAVUser@@V?$hash_compare@KU?$less@K@std@@@stdext@@V?$CustomAllocator@PAVUser@@@util@@$0A@@stdext@@@stdext@@@util@@@std@@IAEXV?$_Vector_const_iterator@U_List_position@?$_Hash@V?$_Hmap_traits@KPAVUser@@V?$hash_compare@KU?$less@K@std@@@stdext@@V?$CustomAllocator@PAVUser@@@util@@$0A@@stdext@@@stdext@@V?$CustomAllocator@U_List_position@?$_Hash@V?$_Hmap_traits@KPAVUser@@V?$hash_compare@KU?$less@K@std@@@stdext@@V?$CustomAllocator@PAVUser@@@util@@$0A@@stdext@@@stdext@@@util@@@2@IABU_List_position@?$_Hash@V?$_Hmap_traits@KPAVUser@@V?$hash_compare@KU?$less@K@std@@@stdext@@V?$CustomAllocator@PAVUser@@@util@@$0A@@stdext@@@stdext@@@Z 0041b820 f i GuidUserList.obj
 0001:0001a820       ?_Insert_n@?$vector@U_List_position@?$_Hash@V?$_Hmap_traits@KPAVBaseZone@@V?$hash_compare@KU?$less@K@std@@@stdext@@V?$CustomAllocator@PAVBaseZone@@@util@@$0A@@stdext@@@stdext@@V?$CustomAllocator@U_List_position@?$_Hash@V?$_Hmap_traits@KPAVBaseZone@@V?$hash_compare@KU?$less@K@std@@@stdext@@V?$CustomAllocator@PAVBaseZone@@@util@@$0A@@stdext@@@stdext@@@util@@@std@@IAEXV?$_Vector_const_iterator@U_List_position@?$_Hash@V?$_Hmap_traits@KPAVBaseZone@@V?$hash_compare@KU?$less@K@std@@@stdext@@V?$CustomAllocator@PAVBaseZone@@@util@@$0A@@stdext@@@stdext@@V?$CustomAllocator@U_List_position@?$_Hash@V?$_Hmap_traits@KPAVBaseZone@@V?$hash_compare@KU?$less@K@std@@@stdext@@V?$CustomAllocator@PAVBaseZone@@@util@@$0A@@stdext@@@stdext@@@util@@@2@IABU_List_position@?$_Hash@V?$_Hmap_traits@KPAVBaseZone@@V?$hash_compare@KU?$less@K@std@@@stdext@@V?$CustomAllocator@PAVBaseZone@@@util@@$0A@@stdext@@@stdext@@@Z 0041b820 f i BaseZone.obj
 0001:0001a820       ?_Insert_n@?$vector@U_List_position@?$_Hash@V?$_Hmap_traits@KPAVVillageZone@@V?$hash_compare@KU?$less@K@std@@@stdext@@V?$CustomAllocator@PAVVillageZone@@@util@@$0A@@stdext@@@stdext@@V?$CustomAllocator@U_List_position@?$_Hash@V?$_Hmap_traits@KPAVVillageZone@@V?$hash_compare@KU?$less@K@std@@@stdext@@V?$CustomAllocator@PAVVillageZone@@@util@@$0A@@stdext@@@stdext@@@util@@@std@@IAEXV?$_Vector_const_iterator@U_List_position@?$_Hash@V?$_Hmap_traits@KPAVVillageZone@@V?$hash_compare@KU?$less@K@std@@@stdext@@V?$CustomAllocator@PAVVillageZone@@@util@@$0A@@stdext@@@stdext@@V?$CustomAllocator@U_List_position@?$_Hash@V?$_Hmap_traits@KPAVVillageZone@@V?$hash_compare@KU?$less@K@std@@@stdext@@V?$CustomAllocator@PAVVillageZone@@@util@@$0A@@stdext@@@stdext@@@util@@@2@IABU_List_position@?$_Hash@V?$_Hmap_traits@KPAVVillageZone@@V?$hash_compare@KU?$less@K@std@@@stdext@@V?$CustomAllocator@PAVVillageZone@@@util@@$0A@@stdext@@@stdext@@@Z 0041b820 f i Channel.obj
 0001:0001a820       ?_Insert_n@?$vector@U_List_position@?$_Hash@V?$_Hmap_traits@KPAVViewPortZone@@V?$hash_compare@KU?$less@K@std@@@stdext@@V?$CustomAllocator@PAVViewPortZone@@@util@@$0A@@stdext@@@stdext@@V?$CustomAllocator@U_List_position@?$_Hash@V?$_Hmap_traits@KPAVViewPortZone@@V?$hash_compare@KU?$less@K@std@@@stdext@@V?$CustomAllocator@PAVViewPortZone@@@util@@$0A@@stdext@@@stdext@@@util@@@std@@IAEXV?$_Vector_const_iterator@U_List_position@?$_Hash@V?$_Hmap_traits@KPAVViewPortZone@@V?$hash_compare@KU?$less@K@std@@@stdext@@V?$CustomAllocator@PAVViewPortZone@@@util@@$0A@@stdext@@@stdext@@V?$CustomAllocator@U_List_position@?$_Hash@V?$_Hmap_traits@KPAVViewPortZone@@V?$hash_compare@KU?$less@K@std@@@stdext@@V?$CustomAllocator@PAVViewPortZone@@@util@@$0A@@stdext@@@stdext@@@util@@@2@IABU_List_position@?$_Hash@V?$_Hmap_traits@KPAVViewPortZone@@V?$hash_compare@KU?$less@K@std@@@stdext@@V?$CustomAllocator@PAVViewPortZone@@@util@@$0A@@stdext@@@stdext@@@Z 0041b820 f i BaseZone.obj
 0001:0001a820       ?_Insert_n@?$vector@U_List_position@?$_Hash@V?$_Hmap_traits@KPAVChatZone@@V?$hash_compare@KU?$less@K@std@@@stdext@@V?$CustomAllocator@PAVChatZone@@@util@@$0A@@stdext@@@stdext@@V?$CustomAllocator@U_List_position@?$_Hash@V?$_Hmap_traits@KPAVChatZone@@V?$hash_compare@KU?$less@K@std@@@stdext@@V?$CustomAllocator@PAVChatZone@@@util@@$0A@@stdext@@@stdext@@@util@@@std@@IAEXV?$_Vector_const_iterator@U_List_position@?$_Hash@V?$_Hmap_traits@KPAVChatZone@@V?$hash_compare@KU?$less@K@std@@@stdext@@V?$CustomAllocator@PAVChatZone@@@util@@$0A@@stdext@@@stdext@@V?$CustomAllocator@U_List_position@?$_Hash@V?$_Hmap_traits@KPAVChatZone@@V?$hash_compare@KU?$less@K@std@@@stdext@@V?$CustomAllocator@PAVChatZone@@@util@@$0A@@stdext@@@stdext@@@util@@@2@IABU_List_position@?$_Hash@V?$_Hmap_traits@KPAVChatZone@@V?$hash_compare@KU?$less@K@std@@@stdext@@V?$CustomAllocator@PAVChatZone@@@util@@$0A@@stdext@@@stdext@@@Z 0041b820 f i Channel.obj
 0001:0001a820       ?_Insert_n@?$vector@U_List_position@?$_Hash@V?$_Hmap_traits@KPBUsFIELDINFO_BASE@@V?$hash_compare@KU?$less@K@std@@@stdext@@V?$CustomAllocator@PBUsFIELDINFO_BASE@@@util@@$0A@@stdext@@@stdext@@V?$CustomAllocator@U_List_position@?$_Hash@V?$_Hmap_traits@KPBUsFIELDINFO_BASE@@V?$hash_compare@KU?$less@K@std@@@stdext@@V?$CustomAllocator@PBUsFIELDINFO_BASE@@@util@@$0A@@stdext@@@stdext@@@util@@@std@@IAEXV?$_Vector_const_iterator@U_List_position@?$_Hash@V?$_Hmap_traits@KPBUsFIELDINFO_BASE@@V?$hash_compare@KU?$less@K@std@@@stdext@@V?$CustomAllocator@PBUsFIELDINFO_BASE@@@util@@$0A@@stdext@@@stdext@@V?$CustomAllocator@U_List_position@?$_Hash@V?$_Hmap_traits@KPBUsFIELDINFO_BASE@@V?$hash_compare@KU?$less@K@std@@@stdext@@V?$CustomAllocator@PBUsFIELDINFO_BASE@@@util@@$0A@@stdext@@@stdext@@@util@@@2@IABU_List_position@?$_Hash@V?$_Hmap_traits@KPBUsFIELDINFO_BASE@@V?$hash_compare@KU?$less@K@std@@@stdext@@V?$CustomAllocator@PBUsFIELDINFO_BASE@@@util@@$0A@@stdext@@@stdext@@@Z 0041b820 f i programcommon_s:MapInfoParser.obj
 0001:0001a820       ?_Insert_n@?$vector@U_List_position@?$_Hash@V?$_Hmap_traits@W4eITEMTYPE@@USPECIAL_ITEM_INFO@@V?$hash_compare@W4eITEMTYPE@@U?$less@W4eITEMTYPE@@@std@@@stdext@@V?$CustomAllocator@USPECIAL_ITEM_INFO@@@util@@$0A@@stdext@@@stdext@@V?$CustomAllocator@U_List_position@?$_Hash@V?$_Hmap_traits@W4eITEMTYPE@@USPECIAL_ITEM_INFO@@V?$hash_compare@W4eITEMTYPE@@U?$less@W4eITEMTYPE@@@std@@@stdext@@V?$CustomAllocator@USPECIAL_ITEM_INFO@@@util@@$0A@@stdext@@@stdext@@@util@@@std@@IAEXV?$_Vector_const_iterator@U_List_position@?$_Hash@V?$_Hmap_traits@W4eITEMTYPE@@USPECIAL_ITEM_INFO@@V?$hash_compare@W4eITEMTYPE@@U?$less@W4eITEMTYPE@@@std@@@stdext@@V?$CustomAllocator@USPECIAL_ITEM_INFO@@@util@@$0A@@stdext@@@stdext@@V?$CustomAllocator@U_List_position@?$_Hash@V?$_Hmap_traits@W4eITEMTYPE@@USPECIAL_ITEM_INFO@@V?$hash_compare@W4eITEMTYPE@@U?$less@W4eITEMTYPE@@@std@@@stdext@@V?$CustomAllocator@USPECIAL_ITEM_INFO@@@util@@$0A@@stdext@@@stdext@@@util@@@2@IABU_List_position@?$_Hash@V?$_Hmap_traits@W4eITEMTYPE@@USPECIAL_ITEM_INFO@@V?$hash_compare@W4eITEMTYPE@@U?$less@W4eITEMTYPE@@@std@@@stdext@@V?$CustomAllocator@USPECIAL_ITEM_INFO@@@util@@$0A@@stdext@@@stdext@@@Z 0041b820 f i User.obj
 0001:0001a820       ?_Insert_n@?$vector@U_List_position@?$_Hash@V?$_Hmap_traits@KPBVMapGroupBase@@V?$hash_compare@KU?$less@K@std@@@stdext@@V?$CustomAllocator@PBVMapGroupBase@@@util@@$0A@@stdext@@@stdext@@V?$CustomAllocator@U_List_position@?$_Hash@V?$_Hmap_traits@KPBVMapGroupBase@@V?$hash_compare@KU?$less@K@std@@@stdext@@V?$CustomAllocator@PBVMapGroupBase@@@util@@$0A@@stdext@@@stdext@@@util@@@std@@IAEXV?$_Vector_const_iterator@U_List_position@?$_Hash@V?$_Hmap_traits@KPBVMapGroupBase@@V?$hash_compare@KU?$less@K@std@@@stdext@@V?$CustomAllocator@PBVMapGroupBase@@@util@@$0A@@stdext@@@stdext@@V?$CustomAllocator@U_List_position@?$_Hash@V?$_Hmap_traits@KPBVMapGroupBase@@V?$hash_compare@KU?$less@K@std@@@stdext@@V?$CustomAllocator@PBVMapGroupBase@@@util@@$0A@@stdext@@@stdext@@@util@@@2@IABU_List_position@?$_Hash@V?$_Hmap_traits@KPBVMapGroupBase@@V?$hash_compare@KU?$less@K@std@@@stdext@@V?$CustomAllocator@PBVMapGroupBase@@@util@@$0A@@stdext@@@stdext@@@Z 0041b820 f i programcommon_s:MapInfoParser.obj
 0001:0001a820       ?_Insert_n@?$vector@U_List_position@?$_Hash@V?$_Hmap_traits@KPBUsMAPINFO_BASE@@V?$hash_compare@KU?$less@K@std@@@stdext@@V?$CustomAllocator@PBUsMAPINFO_BASE@@@util@@$0A@@stdext@@@stdext@@V?$CustomAllocator@U_List_position@?$_Hash@V?$_Hmap_traits@KPBUsMAPINFO_BASE@@V?$hash_compare@KU?$less@K@std@@@stdext@@V?$CustomAllocator@PBUsMAPINFO_BASE@@@util@@$0A@@stdext@@@stdext@@@util@@@std@@IAEXV?$_Vector_const_iterator@U_List_position@?$_Hash@V?$_Hmap_traits@KPBUsMAPINFO_BASE@@V?$hash_compare@KU?$less@K@std@@@stdext@@V?$CustomAllocator@PBUsMAPINFO_BASE@@@util@@$0A@@stdext@@@stdext@@V?$CustomAllocator@U_List_position@?$_Hash@V?$_Hmap_traits@KPBUsMAPINFO_BASE@@V?$hash_compare@KU?$less@K@std@@@stdext@@V?$CustomAllocator@PBUsMAPINFO_BASE@@@util@@$0A@@stdext@@@stdext@@@util@@@2@IABU_List_position@?$_Hash@V?$_Hmap_traits@KPBUsMAPINFO_BASE@@V?$hash_compare@KU?$less@K@std@@@stdext@@V?$CustomAllocator@PBUsMAPINFO_BASE@@@util@@$0A@@stdext@@@stdext@@@Z 0041b820 f i programcommon_s:MapInfoParser.obj
 0001:0001a820       ?_Insert_n@?$vector@U_List_position@?$_Hash@V?$_Hmap_traits@KPBUsWUTINFO_BASE@@V?$hash_compare@KU?$less@K@std@@@stdext@@V?$CustomAllocator@PBUsWUTINFO_BASE@@@util@@$0A@@stdext@@@stdext@@V?$CustomAllocator@U_List_position@?$_Hash@V?$_Hmap_traits@KPBUsWUTINFO_BASE@@V?$hash_compare@KU?$less@K@std@@@stdext@@V?$CustomAllocator@PBUsWUTINFO_BASE@@@util@@$0A@@stdext@@@stdext@@@util@@@std@@IAEXV?$_Vector_const_iterator@U_List_position@?$_Hash@V?$_Hmap_traits@KPBUsWUTINFO_BASE@@V?$hash_compare@KU?$less@K@std@@@stdext@@V?$CustomAllocator@PBUsWUTINFO_BASE@@@util@@$0A@@stdext@@@stdext@@V?$CustomAllocator@U_List_position@?$_Hash@V?$_Hmap_traits@KPBUsWUTINFO_BASE@@V?$hash_compare@KU?$less@K@std@@@stdext@@V?$CustomAllocator@PBUsWUTINFO_BASE@@@util@@$0A@@stdext@@@stdext@@@util@@@2@IABU_List_position@?$_Hash@V?$_Hmap_traits@KPBUsWUTINFO_BASE@@V?$hash_compare@KU?$less@K@std@@@stdext@@V?$CustomAllocator@PBUsWUTINFO_BASE@@@util@@$0A@@stdext@@@stdext@@@Z 0041b820 f i programcommon_s:MapInfoParser.obj
 0001:0001a820       ?_Insert_n@?$vector@U_List_position@?$_Hash@V?$_Hmap_traits@KPBUsWMOINFO_BASE@@V?$hash_compare@KU?$less@K@std@@@stdext@@V?$CustomAllocator@PBUsWMOINFO_BASE@@@util@@$0A@@stdext@@@stdext@@V?$CustomAllocator@U_List_position@?$_Hash@V?$_Hmap_traits@KPBUsWMOINFO_BASE@@V?$hash_compare@KU?$less@K@std@@@stdext@@V?$CustomAllocator@PBUsWMOINFO_BASE@@@util@@$0A@@stdext@@@stdext@@@util@@@std@@IAEXV?$_Vector_const_iterator@U_List_position@?$_Hash@V?$_Hmap_traits@KPBUsWMOINFO_BASE@@V?$hash_compare@KU?$less@K@std@@@stdext@@V?$CustomAllocator@PBUsWMOINFO_BASE@@@util@@$0A@@stdext@@@stdext@@V?$CustomAllocator@U_List_position@?$_Hash@V?$_Hmap_traits@KPBUsWMOINFO_BASE@@V?$hash_compare@KU?$less@K@std@@@stdext@@V?$CustomAllocator@PBUsWMOINFO_BASE@@@util@@$0A@@stdext@@@stdext@@@util@@@2@IABU_List_position@?$_Hash@V?$_Hmap_traits@KPBUsWMOINFO_BASE@@V?$hash_compare@KU?$less@K@std@@@stdext@@V?$CustomAllocator@PBUsWMOINFO_BASE@@@util@@$0A@@stdext@@@stdext@@@Z 0041b820 f i programcommon_s:MapInfoParser.obj
 0001:0001aa70       ?erase@?$_Tree@V?$_Tmap_traits@KPAVServerSession@@U?$less@K@std@@V?$CustomAllocator@PAVServerSession@@@util@@$0A@@std@@@std@@QAE?AViterator@12@Vconst_iterator@12@0@Z 0041ba70 f i WorldServer.obj
 0001:0001aa70       ?erase@?$_Tree@V?$_Tmap_traits@KPAUSTRUCT_REVENGE_INFO@@U?$less@K@std@@V?$CustomAllocator@PAUSTRUCT_REVENGE_INFO@@@util@@$0A@@std@@@std@@QAE?AViterator@12@Vconst_iterator@12@0@Z 0041ba70 f i User.obj
 0001:0001aa70       ?erase@?$_Tree@V?$_Tmap_traits@KPAVUser@@U?$less@K@std@@V?$CustomAllocator@PAVUser@@@util@@$0A@@std@@@std@@QAE?AViterator@12@Vconst_iterator@12@0@Z 0041ba70 f i User.obj
 0001:0001aa70       ?erase@?$_Tree@V?$_Tmap_traits@KPAUSTRUCT_FRIEND_INFO@@U?$less@K@std@@V?$CustomAllocator@PAUSTRUCT_FRIEND_INFO@@@util@@$0A@@std@@@std@@QAE?AViterator@12@Vconst_iterator@12@0@Z 0041ba70 f i FriendMap.obj
 0001:0001aa70       ?erase@?$_Tree@V?$_Tmap_traits@KPAUSTRUCT_GROUP_MEMBER_INFO@@U?$less@K@std@@V?$CustomAllocator@PAUSTRUCT_GROUP_MEMBER_INFO@@@util@@$0A@@std@@@std@@QAE?AViterator@12@Vconst_iterator@12@0@Z 0041ba70 f i User.obj
 0001:0001aa70       ?erase@?$_Tree@V?$_Tmap_traits@KPAVChannel@@U?$less@K@std@@V?$CustomAllocator@PAVChannel@@@util@@$0A@@std@@@std@@QAE?AViterator@12@Vconst_iterator@12@0@Z 0041ba70 f i ChannelManager.obj
 0001:0001aa70       ?erase@?$_Tree@V?$_Tmap_traits@KPBUsMAP_ENTERENCE_PORTAL_BASE@@U?$less@K@std@@V?$CustomAllocator@PBUsMAP_ENTERENCE_PORTAL_BASE@@@util@@$0A@@std@@@std@@QAE?AViterator@12@Vconst_iterator@12@0@Z 0041ba70 f i programcommon_s:MapInfoParser.obj
 0001:0001aa70       ?erase@?$_Tree@V?$_Tmap_traits@KPAUSTRUCT_BLOCK_INFO@@U?$less@K@std@@V?$CustomAllocator@PAUSTRUCT_BLOCK_INFO@@@util@@$0A@@std@@@std@@QAE?AViterator@12@Vconst_iterator@12@0@Z 0041ba70 f i User.obj
 0001:0001aa70       ?erase@?$_Tree@V?$_Tmap_traits@KPAVFieldInfo@@U?$less@K@std@@V?$CustomAllocator@PAVFieldInfo@@@util@@$0A@@std@@@std@@QAE?AViterator@12@Vconst_iterator@12@0@Z 0041ba70 f i ChannelManager.obj
 0001:0001aa70       ?erase@?$_Tree@V?$_Tmap_traits@KPAVFriendInvitationCommand@@U?$less@K@std@@V?$CustomAllocator@PAVFriendInvitationCommand@@@util@@$0A@@std@@@std@@QAE?AViterator@12@Vconst_iterator@12@0@Z 0041ba70 f i servercommon:FriendInvitationInvoker.obj
 0001:0001ab50       ?_Assign_n@?$vector@U_List_position@?$_Hash@V?$_Hmap_traits@KPBUsWMOINFO_BASE@@V?$hash_compare@KU?$less@K@std@@@stdext@@V?$CustomAllocator@PBUsWMOINFO_BASE@@@util@@$0A@@stdext@@@stdext@@V?$CustomAllocator@U_List_position@?$_Hash@V?$_Hmap_traits@KPBUsWMOINFO_BASE@@V?$hash_compare@KU?$less@K@std@@@stdext@@V?$CustomAllocator@PBUsWMOINFO_BASE@@@util@@$0A@@stdext@@@stdext@@@util@@@std@@IAEXIABU_List_position@?$_Hash@V?$_Hmap_traits@KPBUsWMOINFO_BASE@@V?$hash_compare@KU?$less@K@std@@@stdext@@V?$CustomAllocator@PBUsWMOINFO_BASE@@@util@@$0A@@stdext@@@stdext@@@Z 0041bb50 f i programcommon_s:MapInfoParser.obj
 0001:0001ab50       ?_Assign_n@?$vector@U_List_position@?$_Hash@V?$_Hmap_traits@KPBUsFIELDINFO_BASE@@V?$hash_compare@KU?$less@K@std@@@stdext@@V?$CustomAllocator@PBUsFIELDINFO_BASE@@@util@@$0A@@stdext@@@stdext@@V?$CustomAllocator@U_List_position@?$_Hash@V?$_Hmap_traits@KPBUsFIELDINFO_BASE@@V?$hash_compare@KU?$less@K@std@@@stdext@@V?$CustomAllocator@PBUsFIELDINFO_BASE@@@util@@$0A@@stdext@@@stdext@@@util@@@std@@IAEXIABU_List_position@?$_Hash@V?$_Hmap_traits@KPBUsFIELDINFO_BASE@@V?$hash_compare@KU?$less@K@std@@@stdext@@V?$CustomAllocator@PBUsFIELDINFO_BASE@@@util@@$0A@@stdext@@@stdext@@@Z 0041bb50 f i programcommon_s:MapInfoParser.obj
 0001:0001ab50       ?_Assign_n@?$vector@U_List_position@?$_Hash@V?$_Hmap_traits@KPAVChatZone@@V?$hash_compare@KU?$less@K@std@@@stdext@@V?$CustomAllocator@PAVChatZone@@@util@@$0A@@stdext@@@stdext@@V?$CustomAllocator@U_List_position@?$_Hash@V?$_Hmap_traits@KPAVChatZone@@V?$hash_compare@KU?$less@K@std@@@stdext@@V?$CustomAllocator@PAVChatZone@@@util@@$0A@@stdext@@@stdext@@@util@@@std@@IAEXIABU_List_position@?$_Hash@V?$_Hmap_traits@KPAVChatZone@@V?$hash_compare@KU?$less@K@std@@@stdext@@V?$CustomAllocator@PAVChatZone@@@util@@$0A@@stdext@@@stdext@@@Z 0041bb50 f i Channel.obj
 0001:0001ab50       ?_Assign_n@?$vector@U_List_position@?$_Hash@V?$_Hmap_traits@KPBUsMAPINFO_BASE@@V?$hash_compare@KU?$less@K@std@@@stdext@@V?$CustomAllocator@PBUsMAPINFO_BASE@@@util@@$0A@@stdext@@@stdext@@V?$CustomAllocator@U_List_position@?$_Hash@V?$_Hmap_traits@KPBUsMAPINFO_BASE@@V?$hash_compare@KU?$less@K@std@@@stdext@@V?$CustomAllocator@PBUsMAPINFO_BASE@@@util@@$0A@@stdext@@@stdext@@@util@@@std@@IAEXIABU_List_position@?$_Hash@V?$_Hmap_traits@KPBUsMAPINFO_BASE@@V?$hash_compare@KU?$less@K@std@@@stdext@@V?$CustomAllocator@PBUsMAPINFO_BASE@@@util@@$0A@@stdext@@@stdext@@@Z 0041bb50 f i programcommon_s:MapInfoParser.obj
 0001:0001ab50       ?_Assign_n@?$vector@U_List_position@?$_Hash@V?$_Hmap_traits@KPAVUser@@V?$hash_compare@KU?$less@K@std@@@stdext@@V?$CustomAllocator@PAVUser@@@util@@$0A@@stdext@@@stdext@@V?$CustomAllocator@U_List_position@?$_Hash@V?$_Hmap_traits@KPAVUser@@V?$hash_compare@KU?$less@K@std@@@stdext@@V?$CustomAllocator@PAVUser@@@util@@$0A@@stdext@@@stdext@@@util@@@std@@IAEXIABU_List_position@?$_Hash@V?$_Hmap_traits@KPAVUser@@V?$hash_compare@KU?$less@K@std@@@stdext@@V?$CustomAllocator@PAVUser@@@util@@$0A@@stdext@@@stdext@@@Z 0041bb50 f i GuidUserList.obj
 0001:0001ab50       ?_Assign_n@?$vector@U_List_position@?$_Hash@V?$_Hmap_traits@KPBUsWUTINFO_BASE@@V?$hash_compare@KU?$less@K@std@@@stdext@@V?$CustomAllocator@PBUsWUTINFO_BASE@@@util@@$0A@@stdext@@@stdext@@V?$CustomAllocator@U_List_position@?$_Hash@V?$_Hmap_traits@KPBUsWUTINFO_BASE@@V?$hash_compare@KU?$less@K@std@@@stdext@@V?$CustomAllocator@PBUsWUTINFO_BASE@@@util@@$0A@@stdext@@@stdext@@@util@@@std@@IAEXIABU_List_position@?$_Hash@V?$_Hmap_traits@KPBUsWUTINFO_BASE@@V?$hash_compare@KU?$less@K@std@@@stdext@@V?$CustomAllocator@PBUsWUTINFO_BASE@@@util@@$0A@@stdext@@@stdext@@@Z 0041bb50 f i programcommon_s:MapInfoParser.obj
 0001:0001ab50       ?_Assign_n@?$vector@U_List_position@?$_Hash@V?$_Hmap_traits@W4eITEMTYPE@@USPECIAL_ITEM_INFO@@V?$hash_compare@W4eITEMTYPE@@U?$less@W4eITEMTYPE@@@std@@@stdext@@V?$CustomAllocator@USPECIAL_ITEM_INFO@@@util@@$0A@@stdext@@@stdext@@V?$CustomAllocator@U_List_position@?$_Hash@V?$_Hmap_traits@W4eITEMTYPE@@USPECIAL_ITEM_INFO@@V?$hash_compare@W4eITEMTYPE@@U?$less@W4eITEMTYPE@@@std@@@stdext@@V?$CustomAllocator@USPECIAL_ITEM_INFO@@@util@@$0A@@stdext@@@stdext@@@util@@@std@@IAEXIABU_List_position@?$_Hash@V?$_Hmap_traits@W4eITEMTYPE@@USPECIAL_ITEM_INFO@@V?$hash_compare@W4eITEMTYPE@@U?$less@W4eITEMTYPE@@@std@@@stdext@@V?$CustomAllocator@USPECIAL_ITEM_INFO@@@util@@$0A@@stdext@@@stdext@@@Z 0041bb50 f i User.obj
 0001:0001ab50       ?_Assign_n@?$vector@U_List_position@?$_Hash@V?$_Hmap_traits@KPAVViewPortZone@@V?$hash_compare@KU?$less@K@std@@@stdext@@V?$CustomAllocator@PAVViewPortZone@@@util@@$0A@@stdext@@@stdext@@V?$CustomAllocator@U_List_position@?$_Hash@V?$_Hmap_traits@KPAVViewPortZone@@V?$hash_compare@KU?$less@K@std@@@stdext@@V?$CustomAllocator@PAVViewPortZone@@@util@@$0A@@stdext@@@stdext@@@util@@@std@@IAEXIABU_List_position@?$_Hash@V?$_Hmap_traits@KPAVViewPortZone@@V?$hash_compare@KU?$less@K@std@@@stdext@@V?$CustomAllocator@PAVViewPortZone@@@util@@$0A@@stdext@@@stdext@@@Z 0041bb50 f i BaseZone.obj
 0001:0001ab50       ?_Assign_n@?$vector@U_List_position@?$_Hash@V?$_Hmap_traits@KPBVMapGroupBase@@V?$hash_compare@KU?$less@K@std@@@stdext@@V?$CustomAllocator@PBVMapGroupBase@@@util@@$0A@@stdext@@@stdext@@V?$CustomAllocator@U_List_position@?$_Hash@V?$_Hmap_traits@KPBVMapGroupBase@@V?$hash_compare@KU?$less@K@std@@@stdext@@V?$CustomAllocator@PBVMapGroupBase@@@util@@$0A@@stdext@@@stdext@@@util@@@std@@IAEXIABU_List_position@?$_Hash@V?$_Hmap_traits@KPBVMapGroupBase@@V?$hash_compare@KU?$less@K@std@@@stdext@@V?$CustomAllocator@PBVMapGroupBase@@@util@@$0A@@stdext@@@stdext@@@Z 0041bb50 f i programcommon_s:MapInfoParser.obj
 0001:0001ab50       ?_Assign_n@?$vector@U_List_position@?$_Hash@V?$_Hmap_traits@KPAVBaseZone@@V?$hash_compare@KU?$less@K@std@@@stdext@@V?$CustomAllocator@PAVBaseZone@@@util@@$0A@@stdext@@@stdext@@V?$CustomAllocator@U_List_position@?$_Hash@V?$_Hmap_traits@KPAVBaseZone@@V?$hash_compare@KU?$less@K@std@@@stdext@@V?$CustomAllocator@PAVBaseZone@@@util@@$0A@@stdext@@@stdext@@@util@@@std@@IAEXIABU_List_position@?$_Hash@V?$_Hmap_traits@KPAVBaseZone@@V?$hash_compare@KU?$less@K@std@@@stdext@@V?$CustomAllocator@PAVBaseZone@@@util@@$0A@@stdext@@@stdext@@@Z 0041bb50 f i BaseZone.obj
 0001:0001ab50       ?_Assign_n@?$vector@U_List_position@?$_Hash@V?$_Hmap_traits@KPAVVillageZone@@V?$hash_compare@KU?$less@K@std@@@stdext@@V?$CustomAllocator@PAVVillageZone@@@util@@$0A@@stdext@@@stdext@@V?$CustomAllocator@U_List_position@?$_Hash@V?$_Hmap_traits@KPAVVillageZone@@V?$hash_compare@KU?$less@K@std@@@stdext@@V?$CustomAllocator@PAVVillageZone@@@util@@$0A@@stdext@@@stdext@@@util@@@std@@IAEXIABU_List_position@?$_Hash@V?$_Hmap_traits@KPAVVillageZone@@V?$hash_compare@KU?$less@K@std@@@stdext@@V?$CustomAllocator@PAVVillageZone@@@util@@$0A@@stdext@@@stdext@@@Z 0041bb50 f i Channel.obj
 0001:0001abd0       ??1?$_Tree@V?$_Tmap_traits@KPAVFriendInvitationCommand@@U?$less@K@std@@V?$CustomAllocator@PAVFriendInvitationCommand@@@util@@$0A@@std@@@std@@QAE@XZ 0041bbd0 f i servercommon:FriendInvitationInvoker.obj
 0001:0001abd0       ??1?$_Tree@V?$_Tmap_traits@KPBUsMAP_ENTERENCE_PORTAL_BASE@@U?$less@K@std@@V?$CustomAllocator@PBUsMAP_ENTERENCE_PORTAL_BASE@@@util@@$0A@@std@@@std@@QAE@XZ 0041bbd0 f i programcommon_s:MapInfoParser.obj
 0001:0001abd0       ??1?$_Tree@V?$_Tmap_traits@KPAVUser@@U?$less@K@std@@V?$CustomAllocator@PAVUser@@@util@@$0A@@std@@@std@@QAE@XZ 0041bbd0 f i User.obj
 0001:0001abd0       ??1?$_Tree@V?$_Tmap_traits@KPAUSTRUCT_FRIEND_INFO@@U?$less@K@std@@V?$CustomAllocator@PAUSTRUCT_FRIEND_INFO@@@util@@$0A@@std@@@std@@QAE@XZ 0041bbd0 f i FriendMap.obj
 0001:0001abd0       ??1?$_Tree@V?$_Tmap_traits@KPAVChannel@@U?$less@K@std@@V?$CustomAllocator@PAVChannel@@@util@@$0A@@std@@@std@@QAE@XZ 0041bbd0 f i ChannelManager.obj
 0001:0001abd0       ??1?$_Tree@V?$_Tmap_traits@KPAUSTRUCT_GROUP_MEMBER_INFO@@U?$less@K@std@@V?$CustomAllocator@PAUSTRUCT_GROUP_MEMBER_INFO@@@util@@$0A@@std@@@std@@QAE@XZ 0041bbd0 f i User.obj
 0001:0001abd0       ??1?$_Tree@V?$_Tmap_traits@KPAVServerSession@@U?$less@K@std@@V?$CustomAllocator@PAVServerSession@@@util@@$0A@@std@@@std@@QAE@XZ 0041bbd0 f i WorldServer.obj
 0001:0001abd0       ??1?$_Tree@V?$_Tmap_traits@KPAUSTRUCT_REVENGE_INFO@@U?$less@K@std@@V?$CustomAllocator@PAUSTRUCT_REVENGE_INFO@@@util@@$0A@@std@@@std@@QAE@XZ 0041bbd0 f i User.obj
 0001:0001abd0       ??1?$_Tree@V?$_Tmap_traits@KPAUSTRUCT_BLOCK_INFO@@U?$less@K@std@@V?$CustomAllocator@PAUSTRUCT_BLOCK_INFO@@@util@@$0A@@std@@@std@@QAE@XZ 0041bbd0 f i User.obj
 0001:0001abd0       ??1?$_Tree@V?$_Tmap_traits@KPAVFieldInfo@@U?$less@K@std@@V?$CustomAllocator@PAVFieldInfo@@@util@@$0A@@std@@@std@@QAE@XZ 0041bbd0 f i ChannelManager.obj
 0001:0001ac50       ??0?$_Hash@V?$_Hmap_traits@W4eITEMTYPE@@USPECIAL_ITEM_INFO@@V?$hash_compare@W4eITEMTYPE@@U?$less@W4eITEMTYPE@@@std@@@stdext@@V?$CustomAllocator@USPECIAL_ITEM_INFO@@@util@@$0A@@stdext@@@stdext@@QAE@ABV?$hash_compare@W4eITEMTYPE@@U?$less@W4eITEMTYPE@@@std@@@1@ABV?$CustomAllocator@U?$pair@$$CBW4eITEMTYPE@@USPECIAL_ITEM_INFO@@@std@@@util@@@Z 0041bc50 f i User.obj
 0001:0001ad10       ??_EUser@@UAEPAXI@Z        0041bd10 f i User.obj
 0001:0001ad10       ??_GUser@@UAEPAXI@Z        0041bd10 f i User.obj
 0001:0001ad30       ?Release@UserFactory@@QAEXXZ 0041bd30 f   UserFactory.obj
 0001:0001ad50       ?Init@UserFactory@@QAEXK@Z 0041bd50 f   UserFactory.obj
 0001:0001ad90       ?Alloc@UserFactory@@QAEPAVUser@@W4eUSER_TYPE@@@Z 0041bd90 f   UserFactory.obj
 0001:0001add0       ?Free@UserFactory@@QAEXPAVUser@@@Z 0041bdd0 f   UserFactory.obj
 0001:0001ae20       ??1UserFactory@@UAE@XZ     0041be20 f   UserFactory.obj
 0001:0001ae50       ??0UserFactory@@QAE@XZ     0041be50 f   UserFactory.obj
 0001:0001aeb0       ??_GUserFactory@@UAEPAXI@Z 0041beb0 f i UserFactory.obj
 0001:0001aeb0       ??_EUserFactory@@UAEPAXI@Z 0041beb0 f i UserFactory.obj
 0001:0001aef0       ?Create@?$VariableSizeChunkImpl@VTempUser@@@internal@util@@CAXPAX@Z 0041bef0 f i UserFactory.obj
 0001:0001af40       ?Alloc@?$NotUseChunkImpl@VTempUser@@@internal@util@@UAEPAXXZ 0041bf40 f i UserFactory.obj
 0001:0001afb0       ??0?$VariableSizeChunkImpl@VTempUser@@@internal@util@@QAE@XZ 0041bfb0 f i UserFactory.obj
 0001:0001b010       ??1?$VariableSizeChunkImpl@VTempUser@@@internal@util@@UAE@XZ 0041c010 f i UserFactory.obj
 0001:0001b080       ??_G?$VariableSizeChunkImpl@VTempUser@@@internal@util@@UAEPAXI@Z 0041c080 f i UserFactory.obj
 0001:0001b080       ??_E?$VariableSizeChunkImpl@VTempUser@@@internal@util@@UAEPAXI@Z 0041c080 f i UserFactory.obj
 0001:0001b0a0       ??1?$CMemoryPoolFactory@VTempUser@@@util@@UAE@XZ 0041c0a0 f i UserFactory.obj
 0001:0001b110       ?Create@?$VariableSizeChunkImpl@VActiveUser@@@internal@util@@CAXPAX@Z 0041c110 f i UserFactory.obj
 0001:0001b160       ?Alloc@?$NotUseChunkImpl@VActiveUser@@@internal@util@@UAEPAXXZ 0041c160 f i UserFactory.obj
 0001:0001b1d0       ??0?$VariableSizeChunkImpl@VActiveUser@@@internal@util@@QAE@XZ 0041c1d0 f i UserFactory.obj
 0001:0001b230       ??1?$VariableSizeChunkImpl@VActiveUser@@@internal@util@@UAE@XZ 0041c230 f i UserFactory.obj
 0001:0001b2a0       ??_G?$VariableSizeChunkImpl@VActiveUser@@@internal@util@@UAEPAXI@Z 0041c2a0 f i UserFactory.obj
 0001:0001b2a0       ??_E?$VariableSizeChunkImpl@VActiveUser@@@internal@util@@UAEPAXI@Z 0041c2a0 f i UserFactory.obj
 0001:0001b2c0       ??1?$CMemoryPoolFactory@VActiveUser@@@util@@UAE@XZ 0041c2c0 f i UserFactory.obj
 0001:0001b330       ??_G?$CMemoryPoolFactory@VTempUser@@@util@@UAEPAXI@Z 0041c330 f i UserFactory.obj
 0001:0001b330       ??_E?$CMemoryPoolFactory@VTempUser@@@util@@UAEPAXI@Z 0041c330 f i UserFactory.obj
 0001:0001b350       ??_G?$CMemoryPoolFactory@VActiveUser@@@util@@UAEPAXI@Z 0041c350 f i UserFactory.obj
 0001:0001b350       ??_E?$CMemoryPoolFactory@VActiveUser@@@util@@UAEPAXI@Z 0041c350 f i UserFactory.obj
 0001:0001b370       ?Alloc@?$FixedSizeChunkImpl@VTempUser@@@internal@util@@UAEPAXXZ 0041c370 f i UserFactory.obj
 0001:0001b3e0       ?Alloc@?$FixedSizeChunkImpl@VActiveUser@@@internal@util@@UAEPAXXZ 0041c3e0 f i UserFactory.obj
 0001:0001b450       ??_G?$FixedSizeChunkImpl@VTempUser@@@internal@util@@UAEPAXI@Z 0041c450 f i UserFactory.obj
 0001:0001b450       ??_E?$FixedSizeChunkImpl@VTempUser@@@internal@util@@UAEPAXI@Z 0041c450 f i UserFactory.obj
 0001:0001b480       ??_G?$FixedSizeChunkImpl@VActiveUser@@@internal@util@@UAEPAXI@Z 0041c480 f i UserFactory.obj
 0001:0001b480       ??_E?$FixedSizeChunkImpl@VActiveUser@@@internal@util@@UAEPAXI@Z 0041c480 f i UserFactory.obj
 0001:0001b4b0       ?CreateImpl@?$CMemoryPoolFactory@VTempUser@@@util@@QAEXH@Z 0041c4b0 f i UserFactory.obj
 0001:0001b5d0       ?CreateImpl@?$CMemoryPoolFactory@VActiveUser@@@util@@QAEXH@Z 0041c5d0 f i UserFactory.obj
 0001:0001b6f0       ?Initialize@?$CMemoryPoolFactory@VTempUser@@@util@@UAE_NIIPBDPAX@Z 0041c6f0 f i UserFactory.obj
 0001:0001b720       ?Initialize@?$CMemoryPoolFactory@VActiveUser@@@util@@UAE_NIIPBDPAX@Z 0041c720 f i UserFactory.obj
 0001:0001b750       ?AllocFriendInfo@UserManager@@QAEPAUSTRUCT_FRIEND_INFO@@XZ 0041c750 f   UserManager.obj
 0001:0001b760       ?FreeFriendInfo@UserManager@@QAEXPAUSTRUCT_FRIEND_INFO@@@Z 0041c760 f   UserManager.obj
 0001:0001b7b0       ?AllocRevengeInfo@UserManager@@QAEPAUSTRUCT_REVENGE_INFO@@XZ 0041c7b0 f   UserManager.obj
 0001:0001b7c0       ?FreeRevengeInfo@UserManager@@QAEXPAUSTRUCT_REVENGE_INFO@@@Z 0041c7c0 f   UserManager.obj
 0001:0001b810       ?AllocBlockInfo@UserManager@@QAEPAUSTRUCT_BLOCK_INFO@@XZ 0041c810 f   UserManager.obj
 0001:0001b820       ?FreeBlockInfo@UserManager@@QAEXPAUSTRUCT_BLOCK_INFO@@@Z 0041c820 f   UserManager.obj
 0001:0001b860       ?SetUserCharGuid@UserManager@@QAEHKK@Z 0041c860 f   UserManager.obj
 0001:0001b910       ?UnSetCharGuid@UserManager@@QAEHK@Z 0041c910 f   UserManager.obj
 0001:0001b960       ?FindUser@UserManager@@QAEPAVUser@@K@Z 0041c960 f   UserManager.obj
 0001:0001b970       ?FindUserByCharGuid@UserManager@@QAEPAVUser@@K@Z 0041c970 f   UserManager.obj
 0001:0001b980       ?SendToAll@UserManager@@QAEXPAEG@Z 0041c980 f   UserManager.obj
 0001:0001b990       ?SetUserCharLevel@UserManager@@QAEHKG@Z 0041c990 f   UserManager.obj
 0001:0001b9c0       ?SetUserCharClass@UserManager@@QAEHKE@Z 0041c9c0 f   UserManager.obj
 0001:0001b9f0       ?SetUserCharGender@UserManager@@QAEHKE@Z 0041c9f0 f   UserManager.obj
 0001:0001ba20       ?GetNumberOfCharNameUsers@UserManager@@QAEKXZ 0041ca20 f   UserManager.obj
 0001:0001ba30       ?GetNumberOfGuidUsers@UserManager@@QAEKXZ 0041ca30 f   UserManager.obj
 0001:0001ba40       ?UpdateCryptoUser@UserManager@@QAEXXZ 0041ca40 f   UserManager.obj
 0001:0001baf0       ?AddUser@UserManager@@AAEXKPAVUser@@@Z 0041caf0 f   UserManager.obj
 0001:0001bb70       ?RemoveUser@UserManager@@AAEXK@Z 0041cb70 f   UserManager.obj
 0001:0001bc00       ?UnsetUserCharName@UserManager@@QAEHK@Z 0041cc00 f   UserManager.obj
 0001:0001bc50       ?FindUser@UserManager@@QAEPAVUser@@V?$basic_string@DU?$char_traits@D@std@@V?$allocator@D@2@@std@@@Z 0041cc50 f   UserManager.obj
 0001:0001bcd0       ?SetUserCharName@UserManager@@QAEHKV?$basic_string@DU?$char_traits@D@std@@V?$allocator@D@2@@std@@@Z 0041ccd0 f   UserManager.obj
 0001:0001be80       ?RemoveChatBlockUser@UserManager@@QAEHPAVUser@@@Z 0041ce80 f   UserManager.obj
 0001:0001bf50       ?InsertChatBlockUser@UserManager@@QAEXPAVUser@@K@Z 0041cf50 f   UserManager.obj
 0001:0001bfb0       ?AddCryptoUser@UserManager@@QAEXPAVUser@@@Z 0041cfb0 f   UserManager.obj
 0001:0001bfe0       ?UpdateChatBlockUser@UserManager@@QAEXXZ 0041cfe0 f   UserManager.obj
 0001:0001c1c0       ?RemoveNewFriend@UserManager@@QAEXKPAVUser@@@Z 0041d1c0 f   UserManager.obj
 0001:0001c390       ?RemoveFriend@UserManager@@QAEXPAVUser@@@Z 0041d390 f   UserManager.obj
 0001:0001c5c0       ?RemoveNewRevenge@UserManager@@QAEXKPAVUser@@@Z 0041d5c0 f   UserManager.obj
 0001:0001c790       ?RemoveRevenge@UserManager@@QAEXPAVUser@@@Z 0041d790 f   UserManager.obj
 0001:0001c9a0       ?Init@UserManager@@QAEXXZ  0041d9a0 f   UserManager.obj
 0001:0001ca30       ?Release@UserManager@@QAEXXZ 0041da30 f   UserManager.obj
 0001:0001cb60       ?AddNewFriend@UserManager@@QAEHKPAVUser@@@Z 0041db60 f   UserManager.obj
 0001:0001cd20       ?AddFriend@UserManager@@QAEHPAVUser@@@Z 0041dd20 f   UserManager.obj
 0001:0001d060       ?AddNewRevenge@UserManager@@QAEHKPAVUser@@@Z 0041e060 f   UserManager.obj
 0001:0001d210       ?AddRevenge@UserManager@@QAEHPAVUser@@@Z 0041e210 f   UserManager.obj
 0001:0001d500       ??1UserManager@@QAE@XZ     0041e500 f   UserManager.obj
 0001:0001d760       ??0UserManager@@QAE@XZ     0041e760 f   UserManager.obj
 0001:0001d970       ?_Max@?$_Tree@V?$_Tmap_traits@KV?$chunk_map@KPAVUser@@U?$less@K@std@@@util@@U?$less@K@std@@V?$CustomAllocator@V?$chunk_map@KPAVUser@@U?$less@K@std@@@util@@@2@$0A@@std@@@std@@KAPAU_Node@?$_Tree_nod@V?$_Tmap_traits@KV?$chunk_map@KPAVUser@@U?$less@K@std@@@util@@U?$less@K@std@@V?$CustomAllocator@V?$chunk_map@KPAVUser@@U?$less@K@std@@@util@@@2@$0A@@std@@@2@PAU342@@Z 0041e970 f i UserManager.obj
 0001:0001d990       ?_Min@?$_Tree@V?$_Tmap_traits@KV?$chunk_map@KPAVUser@@U?$less@K@std@@@util@@U?$less@K@std@@V?$CustomAllocator@V?$chunk_map@KPAVUser@@U?$less@K@std@@@util@@@2@$0A@@std@@@std@@KAPAU_Node@?$_Tree_nod@V?$_Tmap_traits@KV?$chunk_map@KPAVUser@@U?$less@K@std@@@util@@U?$less@K@std@@V?$CustomAllocator@V?$chunk_map@KPAVUser@@U?$less@K@std@@@util@@@2@$0A@@std@@@2@PAU342@@Z 0041e990 f i UserManager.obj
 0001:0001d9b0       ?_Rrotate@?$_Tree@V?$_Tmap_traits@KV?$chunk_map@KPAVUser@@U?$less@K@std@@@util@@U?$less@K@std@@V?$CustomAllocator@V?$chunk_map@KPAVUser@@U?$less@K@std@@@util@@@2@$0A@@std@@@std@@IAEXPAU_Node@?$_Tree_nod@V?$_Tmap_traits@KV?$chunk_map@KPAVUser@@U?$less@K@std@@@util@@U?$less@K@std@@V?$CustomAllocator@V?$chunk_map@KPAVUser@@U?$less@K@std@@@util@@@2@$0A@@std@@@2@@Z 0041e9b0 f i UserManager.obj
 0001:0001da10       ?_Inc@const_iterator@?$_Tree@V?$_Tmap_traits@KV?$chunk_map@KPAVUser@@U?$less@K@std@@@util@@U?$less@K@std@@V?$CustomAllocator@V?$chunk_map@KPAVUser@@U?$less@K@std@@@util@@@2@$0A@@std@@@std@@QAEXXZ 0041ea10 f i UserManager.obj
 0001:0001da80       ?_Dec@const_iterator@?$_Tree@V?$_Tmap_traits@KV?$chunk_map@KPAVUser@@U?$less@K@std@@@util@@U?$less@K@std@@V?$CustomAllocator@V?$chunk_map@KPAVUser@@U?$less@K@std@@@util@@@2@$0A@@std@@@std@@QAEXXZ 0041ea80 f i UserManager.obj
 0001:0001db10       ?_Lrotate@?$_Tree@V?$_Tmap_traits@KV?$chunk_map@KPAVUser@@U?$less@K@std@@@util@@U?$less@K@std@@V?$CustomAllocator@V?$chunk_map@KPAVUser@@U?$less@K@std@@@util@@@2@$0A@@std@@@std@@IAEXPAU_Node@?$_Tree_nod@V?$_Tmap_traits@KV?$chunk_map@KPAVUser@@U?$less@K@std@@@util@@U?$less@K@std@@V?$CustomAllocator@V?$chunk_map@KPAVUser@@U?$less@K@std@@@util@@@2@$0A@@std@@@2@@Z 0041eb10 f i UserManager.obj
 0001:0001db60       ?_Copy@?$_Tree@V?$_Tmap_traits@KPAVUser@@U?$less@K@std@@V?$CustomAllocator@PAVUser@@@util@@$0A@@std@@@std@@IAEPAU_Node@?$_Tree_nod@V?$_Tmap_traits@KPAVUser@@U?$less@K@std@@V?$CustomAllocator@PAVUser@@@util@@$0A@@std@@@2@PAU342@0@Z 0041eb60 f i UserManager.obj
 0001:0001db60       ?_Copy@?$_Tree@V?$_Tmap_traits@KPAVServerSession@@U?$less@K@std@@V?$CustomAllocator@PAVServerSession@@@util@@$0A@@std@@@std@@IAEPAU_Node@?$_Tree_nod@V?$_Tmap_traits@KPAVServerSession@@U?$less@K@std@@V?$CustomAllocator@PAVServerSession@@@util@@$0A@@std@@@2@PAU342@0@Z 0041eb60 f i WorldServer.obj
 0001:0001dc20       ?_Buynode@?$_Tree@V?$_Tmap_traits@KV?$chunk_map@KPAVUser@@U?$less@K@std@@@util@@U?$less@K@std@@V?$CustomAllocator@V?$chunk_map@KPAVUser@@U?$less@K@std@@@util@@@2@$0A@@std@@@std@@IAEPAU_Node@?$_Tree_nod@V?$_Tmap_traits@KV?$chunk_map@KPAVUser@@U?$less@K@std@@@util@@U?$less@K@std@@V?$CustomAllocator@V?$chunk_map@KPAVUser@@U?$less@K@std@@@util@@@2@$0A@@std@@@2@XZ 0041ec20 f i UserManager.obj
 0001:0001dc60       ?Alloc@?$NotUseChunkImpl@USTRUCT_FRIEND_INFO@@@internal@util@@UAEPAXXZ 0041ec60 f i UserManager.obj
 0001:0001dc90       ??0?$VariableSizeChunkImpl@USTRUCT_FRIEND_INFO@@@internal@util@@QAE@XZ 0041ec90 f i UserManager.obj
 0001:0001dcf0       ??1?$VariableSizeChunkImpl@USTRUCT_FRIEND_INFO@@@internal@util@@UAE@XZ 0041ecf0 f i UserManager.obj
 0001:0001dd60       ??_E?$VariableSizeChunkImpl@USTRUCT_FRIEND_INFO@@@internal@util@@UAEPAXI@Z 0041ed60 f i UserManager.obj
 0001:0001dd60       ??_G?$VariableSizeChunkImpl@USTRUCT_FRIEND_INFO@@@internal@util@@UAEPAXI@Z 0041ed60 f i UserManager.obj
 0001:0001dd80       ??1?$CMemoryPoolFactory@USTRUCT_FRIEND_INFO@@@util@@UAE@XZ 0041ed80 f i UserManager.obj
 0001:0001ddf0       ?Alloc@?$NotUseChunkImpl@USTRUCT_BLOCK_INFO@@@internal@util@@UAEPAXXZ 0041edf0 f i UserManager.obj
 0001:0001de20       ??0?$VariableSizeChunkImpl@USTRUCT_BLOCK_INFO@@@internal@util@@QAE@XZ 0041ee20 f i UserManager.obj
 0001:0001de80       ??1?$VariableSizeChunkImpl@USTRUCT_BLOCK_INFO@@@internal@util@@UAE@XZ 0041ee80 f i UserManager.obj
 0001:0001def0       ??_E?$VariableSizeChunkImpl@USTRUCT_BLOCK_INFO@@@internal@util@@UAEPAXI@Z 0041eef0 f i UserManager.obj
 0001:0001def0       ??_G?$VariableSizeChunkImpl@USTRUCT_BLOCK_INFO@@@internal@util@@UAEPAXI@Z 0041eef0 f i UserManager.obj
 0001:0001df10       ??1?$CMemoryPoolFactory@USTRUCT_BLOCK_INFO@@@util@@UAE@XZ 0041ef10 f i UserManager.obj
 0001:0001df80       ?Destroy@?$VariableSizeChunkImpl@VNODE@?$CLinkedlist@PAVBaseZone@@K@util@@@internal@util@@CAXPAX@Z 0041ef80 f i BaseZone.obj
 0001:0001df80       ?Init@TempServerSession@@UAEXXZ 0041ef80 f i TempServerSession.obj
 0001:0001df80       ?Release@NotificationInfoParser@@UAEXXZ 0041ef80 f i WorldScriptParserManager.obj
 0001:0001df80       ?Destroy@?$VariableSizeChunkImpl@VNODE@?$CLinkedlist@PAVSectorInfo@@K@util@@@internal@util@@CAXPAX@Z 0041ef80 f i FieldInfo.obj
 0001:0001df80       ?Create@?$VariableSizeChunkImpl@USTRUCT_FRIEND_INFO@@@internal@util@@CAXPAX@Z 0041ef80 f i UserManager.obj
 0001:0001df80       ??3@YAXPAXPAU_tmp_Alloc@@@Z 0041ef80 f i MOLA_s:CryptManager.Server.obj
 0001:0001df80       ?Init@?$ISecureQueryCmdStreamBuiltinCmd@UsBUILTIN_002_A_PLUS_B_PLUS_C_PLUS_D_RET@@$0A@@@UAEXXZ 0041ef80 f i MOLA_s:CryptManager.ISecureWorkNode.Server.obj
 0001:0001df80       ?OnEnter@LottoState@@UAEXXZ 0041ef80 f i Lotto.obj
 0001:0001df80       ?OnStop@ServiceApp@@MAEXXZ 0041ef80 f i servercommon:ServiceApp.obj
 0001:0001df80       ?Destroy@?$VariableSizeChunkImpl@USTRUCT_REVENGE_INFO@@@internal@util@@CAXPAX@Z 0041ef80 f i UserManager.obj
 0001:0001df80       ?OnTick@LottoState@@UAEXXZ 0041ef80 f i Lotto.obj
 0001:0001df80       ?OnRedirect@ServerSession@@UAEXXZ 0041ef80 f i AccountDBProxySession.obj
 0001:0001df80       ?Close@CPackFile@@QAEXXZ   0041ef80 f i utility_s:FilePackerManager.obj
 0001:0001df80       ??1CPackFile@@QAE@XZ       0041ef80 f i utility_s:FilePackerManager.obj
 0001:0001df80       ?Release@IMemoryPoolFactoryImpl@internal@util@@UAEXXZ 0041ef80 f i ServerSessionFactory.obj
 0001:0001df80       ?Init@?$ISecureQueryCmdStreamBuiltinCmd@UsBUILTIN_002_A_PLUS_B_PLUS_C_RET@@$0A@@@UAEXXZ 0041ef80 f i MOLA_s:CryptManager.ISecureWorkNode.Server.obj
 0001:0001df80       ??1SolarDump@@QAE@XZ       0041ef80 f i utility_s:SolarDump.obj
 0001:0001df80       ?OnContinue@ServiceApp@@MAEXXZ 0041ef80 f i main.obj
 0001:0001df80       ?Update@TempServerSession@@UAEXXZ 0041ef80 f i TempServerSession.obj
 0001:0001df80       ?Create@?$VariableSizeChunkImpl@USTRUCT_REVENGE_INFO@@@internal@util@@CAXPAX@Z 0041ef80 f i UserManager.obj
 0001:0001df80       ?OnPause@ServiceApp@@MAEXXZ 0041ef80 f i main.obj
 0001:0001df80       ?Release@?$ISecureQueryCmdStreamBuiltinCmd@UsBUILTIN_002_A_PLUS_B_PLUS_C_RET@@$0A@@@UAEXXZ 0041ef80 f i MOLA_s:CryptManager.ISecureWorkNode.Server.obj
 0001:0001df80       ?OnInterrogate@ServiceApp@@MAEXXZ 0041ef80 f i main.obj
 0001:0001df80       ??1SolarSimpleConsole@@QAE@XZ 0041ef80 f i utility_s:SolarSimpleConsole.obj
 0001:0001df80       ?Destroy@?$VariableSizeChunkImpl@USTRUCT_GROUP_MEMBER_INFO@@@internal@util@@CAXPAX@Z 0041ef80 f i GroupManager.obj
 0001:0001df80       ?Release@ProhibitionWordParser@@UAEXXZ 0041ef80 f i programcommon_s:ProhibitionWordParser.obj
 0001:0001df80       ?Init@?$ISecureQueryCmdStreamBuiltinCmd@UsBUILTIN_001_A_PLUS_B_RET@@$0A@@@UAEXXZ 0041ef80 f i MOLA_s:CryptManager.ISecureWorkNode.Server.obj
 0001:0001df80       ?Release@?$ISecureQueryCmdStreamBuiltinCmd@UsBUILTIN_001_A_PLUS_B_RET@@$0A@@@UAEXXZ 0041ef80 f i MOLA_s:CryptManager.ISecureWorkNode.Server.obj
 0001:0001df80       ?Create@?$VariableSizeChunkImpl@USTRUCT_GROUP_MEMBER_INFO@@@internal@util@@CAXPAX@Z 0041ef80 f i GroupManager.obj
 0001:0001df80       ?Destroy@?$VariableSizeChunkImpl@USTRUCT_BLOCK_INFO@@@internal@util@@CAXPAX@Z 0041ef80 f i UserManager.obj
 0001:0001df80       ?Release@?$ISecureQueryCmdStreamBuiltinCmd@UsBUILTIN_002_A_PLUS_B_PLUS_C_PLUS_D_RET@@$0A@@@UAEXXZ 0041ef80 f i MOLA_s:CryptManager.ISecureWorkNode.Server.obj
 0001:0001df80       ?Destroy@?$VariableSizeChunkImpl@USTRUCT_FRIEND_INFO@@@internal@util@@CAXPAX@Z 0041ef80 f i UserManager.obj
 0001:0001df80       ??1SolarFileReader@util@@QAE@XZ 0041ef80 f i utility_s:SolarFileReader.obj
 0001:0001df80       ?OnShutDown@ServiceApp@@MAEXXZ 0041ef80 f i servercommon:ServiceApp.obj
 0001:0001df80       ??3@YAXPAX0@Z              0041ef80 f i WorldServer.obj
 0001:0001df80       ?Create@?$VariableSizeChunkImpl@USTRUCT_BLOCK_INFO@@@internal@util@@CAXPAX@Z 0041ef80 f i UserManager.obj
 0001:0001df80       ?OnExit@LottoState@@UAEXXZ 0041ef80 f i Lotto.obj
 0001:0001df80       ?OnRedirect@User@@UAEXXZ   0041ef80 f i ActiveUser.obj
 0001:0001df80       ?Release@ISecureQueryCmdStreamBase@@UAEXXZ 0041ef80 f i MOLA_s:CryptManager.ISecureWorkNode.obj
 0001:0001df90       ?Alloc@?$NotUseChunkImpl@USTRUCT_REVENGE_INFO@@@internal@util@@UAEPAXXZ 0041ef90 f i UserManager.obj
 0001:0001dfc0       ?Free@?$NotUseChunkImpl@VNODE@?$CLinkedlist@PAVBaseZone@@K@util@@@internal@util@@UAEXQAX@Z 0041efc0 f i BaseZone.obj
 0001:0001dfc0       ?Free@?$NotUseChunkImpl@USTRUCT_FRIEND_INFO@@@internal@util@@UAEXQAX@Z 0041efc0 f i UserManager.obj
 0001:0001dfc0       ?Free@?$NotUseChunkImpl@USTRUCT_BLOCK_INFO@@@internal@util@@UAEXQAX@Z 0041efc0 f i UserManager.obj
 0001:0001dfc0       ?Free@?$NotUseChunkImpl@VNODE@?$CLinkedlist@PAVSectorInfo@@K@util@@@internal@util@@UAEXQAX@Z 0041efc0 f i FieldInfo.obj
 0001:0001dfc0       ?Free@?$NotUseChunkImpl@USTRUCT_REVENGE_INFO@@@internal@util@@UAEXQAX@Z 0041efc0 f i UserManager.obj
 0001:0001dfc0       ?Free@?$NotUseChunkImpl@USTRUCT_GROUP_MEMBER_INFO@@@internal@util@@UAEXQAX@Z 0041efc0 f i GroupManager.obj
 0001:0001dfe0       ??0?$VariableSizeChunkImpl@USTRUCT_REVENGE_INFO@@@internal@util@@QAE@XZ 0041efe0 f i UserManager.obj
 0001:0001e040       ??1?$VariableSizeChunkImpl@USTRUCT_REVENGE_INFO@@@internal@util@@UAE@XZ 0041f040 f i UserManager.obj
 0001:0001e0b0       ??_G?$VariableSizeChunkImpl@USTRUCT_REVENGE_INFO@@@internal@util@@UAEPAXI@Z 0041f0b0 f i UserManager.obj
 0001:0001e0b0       ??_E?$VariableSizeChunkImpl@USTRUCT_REVENGE_INFO@@@internal@util@@UAEPAXI@Z 0041f0b0 f i UserManager.obj
 0001:0001e0d0       ??1?$CMemoryPoolFactory@USTRUCT_REVENGE_INFO@@@util@@UAE@XZ 0041f0d0 f i UserManager.obj
 0001:0001e140       ??_E?$CMemoryPoolFactory@USTRUCT_FRIEND_INFO@@@util@@UAEPAXI@Z 0041f140 f i UserManager.obj
 0001:0001e140       ??_G?$CMemoryPoolFactory@USTRUCT_FRIEND_INFO@@@util@@UAEPAXI@Z 0041f140 f i UserManager.obj
 0001:0001e160       ??_E?$CMemoryPoolFactory@USTRUCT_BLOCK_INFO@@@util@@UAEPAXI@Z 0041f160 f i UserManager.obj
 0001:0001e160       ??_G?$CMemoryPoolFactory@USTRUCT_BLOCK_INFO@@@util@@UAEPAXI@Z 0041f160 f i UserManager.obj
 0001:0001e180       ??_G?$CMemoryPoolFactory@USTRUCT_REVENGE_INFO@@@util@@UAEPAXI@Z 0041f180 f i UserManager.obj
 0001:0001e180       ??_E?$CMemoryPoolFactory@USTRUCT_REVENGE_INFO@@@util@@UAEPAXI@Z 0041f180 f i UserManager.obj
 0001:0001e1a0       ?_Copy@?$_Tree@V?$_Tmap_traits@KPAVUser@@U?$less@K@std@@V?$CustomAllocator@PAVUser@@@util@@$0A@@std@@@std@@IAEXABV12@@Z 0041f1a0 f i UserManager.obj
 0001:0001e1a0       ?_Copy@?$_Tree@V?$_Tmap_traits@KPAVServerSession@@U?$less@K@std@@V?$CustomAllocator@PAVServerSession@@@util@@$0A@@std@@@std@@IAEXABV12@@Z 0041f1a0 f i WorldServer.obj
 0001:0001e220       ?find@?$_Tree@V?$_Tmap_traits@KV?$chunk_map@KPAVUser@@U?$less@K@std@@@util@@U?$less@K@std@@V?$CustomAllocator@V?$chunk_map@KPAVUser@@U?$less@K@std@@@util@@@2@$0A@@std@@@std@@QAE?AViterator@12@ABK@Z 0041f220 f i UserManager.obj
 0001:0001e2b0       ?erase@?$vector@PAVUser@@V?$CustomAllocator@PAVUser@@@util@@@std@@QAE?AV?$_Vector_iterator@PAVUser@@V?$CustomAllocator@PAVUser@@@util@@@2@V?$_Vector_const_iterator@PAVUser@@V?$CustomAllocator@PAVUser@@@util@@@2@@Z 0041f2b0 f i UserManager.obj
 0001:0001e310       ?Alloc@?$FixedSizeChunkImpl@USTRUCT_FRIEND_INFO@@@internal@util@@UAEPAXXZ 0041f310 f i UserManager.obj
 0001:0001e350       ?Alloc@?$FixedSizeChunkImpl@USTRUCT_BLOCK_INFO@@@internal@util@@UAEPAXXZ 0041f350 f i UserManager.obj
 0001:0001e390       ?Alloc@?$FixedSizeChunkImpl@USTRUCT_REVENGE_INFO@@@internal@util@@UAEPAXXZ 0041f390 f i UserManager.obj
 0001:0001e3d0       ??_E?$FixedSizeChunkImpl@USTRUCT_FRIEND_INFO@@@internal@util@@UAEPAXI@Z 0041f3d0 f i UserManager.obj
 0001:0001e3d0       ??_G?$FixedSizeChunkImpl@USTRUCT_FRIEND_INFO@@@internal@util@@UAEPAXI@Z 0041f3d0 f i UserManager.obj
 0001:0001e400       ??_E?$FixedSizeChunkImpl@USTRUCT_BLOCK_INFO@@@internal@util@@UAEPAXI@Z 0041f400 f i UserManager.obj
 0001:0001e400       ??_G?$FixedSizeChunkImpl@USTRUCT_BLOCK_INFO@@@internal@util@@UAEPAXI@Z 0041f400 f i UserManager.obj
 0001:0001e430       ??_E?$FixedSizeChunkImpl@USTRUCT_REVENGE_INFO@@@internal@util@@UAEPAXI@Z 0041f430 f i UserManager.obj
 0001:0001e430       ??_G?$FixedSizeChunkImpl@USTRUCT_REVENGE_INFO@@@internal@util@@UAEPAXI@Z 0041f430 f i UserManager.obj
 0001:0001e460       ?CreateImpl@?$CMemoryPoolFactory@USTRUCT_FRIEND_INFO@@@util@@QAEXH@Z 0041f460 f i UserManager.obj
 0001:0001e580       ?CreateImpl@?$CMemoryPoolFactory@USTRUCT_BLOCK_INFO@@@util@@QAEXH@Z 0041f580 f i UserManager.obj
 0001:0001e6a0       ?CreateImpl@?$CMemoryPoolFactory@USTRUCT_REVENGE_INFO@@@util@@QAEXH@Z 0041f6a0 f i UserManager.obj
 0001:0001e7c0       ??0?$_Tree@V?$_Tmap_traits@KV?$chunk_map@KPAVUser@@U?$less@K@std@@@util@@U?$less@K@std@@V?$CustomAllocator@V?$chunk_map@KPAVUser@@U?$less@K@std@@@util@@@2@$0A@@std@@@std@@QAE@ABU?$less@K@1@ABV?$CustomAllocator@U?$pair@$$CBKV?$chunk_map@KPAVUser@@U?$less@K@std@@@util@@@std@@@util@@@Z 0041f7c0 f i UserManager.obj
 0001:0001e850       ?Initialize@?$CMemoryPoolFactory@USTRUCT_FRIEND_INFO@@@util@@UAE_NIIPBDPAX@Z 0041f850 f i UserManager.obj
 0001:0001e880       ?Initialize@?$CMemoryPoolFactory@USTRUCT_BLOCK_INFO@@@util@@UAE_NIIPBDPAX@Z 0041f880 f i UserManager.obj
 0001:0001e8b0       ?Initialize@?$CMemoryPoolFactory@USTRUCT_REVENGE_INFO@@@util@@UAE_NIIPBDPAX@Z 0041f8b0 f i UserManager.obj
 0001:0001e8e0       ??0?$_Tree@V?$_Tmap_traits@KPAVServerSession@@U?$less@K@std@@V?$CustomAllocator@PAVServerSession@@@util@@$0A@@std@@@std@@QAE@ABV01@@Z 0041f8e0 f i WorldServer.obj
 0001:0001e8e0       ??0?$_Tree@V?$_Tmap_traits@KPAVUser@@U?$less@K@std@@V?$CustomAllocator@PAVUser@@@util@@$0A@@std@@@std@@QAE@ABV01@@Z 0041f8e0 f i UserManager.obj
 0001:0001e990       ?push_back@?$vector@PAVUser@@V?$CustomAllocator@PAVUser@@@util@@@std@@QAEXABQAVUser@@@Z 0041f990 f i UserManager.obj
 0001:0001ea00       ??1?$pair@$$CBKV?$chunk_map@KPAVUser@@U?$less@K@std@@@util@@@std@@QAE@XZ 0041fa00 f i UserManager.obj
 0001:0001ea00       ??1?$pair@KV?$chunk_map@KPAVUser@@U?$less@K@std@@@util@@@std@@QAE@XZ 0041fa00 f i UserManager.obj
 0001:0001ea10       ?erase@?$_Tree@V?$_Tmap_traits@KV?$chunk_map@KPAVUser@@U?$less@K@std@@@util@@U?$less@K@std@@V?$CustomAllocator@V?$chunk_map@KPAVUser@@U?$less@K@std@@@util@@@2@$0A@@std@@@std@@QAE?AViterator@12@Vconst_iterator@12@@Z 0041fa10 f i UserManager.obj
 0001:0001ecf0       ?_Erase@?$_Tree@V?$_Tmap_traits@KV?$chunk_map@KPAVUser@@U?$less@K@std@@@util@@U?$less@K@std@@V?$CustomAllocator@V?$chunk_map@KPAVUser@@U?$less@K@std@@@util@@@2@$0A@@std@@@std@@IAEXPAU_Node@?$_Tree_nod@V?$_Tmap_traits@KV?$chunk_map@KPAVUser@@U?$less@K@std@@@util@@U?$less@K@std@@V?$CustomAllocator@V?$chunk_map@KPAVUser@@U?$less@K@std@@@util@@@2@$0A@@std@@@2@@Z 0041fcf0 f i UserManager.obj
 0001:0001ed30       ?_Buynode@?$_Tree@V?$_Tmap_traits@KV?$chunk_map@KPAVUser@@U?$less@K@std@@@util@@U?$less@K@std@@V?$CustomAllocator@V?$chunk_map@KPAVUser@@U?$less@K@std@@@util@@@2@$0A@@std@@@std@@IAEPAU_Node@?$_Tree_nod@V?$_Tmap_traits@KV?$chunk_map@KPAVUser@@U?$less@K@std@@@util@@U?$less@K@std@@V?$CustomAllocator@V?$chunk_map@KPAVUser@@U?$less@K@std@@@util@@@2@$0A@@std@@@2@PAU342@00ABU?$pair@$$CBKV?$chunk_map@KPAVUser@@U?$less@K@std@@@util@@@2@D@Z 0041fd30 f i UserManager.obj
 0001:0001ede0       ?_Insert@?$_Tree@V?$_Tmap_traits@KV?$chunk_map@KPAVUser@@U?$less@K@std@@@util@@U?$less@K@std@@V?$CustomAllocator@V?$chunk_map@KPAVUser@@U?$less@K@std@@@util@@@2@$0A@@std@@@std@@IAE?AViterator@12@_NPAU_Node@?$_Tree_nod@V?$_Tmap_traits@KV?$chunk_map@KPAVUser@@U?$less@K@std@@@util@@U?$less@K@std@@V?$CustomAllocator@V?$chunk_map@KPAVUser@@U?$less@K@std@@@util@@@2@$0A@@std@@@2@ABU?$pair@$$CBKV?$chunk_map@KPAVUser@@U?$less@K@std@@@util@@@2@@Z 0041fde0 f i UserManager.obj
 0001:0001efe0       ?erase@?$_Tree@V?$_Tmap_traits@KV?$chunk_map@KPAVUser@@U?$less@K@std@@@util@@U?$less@K@std@@V?$CustomAllocator@V?$chunk_map@KPAVUser@@U?$less@K@std@@@util@@@2@$0A@@std@@@std@@QAE?AViterator@12@Vconst_iterator@12@0@Z 0041ffe0 f i UserManager.obj
 0001:0001f0c0       ?insert@?$_Tree@V?$_Tmap_traits@KV?$chunk_map@KPAVUser@@U?$less@K@std@@@util@@U?$less@K@std@@V?$CustomAllocator@V?$chunk_map@KPAVUser@@U?$less@K@std@@@util@@@2@$0A@@std@@@std@@QAE?AU?$pair@Viterator@?$_Tree@V?$_Tmap_traits@KV?$chunk_map@KPAVUser@@U?$less@K@std@@@util@@U?$less@K@std@@V?$CustomAllocator@V?$chunk_map@KPAVUser@@U?$less@K@std@@@util@@@2@$0A@@std@@@std@@_N@2@ABU?$pair@$$CBKV?$chunk_map@KPAVUser@@U?$less@K@std@@@util@@@2@@Z 004200c0 f i UserManager.obj
 0001:0001f1b0       ??1?$_Tree@V?$_Tmap_traits@KV?$chunk_map@KPAVUser@@U?$less@K@std@@@util@@U?$less@K@std@@V?$CustomAllocator@V?$chunk_map@KPAVUser@@U?$less@K@std@@@util@@@2@$0A@@std@@@std@@QAE@XZ 004201b0 f i UserManager.obj
 0001:0001f230       ??1?$chunk_map@KV?$chunk_map@KPAVUser@@U?$less@K@std@@@util@@U?$less@K@std@@@util@@QAE@XZ 00420230 f i UserManager.obj
 0001:0001f240       ?Init@WaitingUserList@@QAEXXZ 00420240 f   WaitingUserList.obj
 0001:0001f250       ?RemoveUser@WaitingUserList@@QAEXK@Z 00420250 f   WaitingUserList.obj
 0001:0001f310       ?FindUserWithAuthID@WaitingUserList@@QAEPAVUser@@K@Z 00420310 f   WaitingUserList.obj
 0001:0001f380       ?FindUserWithGuid@WaitingUserList@@QAEPAVUser@@K@Z 00420380 f   WaitingUserList.obj
 0001:0001f3f0       ??1WaitingUserList@@QAE@XZ 004203f0 f   WaitingUserList.obj
 0001:0001f480       ?Update@WaitingUserList@@QAEXXZ 00420480 f   WaitingUserList.obj
 0001:0001f6b0       ?Release@WaitingUserList@@QAEXXZ 004206b0 f   WaitingUserList.obj
 0001:0001f6d0       ?AddUser@WaitingUserList@@QAEXKPAVUser@@@Z 004206d0 f   WaitingUserList.obj
 0001:0001f760       ??0WaitingUserList@@QAE@XZ 00420760 f   WaitingUserList.obj
 0001:0001f7d0       ?Clear@FriendMap@@QAEXXZ   004207d0 f   FriendMap.obj
 0001:0001f8a0       ?GetFirstFriend@FriendMap@@QAEPAUSTRUCT_FRIEND_INFO@@XZ 004208a0 f   FriendMap.obj
 0001:0001f900       ?GetNextFriend@FriendMap@@QAEPAUSTRUCT_FRIEND_INFO@@XZ 00420900 f   FriendMap.obj
 0001:0001f980       ?FindFriend@FriendMap@@QAEPAUSTRUCT_FRIEND_INFO@@PAD@Z 00420980 f   FriendMap.obj
 0001:0001fa40       ?init@FriendMap@@QAEXXZ    00420a40 f   FriendMap.obj
 0001:0001fa60       ?FindFriend@FriendMap@@QAEPAUSTRUCT_FRIEND_INFO@@K@Z 00420a60 f   FriendMap.obj
 0001:0001fad0       ?RemoveFriend@FriendMap@@QAEHK@Z 00420ad0 f   FriendMap.obj
 0001:0001fb60       ?AddFriendInfo@FriendMap@@QAEHPAUSTRUCT_FRIEND_INFO@@@Z 00420b60 f   FriendMap.obj
 0001:0001fc10       ??1FriendMap@@QAE@XZ       00420c10 f   FriendMap.obj
 0001:0001fc20       ??0FriendMap@@QAE@XZ       00420c20 f   FriendMap.obj
 0001:0001fc50       ?Init@BaseZone@@QAEXXZ     00420c50 f   BaseZone.obj
 0001:0001fc60       ?SendToAll@ViewPortZone@@UAEXPAEG@Z 00420c60 f   BaseZone.obj
 0001:0001fc70       ?GetFieldCode@VillageZone@@QAEKXZ 00420c70 f   BaseZone.obj
 0001:0001fc80       ?Send@VillageZone@@UAEHPAEG@Z 00420c80 f   BaseZone.obj
 0001:0001fc90       ?SetChatRoomName@CommChatZone@@QAEXPAD@Z 00420c90 f   BaseZone.obj
 0001:0001fcc0       ?AddLinkedZone@BaseZone@@QAEXPAV1@@Z 00420cc0 f   BaseZone.obj
 0001:0001fd10       ?SendLinkedZone@ChatZone@@MAEXPAEG@Z 00420d10 f   BaseZone.obj
 0001:0001fd50       ?Send@ViewPortZone@@UAEHPAEG@Z 00420d50 f   BaseZone.obj
 0001:0001fda0       ?Send@ChatZone@@UAEHPAEG@Z 00420da0 f   BaseZone.obj
 0001:0001fe30       ?SendToMe@ViewPortZone@@UAEXPAEG@Z 00420e30 f   BaseZone.obj
 0001:0001fec0       ?SendToMe@VillageZone@@UAEXPAEG@Z 00420ec0 f   BaseZone.obj
 0001:0001fed0       ?SendLinkedZone@VillageZone@@MAEXPAEG@Z 00420ed0 f   BaseZone.obj
 0001:0001ff70       ?GetPartyVoiceChatInfo@CommChatZone@@QAEEPAEPAVUser@@@Z 00420f70 f   BaseZone.obj
 0001:00020050       ?GetFirstUserName@CommChatZone@@QAEHPAD@Z 00421050 f   BaseZone.obj
 0001:000200e0       ?GetNextUserName@CommChatZone@@QAEHPAD@Z 004210e0 f   BaseZone.obj
 0001:000201d0       ?RemoveUser@ChatZone@@UAEHK@Z 004211d0 f   BaseZone.obj
 0001:000202b0       ?RemoveUser@ViewPortZone@@UAEHK@Z 004212b0 f   BaseZone.obj
 0001:00020390       ?RemoveBattleLinkedZone@VillageZone@@QAEXPAVChatZone@@@Z 00421390 f   BaseZone.obj
 0001:00020440       ?RemoveUser@CommChatZone@@UAEHK@Z 00421440 f   BaseZone.obj
 0001:00020510       ?RemoveUser@VillageZone@@UAEHK@Z 00421510 f   BaseZone.obj
 0001:00020650       ??1BaseZone@@UAE@XZ        00421650 f   BaseZone.obj
 0001:00020710       ??1ChatZone@@UAE@XZ        00421710 f   BaseZone.obj
 0001:00020720       ??1ViewPortZone@@UAE@XZ    00421720 f   BaseZone.obj
 0001:00020740       ??1CommChatZone@@UAE@XZ    00421740 f   BaseZone.obj
 0001:00020750       ?Release@BaseZone@@UAEXXZ  00421750 f   BaseZone.obj
 0001:00020770       ?AddUser@ChatZone@@UAEHKPAVUser@@K@Z 00421770 f   BaseZone.obj
 0001:000208a0       ?AddUser@ViewPortZone@@UAEHKPAVUser@@K@Z 004218a0 f   BaseZone.obj
 0001:00020970       ??1VillageZone@@UAE@XZ     00421970 f   BaseZone.obj
 0001:00020a70       ?Init@VillageZone@@QAEXGPAVFieldInfo@@@Z 00421a70 f   BaseZone.obj
 0001:00020c80       ?Release@VillageZone@@UAEXXZ 00421c80 f   BaseZone.obj
 0001:00020d40       ?AddUser@VillageZone@@UAEHKPAVUser@@K@Z 00421d40 f   BaseZone.obj
 0001:00020f10       ?AddBattleLinkedZone@VillageZone@@QAEXPAVChatZone@@@Z 00421f10 f   BaseZone.obj
 0001:00020f50       ?Release@CommChatZone@@UAEXXZ 00421f50 f   BaseZone.obj
 0001:00020fe0       ?AddUser@CommChatZone@@UAEHKPAVUser@@K@Z 00421fe0 f   BaseZone.obj
 0001:000210a0       ??0BaseZone@@QAE@XZ        004220a0 f   BaseZone.obj
 0001:00021150       ??0ChatZone@@QAE@XZ        00422150 f   BaseZone.obj
 0001:00021170       ??0ViewPortZone@@QAE@XZ    00422170 f   BaseZone.obj
 0001:00021190       ??0VillageZone@@QAE@XZ     00422190 f   BaseZone.obj
 0001:00021220       ??0CommChatZone@@QAE@XZ    00422220 f   BaseZone.obj
 0001:00021260       ??1?$CLinkedlist@PAVBaseZone@@K@util@@UAE@XZ 00422260 f i BaseZone.obj
 0001:00021290       ??_E?$CLinkedlist@PAVBaseZone@@K@util@@UAEPAXI@Z 00422290 f i BaseZone.obj
 0001:00021290       ??_G?$CLinkedlist@PAVBaseZone@@K@util@@UAEPAXI@Z 00422290 f i BaseZone.obj
 0001:000212d0       ?_Hashval@?$_Hash@V?$_Hmap_traits@KPBVMapGroupBase@@V?$hash_compare@KU?$less@K@std@@@stdext@@V?$CustomAllocator@PBVMapGroupBase@@@util@@$0A@@stdext@@@stdext@@IBEIABK@Z 004222d0 f i programcommon_s:MapInfoParser.obj
 0001:000212d0       ?_Hashval@?$_Hash@V?$_Hmap_traits@KPAVBASE_FUNC@util@@V?$hash_compare@KU?$less@K@std@@@stdext@@V?$allocator@U?$pair@$$CBKPAVBASE_FUNC@util@@@std@@@std@@$0A@@stdext@@@stdext@@IBEIABK@Z 004222d0 f i PacketHandler.obj
 0001:000212d0       ?_Hashval@?$_Hash@V?$_Hmap_traits@KPBUsMAPINFO_BASE@@V?$hash_compare@KU?$less@K@std@@@stdext@@V?$CustomAllocator@PBUsMAPINFO_BASE@@@util@@$0A@@stdext@@@stdext@@IBEIABK@Z 004222d0 f i programcommon_s:MapInfoParser.obj
 0001:000212d0       ?_Hashval@?$_Hash@V?$_Hmap_traits@HULottoEntry@@V?$hash_compare@HU?$less@H@std@@@stdext@@V?$allocator@U?$pair@$$CBHULottoEntry@@@std@@@std@@$0A@@stdext@@@stdext@@IBEIABH@Z 004222d0 f i Lotto.obj
 0001:000212d0       ?_Hashval@?$_Hash@V?$_Hmap_traits@KPAVViewPortZone@@V?$hash_compare@KU?$less@K@std@@@stdext@@V?$CustomAllocator@PAVViewPortZone@@@util@@$0A@@stdext@@@stdext@@IBEIABK@Z 004222d0 f i BaseZone.obj
 0001:000212d0       ?_Hashval@?$_Hash@V?$_Hmap_traits@KPAVBaseZone@@V?$hash_compare@KU?$less@K@std@@@stdext@@V?$CustomAllocator@PAVBaseZone@@@util@@$0A@@stdext@@@stdext@@IBEIABK@Z 004222d0 f i BaseZone.obj
 0001:000212d0       ?_Hashval@?$_Hash@V?$_Hmap_traits@KPBUsWMOINFO_BASE@@V?$hash_compare@KU?$less@K@std@@@stdext@@V?$CustomAllocator@PBUsWMOINFO_BASE@@@util@@$0A@@stdext@@@stdext@@IBEIABK@Z 004222d0 f i programcommon_s:MapInfoParser.obj
 0001:000212d0       ?_Hashval@?$_Hash@V?$_Hmap_traits@KPBUsWUTINFO_BASE@@V?$hash_compare@KU?$less@K@std@@@stdext@@V?$CustomAllocator@PBUsWUTINFO_BASE@@@util@@$0A@@stdext@@@stdext@@IBEIABK@Z 004222d0 f i programcommon_s:MapInfoParser.obj
 0001:000212d0       ?_Hashval@?$_Hash@V?$_Hmap_traits@KPAVChatZone@@V?$hash_compare@KU?$less@K@std@@@stdext@@V?$CustomAllocator@PAVChatZone@@@util@@$0A@@stdext@@@stdext@@IBEIABK@Z 004222d0 f i Channel.obj
 0001:000212d0       ?_Hashval@?$_Hash@V?$_Hmap_traits@W4eITEMTYPE@@USPECIAL_ITEM_INFO@@V?$hash_compare@W4eITEMTYPE@@U?$less@W4eITEMTYPE@@@std@@@stdext@@V?$CustomAllocator@USPECIAL_ITEM_INFO@@@util@@$0A@@stdext@@@stdext@@IBEIABW4eITEMTYPE@@@Z 004222d0 f i servercommon:ItemOwnFlag.obj
 0001:000212d0       ?_Hashval@?$_Hash@V?$_Hmap_traits@KPAVVillageZone@@V?$hash_compare@KU?$less@K@std@@@stdext@@V?$CustomAllocator@PAVVillageZone@@@util@@$0A@@stdext@@@stdext@@IBEIABK@Z 004222d0 f i Channel.obj
 0001:000212d0       ?_Hashval@?$_Hash@V?$_Hmap_traits@KPAVUser@@V?$hash_compare@KU?$less@K@std@@@stdext@@V?$CustomAllocator@PAVUser@@@util@@$0A@@stdext@@@stdext@@IBEIABK@Z 004222d0 f i GuidUserList.obj
 0001:000212d0       ?_Hashval@?$_Hash@V?$_Hmap_traits@KPBUsFIELDINFO_BASE@@V?$hash_compare@KU?$less@K@std@@@stdext@@V?$CustomAllocator@PBUsFIELDINFO_BASE@@@util@@$0A@@stdext@@@stdext@@IBEIABK@Z 004222d0 f i programcommon_s:MapInfoParser.obj
 0001:00021330       ?_Buynode@?$list@U?$pair@$$CBKPBVMapGroupBase@@@std@@V?$CustomAllocator@U?$pair@$$CBKPBVMapGroupBase@@@std@@@util@@@std@@IAEPAU_Node@?$_List_nod@U?$pair@$$CBKPBVMapGroupBase@@@std@@V?$CustomAllocator@U?$pair@$$CBKPBVMapGroupBase@@@std@@@util@@@2@PAU342@0ABU?$pair@$$CBKPBVMapGroupBase@@@2@@Z 00422330 f i programcommon_s:MapInfoParser.obj
 0001:00021330       ?_Buynode@?$list@U?$pair@$$CBKPAVVillageZone@@@std@@V?$CustomAllocator@U?$pair@$$CBKPAVVillageZone@@@std@@@util@@@std@@IAEPAU_Node@?$_List_nod@U?$pair@$$CBKPAVVillageZone@@@std@@V?$CustomAllocator@U?$pair@$$CBKPAVVillageZone@@@std@@@util@@@2@PAU342@0ABU?$pair@$$CBKPAVVillageZone@@@2@@Z 00422330 f i Channel.obj
 0001:00021330       ?_Buynode@?$list@U?$pair@$$CBKPBUsWUTINFO_BASE@@@std@@V?$CustomAllocator@U?$pair@$$CBKPBUsWUTINFO_BASE@@@std@@@util@@@std@@IAEPAU_Node@?$_List_nod@U?$pair@$$CBKPBUsWUTINFO_BASE@@@std@@V?$CustomAllocator@U?$pair@$$CBKPBUsWUTINFO_BASE@@@std@@@util@@@2@PAU342@0ABU?$pair@$$CBKPBUsWUTINFO_BASE@@@2@@Z 00422330 f i programcommon_s:MapInfoParser.obj
 0001:00021330       ?_Buynode@?$list@U?$pair@$$CBKPAVViewPortZone@@@std@@V?$CustomAllocator@U?$pair@$$CBKPAVViewPortZone@@@std@@@util@@@std@@IAEPAU_Node@?$_List_nod@U?$pair@$$CBKPAVViewPortZone@@@std@@V?$CustomAllocator@U?$pair@$$CBKPAVViewPortZone@@@std@@@util@@@2@PAU342@0ABU?$pair@$$CBKPAVViewPortZone@@@2@@Z 00422330 f i BaseZone.obj
 0001:00021330       ?_Buynode@?$list@U?$pair@$$CBKPAVChatZone@@@std@@V?$CustomAllocator@U?$pair@$$CBKPAVChatZone@@@std@@@util@@@std@@IAEPAU_Node@?$_List_nod@U?$pair@$$CBKPAVChatZone@@@std@@V?$CustomAllocator@U?$pair@$$CBKPAVChatZone@@@std@@@util@@@2@PAU342@0ABU?$pair@$$CBKPAVChatZone@@@2@@Z 00422330 f i Channel.obj
 0001:00021330       ?_Buynode@?$list@U?$pair@$$CBKPBUsWMOINFO_BASE@@@std@@V?$CustomAllocator@U?$pair@$$CBKPBUsWMOINFO_BASE@@@std@@@util@@@std@@IAEPAU_Node@?$_List_nod@U?$pair@$$CBKPBUsWMOINFO_BASE@@@std@@V?$CustomAllocator@U?$pair@$$CBKPBUsWMOINFO_BASE@@@std@@@util@@@2@PAU342@0ABU?$pair@$$CBKPBUsWMOINFO_BASE@@@2@@Z 00422330 f i programcommon_s:MapInfoParser.obj
 0001:00021330       ?_Buynode@?$list@U?$pair@$$CBKPAVUser@@@std@@V?$CustomAllocator@U?$pair@$$CBKPAVUser@@@std@@@util@@@std@@IAEPAU_Node@?$_List_nod@U?$pair@$$CBKPAVUser@@@std@@V?$CustomAllocator@U?$pair@$$CBKPAVUser@@@std@@@util@@@2@PAU342@0ABU?$pair@$$CBKPAVUser@@@2@@Z 00422330 f i GuidUserList.obj
 0001:00021330       ?_Buynode@?$list@U?$pair@$$CBKPAVBaseZone@@@std@@V?$CustomAllocator@U?$pair@$$CBKPAVBaseZone@@@std@@@util@@@std@@IAEPAU_Node@?$_List_nod@U?$pair@$$CBKPAVBaseZone@@@std@@V?$CustomAllocator@U?$pair@$$CBKPAVBaseZone@@@std@@@util@@@2@PAU342@0ABU?$pair@$$CBKPAVBaseZone@@@2@@Z 00422330 f i BaseZone.obj
 0001:00021330       ?_Buynode@?$list@U?$pair@$$CBKPBUsMAPINFO_BASE@@@std@@V?$CustomAllocator@U?$pair@$$CBKPBUsMAPINFO_BASE@@@std@@@util@@@std@@IAEPAU_Node@?$_List_nod@U?$pair@$$CBKPBUsMAPINFO_BASE@@@std@@V?$CustomAllocator@U?$pair@$$CBKPBUsMAPINFO_BASE@@@std@@@util@@@2@PAU342@0ABU?$pair@$$CBKPBUsMAPINFO_BASE@@@2@@Z 00422330 f i programcommon_s:MapInfoParser.obj
 0001:00021330       ?_Buynode@?$list@U?$pair@$$CBKPBUsFIELDINFO_BASE@@@std@@V?$CustomAllocator@U?$pair@$$CBKPBUsFIELDINFO_BASE@@@std@@@util@@@std@@IAEPAU_Node@?$_List_nod@U?$pair@$$CBKPBUsFIELDINFO_BASE@@@std@@V?$CustomAllocator@U?$pair@$$CBKPBUsFIELDINFO_BASE@@@std@@@util@@@2@PAU342@0ABU?$pair@$$CBKPBUsFIELDINFO_BASE@@@2@@Z 00422330 f i programcommon_s:MapInfoParser.obj
 0001:00021370       ??$_Uninit_fill_n@PAU_List_position@?$_Hash@V?$_Hmap_traits@KPAVUser@@V?$hash_compare@KU?$less@K@std@@@stdext@@V?$CustomAllocator@PAVUser@@@util@@$0A@@stdext@@@stdext@@IU123@V?$CustomAllocator@U_List_position@?$_Hash@V?$_Hmap_traits@KPAVUser@@V?$hash_compare@KU?$less@K@std@@@stdext@@V?$CustomAllocator@PAVUser@@@util@@$0A@@stdext@@@stdext@@@util@@@std@@YAXPAU_List_position@?$_Hash@V?$_Hmap_traits@KPAVUser@@V?$hash_compare@KU?$less@K@std@@@stdext@@V?$CustomAllocator@PAVUser@@@util@@$0A@@stdext@@@stdext@@IABU123@AAV?$CustomAllocator@U_List_position@?$_Hash@V?$_Hmap_traits@KPAVUser@@V?$hash_compare@KU?$less@K@std@@@stdext@@V?$CustomAllocator@PAVUser@@@util@@$0A@@stdext@@@stdext@@@util@@U_Nonscalar_ptr_iterator_tag@0@U_Range_checked_iterator_tag@0@@Z 00422370 f i GuidUserList.obj
 0001:00021370       ??$_Uninit_fill_n@PAU_List_position@?$_Hash@V?$_Hmap_traits@HULottoEntry@@V?$hash_compare@HU?$less@H@std@@@stdext@@V?$allocator@U?$pair@$$CBHULottoEntry@@@std@@@std@@$0A@@stdext@@@stdext@@IU123@V?$allocator@U_List_position@?$_Hash@V?$_Hmap_traits@HULottoEntry@@V?$hash_compare@HU?$less@H@std@@@stdext@@V?$allocator@U?$pair@$$CBHULottoEntry@@@std@@@std@@$0A@@stdext@@@stdext@@@std@@@std@@YAXPAU_List_position@?$_Hash@V?$_Hmap_traits@HULottoEntry@@V?$hash_compare@HU?$less@H@std@@@stdext@@V?$allocator@U?$pair@$$CBHULottoEntry@@@std@@@std@@$0A@@stdext@@@stdext@@IABU123@AAV?$allocator@U_List_position@?$_Hash@V?$_Hmap_traits@HULottoEntry@@V?$hash_compare@HU?$less@H@std@@@stdext@@V?$allocator@U?$pair@$$CBHULottoEntry@@@std@@@std@@$0A@@stdext@@@stdext@@@0@U_Nonscalar_ptr_iterator_tag@0@U_Range_checked_iterator_tag@0@@Z 00422370 f i Lotto.obj
 0001:00021370       ??$_Uninit_fill_n@PAU_List_position@?$_Hash@V?$_Hmap_traits@KPBUsWUTINFO_BASE@@V?$hash_compare@KU?$less@K@std@@@stdext@@V?$CustomAllocator@PBUsWUTINFO_BASE@@@util@@$0A@@stdext@@@stdext@@IU123@V?$CustomAllocator@U_List_position@?$_Hash@V?$_Hmap_traits@KPBUsWUTINFO_BASE@@V?$hash_compare@KU?$less@K@std@@@stdext@@V?$CustomAllocator@PBUsWUTINFO_BASE@@@util@@$0A@@stdext@@@stdext@@@util@@@std@@YAXPAU_List_position@?$_Hash@V?$_Hmap_traits@KPBUsWUTINFO_BASE@@V?$hash_compare@KU?$less@K@std@@@stdext@@V?$CustomAllocator@PBUsWUTINFO_BASE@@@util@@$0A@@stdext@@@stdext@@IABU123@AAV?$CustomAllocator@U_List_position@?$_Hash@V?$_Hmap_traits@KPBUsWUTINFO_BASE@@V?$hash_compare@KU?$less@K@std@@@stdext@@V?$CustomAllocator@PBUsWUTINFO_BASE@@@util@@$0A@@stdext@@@stdext@@@util@@U_Nonscalar_ptr_iterator_tag@0@U_Range_checked_iterator_tag@0@@Z 00422370 f i programcommon_s:MapInfoParser.obj
 0001:00021370       ??$_Uninit_fill_n@PAU_List_position@?$_Hash@V?$_Hmap_traits@KPAVViewPortZone@@V?$hash_compare@KU?$less@K@std@@@stdext@@V?$CustomAllocator@PAVViewPortZone@@@util@@$0A@@stdext@@@stdext@@IU123@V?$CustomAllocator@U_List_position@?$_Hash@V?$_Hmap_traits@KPAVViewPortZone@@V?$hash_compare@KU?$less@K@std@@@stdext@@V?$CustomAllocator@PAVViewPortZone@@@util@@$0A@@stdext@@@stdext@@@util@@@std@@YAXPAU_List_position@?$_Hash@V?$_Hmap_traits@KPAVViewPortZone@@V?$hash_compare@KU?$less@K@std@@@stdext@@V?$CustomAllocator@PAVViewPortZone@@@util@@$0A@@stdext@@@stdext@@IABU123@AAV?$CustomAllocator@U_List_position@?$_Hash@V?$_Hmap_traits@KPAVViewPortZone@@V?$hash_compare@KU?$less@K@std@@@stdext@@V?$CustomAllocator@PAVViewPortZone@@@util@@$0A@@stdext@@@stdext@@@util@@U_Nonscalar_ptr_iterator_tag@0@U_Range_checked_iterator_tag@0@@Z 00422370 f i BaseZone.obj
 0001:00021370       ??$_Uninit_fill_n@PAU_List_position@?$_Hash@V?$_Hmap_traits@KPBVMapGroupBase@@V?$hash_compare@KU?$less@K@std@@@stdext@@V?$CustomAllocator@PBVMapGroupBase@@@util@@$0A@@stdext@@@stdext@@IU123@V?$CustomAllocator@U_List_position@?$_Hash@V?$_Hmap_traits@KPBVMapGroupBase@@V?$hash_compare@KU?$less@K@std@@@stdext@@V?$CustomAllocator@PBVMapGroupBase@@@util@@$0A@@stdext@@@stdext@@@util@@@std@@YAXPAU_List_position@?$_Hash@V?$_Hmap_traits@KPBVMapGroupBase@@V?$hash_compare@KU?$less@K@std@@@stdext@@V?$CustomAllocator@PBVMapGroupBase@@@util@@$0A@@stdext@@@stdext@@IABU123@AAV?$CustomAllocator@U_List_position@?$_Hash@V?$_Hmap_traits@KPBVMapGroupBase@@V?$hash_compare@KU?$less@K@std@@@stdext@@V?$CustomAllocator@PBVMapGroupBase@@@util@@$0A@@stdext@@@stdext@@@util@@U_Nonscalar_ptr_iterator_tag@0@U_Range_checked_iterator_tag@0@@Z 00422370 f i programcommon_s:MapInfoParser.obj
 0001:00021370       ??$_Uninit_fill_n@PAU_List_position@?$_Hash@V?$_Hmap_traits@KPBUsFIELDINFO_BASE@@V?$hash_compare@KU?$less@K@std@@@stdext@@V?$CustomAllocator@PBUsFIELDINFO_BASE@@@util@@$0A@@stdext@@@stdext@@IU123@V?$CustomAllocator@U_List_position@?$_Hash@V?$_Hmap_traits@KPBUsFIELDINFO_BASE@@V?$hash_compare@KU?$less@K@std@@@stdext@@V?$CustomAllocator@PBUsFIELDINFO_BASE@@@util@@$0A@@stdext@@@stdext@@@util@@@std@@YAXPAU_List_position@?$_Hash@V?$_Hmap_traits@KPBUsFIELDINFO_BASE@@V?$hash_compare@KU?$less@K@std@@@stdext@@V?$CustomAllocator@PBUsFIELDINFO_BASE@@@util@@$0A@@stdext@@@stdext@@IABU123@AAV?$CustomAllocator@U_List_position@?$_Hash@V?$_Hmap_traits@KPBUsFIELDINFO_BASE@@V?$hash_compare@KU?$less@K@std@@@stdext@@V?$CustomAllocator@PBUsFIELDINFO_BASE@@@util@@$0A@@stdext@@@stdext@@@util@@U_Nonscalar_ptr_iterator_tag@0@U_Range_checked_iterator_tag@0@@Z 00422370 f i programcommon_s:MapInfoParser.obj
 0001:00021370       ??$_Uninit_fill_n@PAU_List_position@?$_Hash@V?$_Hmap_traits@KPAVBaseZone@@V?$hash_compare@KU?$less@K@std@@@stdext@@V?$CustomAllocator@PAVBaseZone@@@util@@$0A@@stdext@@@stdext@@IU123@V?$CustomAllocator@U_List_position@?$_Hash@V?$_Hmap_traits@KPAVBaseZone@@V?$hash_compare@KU?$less@K@std@@@stdext@@V?$CustomAllocator@PAVBaseZone@@@util@@$0A@@stdext@@@stdext@@@util@@@std@@YAXPAU_List_position@?$_Hash@V?$_Hmap_traits@KPAVBaseZone@@V?$hash_compare@KU?$less@K@std@@@stdext@@V?$CustomAllocator@PAVBaseZone@@@util@@$0A@@stdext@@@stdext@@IABU123@AAV?$CustomAllocator@U_List_position@?$_Hash@V?$_Hmap_traits@KPAVBaseZone@@V?$hash_compare@KU?$less@K@std@@@stdext@@V?$CustomAllocator@PAVBaseZone@@@util@@$0A@@stdext@@@stdext@@@util@@U_Nonscalar_ptr_iterator_tag@0@U_Range_checked_iterator_tag@0@@Z 00422370 f i BaseZone.obj
 0001:00021370       ??$_Uninit_fill_n@PAU_List_position@?$_Hash@V?$_Hmap_traits@KPAVChatZone@@V?$hash_compare@KU?$less@K@std@@@stdext@@V?$CustomAllocator@PAVChatZone@@@util@@$0A@@stdext@@@stdext@@IU123@V?$CustomAllocator@U_List_position@?$_Hash@V?$_Hmap_traits@KPAVChatZone@@V?$hash_compare@KU?$less@K@std@@@stdext@@V?$CustomAllocator@PAVChatZone@@@util@@$0A@@stdext@@@stdext@@@util@@@std@@YAXPAU_List_position@?$_Hash@V?$_Hmap_traits@KPAVChatZone@@V?$hash_compare@KU?$less@K@std@@@stdext@@V?$CustomAllocator@PAVChatZone@@@util@@$0A@@stdext@@@stdext@@IABU123@AAV?$CustomAllocator@U_List_position@?$_Hash@V?$_Hmap_traits@KPAVChatZone@@V?$hash_compare@KU?$less@K@std@@@stdext@@V?$CustomAllocator@PAVChatZone@@@util@@$0A@@stdext@@@stdext@@@util@@U_Nonscalar_ptr_iterator_tag@0@U_Range_checked_iterator_tag@0@@Z 00422370 f i Channel.obj
 0001:00021370       ??$_Uninit_fill_n@PAU_List_position@?$_Hash@V?$_Hmap_traits@W4eITEMTYPE@@USPECIAL_ITEM_INFO@@V?$hash_compare@W4eITEMTYPE@@U?$less@W4eITEMTYPE@@@std@@@stdext@@V?$CustomAllocator@USPECIAL_ITEM_INFO@@@util@@$0A@@stdext@@@stdext@@IU123@V?$CustomAllocator@U_List_position@?$_Hash@V?$_Hmap_traits@W4eITEMTYPE@@USPECIAL_ITEM_INFO@@V?$hash_compare@W4eITEMTYPE@@U?$less@W4eITEMTYPE@@@std@@@stdext@@V?$CustomAllocator@USPECIAL_ITEM_INFO@@@util@@$0A@@stdext@@@stdext@@@util@@@std@@YAXPAU_List_position@?$_Hash@V?$_Hmap_traits@W4eITEMTYPE@@USPECIAL_ITEM_INFO@@V?$hash_compare@W4eITEMTYPE@@U?$less@W4eITEMTYPE@@@std@@@stdext@@V?$CustomAllocator@USPECIAL_ITEM_INFO@@@util@@$0A@@stdext@@@stdext@@IABU123@AAV?$CustomAllocator@U_List_position@?$_Hash@V?$_Hmap_traits@W4eITEMTYPE@@USPECIAL_ITEM_INFO@@V?$hash_compare@W4eITEMTYPE@@U?$less@W4eITEMTYPE@@@std@@@stdext@@V?$CustomAllocator@USPECIAL_ITEM_INFO@@@util@@$0A@@stdext@@@stdext@@@util@@U_Nonscalar_ptr_iterator_tag@0@U_Range_checked_iterator_tag@0@@Z 00422370 f i User.obj
 0001:00021370       ??$_Uninit_fill_n@PAU_List_position@?$_Hash@V?$_Hmap_traits@KPAVBASE_FUNC@util@@V?$hash_compare@KU?$less@K@std@@@stdext@@V?$allocator@U?$pair@$$CBKPAVBASE_FUNC@util@@@std@@@std@@$0A@@stdext@@@stdext@@IU123@V?$allocator@U_List_position@?$_Hash@V?$_Hmap_traits@KPAVBASE_FUNC@util@@V?$hash_compare@KU?$less@K@std@@@stdext@@V?$allocator@U?$pair@$$CBKPAVBASE_FUNC@util@@@std@@@std@@$0A@@stdext@@@stdext@@@std@@@std@@YAXPAU_List_position@?$_Hash@V?$_Hmap_traits@KPAVBASE_FUNC@util@@V?$hash_compare@KU?$less@K@std@@@stdext@@V?$allocator@U?$pair@$$CBKPAVBASE_FUNC@util@@@std@@@std@@$0A@@stdext@@@stdext@@IABU123@AAV?$allocator@U_List_position@?$_Hash@V?$_Hmap_traits@KPAVBASE_FUNC@util@@V?$hash_compare@KU?$less@K@std@@@stdext@@V?$allocator@U?$pair@$$CBKPAVBASE_FUNC@util@@@std@@@std@@$0A@@stdext@@@stdext@@@0@U_Nonscalar_ptr_iterator_tag@0@U_Range_checked_iterator_tag@0@@Z 00422370 f i PacketHandler.obj
 0001:00021370       ??$_Uninit_fill_n@PAU_List_position@?$_Hash@V?$_Hmap_traits@KPBUsWMOINFO_BASE@@V?$hash_compare@KU?$less@K@std@@@stdext@@V?$CustomAllocator@PBUsWMOINFO_BASE@@@util@@$0A@@stdext@@@stdext@@IU123@V?$CustomAllocator@U_List_position@?$_Hash@V?$_Hmap_traits@KPBUsWMOINFO_BASE@@V?$hash_compare@KU?$less@K@std@@@stdext@@V?$CustomAllocator@PBUsWMOINFO_BASE@@@util@@$0A@@stdext@@@stdext@@@util@@@std@@YAXPAU_List_position@?$_Hash@V?$_Hmap_traits@KPBUsWMOINFO_BASE@@V?$hash_compare@KU?$less@K@std@@@stdext@@V?$CustomAllocator@PBUsWMOINFO_BASE@@@util@@$0A@@stdext@@@stdext@@IABU123@AAV?$CustomAllocator@U_List_position@?$_Hash@V?$_Hmap_traits@KPBUsWMOINFO_BASE@@V?$hash_compare@KU?$less@K@std@@@stdext@@V?$CustomAllocator@PBUsWMOINFO_BASE@@@util@@$0A@@stdext@@@stdext@@@util@@U_Nonscalar_ptr_iterator_tag@0@U_Range_checked_iterator_tag@0@@Z 00422370 f i programcommon_s:MapInfoParser.obj
 0001:00021370       ??$_Uninit_fill_n@PAU_List_position@?$_Hash@V?$_Hmap_traits@KPAVVillageZone@@V?$hash_compare@KU?$less@K@std@@@stdext@@V?$CustomAllocator@PAVVillageZone@@@util@@$0A@@stdext@@@stdext@@IU123@V?$CustomAllocator@U_List_position@?$_Hash@V?$_Hmap_traits@KPAVVillageZone@@V?$hash_compare@KU?$less@K@std@@@stdext@@V?$CustomAllocator@PAVVillageZone@@@util@@$0A@@stdext@@@stdext@@@util@@@std@@YAXPAU_List_position@?$_Hash@V?$_Hmap_traits@KPAVVillageZone@@V?$hash_compare@KU?$less@K@std@@@stdext@@V?$CustomAllocator@PAVVillageZone@@@util@@$0A@@stdext@@@stdext@@IABU123@AAV?$CustomAllocator@U_List_position@?$_Hash@V?$_Hmap_traits@KPAVVillageZone@@V?$hash_compare@KU?$less@K@std@@@stdext@@V?$CustomAllocator@PAVVillageZone@@@util@@$0A@@stdext@@@stdext@@@util@@U_Nonscalar_ptr_iterator_tag@0@U_Range_checked_iterator_tag@0@@Z 00422370 f i Channel.obj
 0001:00021370       ??$_Uninit_fill_n@PAU_List_position@?$_Hash@V?$_Hmap_traits@KPBUsMAPINFO_BASE@@V?$hash_compare@KU?$less@K@std@@@stdext@@V?$CustomAllocator@PBUsMAPINFO_BASE@@@util@@$0A@@stdext@@@stdext@@IU123@V?$CustomAllocator@U_List_position@?$_Hash@V?$_Hmap_traits@KPBUsMAPINFO_BASE@@V?$hash_compare@KU?$less@K@std@@@stdext@@V?$CustomAllocator@PBUsMAPINFO_BASE@@@util@@$0A@@stdext@@@stdext@@@util@@@std@@YAXPAU_List_position@?$_Hash@V?$_Hmap_traits@KPBUsMAPINFO_BASE@@V?$hash_compare@KU?$less@K@std@@@stdext@@V?$CustomAllocator@PBUsMAPINFO_BASE@@@util@@$0A@@stdext@@@stdext@@IABU123@AAV?$CustomAllocator@U_List_position@?$_Hash@V?$_Hmap_traits@KPBUsMAPINFO_BASE@@V?$hash_compare@KU?$less@K@std@@@stdext@@V?$CustomAllocator@PBUsMAPINFO_BASE@@@util@@$0A@@stdext@@@stdext@@@util@@U_Nonscalar_ptr_iterator_tag@0@U_Range_checked_iterator_tag@0@@Z 00422370 f i programcommon_s:MapInfoParser.obj
 0001:000213a0       ?Alloc@?$NotUseChunkImpl@VNODE@?$CLinkedlist@PAVSectorInfo@@K@util@@@internal@util@@UAEPAXXZ 004223a0 f i FieldInfo.obj
 0001:000213a0       ?Alloc@?$NotUseChunkImpl@VNODE@?$CLinkedlist@PAVBaseZone@@K@util@@@internal@util@@UAEPAXXZ 004223a0 f i BaseZone.obj
 0001:000213c0       ??0?$VariableSizeChunkImpl@VNODE@?$CLinkedlist@PAVBaseZone@@K@util@@@internal@util@@QAE@XZ 004223c0 f i BaseZone.obj
 0001:00021420       ?Initialize@?$VariableSizeChunkImpl@USTRUCT_GROUP_MEMBER_INFO@@@internal@util@@UAE_NIIPBD@Z 00422420 f i GroupManager.obj
 0001:00021420       ?Initialize@?$VariableSizeChunkImpl@USTRUCT_REVENGE_INFO@@@internal@util@@UAE_NIIPBD@Z 00422420 f i UserManager.obj
 0001:00021420       ?Initialize@?$VariableSizeChunkImpl@VChatZone@@@internal@util@@UAE_NIIPBD@Z 00422420 f i ZoneFactory.obj
 0001:00021420       ?Initialize@?$VariableSizeChunkImpl@VNODE@?$CLinkedlist@PAVSectorInfo@@K@util@@@internal@util@@UAE_NIIPBD@Z 00422420 f i FieldInfo.obj
 0001:00021420       ?Initialize@?$VariableSizeChunkImpl@VWorldGuildMember@@@internal@util@@UAE_NIIPBD@Z 00422420 f i WorldGuildMember.obj
 0001:00021420       ?Initialize@?$VariableSizeChunkImpl@VVillageZone@@@internal@util@@UAE_NIIPBD@Z 00422420 f i ZoneFactory.obj
 0001:00021420       ?Initialize@?$VariableSizeChunkImpl@VCryptHSEL@@@internal@util@@UAE_NIIPBD@Z 00422420 f i MOLA_s:CryptManager.Server.obj
 0001:00021420       ?Initialize@?$VariableSizeChunkImpl@VWorldGuild@@@internal@util@@UAE_NIIPBD@Z 00422420 f i WorldGuild.obj
 0001:00021420       ?Initialize@?$VariableSizeChunkImpl@VFieldServerSession@@@internal@util@@UAE_NIIPBD@Z 00422420 f i ServerSessionFactory.obj
 0001:00021420       ?Initialize@?$VariableSizeChunkImpl@VAccountDBProxySession@@@internal@util@@UAE_NIIPBD@Z 00422420 f i ServerSessionFactory.obj
 0001:00021420       ?Initialize@?$VariableSizeChunkImpl@VAgentServerSession@@@internal@util@@UAE_NIIPBD@Z 00422420 f i ServerSessionFactory.obj
 0001:00021420       ?Initialize@?$VariableSizeChunkImpl@VChannel@@@internal@util@@UAE_NIIPBD@Z 00422420 f i ChannelManager.obj
 0001:00021420       ?Initialize@?$VariableSizeChunkImpl@USTRUCT_FRIEND_INFO@@@internal@util@@UAE_NIIPBD@Z 00422420 f i UserManager.obj
 0001:00021420       ?Initialize@?$VariableSizeChunkImpl@VTempUser@@@internal@util@@UAE_NIIPBD@Z 00422420 f i UserFactory.obj
 0001:00021420       ?Initialize@?$VariableSizeChunkImpl@VGameDBProxySession@@@internal@util@@UAE_NIIPBD@Z 00422420 f i ServerSessionFactory.obj
 0001:00021420       ?Initialize@?$VariableSizeChunkImpl@VMasterServerSession@@@internal@util@@UAE_NIIPBD@Z 00422420 f i ServerSessionFactory.obj
 0001:00021420       ?Initialize@?$VariableSizeChunkImpl@VActiveUser@@@internal@util@@UAE_NIIPBD@Z 00422420 f i UserFactory.obj
 0001:00021420       ?Initialize@?$VariableSizeChunkImpl@VNODE@?$CLinkedlist@PAVBaseZone@@K@util@@@internal@util@@UAE_NIIPBD@Z 00422420 f i BaseZone.obj
 0001:00021420       ?Initialize@?$VariableSizeChunkImpl@VTempServerSession@@@internal@util@@UAE_NIIPBD@Z 00422420 f i ServerSessionFactory.obj
 0001:00021420       ?Initialize@?$VariableSizeChunkImpl@VViewPortZone@@@internal@util@@UAE_NIIPBD@Z 00422420 f i ZoneFactory.obj
 0001:00021420       ?Initialize@?$VariableSizeChunkImpl@USTRUCT_BLOCK_INFO@@@internal@util@@UAE_NIIPBD@Z 00422420 f i UserManager.obj
 0001:00021420       ?Initialize@?$VariableSizeChunkImpl@VCommChatZone@@@internal@util@@UAE_NIIPBD@Z 00422420 f i ChatRoomManager.obj
 0001:00021420       ?Initialize@?$VariableSizeChunkImpl@VBattleServerSession@@@internal@util@@UAE_NIIPBD@Z 00422420 f i ServerSessionFactory.obj
 0001:00021440       ??1?$VariableSizeChunkImpl@VNODE@?$CLinkedlist@PAVBaseZone@@K@util@@@internal@util@@UAE@XZ 00422440 f i BaseZone.obj
 0001:000214b0       ??_G?$VariableSizeChunkImpl@VNODE@?$CLinkedlist@PAVBaseZone@@K@util@@@internal@util@@UAEPAXI@Z 004224b0 f i BaseZone.obj
 0001:000214b0       ??_E?$VariableSizeChunkImpl@VNODE@?$CLinkedlist@PAVBaseZone@@K@util@@@internal@util@@UAEPAXI@Z 004224b0 f i BaseZone.obj
 0001:000214d0       ??1?$CMemoryPoolFactory@VNODE@?$CLinkedlist@PAVBaseZone@@K@util@@@util@@UAE@XZ 004224d0 f i BaseZone.obj
 0001:00021540       ??_E?$CMemoryPoolFactory@VNODE@?$CLinkedlist@PAVBaseZone@@K@util@@@util@@UAEPAXI@Z 00422540 f i BaseZone.obj
 0001:00021540       ??_G?$CMemoryPoolFactory@VNODE@?$CLinkedlist@PAVBaseZone@@K@util@@@util@@UAEPAXI@Z 00422540 f i BaseZone.obj
 0001:00021560       ?Free@?$FixedSizeChunkImpl@VNODE@?$CLinkedlist@PAVBaseZone@@K@util@@@internal@util@@UAEXQAX@Z 00422560 f i BaseZone.obj
 0001:00021560       ?Free@?$FixedSizeChunkImpl@VNODE@?$CLinkedlist@PAVSectorInfo@@K@util@@@internal@util@@UAEXQAX@Z 00422560 f i FieldInfo.obj
 0001:00021560       ?Free@?$FixedSizeChunkImpl@USTRUCT_FRIEND_INFO@@@internal@util@@UAEXQAX@Z 00422560 f i UserManager.obj
 0001:00021560       ?Free@?$FixedSizeChunkImpl@USTRUCT_BLOCK_INFO@@@internal@util@@UAEXQAX@Z 00422560 f i UserManager.obj
 0001:00021560       ?Free@?$FixedSizeChunkImpl@USTRUCT_REVENGE_INFO@@@internal@util@@UAEXQAX@Z 00422560 f i UserManager.obj
 0001:00021560       ?Free@?$FixedSizeChunkImpl@USTRUCT_GROUP_MEMBER_INFO@@@internal@util@@UAEXQAX@Z 00422560 f i GroupManager.obj
 0001:00021580       ?Alloc@?$FixedSizeChunkImpl@VNODE@?$CLinkedlist@PAVBaseZone@@K@util@@@internal@util@@UAEPAXXZ 00422580 f i BaseZone.obj
 0001:00021580       ?Alloc@?$FixedSizeChunkImpl@VNODE@?$CLinkedlist@PAVSectorInfo@@K@util@@@internal@util@@UAEPAXXZ 00422580 f i FieldInfo.obj
 0001:000215b0       ??_G?$FixedSizeChunkImpl@VNODE@?$CLinkedlist@PAVBaseZone@@K@util@@@internal@util@@UAEPAXI@Z 004225b0 f i BaseZone.obj
 0001:000215b0       ??_E?$FixedSizeChunkImpl@VNODE@?$CLinkedlist@PAVBaseZone@@K@util@@@internal@util@@UAEPAXI@Z 004225b0 f i BaseZone.obj
 0001:000215e0       ?CreateImpl@?$CMemoryPoolFactory@VNODE@?$CLinkedlist@PAVBaseZone@@K@util@@@util@@QAEXH@Z 004225e0 f i BaseZone.obj
 0001:00021700       ?Initialize@?$CMemoryPoolFactory@VNODE@?$CLinkedlist@PAVBaseZone@@K@util@@@util@@UAE_NIIPBDPAX@Z 00422700 f i BaseZone.obj
 0001:00021730       ?SendToAll@BaseZone@@UAEXPAEG@Z 00422730 f i BaseZone.obj
 0001:00021760       ?SendToMe@ChatZone@@UAEXPAEG@Z 00422760 f i BaseZone.obj
 0001:00021770       ??_GBaseZone@@UAEPAXI@Z    00422770 f i BaseZone.obj
 0001:00021770       ??_EBaseZone@@UAEPAXI@Z    00422770 f i BaseZone.obj
 0001:00021790       ??_GChatZone@@UAEPAXI@Z    00422790 f i BaseZone.obj
 0001:00021790       ??_ECommChatZone@@UAEPAXI@Z 00422790 f i BaseZone.obj
 0001:00021790       ??_GCommChatZone@@UAEPAXI@Z 00422790 f i BaseZone.obj
 0001:00021790       ??_EChatZone@@UAEPAXI@Z    00422790 f i BaseZone.obj
 0001:000217c0       ??_EViewPortZone@@UAEPAXI@Z 004227c0 f i BaseZone.obj
 0001:000217c0       ??_GViewPortZone@@UAEPAXI@Z 004227c0 f i BaseZone.obj
 0001:000217f0       ??_EVillageZone@@UAEPAXI@Z 004227f0 f i BaseZone.obj
 0001:000217f0       ??_GVillageZone@@UAEPAXI@Z 004227f0 f i BaseZone.obj
 0001:00021810       ?Instance@MapInfoParser@@SAPAV1@XZ 00422810 f i Channel.obj
 0001:00021820       ?Update@Channel@@QAEXXZ    00422820 f   Channel.obj
 0001:00021830       ?CreateParty@Channel@@QAEXG@Z 00422830 f   Channel.obj
 0001:00021840       ?JoinParty@Channel@@QAEHGPAVUser@@@Z 00422840 f   Channel.obj
 0001:00021850       ?WithdrawParty@Channel@@QAEHPAVUser@@@Z 00422850 f   Channel.obj
 0001:00021860       ?DestroyParty@Channel@@QAEXG@Z 00422860 f   Channel.obj
 0001:00021870       ?RestoreParty@Channel@@QAEXGPAVUser@@@Z 00422870 f   Channel.obj
 0001:00021880       ?SetRoomKey@Channel@@QAEXGG@Z 00422880 f   Channel.obj
 0001:00021890       ?RemoveBattleShoutLinkedZone@Channel@@QAEXPAVChatZone@@@Z 00422890 f   Channel.obj
 0001:000218e0       ?DisplayInfo@Channel@@QAEXXZ 004228e0 f   Channel.obj
 0001:00021a10       ?SendToAll@Channel@@QAEXPAEG@Z 00422a10 f   Channel.obj
 0001:00021aa0       ?SendToVillages@Channel@@QAEXPAEG@Z 00422aa0 f   Channel.obj
 0001:00021b30       ?SendToBattleZones@Channel@@QAEXPAEG@Z 00422b30 f   Channel.obj
 0001:00021bd0       ?RefreshUserNum@Channel@@QAEXXZ 00422bd0 f   Channel.obj
 0001:00021cd0       ?AddShoutLinkedZone@Channel@@QAEHKPAVChatZone@@@Z 00422cd0 f   Channel.obj
 0001:00021e00       ?AddBattleShoutLinkedZone@Channel@@QAEHKPAVChatZone@@@Z 00422e00 f   Channel.obj
 0001:00021f60       ?RemoveChatZone@Channel@@QAEXK@Z 00422f60 f   Channel.obj
 0001:00022030       ?RemoveFriendChat@Channel@@QAEXK@Z 00423030 f   Channel.obj
 0001:000220c0       ?FindZone@Channel@@QAEPAVChatZone@@K@Z 004230c0 f   Channel.obj
 0001:00022130       ?FindVillage@Channel@@QAEPAVVillageZone@@K@Z 00423130 f   Channel.obj
 0001:000221a0       ?FindFriendChat@Channel@@QAEPAVChatZone@@K@Z 004231a0 f   Channel.obj
 0001:00022210       ?UserLeavePrevZone@Channel@@QAEXPAVUser@@@Z 00423210 f   Channel.obj
 0001:00022280       ?RemoveUser@Channel@@QAEXPAVUser@@H@Z 00423280 f   Channel.obj
 0001:000223a0       ??1Channel@@QAE@XZ         004233a0 f   Channel.obj
 0001:00022530       ?Release@Channel@@QAEXXZ   00423530 f   Channel.obj
 0001:000227b0       ?AddChatZone@Channel@@QAEPAVChatZone@@W4eZONETYPE@@KK@Z 004237b0 f   Channel.obj
 0001:00022840       ?AddVillage@Channel@@QAEXKPAVChatZone@@@Z 00423840 f   Channel.obj
 0001:00022890       ?AddField@Channel@@QAEXKPAVChatZone@@@Z 00423890 f   Channel.obj
 0001:000228e0       ?AddDominationField@Channel@@QAEXKPAVChatZone@@@Z 004238e0 f   Channel.obj
 0001:00022930       ?AddFriendChat@Channel@@QAEPAVChatZone@@K@Z 00423930 f   Channel.obj
 0001:00022980       ?UserEnterZone@Channel@@QAEHPAVUser@@W4eZONETYPE@@KK@Z 00423980 f   Channel.obj
 0001:00022ab0       ?AddSpaField@Channel@@QAEXKPAVChatZone@@@Z 00423ab0 f   Channel.obj
 0001:00022b00       ??0Channel@@QAE@XZ         00423b00 f   Channel.obj
 0001:00022c30       ?LoadMap@Channel@@QAEHXZ   00423c30 f   Channel.obj
 0001:00022fa0       ?AddUser@Channel@@QAEXPAVUser@@W4eZONETYPE@@K@Z 00423fa0 f   Channel.obj
 0001:00023070       ?Init@Channel@@QAEXXZ      00424070 f   Channel.obj
 0001:00023090       ??1?$CObjKeyGenerator@G@util@@QAE@XZ 00424090 f i Channel.obj
 0001:000230a0       ?_Tidy@?$deque@PAUAlignNode@ObjectKeyGeneratorBase@internal@util@@V?$CustomAllocator@PAUAlignNode@ObjectKeyGeneratorBase@internal@util@@@4@@std@@IAEXXZ 004240a0 f i Channel.obj
 0001:00023110       ?lower_bound@?$_Hash@V?$_Hmap_traits@KPBUsFIELDINFO_BASE@@V?$hash_compare@KU?$less@K@std@@@stdext@@V?$CustomAllocator@PBUsFIELDINFO_BASE@@@util@@$0A@@stdext@@@stdext@@QBE?AV?$_Const_iterator@$00@?$list@U?$pair@$$CBKPBUsFIELDINFO_BASE@@@std@@V?$CustomAllocator@U?$pair@$$CBKPBUsFIELDINFO_BASE@@@std@@@util@@@std@@ABK@Z 00424110 f i programcommon_s:MapInfoParser.obj
 0001:00023110       ?lower_bound@?$_Hash@V?$_Hmap_traits@KPAVBASE_FUNC@util@@V?$hash_compare@KU?$less@K@std@@@stdext@@V?$allocator@U?$pair@$$CBKPAVBASE_FUNC@util@@@std@@@std@@$0A@@stdext@@@stdext@@QAE?AV?$_Iterator@$00@?$list@U?$pair@$$CBKPAVBASE_FUNC@util@@@std@@V?$allocator@U?$pair@$$CBKPAVBASE_FUNC@util@@@std@@@2@@std@@ABK@Z 00424110 f i PacketHandler.obj
 0001:00023110       ?lower_bound@?$_Hash@V?$_Hmap_traits@KPAVViewPortZone@@V?$hash_compare@KU?$less@K@std@@@stdext@@V?$CustomAllocator@PAVViewPortZone@@@util@@$0A@@stdext@@@stdext@@QAE?AV?$_Iterator@$00@?$list@U?$pair@$$CBKPAVViewPortZone@@@std@@V?$CustomAllocator@U?$pair@$$CBKPAVViewPortZone@@@std@@@util@@@std@@ABK@Z 00424110 f i BaseZone.obj
 0001:00023110       ?lower_bound@?$_Hash@V?$_Hmap_traits@KPBVMapGroupBase@@V?$hash_compare@KU?$less@K@std@@@stdext@@V?$CustomAllocator@PBVMapGroupBase@@@util@@$0A@@stdext@@@stdext@@QBE?AV?$_Const_iterator@$00@?$list@U?$pair@$$CBKPBVMapGroupBase@@@std@@V?$CustomAllocator@U?$pair@$$CBKPBVMapGroupBase@@@std@@@util@@@std@@ABK@Z 00424110 f i programcommon_s:MapInfoParser.obj
 0001:00023110       ?lower_bound@?$_Hash@V?$_Hmap_traits@KPAVUser@@V?$hash_compare@KU?$less@K@std@@@stdext@@V?$CustomAllocator@PAVUser@@@util@@$0A@@stdext@@@stdext@@QAE?AV?$_Iterator@$00@?$list@U?$pair@$$CBKPAVUser@@@std@@V?$CustomAllocator@U?$pair@$$CBKPAVUser@@@std@@@util@@@std@@ABK@Z 00424110 f i GuidUserList.obj
 0001:00023110       ?lower_bound@?$_Hash@V?$_Hmap_traits@KPBUsWUTINFO_BASE@@V?$hash_compare@KU?$less@K@std@@@stdext@@V?$CustomAllocator@PBUsWUTINFO_BASE@@@util@@$0A@@stdext@@@stdext@@QBE?AV?$_Const_iterator@$00@?$list@U?$pair@$$CBKPBUsWUTINFO_BASE@@@std@@V?$CustomAllocator@U?$pair@$$CBKPBUsWUTINFO_BASE@@@std@@@util@@@std@@ABK@Z 00424110 f i programcommon_s:MapInfoParser.obj
 0001:00023110       ?lower_bound@?$_Hash@V?$_Hmap_traits@KPBUsWUTINFO_BASE@@V?$hash_compare@KU?$less@K@std@@@stdext@@V?$CustomAllocator@PBUsWUTINFO_BASE@@@util@@$0A@@stdext@@@stdext@@QAE?AV?$_Iterator@$00@?$list@U?$pair@$$CBKPBUsWUTINFO_BASE@@@std@@V?$CustomAllocator@U?$pair@$$CBKPBUsWUTINFO_BASE@@@std@@@util@@@std@@ABK@Z 00424110 f i programcommon_s:MapInfoParser.obj
 0001:00023110       ?lower_bound@?$_Hash@V?$_Hmap_traits@KPAVChatZone@@V?$hash_compare@KU?$less@K@std@@@stdext@@V?$CustomAllocator@PAVChatZone@@@util@@$0A@@stdext@@@stdext@@QAE?AV?$_Iterator@$00@?$list@U?$pair@$$CBKPAVChatZone@@@std@@V?$CustomAllocator@U?$pair@$$CBKPAVChatZone@@@std@@@util@@@std@@ABK@Z 00424110 f i Channel.obj
 0001:00023110       ?lower_bound@?$_Hash@V?$_Hmap_traits@KPBUsFIELDINFO_BASE@@V?$hash_compare@KU?$less@K@std@@@stdext@@V?$CustomAllocator@PBUsFIELDINFO_BASE@@@util@@$0A@@stdext@@@stdext@@QAE?AV?$_Iterator@$00@?$list@U?$pair@$$CBKPBUsFIELDINFO_BASE@@@std@@V?$CustomAllocator@U?$pair@$$CBKPBUsFIELDINFO_BASE@@@std@@@util@@@std@@ABK@Z 00424110 f i programcommon_s:MapInfoParser.obj
 0001:00023110       ?lower_bound@?$_Hash@V?$_Hmap_traits@KPAVBaseZone@@V?$hash_compare@KU?$less@K@std@@@stdext@@V?$CustomAllocator@PAVBaseZone@@@util@@$0A@@stdext@@@stdext@@QAE?AV?$_Iterator@$00@?$list@U?$pair@$$CBKPAVBaseZone@@@std@@V?$CustomAllocator@U?$pair@$$CBKPAVBaseZone@@@std@@@util@@@std@@ABK@Z 00424110 f i BaseZone.obj
 0001:00023110       ?lower_bound@?$_Hash@V?$_Hmap_traits@KPBUsWMOINFO_BASE@@V?$hash_compare@KU?$less@K@std@@@stdext@@V?$CustomAllocator@PBUsWMOINFO_BASE@@@util@@$0A@@stdext@@@stdext@@QAE?AV?$_Iterator@$00@?$list@U?$pair@$$CBKPBUsWMOINFO_BASE@@@std@@V?$CustomAllocator@U?$pair@$$CBKPBUsWMOINFO_BASE@@@std@@@util@@@std@@ABK@Z 00424110 f i programcommon_s:MapInfoParser.obj
 0001:00023110       ?lower_bound@?$_Hash@V?$_Hmap_traits@KPBUsWMOINFO_BASE@@V?$hash_compare@KU?$less@K@std@@@stdext@@V?$CustomAllocator@PBUsWMOINFO_BASE@@@util@@$0A@@stdext@@@stdext@@QBE?AV?$_Const_iterator@$00@?$list@U?$pair@$$CBKPBUsWMOINFO_BASE@@@std@@V?$CustomAllocator@U?$pair@$$CBKPBUsWMOINFO_BASE@@@std@@@util@@@std@@ABK@Z 00424110 f i programcommon_s:MapInfoParser.obj
 0001:00023110       ?lower_bound@?$_Hash@V?$_Hmap_traits@KPBUsMAPINFO_BASE@@V?$hash_compare@KU?$less@K@std@@@stdext@@V?$CustomAllocator@PBUsMAPINFO_BASE@@@util@@$0A@@stdext@@@stdext@@QBE?AV?$_Const_iterator@$00@?$list@U?$pair@$$CBKPBUsMAPINFO_BASE@@@std@@V?$CustomAllocator@U?$pair@$$CBKPBUsMAPINFO_BASE@@@std@@@util@@@std@@ABK@Z 00424110 f i programcommon_s:MapInfoParser.obj
 0001:00023110       ?lower_bound@?$_Hash@V?$_Hmap_traits@KPBUsMAPINFO_BASE@@V?$hash_compare@KU?$less@K@std@@@stdext@@V?$CustomAllocator@PBUsMAPINFO_BASE@@@util@@$0A@@stdext@@@stdext@@QAE?AV?$_Iterator@$00@?$list@U?$pair@$$CBKPBUsMAPINFO_BASE@@@std@@V?$CustomAllocator@U?$pair@$$CBKPBUsMAPINFO_BASE@@@std@@@util@@@std@@ABK@Z 00424110 f i programcommon_s:MapInfoParser.obj
 0001:00023110       ?lower_bound@?$_Hash@V?$_Hmap_traits@KPAVVillageZone@@V?$hash_compare@KU?$less@K@std@@@stdext@@V?$CustomAllocator@PAVVillageZone@@@util@@$0A@@stdext@@@stdext@@QAE?AV?$_Iterator@$00@?$list@U?$pair@$$CBKPAVVillageZone@@@std@@V?$CustomAllocator@U?$pair@$$CBKPAVVillageZone@@@std@@@util@@@std@@ABK@Z 00424110 f i Channel.obj
 0001:00023260       ?find@?$_Tree@V?$_Tmap_traits@KUSERVER_LINKEDZONE_INFO@@U?$less@K@std@@V?$CustomAllocator@USERVER_LINKEDZONE_INFO@@@util@@$0A@@std@@@std@@QAE?AViterator@12@ABK@Z 00424260 f i Channel.obj
 0001:000232f0       ??1?$vector@U_List_position@?$_Hash@V?$_Hmap_traits@W4eITEMTYPE@@USPECIAL_ITEM_INFO@@V?$hash_compare@W4eITEMTYPE@@U?$less@W4eITEMTYPE@@@std@@@stdext@@V?$CustomAllocator@USPECIAL_ITEM_INFO@@@util@@$0A@@stdext@@@stdext@@V?$CustomAllocator@U_List_position@?$_Hash@V?$_Hmap_traits@W4eITEMTYPE@@USPECIAL_ITEM_INFO@@V?$hash_compare@W4eITEMTYPE@@U?$less@W4eITEMTYPE@@@std@@@stdext@@V?$CustomAllocator@USPECIAL_ITEM_INFO@@@util@@$0A@@stdext@@@stdext@@@util@@@std@@QAE@XZ 004242f0 f i User.obj
 0001:000232f0       ??1?$vector@U_List_position@?$_Hash@V?$_Hmap_traits@KPBUsMAPINFO_BASE@@V?$hash_compare@KU?$less@K@std@@@stdext@@V?$CustomAllocator@PBUsMAPINFO_BASE@@@util@@$0A@@stdext@@@stdext@@V?$CustomAllocator@U_List_position@?$_Hash@V?$_Hmap_traits@KPBUsMAPINFO_BASE@@V?$hash_compare@KU?$less@K@std@@@stdext@@V?$CustomAllocator@PBUsMAPINFO_BASE@@@util@@$0A@@stdext@@@stdext@@@util@@@std@@QAE@XZ 004242f0 f i programcommon_s:MapInfoParser.obj
 0001:000232f0       ??1?$vector@U_List_position@?$_Hash@V?$_Hmap_traits@KPBUsWMOINFO_BASE@@V?$hash_compare@KU?$less@K@std@@@stdext@@V?$CustomAllocator@PBUsWMOINFO_BASE@@@util@@$0A@@stdext@@@stdext@@V?$CustomAllocator@U_List_position@?$_Hash@V?$_Hmap_traits@KPBUsWMOINFO_BASE@@V?$hash_compare@KU?$less@K@std@@@stdext@@V?$CustomAllocator@PBUsWMOINFO_BASE@@@util@@$0A@@stdext@@@stdext@@@util@@@std@@QAE@XZ 004242f0 f i programcommon_s:MapInfoParser.obj
 0001:000232f0       ??1?$vector@U_List_position@?$_Hash@V?$_Hmap_traits@KPAVChatZone@@V?$hash_compare@KU?$less@K@std@@@stdext@@V?$CustomAllocator@PAVChatZone@@@util@@$0A@@stdext@@@stdext@@V?$CustomAllocator@U_List_position@?$_Hash@V?$_Hmap_traits@KPAVChatZone@@V?$hash_compare@KU?$less@K@std@@@stdext@@V?$CustomAllocator@PAVChatZone@@@util@@$0A@@stdext@@@stdext@@@util@@@std@@QAE@XZ 004242f0 f i Channel.obj
 0001:000232f0       ??1?$vector@U_List_position@?$_Hash@V?$_Hmap_traits@KPBUsFIELDINFO_BASE@@V?$hash_compare@KU?$less@K@std@@@stdext@@V?$CustomAllocator@PBUsFIELDINFO_BASE@@@util@@$0A@@stdext@@@stdext@@V?$CustomAllocator@U_List_position@?$_Hash@V?$_Hmap_traits@KPBUsFIELDINFO_BASE@@V?$hash_compare@KU?$less@K@std@@@stdext@@V?$CustomAllocator@PBUsFIELDINFO_BASE@@@util@@$0A@@stdext@@@stdext@@@util@@@std@@QAE@XZ 004242f0 f i programcommon_s:MapInfoParser.obj
 0001:000232f0       ??1?$vector@U_List_position@?$_Hash@V?$_Hmap_traits@KPAVBaseZone@@V?$hash_compare@KU?$less@K@std@@@stdext@@V?$CustomAllocator@PAVBaseZone@@@util@@$0A@@stdext@@@stdext@@V?$CustomAllocator@U_List_position@?$_Hash@V?$_Hmap_traits@KPAVBaseZone@@V?$hash_compare@KU?$less@K@std@@@stdext@@V?$CustomAllocator@PAVBaseZone@@@util@@$0A@@stdext@@@stdext@@@util@@@std@@QAE@XZ 004242f0 f i BaseZone.obj
 0001:000232f0       ??1?$vector@U_List_position@?$_Hash@V?$_Hmap_traits@KPBUsWUTINFO_BASE@@V?$hash_compare@KU?$less@K@std@@@stdext@@V?$CustomAllocator@PBUsWUTINFO_BASE@@@util@@$0A@@stdext@@@stdext@@V?$CustomAllocator@U_List_position@?$_Hash@V?$_Hmap_traits@KPBUsWUTINFO_BASE@@V?$hash_compare@KU?$less@K@std@@@stdext@@V?$CustomAllocator@PBUsWUTINFO_BASE@@@util@@$0A@@stdext@@@stdext@@@util@@@std@@QAE@XZ 004242f0 f i programcommon_s:MapInfoParser.obj
 0001:000232f0       ??1?$vector@U_List_position@?$_Hash@V?$_Hmap_traits@KPAVVillageZone@@V?$hash_compare@KU?$less@K@std@@@stdext@@V?$CustomAllocator@PAVVillageZone@@@util@@$0A@@stdext@@@stdext@@V?$CustomAllocator@U_List_position@?$_Hash@V?$_Hmap_traits@KPAVVillageZone@@V?$hash_compare@KU?$less@K@std@@@stdext@@V?$CustomAllocator@PAVVillageZone@@@util@@$0A@@stdext@@@stdext@@@util@@@std@@QAE@XZ 004242f0 f i Channel.obj
 0001:000232f0       ??1?$vector@U_List_position@?$_Hash@V?$_Hmap_traits@KPBVMapGroupBase@@V?$hash_compare@KU?$less@K@std@@@stdext@@V?$CustomAllocator@PBVMapGroupBase@@@util@@$0A@@stdext@@@stdext@@V?$CustomAllocator@U_List_position@?$_Hash@V?$_Hmap_traits@KPBVMapGroupBase@@V?$hash_compare@KU?$less@K@std@@@stdext@@V?$CustomAllocator@PBVMapGroupBase@@@util@@$0A@@stdext@@@stdext@@@util@@@std@@QAE@XZ 004242f0 f i programcommon_s:MapInfoParser.obj
 0001:000232f0       ??1?$vector@U_List_position@?$_Hash@V?$_Hmap_traits@KPAVViewPortZone@@V?$hash_compare@KU?$less@K@std@@@stdext@@V?$CustomAllocator@PAVViewPortZone@@@util@@$0A@@stdext@@@stdext@@V?$CustomAllocator@U_List_position@?$_Hash@V?$_Hmap_traits@KPAVViewPortZone@@V?$hash_compare@KU?$less@K@std@@@stdext@@V?$CustomAllocator@PAVViewPortZone@@@util@@$0A@@stdext@@@stdext@@@util@@@std@@QAE@XZ 004242f0 f i BaseZone.obj
 0001:000232f0       ??1?$vector@U_List_position@?$_Hash@V?$_Hmap_traits@KPAVUser@@V?$hash_compare@KU?$less@K@std@@@stdext@@V?$CustomAllocator@PAVUser@@@util@@$0A@@stdext@@@stdext@@V?$CustomAllocator@U_List_position@?$_Hash@V?$_Hmap_traits@KPAVUser@@V?$hash_compare@KU?$less@K@std@@@stdext@@V?$CustomAllocator@PAVUser@@@util@@$0A@@stdext@@@stdext@@@util@@@std@@QAE@XZ 004242f0 f i GuidUserList.obj
 0001:000232f0       ??1?$chunk_vector@PAVUser@@@util@@QAE@XZ 004242f0 f i UserManager.obj
 0001:000232f0       ??1?$chunk_vector@K@util@@QAE@XZ 004242f0 f i FieldInfo.obj
 0001:00023330       ??0ObjectKeyGeneratorBase@internal@util@@QAE@XZ 00424330 f i Channel.obj
 0001:00023390       ?FindLinkedZoneInfo@ChannelManager@@QAEHKAAUSERVER_LINKEDZONE_INFO@@@Z 00424390 f i Channel.obj
 0001:00023410       ??0?$vector@U_List_position@?$_Hash@V?$_Hmap_traits@KPAVViewPortZone@@V?$hash_compare@KU?$less@K@std@@@stdext@@V?$CustomAllocator@PAVViewPortZone@@@util@@$0A@@stdext@@@stdext@@V?$CustomAllocator@U_List_position@?$_Hash@V?$_Hmap_traits@KPAVViewPortZone@@V?$hash_compare@KU?$less@K@std@@@stdext@@V?$CustomAllocator@PAVViewPortZone@@@util@@$0A@@stdext@@@stdext@@@util@@@std@@QAE@ABV?$CustomAllocator@U_List_position@?$_Hash@V?$_Hmap_traits@KPAVViewPortZone@@V?$hash_compare@KU?$less@K@std@@@stdext@@V?$CustomAllocator@PAVViewPortZone@@@util@@$0A@@stdext@@@stdext@@@util@@@Z 00424410 f i BaseZone.obj
 0001:00023410       ??0?$vector@U_List_position@?$_Hash@V?$_Hmap_traits@KPBUsWMOINFO_BASE@@V?$hash_compare@KU?$less@K@std@@@stdext@@V?$CustomAllocator@PBUsWMOINFO_BASE@@@util@@$0A@@stdext@@@stdext@@V?$CustomAllocator@U_List_position@?$_Hash@V?$_Hmap_traits@KPBUsWMOINFO_BASE@@V?$hash_compare@KU?$less@K@std@@@stdext@@V?$CustomAllocator@PBUsWMOINFO_BASE@@@util@@$0A@@stdext@@@stdext@@@util@@@std@@QAE@ABV?$CustomAllocator@U_List_position@?$_Hash@V?$_Hmap_traits@KPBUsWMOINFO_BASE@@V?$hash_compare@KU?$less@K@std@@@stdext@@V?$CustomAllocator@PBUsWMOINFO_BASE@@@util@@$0A@@stdext@@@stdext@@@util@@@Z 00424410 f i programcommon_s:MapInfoParser.obj
 0001:00023410       ??0?$vector@PAVUser@@V?$CustomAllocator@PAVUser@@@util@@@std@@QAE@ABV?$CustomAllocator@PAVUser@@@util@@@Z 00424410 f i UserManager.obj
 0001:00023410       ??0?$vector@U_List_position@?$_Hash@V?$_Hmap_traits@KPAVUser@@V?$hash_compare@KU?$less@K@std@@@stdext@@V?$CustomAllocator@PAVUser@@@util@@$0A@@stdext@@@stdext@@V?$CustomAllocator@U_List_position@?$_Hash@V?$_Hmap_traits@KPAVUser@@V?$hash_compare@KU?$less@K@std@@@stdext@@V?$CustomAllocator@PAVUser@@@util@@$0A@@stdext@@@stdext@@@util@@@std@@QAE@ABV?$CustomAllocator@U_List_position@?$_Hash@V?$_Hmap_traits@KPAVUser@@V?$hash_compare@KU?$less@K@std@@@stdext@@V?$CustomAllocator@PAVUser@@@util@@$0A@@stdext@@@stdext@@@util@@@Z 00424410 f i GuidUserList.obj
 0001:00023410       ??0?$vector@U_List_position@?$_Hash@V?$_Hmap_traits@W4eITEMTYPE@@USPECIAL_ITEM_INFO@@V?$hash_compare@W4eITEMTYPE@@U?$less@W4eITEMTYPE@@@std@@@stdext@@V?$CustomAllocator@USPECIAL_ITEM_INFO@@@util@@$0A@@stdext@@@stdext@@V?$CustomAllocator@U_List_position@?$_Hash@V?$_Hmap_traits@W4eITEMTYPE@@USPECIAL_ITEM_INFO@@V?$hash_compare@W4eITEMTYPE@@U?$less@W4eITEMTYPE@@@std@@@stdext@@V?$CustomAllocator@USPECIAL_ITEM_INFO@@@util@@$0A@@stdext@@@stdext@@@util@@@std@@QAE@ABV?$CustomAllocator@U_List_position@?$_Hash@V?$_Hmap_traits@W4eITEMTYPE@@USPECIAL_ITEM_INFO@@V?$hash_compare@W4eITEMTYPE@@U?$less@W4eITEMTYPE@@@std@@@stdext@@V?$CustomAllocator@USPECIAL_ITEM_INFO@@@util@@$0A@@stdext@@@stdext@@@util@@@Z 00424410 f i User.obj
 0001:00023410       ??0?$vector@U_List_position@?$_Hash@V?$_Hmap_traits@KPBUsFIELDINFO_BASE@@V?$hash_compare@KU?$less@K@std@@@stdext@@V?$CustomAllocator@PBUsFIELDINFO_BASE@@@util@@$0A@@stdext@@@stdext@@V?$CustomAllocator@U_List_position@?$_Hash@V?$_Hmap_traits@KPBUsFIELDINFO_BASE@@V?$hash_compare@KU?$less@K@std@@@stdext@@V?$CustomAllocator@PBUsFIELDINFO_BASE@@@util@@$0A@@stdext@@@stdext@@@util@@@std@@QAE@ABV?$CustomAllocator@U_List_position@?$_Hash@V?$_Hmap_traits@KPBUsFIELDINFO_BASE@@V?$hash_compare@KU?$less@K@std@@@stdext@@V?$CustomAllocator@PBUsFIELDINFO_BASE@@@util@@$0A@@stdext@@@stdext@@@util@@@Z 00424410 f i programcommon_s:MapInfoParser.obj
 0001:00023410       ??0?$vector@USlangTextInfo@ITextFilter@@V?$CustomAllocator@USlangTextInfo@ITextFilter@@@util@@@std@@QAE@ABV?$CustomAllocator@USlangTextInfo@ITextFilter@@@util@@@Z 00424410 f i utility_s:TextFilter.obj
 0001:00023410       ??0?$vector@U_List_position@?$_Hash@V?$_Hmap_traits@KPAVChatZone@@V?$hash_compare@KU?$less@K@std@@@stdext@@V?$CustomAllocator@PAVChatZone@@@util@@$0A@@stdext@@@stdext@@V?$CustomAllocator@U_List_position@?$_Hash@V?$_Hmap_traits@KPAVChatZone@@V?$hash_compare@KU?$less@K@std@@@stdext@@V?$CustomAllocator@PAVChatZone@@@util@@$0A@@stdext@@@stdext@@@util@@@std@@QAE@ABV?$CustomAllocator@U_List_position@?$_Hash@V?$_Hmap_traits@KPAVChatZone@@V?$hash_compare@KU?$less@K@std@@@stdext@@V?$CustomAllocator@PAVChatZone@@@util@@$0A@@stdext@@@stdext@@@util@@@Z 00424410 f i Channel.obj
 0001:00023410       ??0?$vector@V?$basic_string@DU?$char_traits@D@std@@V?$CustomAllocator@D@util@@@std@@V?$CustomAllocator@V?$basic_string@DU?$char_traits@D@std@@V?$CustomAllocator@D@util@@@std@@@util@@@std@@QAE@ABV?$CustomAllocator@V?$basic_string@DU?$char_traits@D@std@@V?$CustomAllocator@D@util@@@std@@@util@@@Z 00424410 f i GMCmdManager.obj
 0001:00023410       ??0?$vector@U_List_position@?$_Hash@V?$_Hmap_traits@KPBVMapGroupBase@@V?$hash_compare@KU?$less@K@std@@@stdext@@V?$CustomAllocator@PBVMapGroupBase@@@util@@$0A@@stdext@@@stdext@@V?$CustomAllocator@U_List_position@?$_Hash@V?$_Hmap_traits@KPBVMapGroupBase@@V?$hash_compare@KU?$less@K@std@@@stdext@@V?$CustomAllocator@PBVMapGroupBase@@@util@@$0A@@stdext@@@stdext@@@util@@@std@@QAE@ABV?$CustomAllocator@U_List_position@?$_Hash@V?$_Hmap_traits@KPBVMapGroupBase@@V?$hash_compare@KU?$less@K@std@@@stdext@@V?$CustomAllocator@PBVMapGroupBase@@@util@@$0A@@stdext@@@stdext@@@util@@@Z 00424410 f i programcommon_s:MapInfoParser.obj
 0001:00023410       ??0?$vector@U_List_position@?$_Hash@V?$_Hmap_traits@KPBUsWUTINFO_BASE@@V?$hash_compare@KU?$less@K@std@@@stdext@@V?$CustomAllocator@PBUsWUTINFO_BASE@@@util@@$0A@@stdext@@@stdext@@V?$CustomAllocator@U_List_position@?$_Hash@V?$_Hmap_traits@KPBUsWUTINFO_BASE@@V?$hash_compare@KU?$less@K@std@@@stdext@@V?$CustomAllocator@PBUsWUTINFO_BASE@@@util@@$0A@@stdext@@@stdext@@@util@@@std@@QAE@ABV?$CustomAllocator@U_List_position@?$_Hash@V?$_Hmap_traits@KPBUsWUTINFO_BASE@@V?$hash_compare@KU?$less@K@std@@@stdext@@V?$CustomAllocator@PBUsWUTINFO_BASE@@@util@@$0A@@stdext@@@stdext@@@util@@@Z 00424410 f i programcommon_s:MapInfoParser.obj
 0001:00023410       ??0?$vector@U_List_position@?$_Hash@V?$_Hmap_traits@KPAVVillageZone@@V?$hash_compare@KU?$less@K@std@@@stdext@@V?$CustomAllocator@PAVVillageZone@@@util@@$0A@@stdext@@@stdext@@V?$CustomAllocator@U_List_position@?$_Hash@V?$_Hmap_traits@KPAVVillageZone@@V?$hash_compare@KU?$less@K@std@@@stdext@@V?$CustomAllocator@PAVVillageZone@@@util@@$0A@@stdext@@@stdext@@@util@@@std@@QAE@ABV?$CustomAllocator@U_List_position@?$_Hash@V?$_Hmap_traits@KPAVVillageZone@@V?$hash_compare@KU?$less@K@std@@@stdext@@V?$CustomAllocator@PAVVillageZone@@@util@@$0A@@stdext@@@stdext@@@util@@@Z 00424410 f i Channel.obj
 0001:00023410       ??0?$vector@U_List_position@?$_Hash@V?$_Hmap_traits@KPBUsMAPINFO_BASE@@V?$hash_compare@KU?$less@K@std@@@stdext@@V?$CustomAllocator@PBUsMAPINFO_BASE@@@util@@$0A@@stdext@@@stdext@@V?$CustomAllocator@U_List_position@?$_Hash@V?$_Hmap_traits@KPBUsMAPINFO_BASE@@V?$hash_compare@KU?$less@K@std@@@stdext@@V?$CustomAllocator@PBUsMAPINFO_BASE@@@util@@$0A@@stdext@@@stdext@@@util@@@std@@QAE@ABV?$CustomAllocator@U_List_position@?$_Hash@V?$_Hmap_traits@KPBUsMAPINFO_BASE@@V?$hash_compare@KU?$less@K@std@@@stdext@@V?$CustomAllocator@PBUsMAPINFO_BASE@@@util@@$0A@@stdext@@@stdext@@@util@@@Z 00424410 f i programcommon_s:MapInfoParser.obj
 0001:00023410       ??0?$vector@KV?$CustomAllocator@K@util@@@std@@QAE@ABV?$CustomAllocator@K@util@@@Z 00424410 f i FieldInfo.obj
 0001:00023410       ??0?$vector@U_List_position@?$_Hash@V?$_Hmap_traits@KPAVBaseZone@@V?$hash_compare@KU?$less@K@std@@@stdext@@V?$CustomAllocator@PAVBaseZone@@@util@@$0A@@stdext@@@stdext@@V?$CustomAllocator@U_List_position@?$_Hash@V?$_Hmap_traits@KPAVBaseZone@@V?$hash_compare@KU?$less@K@std@@@stdext@@V?$CustomAllocator@PAVBaseZone@@@util@@$0A@@stdext@@@stdext@@@util@@@std@@QAE@ABV?$CustomAllocator@U_List_position@?$_Hash@V?$_Hmap_traits@KPAVBaseZone@@V?$hash_compare@KU?$less@K@std@@@stdext@@V?$CustomAllocator@PAVBaseZone@@@util@@$0A@@stdext@@@stdext@@@util@@@Z 00424410 f i BaseZone.obj
 0001:00023470       ?AllocChannel@ChannelManager@@QAEPAVChannel@@XZ 00424470 f   ChannelManager.obj
 0001:00023490       ?FreeChannel@ChannelManager@@QAEXPAVChannel@@@Z 00424490 f   ChannelManager.obj
 0001:000234c0       ?Update@ChannelManager@@QAEXXZ 004244c0 f   ChannelManager.obj
 0001:00023740       ?SendToVillages@ChannelManager@@QAEXPAEG@Z 00424740 f   ChannelManager.obj
 0001:000237d0       ?SendToBattleZones@ChannelManager@@QAEXPAEG@Z 004247d0 f   ChannelManager.obj
 0001:00023860       ?DisplayChannelInfo@ChannelManager@@QAEXXZ 00424860 f   ChannelManager.obj
 0001:00023900       ?GetChannel@ChannelManager@@QAEPAVChannel@@K@Z 00424900 f   ChannelManager.obj
 0001:00023970       ?GetFieldInfo@ChannelManager@@QAEPAVFieldInfo@@K@Z 00424970 f   ChannelManager.obj
 0001:000239e0       ?RemoveChannel@ChannelManager@@QAEXK@Z 004249e0 f   ChannelManager.obj
 0001:00023a90       ?Release@ChannelManager@@UAEXXZ 00424a90 f   ChannelManager.obj
 0001:00023c60       ?AddChannel@ChannelManager@@QAEXK@Z 00424c60 f   ChannelManager.obj
 0001:00023cf0       ?LoadFieldInfo@ChannelManager@@QAEHXZ 00424cf0 f   ChannelManager.obj
 0001:00023f40       ?_LoadLinkedZoneFile@ChannelManager@@QAEHH@Z 00424f40 f   ChannelManager.obj
 0001:000240b0       ?Init@ChannelManager@@QAEXXZ 004250b0 f   ChannelManager.obj
 0001:00024140       ?LoadScript@ChannelManager@@UAEHW4eSCRIPT_CODE@@H@Z 00425140 f   ChannelManager.obj
 0001:00024160       ??1ChannelManager@@UAE@XZ  00425160 f   ChannelManager.obj
 0001:000241f0       ??0ChannelManager@@QAE@XZ  004251f0 f   ChannelManager.obj
 0001:000242b0       ?_Max@?$_Tree@V?$_Tmap_traits@KUSERVER_LINKEDZONE_INFO@@U?$less@K@std@@V?$CustomAllocator@USERVER_LINKEDZONE_INFO@@@util@@$0A@@std@@@std@@KAPAU_Node@?$_Tree_nod@V?$_Tmap_traits@KUSERVER_LINKEDZONE_INFO@@U?$less@K@std@@V?$CustomAllocator@USERVER_LINKEDZONE_INFO@@@util@@$0A@@std@@@2@PAU342@@Z 004252b0 f i ChannelManager.obj
 0001:000242d0       ?_Min@?$_Tree@V?$_Tmap_traits@KUSERVER_LINKEDZONE_INFO@@U?$less@K@std@@V?$CustomAllocator@USERVER_LINKEDZONE_INFO@@@util@@$0A@@std@@@std@@KAPAU_Node@?$_Tree_nod@V?$_Tmap_traits@KUSERVER_LINKEDZONE_INFO@@U?$less@K@std@@V?$CustomAllocator@USERVER_LINKEDZONE_INFO@@@util@@$0A@@std@@@2@PAU342@@Z 004252d0 f i ChannelManager.obj
 0001:000242f0       ?_Inc@const_iterator@?$_Tree@V?$_Tmap_traits@KUSERVER_LINKEDZONE_INFO@@U?$less@K@std@@V?$CustomAllocator@USERVER_LINKEDZONE_INFO@@@util@@$0A@@std@@@std@@QAEXXZ 004252f0 f i ChannelManager.obj
 0001:00024360       ??0MSG_MW_USERCOUNT_SYN@@QAE@XZ 00425360 f i ChannelManager.obj
 0001:000243a0       ?_Erase@?$_Tree@V?$_Tmap_traits@KUSERVER_LINKEDZONE_INFO@@U?$less@K@std@@V?$CustomAllocator@USERVER_LINKEDZONE_INFO@@@util@@$0A@@std@@@std@@IAEXPAU_Node@?$_Tree_nod@V?$_Tmap_traits@KUSERVER_LINKEDZONE_INFO@@U?$less@K@std@@V?$CustomAllocator@USERVER_LINKEDZONE_INFO@@@util@@$0A@@std@@@2@@Z 004253a0 f i ChannelManager.obj
 0001:000243e0       ?_Lrotate@?$_Tree@V?$_Tmap_traits@KUSERVER_LINKEDZONE_INFO@@U?$less@K@std@@V?$CustomAllocator@USERVER_LINKEDZONE_INFO@@@util@@$0A@@std@@@std@@IAEXPAU_Node@?$_Tree_nod@V?$_Tmap_traits@KUSERVER_LINKEDZONE_INFO@@U?$less@K@std@@V?$CustomAllocator@USERVER_LINKEDZONE_INFO@@@util@@$0A@@std@@@2@@Z 004253e0 f i ChannelManager.obj
 0001:00024430       ?_Rrotate@?$_Tree@V?$_Tmap_traits@KUSERVER_LINKEDZONE_INFO@@U?$less@K@std@@V?$CustomAllocator@USERVER_LINKEDZONE_INFO@@@util@@$0A@@std@@@std@@IAEXPAU_Node@?$_Tree_nod@V?$_Tmap_traits@KUSERVER_LINKEDZONE_INFO@@U?$less@K@std@@V?$CustomAllocator@USERVER_LINKEDZONE_INFO@@@util@@$0A@@std@@@2@@Z 00425430 f i ChannelManager.obj
 0001:00024490       ?_Buynode@?$_Tree@V?$_Tmap_traits@KUSERVER_LINKEDZONE_INFO@@U?$less@K@std@@V?$CustomAllocator@USERVER_LINKEDZONE_INFO@@@util@@$0A@@std@@@std@@IAEPAU_Node@?$_Tree_nod@V?$_Tmap_traits@KUSERVER_LINKEDZONE_INFO@@U?$less@K@std@@V?$CustomAllocator@USERVER_LINKEDZONE_INFO@@@util@@$0A@@std@@@2@PAU342@00ABU?$pair@$$CBKUSERVER_LINKEDZONE_INFO@@@2@D@Z 00425490 f i ChannelManager.obj
 0001:000244e0       ?_Dec@const_iterator@?$_Tree@V?$_Tmap_traits@KUSERVER_LINKEDZONE_INFO@@U?$less@K@std@@V?$CustomAllocator@USERVER_LINKEDZONE_INFO@@@util@@$0A@@std@@@std@@QAEXXZ 004254e0 f i ChannelManager.obj
 0001:00024570       ?_Dec@const_iterator@?$_Tree@V?$_Tmap_traits@KPAVServerSession@@U?$less@K@std@@V?$CustomAllocator@PAVServerSession@@@util@@$0A@@std@@@std@@QAEXXZ 00425570 f i ServerSessionManager.obj
 0001:00024570       ?_Dec@const_iterator@?$_Tree@V?$_Tmap_traits@KPAVFriendInvitationCommand@@U?$less@K@std@@V?$CustomAllocator@PAVFriendInvitationCommand@@@util@@$0A@@std@@@std@@QAEXXZ 00425570 f i servercommon:FriendInvitationInvoker.obj
 0001:00024570       ?_Dec@const_iterator@?$_Tree@V?$_Tmap_traits@KPAUSTRUCT_BLOCK_INFO@@U?$less@K@std@@V?$CustomAllocator@PAUSTRUCT_BLOCK_INFO@@@util@@$0A@@std@@@std@@QAEXXZ 00425570 f i User.obj
 0001:00024570       ?_Dec@const_iterator@?$_Tree@V?$_Tmap_traits@KPAVFieldInfo@@U?$less@K@std@@V?$CustomAllocator@PAVFieldInfo@@@util@@$0A@@std@@@std@@QAEXXZ 00425570 f i ChannelManager.obj
 0001:00024570       ?_Dec@const_iterator@?$_Tree@V?$_Tmap_traits@KPAUSTRUCT_GROUP_MEMBER_INFO@@U?$less@K@std@@V?$CustomAllocator@PAUSTRUCT_GROUP_MEMBER_INFO@@@util@@$0A@@std@@@std@@QAEXXZ 00425570 f i GroupManager.obj
 0001:00024570       ?_Dec@const_iterator@?$_Tree@V?$_Tmap_traits@KPAVUser@@U?$less@K@std@@V?$CustomAllocator@PAVUser@@@util@@$0A@@std@@@std@@QAEXXZ 00425570 f i User.obj
 0001:00024570       ?_Dec@const_iterator@?$_Tree@V?$_Tmap_traits@KPAUSTRUCT_FRIEND_INFO@@U?$less@K@std@@V?$CustomAllocator@PAUSTRUCT_FRIEND_INFO@@@util@@$0A@@std@@@std@@QAEXXZ 00425570 f i FriendMap.obj
 0001:00024570       ?_Dec@const_iterator@?$_Tree@V?$_Tmap_traits@KPAVChannel@@U?$less@K@std@@V?$CustomAllocator@PAVChannel@@@util@@$0A@@std@@@std@@QAEXXZ 00425570 f i ChannelManager.obj
 0001:00024570       ?_Dec@const_iterator@?$_Tree@V?$_Tmap_traits@KPAUSTRUCT_REVENGE_INFO@@U?$less@K@std@@V?$CustomAllocator@PAUSTRUCT_REVENGE_INFO@@@util@@$0A@@std@@@std@@QAEXXZ 00425570 f i User.obj
 0001:00024570       ?_Dec@const_iterator@?$_Tree@V?$_Tmap_traits@KPBUsMAP_ENTERENCE_PORTAL_BASE@@U?$less@K@std@@V?$CustomAllocator@PBUsMAP_ENTERENCE_PORTAL_BASE@@@util@@$0A@@std@@@std@@QAEXXZ 00425570 f i programcommon_s:MapInfoParser.obj
 0001:00024600       ?_Buynode@?$_Tree@V?$_Tmap_traits@KUSERVER_LINKEDZONE_INFO@@U?$less@K@std@@V?$CustomAllocator@USERVER_LINKEDZONE_INFO@@@util@@$0A@@std@@@std@@IAEPAU_Node@?$_Tree_nod@V?$_Tmap_traits@KUSERVER_LINKEDZONE_INFO@@U?$less@K@std@@V?$CustomAllocator@USERVER_LINKEDZONE_INFO@@@util@@$0A@@std@@@2@XZ 00425600 f i ChannelManager.obj
 0001:00024640       ?Create@?$VariableSizeChunkImpl@VChannel@@@internal@util@@CAXPAX@Z 00425640 f i ChannelManager.obj
 0001:00024690       ?Destroy@?$VariableSizeChunkImpl@VChannel@@@internal@util@@CAXPAX@Z 00425690 f i ChannelManager.obj
 0001:000246a0       ?Alloc@?$NotUseChunkImpl@VChannel@@@internal@util@@UAEPAXXZ 004256a0 f i ChannelManager.obj
 0001:00024710       ?Free@?$NotUseChunkImpl@VChannel@@@internal@util@@UAEXQAX@Z 00425710 f i ChannelManager.obj
 0001:00024730       ??0?$VariableSizeChunkImpl@VChannel@@@internal@util@@QAE@XZ 00425730 f i ChannelManager.obj
 0001:00024790       ??1?$VariableSizeChunkImpl@VChannel@@@internal@util@@UAE@XZ 00425790 f i ChannelManager.obj
 0001:00024800       ??_E?$VariableSizeChunkImpl@VChannel@@@internal@util@@UAEPAXI@Z 00425800 f i ChannelManager.obj
 0001:00024800       ??_G?$VariableSizeChunkImpl@VChannel@@@internal@util@@UAEPAXI@Z 00425800 f i ChannelManager.obj
 0001:00024820       ??1?$CMemoryPoolFactory@VChannel@@@util@@UAE@XZ 00425820 f i ChannelManager.obj
 0001:00024890       ??_G?$CMemoryPoolFactory@VChannel@@@util@@UAEPAXI@Z 00425890 f i ChannelManager.obj
 0001:00024890       ??_E?$CMemoryPoolFactory@VChannel@@@util@@UAEPAXI@Z 00425890 f i ChannelManager.obj
 0001:000248b0       ?Free@?$FixedSizeChunkImpl@VChannel@@@internal@util@@UAEXQAX@Z 004258b0 f i ChannelManager.obj
 0001:000248d0       ?Alloc@?$FixedSizeChunkImpl@VChannel@@@internal@util@@UAEPAXXZ 004258d0 f i ChannelManager.obj
 0001:00024940       ??_E?$FixedSizeChunkImpl@VChannel@@@internal@util@@UAEPAXI@Z 00425940 f i ChannelManager.obj
 0001:00024940       ??_G?$FixedSizeChunkImpl@VChannel@@@internal@util@@UAEPAXI@Z 00425940 f i ChannelManager.obj
 0001:00024970       ?CreateImpl@?$CMemoryPoolFactory@VChannel@@@util@@QAEXH@Z 00425970 f i ChannelManager.obj
 0001:00024a90       ??0?$_Tree@V?$_Tmap_traits@KUSERVER_LINKEDZONE_INFO@@U?$less@K@std@@V?$CustomAllocator@USERVER_LINKEDZONE_INFO@@@util@@$0A@@std@@@std@@QAE@ABU?$less@K@1@ABV?$CustomAllocator@U?$pair@$$CBKUSERVER_LINKEDZONE_INFO@@@std@@@util@@@Z 00425a90 f i ChannelManager.obj
 0001:00024b20       ?Initialize@?$CMemoryPoolFactory@VChannel@@@util@@UAE_NIIPBDPAX@Z 00425b20 f i ChannelManager.obj
 0001:00024b50       ?_Insert@?$_Tree@V?$_Tmap_traits@KUSERVER_LINKEDZONE_INFO@@U?$less@K@std@@V?$CustomAllocator@USERVER_LINKEDZONE_INFO@@@util@@$0A@@std@@@std@@IAE?AViterator@12@_NPAU_Node@?$_Tree_nod@V?$_Tmap_traits@KUSERVER_LINKEDZONE_INFO@@U?$less@K@std@@V?$CustomAllocator@USERVER_LINKEDZONE_INFO@@@util@@$0A@@std@@@2@ABU?$pair@$$CBKUSERVER_LINKEDZONE_INFO@@@2@@Z 00425b50 f i ChannelManager.obj
 0001:00024d50       ?erase@?$_Tree@V?$_Tmap_traits@KUSERVER_LINKEDZONE_INFO@@U?$less@K@std@@V?$CustomAllocator@USERVER_LINKEDZONE_INFO@@@util@@$0A@@std@@@std@@QAE?AViterator@12@Vconst_iterator@12@@Z 00425d50 f i ChannelManager.obj
 0001:00025020       ?insert@?$_Tree@V?$_Tmap_traits@KUSERVER_LINKEDZONE_INFO@@U?$less@K@std@@V?$CustomAllocator@USERVER_LINKEDZONE_INFO@@@util@@$0A@@std@@@std@@QAE?AU?$pair@Viterator@?$_Tree@V?$_Tmap_traits@KUSERVER_LINKEDZONE_INFO@@U?$less@K@std@@V?$CustomAllocator@USERVER_LINKEDZONE_INFO@@@util@@$0A@@std@@@std@@_N@2@ABU?$pair@$$CBKUSERVER_LINKEDZONE_INFO@@@2@@Z 00426020 f i ChannelManager.obj
 0001:00025110       ?erase@?$_Tree@V?$_Tmap_traits@KUSERVER_LINKEDZONE_INFO@@U?$less@K@std@@V?$CustomAllocator@USERVER_LINKEDZONE_INFO@@@util@@$0A@@std@@@std@@QAE?AViterator@12@Vconst_iterator@12@0@Z 00426110 f i ChannelManager.obj
 0001:000251f0       ??1?$_Tree@V?$_Tmap_traits@KUSERVER_LINKEDZONE_INFO@@U?$less@K@std@@V?$CustomAllocator@USERVER_LINKEDZONE_INFO@@@util@@$0A@@std@@@std@@QAE@XZ 004261f0 f i ChannelManager.obj
 0001:00025270       ??1?$chunk_map@KUSERVER_LINKEDZONE_INFO@@U?$less@K@std@@@util@@QAE@XZ 00426270 f i ChannelManager.obj
 0001:00025280       ??_EChannelManager@@UAEPAXI@Z 00426280 f i ChannelManager.obj
 0001:00025280       ??_GChannelManager@@UAEPAXI@Z 00426280 f i ChannelManager.obj
 0001:000252a0       ?Update@ChatRoomManager@@QAEXXZ 004262a0 f   ChatRoomManager.obj
 0001:000252b0       ?AllocChatRoom@ChatRoomManager@@QAEPAVCommChatZone@@XZ 004262b0 f   ChatRoomManager.obj
 0001:000252d0       ?FreeChatRoom@ChatRoomManager@@QAEXPAVCommChatZone@@@Z 004262d0 f   ChatRoomManager.obj
 0001:00025300       ?Init@ChatRoomManager@@QAEXXZ 00426300 f   ChatRoomManager.obj
 0001:00025350       ?DisplayChatRoomInfo@ChatRoomManager@@QAEXXZ 00426350 f   ChatRoomManager.obj
 0001:00025380       ?GetChatRoom@ChatRoomManager@@QAEPAVCommChatZone@@PAD@Z 00426380 f   ChatRoomManager.obj
 0001:00025470       ?Release@ChatRoomManager@@QAEXXZ 00426470 f   ChatRoomManager.obj
 0001:00025530       ?RemoveChatRoom@ChatRoomManager@@QAEXPAD@Z 00426530 f   ChatRoomManager.obj
 0001:00025650       ?RemoveUser@ChatRoomManager@@QAEXPAVUser@@@Z 00426650 f   ChatRoomManager.obj
 0001:00025790       ??1ChatRoomManager@@QAE@XZ 00426790 f   ChatRoomManager.obj
 0001:000257a0       ?AddChatRoom@ChatRoomManager@@QAEPAVCommChatZone@@PAD@Z 004267a0 f   ChatRoomManager.obj
 0001:000259e0       ?AddUser@ChatRoomManager@@QAEXPAVUser@@EPAD@Z 004269e0 f   ChatRoomManager.obj
 0001:00025c80       ??0ChatRoomManager@@QAE@XZ 00426c80 f   ChatRoomManager.obj
 0001:00025cb0       ?_Inc@const_iterator@?$_Tree@V?$_Tmap_traits@V?$basic_string@DU?$char_traits@D@std@@V?$allocator@D@2@@std@@PAVCommChatZone@@U?$less@V?$basic_string@DU?$char_traits@D@std@@V?$allocator@D@2@@std@@@2@V?$CustomAllocator@PAVCommChatZone@@@util@@$0A@@std@@@std@@QAEXXZ 00426cb0 f i ChatRoomManager.obj
 0001:00025cb0       ?_Inc@const_iterator@?$_Tree@V?$_Tmap_traits@V?$basic_string@DU?$char_traits@D@std@@V?$allocator@D@2@@std@@PAVUser@@U?$less@V?$basic_string@DU?$char_traits@D@std@@V?$allocator@D@2@@std@@@2@V?$CustomAllocator@PAVUser@@@util@@$0A@@std@@@std@@QAEXXZ 00426cb0 f i CharNameUserList.obj
 0001:00025cb0       ?_Inc@const_iterator@?$_Tree@V?$_Tmap_traits@V?$basic_string@DU?$char_traits@D@std@@V?$allocator@D@2@@std@@PAV?$map@V?$basic_string@DU?$char_traits@D@std@@V?$allocator@D@2@@std@@V12@U?$less@V?$basic_string@DU?$char_traits@D@std@@V?$allocator@D@2@@std@@@2@V?$allocator@U?$pair@$$CBV?$basic_string@DU?$char_traits@D@std@@V?$allocator@D@2@@std@@V12@@std@@@2@@2@U?$less@V?$basic_string@DU?$char_traits@D@std@@V?$allocator@D@2@@std@@@2@V?$allocator@U?$pair@$$CBV?$basic_string@DU?$char_traits@D@std@@V?$allocator@D@2@@std@@PAV?$map@V?$basic_string@DU?$char_traits@D@std@@V?$allocator@D@2@@std@@V12@U?$less@V?$basic_string@DU?$char_traits@D@std@@V?$allocator@D@2@@std@@@2@V?$allocator@U?$pair@$$CBV?$basic_string@DU?$char_traits@D@std@@V?$allocator@D@2@@std@@V12@@std@@@2@@2@@std@@@2@$0A@@std@@@std@@QAEXXZ 00426cb0 f i utility_s:INIParser.obj
 0001:00025cb0       ?_Inc@const_iterator@?$_Tree@V?$_Tmap_traits@W4eSCRIPT_CODE@@V?$basic_string@DU?$char_traits@D@std@@V?$allocator@D@2@@std@@U?$less@W4eSCRIPT_CODE@@@3@V?$CustomAllocator@V?$basic_string@DU?$char_traits@D@std@@V?$allocator@D@2@@std@@@util@@$0A@@std@@@std@@QAEXXZ 00426cb0 f i programcommon_s:ScriptCode.IParser.Impl.obj
 0001:00025d20       ?Create@?$VariableSizeChunkImpl@VCommChatZone@@@internal@util@@CAXPAX@Z 00426d20 f i ChatRoomManager.obj
 0001:00025d70       ?Alloc@?$NotUseChunkImpl@VCommChatZone@@@internal@util@@UAEPAXXZ 00426d70 f i ChatRoomManager.obj
 0001:00025de0       ??0?$VariableSizeChunkImpl@VCommChatZone@@@internal@util@@QAE@XZ 00426de0 f i ChatRoomManager.obj
 0001:00025e40       ??1?$VariableSizeChunkImpl@VCommChatZone@@@internal@util@@UAE@XZ 00426e40 f i ChatRoomManager.obj
 0001:00025eb0       ??_G?$VariableSizeChunkImpl@VCommChatZone@@@internal@util@@UAEPAXI@Z 00426eb0 f i ChatRoomManager.obj
 0001:00025eb0       ??_E?$VariableSizeChunkImpl@VCommChatZone@@@internal@util@@UAEPAXI@Z 00426eb0 f i ChatRoomManager.obj
 0001:00025ed0       ??1?$CMemoryPoolFactory@VCommChatZone@@@util@@UAE@XZ 00426ed0 f i ChatRoomManager.obj
 0001:00025f40       ??_G?$CMemoryPoolFactory@VCommChatZone@@@util@@UAEPAXI@Z 00426f40 f i ChatRoomManager.obj
 0001:00025f40       ??_E?$CMemoryPoolFactory@VCommChatZone@@@util@@UAEPAXI@Z 00426f40 f i ChatRoomManager.obj
 0001:00025f60       ??1?$pair@$$CBV?$basic_string@DU?$char_traits@D@std@@V?$allocator@D@2@@std@@PAVUser@@@std@@QAE@XZ 00426f60 f i CharNameUserList.obj
 0001:00025f60       ??1?$pair@V?$basic_string@DU?$char_traits@D@std@@V?$allocator@D@2@@std@@PAVCommChatZone@@@std@@QAE@XZ 00426f60 f i ChatRoomManager.obj
 0001:00025f60       ??1?$pair@$$CBV?$basic_string@DU?$char_traits@D@std@@V?$allocator@D@2@@std@@PAV?$map@V?$basic_string@DU?$char_traits@D@std@@V?$allocator@D@2@@std@@V12@U?$less@V?$basic_string@DU?$char_traits@D@std@@V?$allocator@D@2@@std@@@2@V?$allocator@U?$pair@$$CBV?$basic_string@DU?$char_traits@D@std@@V?$allocator@D@2@@std@@V12@@std@@@2@@2@@std@@QAE@XZ 00426f60 f i utility_s:INIParser.obj
 0001:00025f60       ??1?$basic_string@DU?$char_traits@D@std@@V?$allocator@D@2@@std@@QAE@XZ 00426f60 f i WorldServer.obj
 0001:00025f60       ??1?$pair@V?$basic_string@DU?$char_traits@D@std@@V?$allocator@D@2@@std@@PAV?$map@V?$basic_string@DU?$char_traits@D@std@@V?$allocator@D@2@@std@@V12@U?$less@V?$basic_string@DU?$char_traits@D@std@@V?$allocator@D@2@@std@@@2@V?$allocator@U?$pair@$$CBV?$basic_string@DU?$char_traits@D@std@@V?$allocator@D@2@@std@@V12@@std@@@2@@2@@std@@QAE@XZ 00426f60 f i utility_s:INIParser.obj
 0001:00025f60       ??1?$pair@V?$basic_string@DU?$char_traits@D@std@@V?$allocator@D@2@@std@@PAVUser@@@std@@QAE@XZ 00426f60 f i CharNameUserList.obj
 0001:00025f60       ??1?$pair@$$CBV?$basic_string@DU?$char_traits@D@std@@V?$allocator@D@2@@std@@PAVCommChatZone@@@std@@QAE@XZ 00426f60 f i ChatRoomManager.obj
 0001:00025f90       ?Alloc@?$FixedSizeChunkImpl@VCommChatZone@@@internal@util@@UAEPAXXZ 00426f90 f i ChatRoomManager.obj
 0001:00026000       ??_E?$FixedSizeChunkImpl@VCommChatZone@@@internal@util@@UAEPAXI@Z 00427000 f i ChatRoomManager.obj
 0001:00026000       ??_G?$FixedSizeChunkImpl@VCommChatZone@@@internal@util@@UAEPAXI@Z 00427000 f i ChatRoomManager.obj
 0001:00026030       ?_Erase@?$_Tree@V?$_Tmap_traits@V?$basic_string@DU?$char_traits@D@std@@V?$allocator@D@2@@std@@PAVUser@@U?$less@V?$basic_string@DU?$char_traits@D@std@@V?$allocator@D@2@@std@@@2@V?$CustomAllocator@PAVUser@@@util@@$0A@@std@@@std@@IAEXPAU_Node@?$_Tree_nod@V?$_Tmap_traits@V?$basic_string@DU?$char_traits@D@std@@V?$allocator@D@2@@std@@PAVUser@@U?$less@V?$basic_string@DU?$char_traits@D@std@@V?$allocator@D@2@@std@@@2@V?$CustomAllocator@PAVUser@@@util@@$0A@@std@@@2@@Z 00427030 f i CharNameUserList.obj
 0001:00026030       ?_Erase@?$_Tree@V?$_Tmap_traits@V?$basic_string@DU?$char_traits@D@std@@V?$allocator@D@2@@std@@PAVCommChatZone@@U?$less@V?$basic_string@DU?$char_traits@D@std@@V?$allocator@D@2@@std@@@2@V?$CustomAllocator@PAVCommChatZone@@@util@@$0A@@std@@@std@@IAEXPAU_Node@?$_Tree_nod@V?$_Tmap_traits@V?$basic_string@DU?$char_traits@D@std@@V?$allocator@D@2@@std@@PAVCommChatZone@@U?$less@V?$basic_string@DU?$char_traits@D@std@@V?$allocator@D@2@@std@@@2@V?$CustomAllocator@PAVCommChatZone@@@util@@$0A@@std@@@2@@Z 00427030 f i ChatRoomManager.obj
 0001:00026090       ?CreateImpl@?$CMemoryPoolFactory@VCommChatZone@@@util@@QAEXH@Z 00427090 f i ChatRoomManager.obj
 0001:000261b0       ??0?$_Tree@V?$_Tmap_traits@V?$basic_string@DU?$char_traits@D@std@@V?$allocator@D@2@@std@@PAVUser@@U?$less@V?$basic_string@DU?$char_traits@D@std@@V?$allocator@D@2@@std@@@2@V?$CustomAllocator@PAVUser@@@util@@$0A@@std@@@std@@QAE@ABU?$less@V?$basic_string@DU?$char_traits@D@std@@V?$allocator@D@2@@std@@@1@ABV?$CustomAllocator@U?$pair@$$CBV?$basic_string@DU?$char_traits@D@std@@V?$allocator@D@2@@std@@PAVUser@@@std@@@util@@@Z 004271b0 f i CharNameUserList.obj
 0001:000261b0       ??0?$_Tree@V?$_Tmap_traits@W4eSCRIPT_CODE@@V?$basic_string@DU?$char_traits@D@std@@V?$allocator@D@2@@std@@U?$less@W4eSCRIPT_CODE@@@3@V?$CustomAllocator@V?$basic_string@DU?$char_traits@D@std@@V?$allocator@D@2@@std@@@util@@$0A@@std@@@std@@QAE@ABU?$less@W4eSCRIPT_CODE@@@1@ABV?$CustomAllocator@U?$pair@$$CBW4eSCRIPT_CODE@@V?$basic_string@DU?$char_traits@D@std@@V?$allocator@D@2@@std@@@std@@@util@@@Z 004271b0 f i programcommon_s:ScriptCode.IParser.Impl.obj
 0001:000261b0       ??0?$_Tree@V?$_Tmap_traits@V?$basic_string@DU?$char_traits@D@std@@V?$allocator@D@2@@std@@PAVCommChatZone@@U?$less@V?$basic_string@DU?$char_traits@D@std@@V?$allocator@D@2@@std@@@2@V?$CustomAllocator@PAVCommChatZone@@@util@@$0A@@std@@@std@@QAE@ABU?$less@V?$basic_string@DU?$char_traits@D@std@@V?$allocator@D@2@@std@@@1@ABV?$CustomAllocator@U?$pair@$$CBV?$basic_string@DU?$char_traits@D@std@@V?$allocator@D@2@@std@@PAVCommChatZone@@@std@@@util@@@Z 004271b0 f i ChatRoomManager.obj
 0001:00026240       ?erase@?$_Tree@V?$_Tmap_traits@V?$basic_string@DU?$char_traits@D@std@@V?$allocator@D@2@@std@@PAVUser@@U?$less@V?$basic_string@DU?$char_traits@D@std@@V?$allocator@D@2@@std@@@2@V?$CustomAllocator@PAVUser@@@util@@$0A@@std@@@std@@QAE?AViterator@12@Vconst_iterator@12@@Z 00427240 f i CharNameUserList.obj
 0001:00026240       ?erase@?$_Tree@V?$_Tmap_traits@V?$basic_string@DU?$char_traits@D@std@@V?$allocator@D@2@@std@@PAVCommChatZone@@U?$less@V?$basic_string@DU?$char_traits@D@std@@V?$allocator@D@2@@std@@@2@V?$CustomAllocator@PAVCommChatZone@@@util@@$0A@@std@@@std@@QAE?AViterator@12@Vconst_iterator@12@@Z 00427240 f i ChatRoomManager.obj
 0001:00026530       ?Initialize@?$CMemoryPoolFactory@VCommChatZone@@@util@@UAE_NIIPBDPAX@Z 00427530 f i ChatRoomManager.obj
 0001:00026560       ?erase@?$_Tree@V?$_Tmap_traits@V?$basic_string@DU?$char_traits@D@std@@V?$allocator@D@2@@std@@PAVUser@@U?$less@V?$basic_string@DU?$char_traits@D@std@@V?$allocator@D@2@@std@@@2@V?$CustomAllocator@PAVUser@@@util@@$0A@@std@@@std@@QAE?AViterator@12@Vconst_iterator@12@0@Z 00427560 f i CharNameUserList.obj
 0001:00026560       ?erase@?$_Tree@V?$_Tmap_traits@V?$basic_string@DU?$char_traits@D@std@@V?$allocator@D@2@@std@@PAVCommChatZone@@U?$less@V?$basic_string@DU?$char_traits@D@std@@V?$allocator@D@2@@std@@@2@V?$CustomAllocator@PAVCommChatZone@@@util@@$0A@@std@@@std@@QAE?AViterator@12@Vconst_iterator@12@0@Z 00427560 f i ChatRoomManager.obj
 0001:00026640       ??1?$_Tree@V?$_Tmap_traits@V?$basic_string@DU?$char_traits@D@std@@V?$allocator@D@2@@std@@PAVCommChatZone@@U?$less@V?$basic_string@DU?$char_traits@D@std@@V?$allocator@D@2@@std@@@2@V?$CustomAllocator@PAVCommChatZone@@@util@@$0A@@std@@@std@@QAE@XZ 00427640 f i ChatRoomManager.obj
 0001:00026640       ??1?$_Tree@V?$_Tmap_traits@V?$basic_string@DU?$char_traits@D@std@@V?$allocator@D@2@@std@@PAVUser@@U?$less@V?$basic_string@DU?$char_traits@D@std@@V?$allocator@D@2@@std@@@2@V?$CustomAllocator@PAVUser@@@util@@$0A@@std@@@std@@QAE@XZ 00427640 f i CharNameUserList.obj
 0001:000266c0       ?Release@ChatZoneFactory@@QAEXXZ 004276c0 f   ZoneFactory.obj
 0001:000266e0       ?AllocZone@ChatZoneFactory@@QAEPAVChatZone@@XZ 004276e0 f   ZoneFactory.obj
 0001:00026700       ?FreeZone@ChatZoneFactory@@QAEXPAVChatZone@@@Z 00427700 f   ZoneFactory.obj
 0001:00026720       ?Release@ViewPortZoneFactory@@QAEXXZ 00427720 f   ZoneFactory.obj
 0001:00026740       ?AllocZone@ViewPortZoneFactory@@QAEPAVViewPortZone@@XZ 00427740 f   ZoneFactory.obj
 0001:00026760       ?FreeZone@ViewPortZoneFactory@@QAEXPAVViewPortZone@@@Z 00427760 f   ZoneFactory.obj
 0001:00026780       ?Release@VillageZoneFactory@@QAEXXZ 00427780 f   ZoneFactory.obj
 0001:000267a0       ?AllocZone@VillageZoneFactory@@QAEPAVVillageZone@@XZ 004277a0 f   ZoneFactory.obj
 0001:000267b0       ?FreeZone@VillageZoneFactory@@QAEXPAVVillageZone@@@Z 004277b0 f   ZoneFactory.obj
 0001:000267d0       ??0ChatZoneFactory@@QAE@XZ 004277d0 f   ZoneFactory.obj
 0001:000267e0       ??1ChatZoneFactory@@QAE@XZ 004277e0 f   ZoneFactory.obj
 0001:000267f0       ??0ViewPortZoneFactory@@QAE@XZ 004277f0 f   ZoneFactory.obj
 0001:00026800       ??1ViewPortZoneFactory@@QAE@XZ 00427800 f   ZoneFactory.obj
 0001:00026810       ??0VillageZoneFactory@@QAE@XZ 00427810 f   ZoneFactory.obj
 0001:00026820       ??1VillageZoneFactory@@QAE@XZ 00427820 f   ZoneFactory.obj
 0001:00026830       ?Init@ChatZoneFactory@@QAEXXZ 00427830 f   ZoneFactory.obj
 0001:00026880       ?Init@ViewPortZoneFactory@@QAEXXZ 00427880 f   ZoneFactory.obj
 0001:000268d0       ?Init@VillageZoneFactory@@QAEXXZ 004278d0 f   ZoneFactory.obj
 0001:00026910       ?Create@?$VariableSizeChunkImpl@VChatZone@@@internal@util@@CAXPAX@Z 00427910 f i ZoneFactory.obj
 0001:00026960       ?Alloc@?$NotUseChunkImpl@VChatZone@@@internal@util@@UAEPAXXZ 00427960 f i ZoneFactory.obj
 0001:000269c0       ??0?$VariableSizeChunkImpl@VChatZone@@@internal@util@@QAE@XZ 004279c0 f i ZoneFactory.obj
 0001:00026a20       ??1?$VariableSizeChunkImpl@VChatZone@@@internal@util@@UAE@XZ 00427a20 f i ZoneFactory.obj
 0001:00026a90       ??_E?$VariableSizeChunkImpl@VChatZone@@@internal@util@@UAEPAXI@Z 00427a90 f i ZoneFactory.obj
 0001:00026a90       ??_G?$VariableSizeChunkImpl@VChatZone@@@internal@util@@UAEPAXI@Z 00427a90 f i ZoneFactory.obj
 0001:00026ab0       ??1?$CMemoryPoolFactory@VChatZone@@@util@@UAE@XZ 00427ab0 f i ZoneFactory.obj
 0001:00026b20       ?Create@?$VariableSizeChunkImpl@VViewPortZone@@@internal@util@@CAXPAX@Z 00427b20 f i ZoneFactory.obj
 0001:00026b70       ?Alloc@?$NotUseChunkImpl@VViewPortZone@@@internal@util@@UAEPAXXZ 00427b70 f i ZoneFactory.obj
 0001:00026bd0       ??0?$VariableSizeChunkImpl@VViewPortZone@@@internal@util@@QAE@XZ 00427bd0 f i ZoneFactory.obj
 0001:00026c30       ??1?$VariableSizeChunkImpl@VViewPortZone@@@internal@util@@UAE@XZ 00427c30 f i ZoneFactory.obj
 0001:00026ca0       ??_E?$VariableSizeChunkImpl@VViewPortZone@@@internal@util@@UAEPAXI@Z 00427ca0 f i ZoneFactory.obj
 0001:00026ca0       ??_G?$VariableSizeChunkImpl@VViewPortZone@@@internal@util@@UAEPAXI@Z 00427ca0 f i ZoneFactory.obj
 0001:00026cc0       ??1?$CMemoryPoolFactory@VViewPortZone@@@util@@UAE@XZ 00427cc0 f i ZoneFactory.obj
 0001:00026d30       ?Create@?$VariableSizeChunkImpl@VVillageZone@@@internal@util@@CAXPAX@Z 00427d30 f i ZoneFactory.obj
 0001:00026d80       ?Destroy@?$VariableSizeChunkImpl@VTempServerSession@@@internal@util@@CAXPAX@Z 00427d80 f i ServerSessionFactory.obj
 0001:00026d80       ?Destroy@?$VariableSizeChunkImpl@VAccountDBProxySession@@@internal@util@@CAXPAX@Z 00427d80 f i ServerSessionFactory.obj
 0001:00026d80       ?Destroy@?$VariableSizeChunkImpl@VWorldGuildMember@@@internal@util@@CAXPAX@Z 00427d80 f i WorldGuildMember.obj
 0001:00026d80       ?Destroy@?$VariableSizeChunkImpl@VWorldGuild@@@internal@util@@CAXPAX@Z 00427d80 f i WorldGuild.obj
 0001:00026d80       ?Destroy@?$VariableSizeChunkImpl@VVillageZone@@@internal@util@@CAXPAX@Z 00427d80 f i ZoneFactory.obj
 0001:00026d80       ?Destroy@?$VariableSizeChunkImpl@VAgentServerSession@@@internal@util@@CAXPAX@Z 00427d80 f i ServerSessionFactory.obj
 0001:00026d80       ?Destroy@?$VariableSizeChunkImpl@VMasterServerSession@@@internal@util@@CAXPAX@Z 00427d80 f i ServerSessionFactory.obj
 0001:00026d80       ?Destroy@?$VariableSizeChunkImpl@VActiveUser@@@internal@util@@CAXPAX@Z 00427d80 f i UserFactory.obj
 0001:00026d80       ?Destroy@?$VariableSizeChunkImpl@VBattleServerSession@@@internal@util@@CAXPAX@Z 00427d80 f i ServerSessionFactory.obj
 0001:00026d80       ?Destroy@?$VariableSizeChunkImpl@VTempUser@@@internal@util@@CAXPAX@Z 00427d80 f i UserFactory.obj
 0001:00026d80       ?Destroy@?$VariableSizeChunkImpl@VGameDBProxySession@@@internal@util@@CAXPAX@Z 00427d80 f i ServerSessionFactory.obj
 0001:00026d80       ?Destroy@?$VariableSizeChunkImpl@VChatZone@@@internal@util@@CAXPAX@Z 00427d80 f i ZoneFactory.obj
 0001:00026d80       ?Destroy@?$VariableSizeChunkImpl@VViewPortZone@@@internal@util@@CAXPAX@Z 00427d80 f i ZoneFactory.obj
 0001:00026d80       ?Destroy@?$VariableSizeChunkImpl@VFieldServerSession@@@internal@util@@CAXPAX@Z 00427d80 f i ServerSessionFactory.obj
 0001:00026d80       ?Destroy@?$VariableSizeChunkImpl@VCommChatZone@@@internal@util@@CAXPAX@Z 00427d80 f i ChatRoomManager.obj
 0001:00026d90       ?Alloc@?$NotUseChunkImpl@VVillageZone@@@internal@util@@UAEPAXXZ 00427d90 f i ZoneFactory.obj
 0001:00026e00       ??0?$VariableSizeChunkImpl@VVillageZone@@@internal@util@@QAE@XZ 00427e00 f i ZoneFactory.obj
 0001:00026e60       ??1?$VariableSizeChunkImpl@VVillageZone@@@internal@util@@UAE@XZ 00427e60 f i ZoneFactory.obj
 0001:00026ed0       ??_G?$VariableSizeChunkImpl@VVillageZone@@@internal@util@@UAEPAXI@Z 00427ed0 f i ZoneFactory.obj
 0001:00026ed0       ??_E?$VariableSizeChunkImpl@VVillageZone@@@internal@util@@UAEPAXI@Z 00427ed0 f i ZoneFactory.obj
 0001:00026ef0       ??1?$CMemoryPoolFactory@VVillageZone@@@util@@UAE@XZ 00427ef0 f i ZoneFactory.obj
 0001:00026f60       ??_G?$CMemoryPoolFactory@VChatZone@@@util@@UAEPAXI@Z 00427f60 f i ZoneFactory.obj
 0001:00026f60       ??_E?$CMemoryPoolFactory@VChatZone@@@util@@UAEPAXI@Z 00427f60 f i ZoneFactory.obj
 0001:00026f80       ??_G?$CMemoryPoolFactory@VViewPortZone@@@util@@UAEPAXI@Z 00427f80 f i ZoneFactory.obj
 0001:00026f80       ??_E?$CMemoryPoolFactory@VViewPortZone@@@util@@UAEPAXI@Z 00427f80 f i ZoneFactory.obj
 0001:00026fa0       ??_G?$CMemoryPoolFactory@VVillageZone@@@util@@UAEPAXI@Z 00427fa0 f i ZoneFactory.obj
 0001:00026fa0       ??_E?$CMemoryPoolFactory@VVillageZone@@@util@@UAEPAXI@Z 00427fa0 f i ZoneFactory.obj
 0001:00026fc0       ?Alloc@?$FixedSizeChunkImpl@VChatZone@@@internal@util@@UAEPAXXZ 00427fc0 f i ZoneFactory.obj
 0001:00027030       ?Alloc@?$FixedSizeChunkImpl@VViewPortZone@@@internal@util@@UAEPAXXZ 00428030 f i ZoneFactory.obj
 0001:000270a0       ?Release@?$FixedSizeChunkImpl@VMasterServerSession@@@internal@util@@UAEXXZ 004280a0 f i ServerSessionFactory.obj
 0001:000270a0       ?Release@?$FixedSizeChunkImpl@VCommChatZone@@@internal@util@@UAEXXZ 004280a0 f i ChatRoomManager.obj
 0001:000270a0       ?Release@?$FixedSizeChunkImpl@VChannel@@@internal@util@@UAEXXZ 004280a0 f i ChannelManager.obj
 0001:000270a0       ?Release@?$FixedSizeChunkImpl@VChatZone@@@internal@util@@UAEXXZ 004280a0 f i ZoneFactory.obj
 0001:000270a0       ?Release@?$FixedSizeChunkImpl@VGameDBProxySession@@@internal@util@@UAEXXZ 004280a0 f i ServerSessionFactory.obj
 0001:000270a0       ?Release@?$FixedSizeChunkImpl@VNODE@?$CLinkedlist@PAVSectorInfo@@K@util@@@internal@util@@UAEXXZ 004280a0 f i FieldInfo.obj
 0001:000270a0       ?Release@?$FixedSizeChunkImpl@VActiveUser@@@internal@util@@UAEXXZ 004280a0 f i UserFactory.obj
 0001:000270a0       ?Release@?$FixedSizeChunkImpl@VTempServerSession@@@internal@util@@UAEXXZ 004280a0 f i ServerSessionFactory.obj
 0001:000270a0       ?Release@?$FixedSizeChunkImpl@VAgentServerSession@@@internal@util@@UAEXXZ 004280a0 f i ServerSessionFactory.obj
 0001:000270a0       ?Release@?$FixedSizeChunkImpl@VWorldGuildMember@@@internal@util@@UAEXXZ 004280a0 f i WorldGuildMember.obj
 0001:000270a0       ?Release@?$FixedSizeChunkImpl@VAccountDBProxySession@@@internal@util@@UAEXXZ 004280a0 f i ServerSessionFactory.obj
 0001:000270a0       ?Release@?$FixedSizeChunkImpl@VTempUser@@@internal@util@@UAEXXZ 004280a0 f i UserFactory.obj
 0001:000270a0       ?Release@?$FixedSizeChunkImpl@USTRUCT_GROUP_MEMBER_INFO@@@internal@util@@UAEXXZ 004280a0 f i GroupManager.obj
 0001:000270a0       ?Release@?$FixedSizeChunkImpl@VWorldGuild@@@internal@util@@UAEXXZ 004280a0 f i WorldGuild.obj
 0001:000270a0       ?Release@?$FixedSizeChunkImpl@USTRUCT_BLOCK_INFO@@@internal@util@@UAEXXZ 004280a0 f i UserManager.obj
 0001:000270a0       ?Release@?$FixedSizeChunkImpl@USTRUCT_REVENGE_INFO@@@internal@util@@UAEXXZ 004280a0 f i UserManager.obj
 0001:000270a0       ?Release@?$FixedSizeChunkImpl@VBattleServerSession@@@internal@util@@UAEXXZ 004280a0 f i ServerSessionFactory.obj
 0001:000270a0       ?Release@?$FixedSizeChunkImpl@VViewPortZone@@@internal@util@@UAEXXZ 004280a0 f i ZoneFactory.obj
 0001:000270a0       ?Release@?$FixedSizeChunkImpl@USTRUCT_FRIEND_INFO@@@internal@util@@UAEXXZ 004280a0 f i UserManager.obj
 0001:000270a0       ?Release@?$FixedSizeChunkImpl@VCryptHSEL@@@internal@util@@UAEXXZ 004280a0 f i MOLA_s:CryptManager.Server.obj
 0001:000270a0       ?Release@?$FixedSizeChunkImpl@VNODE@?$CLinkedlist@PAVBaseZone@@K@util@@@internal@util@@UAEXXZ 004280a0 f i BaseZone.obj
 0001:000270a0       ?Release@?$FixedSizeChunkImpl@VFieldServerSession@@@internal@util@@UAEXXZ 004280a0 f i ServerSessionFactory.obj
 0001:000270a0       ?Release@?$FixedSizeChunkImpl@VVillageZone@@@internal@util@@UAEXXZ 004280a0 f i ZoneFactory.obj
 0001:000270b0       ?Alloc@?$FixedSizeChunkImpl@VVillageZone@@@internal@util@@UAEPAXXZ 004280b0 f i ZoneFactory.obj
 0001:00027120       ??_E?$FixedSizeChunkImpl@VChatZone@@@internal@util@@UAEPAXI@Z 00428120 f i ZoneFactory.obj
 0001:00027120       ??_G?$FixedSizeChunkImpl@VChatZone@@@internal@util@@UAEPAXI@Z 00428120 f i ZoneFactory.obj
 0001:00027150       ??_G?$FixedSizeChunkImpl@VViewPortZone@@@internal@util@@UAEPAXI@Z 00428150 f i ZoneFactory.obj
 0001:00027150       ??_E?$FixedSizeChunkImpl@VViewPortZone@@@internal@util@@UAEPAXI@Z 00428150 f i ZoneFactory.obj
 0001:00027180       ??_E?$FixedSizeChunkImpl@VVillageZone@@@internal@util@@UAEPAXI@Z 00428180 f i ZoneFactory.obj
 0001:00027180       ??_G?$FixedSizeChunkImpl@VVillageZone@@@internal@util@@UAEPAXI@Z 00428180 f i ZoneFactory.obj
 0001:000271b0       ?CreateImpl@?$CMemoryPoolFactory@VChatZone@@@util@@QAEXH@Z 004281b0 f i ZoneFactory.obj
 0001:000272d0       ?CreateImpl@?$CMemoryPoolFactory@VViewPortZone@@@util@@QAEXH@Z 004282d0 f i ZoneFactory.obj
 0001:000273f0       ?CreateImpl@?$CMemoryPoolFactory@VVillageZone@@@util@@QAEXH@Z 004283f0 f i ZoneFactory.obj
 0001:00027510       ?Initialize@?$CMemoryPoolFactory@VChatZone@@@util@@UAE_NIIPBDPAX@Z 00428510 f i ZoneFactory.obj
 0001:00027540       ?Initialize@?$CMemoryPoolFactory@VViewPortZone@@@util@@UAE_NIIPBDPAX@Z 00428540 f i ZoneFactory.obj
 0001:00027570       ?Initialize@?$CMemoryPoolFactory@VVillageZone@@@util@@UAE_NIIPBDPAX@Z 00428570 f i ZoneFactory.obj
 0001:000275a0       ?Init@FieldInfo@@QAEHXZ    004285a0 f   FieldInfo.obj
 0001:000275b0       ?IsValidCoordinates@FieldInfo@@QAEHPAUWzVector@@@Z 004285b0 f   FieldInfo.obj
 0001:00027620       ?GetSectorIndexFor@FieldInfo@@QAEXPAUWzVector@@AAK1@Z 00428620 f   FieldInfo.obj
 0001:000276a0       ?CheckMapVersion@FieldInfo@@QAEHK@Z 004286a0 f   FieldInfo.obj
 0001:000276c0       ??0MapInfo@@QAE@XZ         004286c0 f   FieldInfo.obj
 0001:00027720       ??1MapInfo@@QAE@XZ         00428720 f   FieldInfo.obj
 0001:000277a0       ?AddFieldInfo@MapInfo@@QAEXPAVFieldInfo@@@Z 004287a0 f   FieldInfo.obj
 0001:000277c0       ?Create@FieldInfo@@QAEXPBUsFIELDINFO_BASE@@@Z 004287c0 f   FieldInfo.obj
 0001:00027810       ?Release@FieldInfo@@QAEXH@Z 00428810 f   FieldInfo.obj
 0001:00027840       ?GetSectorIndexFor@FieldInfo@@QAEKPAUWzVector@@@Z 00428840 f   FieldInfo.obj
 0001:00027900       ?AddNeighbor@SectorInfo@@QAEXPAV1@@Z 00428900 f   FieldInfo.obj
 0001:00027950       ?_loadMapObjectInfo@FieldInfo@@AAEXAAVCWzArchive@@@Z 00428950 f   FieldInfo.obj
 0001:00027b50       ?_unloadMapObjectInfo@FieldInfo@@AAEXXZ 00428b50 f   FieldInfo.obj
 0001:00027bc0       ??1SectorInfo@@QAE@XZ      00428bc0 f   FieldInfo.obj
 0001:00027bf0       ?Destroy@FieldInfo@@QAEXXZ 00428bf0 f   FieldInfo.obj
 0001:00027c30       ??0SectorInfo@@QAE@K@Z     00428c30 f   FieldInfo.obj
 0001:00027c80       ??1FieldInfo@@QAE@XZ       00428c80 f   FieldInfo.obj
 0001:00027dc0       ?EstablishSectorInfo@FieldInfo@@QAEXGH@Z 00428dc0 f   FieldInfo.obj
 0001:00028080       ??0FieldInfo@@QAE@XZ       00429080 f   FieldInfo.obj
 0001:00028110       ?SetStartingTileIndex@FieldInfo@@QAEXXZ 00429110 f   FieldInfo.obj
 0001:00028360       ?Load@FieldInfo@@QAEHXZ    00429360 f   FieldInfo.obj
 0001:000284d0       ?DeleteAll@?$CLinkedlist@PAVBaseZone@@K@util@@QAEXXZ 004294d0 f i BaseZone.obj
 0001:000284d0       ?DeleteAll@?$CLinkedlist@PAVSectorInfo@@K@util@@QAEXXZ 004294d0 f i FieldInfo.obj
 0001:00028510       ??1?$SolarHashTable@PAVCommChatZone@@K@util@@QAE@XZ 00429510 f i PartyManager.obj
 0001:00028510       ??1?$SolarHashTable@PAVWorldGuild@@K@util@@QAE@XZ 00429510 f i WorldGuildManager.obj
 0001:00028510       ??1?$SolarHashTable@PAVWorldGuildMember@@K@util@@QAE@XZ 00429510 f i WorldGuild.obj
 0001:00028510       ??1?$SolarHashTable@PAVFieldInfo@@K@util@@QAE@XZ 00429510 f i FieldInfo.obj
 0001:00028540       ?Initialize@?$SolarHashTable@PAVFieldInfo@@K@util@@QAE_NK@Z 00429540 f i FieldInfo.obj
 0001:000285e0       ?Initialize@?$SolarHashTable@PAVMAPOBJECT_INFO@@K@util@@QAE_NK@Z 004295e0 f i FieldInfo.obj
 0001:00028680       ??_G?$CLinkedlist@PAVSectorInfo@@K@util@@UAEPAXI@Z 00429680 f i FieldInfo.obj
 0001:00028680       ??_E?$CLinkedlist@PAVSectorInfo@@K@util@@UAEPAXI@Z 00429680 f i FieldInfo.obj
 0001:000286c0       ?Create@?$VariableSizeChunkImpl@VNODE@?$CLinkedlist@PAVBaseZone@@K@util@@@internal@util@@CAXPAX@Z 004296c0 f i BaseZone.obj
 0001:000286c0       ?Create@?$VariableSizeChunkImpl@VNODE@?$CLinkedlist@PAVSectorInfo@@K@util@@@internal@util@@CAXPAX@Z 004296c0 f i FieldInfo.obj
 0001:000286e0       ??0?$VariableSizeChunkImpl@VNODE@?$CLinkedlist@PAVSectorInfo@@K@util@@@internal@util@@QAE@XZ 004296e0 f i FieldInfo.obj
 0001:00028740       ??1?$VariableSizeChunkImpl@VNODE@?$CLinkedlist@PAVSectorInfo@@K@util@@@internal@util@@UAE@XZ 00429740 f i FieldInfo.obj
 0001:000287b0       ??_G?$VariableSizeChunkImpl@VNODE@?$CLinkedlist@PAVSectorInfo@@K@util@@@internal@util@@UAEPAXI@Z 004297b0 f i FieldInfo.obj
 0001:000287b0       ??_E?$VariableSizeChunkImpl@VNODE@?$CLinkedlist@PAVSectorInfo@@K@util@@@internal@util@@UAEPAXI@Z 004297b0 f i FieldInfo.obj
 0001:000287d0       ??1?$CMemoryPoolFactory@VNODE@?$CLinkedlist@PAVSectorInfo@@K@util@@@util@@UAE@XZ 004297d0 f i FieldInfo.obj
 0001:00028840       ??_E?$CMemoryPoolFactory@VNODE@?$CLinkedlist@PAVSectorInfo@@K@util@@@util@@UAEPAXI@Z 00429840 f i FieldInfo.obj
 0001:00028840       ??_G?$CMemoryPoolFactory@VNODE@?$CLinkedlist@PAVSectorInfo@@K@util@@@util@@UAEPAXI@Z 00429840 f i FieldInfo.obj
 0001:00028860       ??$fill@PAPAVUser@@PAV1@@std@@YAXPAPAVUser@@0ABQAV1@@Z 00429860 f i UserManager.obj
 0001:00028860       ??$fill@PAPAUEVENT_INFO@@PAU1@@std@@YAXPAPAUEVENT_INFO@@0ABQAU1@@Z 00429860 f i programcommon_s:SunEventInfoParser.obj
 0001:00028860       ??$fill@PAKK@std@@YAXPAK0ABK@Z 00429860 f i FieldInfo.obj
 0001:00028860       ??$fill@PAHH@std@@YAXPAH0ABH@Z 00429860 f i LottoConfig.obj
 0001:00028880       ?erase@?$vector@PAVUser@@V?$CustomAllocator@PAVUser@@@util@@@std@@QAE?AV?$_Vector_iterator@PAVUser@@V?$CustomAllocator@PAVUser@@@util@@@2@V?$_Vector_const_iterator@PAVUser@@V?$CustomAllocator@PAVUser@@@util@@@2@0@Z 00429880 f i UserManager.obj
 0001:00028880       ?erase@?$vector@KV?$CustomAllocator@K@util@@@std@@QAE?AV?$_Vector_iterator@KV?$CustomAllocator@K@util@@@2@V?$_Vector_const_iterator@KV?$CustomAllocator@K@util@@@2@0@Z 00429880 f i FieldInfo.obj
 0001:00028880       ?erase@?$vector@HV?$allocator@H@std@@@std@@QAE?AV?$_Vector_iterator@HV?$allocator@H@std@@@2@V?$_Vector_const_iterator@HV?$allocator@H@std@@@2@0@Z 00429880 f i LottoConfig.obj
 0001:00028880       ?erase@?$vector@PAUEVENT_INFO@@V?$allocator@PAUEVENT_INFO@@@std@@@std@@QAE?AV?$_Vector_iterator@PAUEVENT_INFO@@V?$allocator@PAUEVENT_INFO@@@std@@@2@V?$_Vector_const_iterator@PAUEVENT_INFO@@V?$allocator@PAUEVENT_INFO@@@std@@@2@0@Z 00429880 f i programcommon_s:SunEventInfoParser.obj
 0001:00028910       ?_Ufill@?$vector@PAVUser@@V?$CustomAllocator@PAVUser@@@util@@@std@@IAEPAPAVUser@@PAPAV3@IABQAV3@@Z 00429910 f i UserManager.obj
 0001:00028910       ?_Ufill@?$vector@PAUEVENT_INFO@@V?$allocator@PAUEVENT_INFO@@@std@@@std@@IAEPAPAUEVENT_INFO@@PAPAU3@IABQAU3@@Z 00429910 f i programcommon_s:SunEventInfoParser.obj
 0001:00028910       ?_Ufill@?$vector@KV?$CustomAllocator@K@util@@@std@@IAEPAKPAKIABK@Z 00429910 f i FieldInfo.obj
 0001:00028910       ?_Ufill@?$vector@HV?$allocator@H@std@@@std@@IAEPAHPAHIABH@Z 00429910 f i LottoConfig.obj
 0001:00028940       ??_G?$FixedSizeChunkImpl@VNODE@?$CLinkedlist@PAVSectorInfo@@K@util@@@internal@util@@UAEPAXI@Z 00429940 f i FieldInfo.obj
 0001:00028940       ??_E?$FixedSizeChunkImpl@VNODE@?$CLinkedlist@PAVSectorInfo@@K@util@@@internal@util@@UAEPAXI@Z 00429940 f i FieldInfo.obj
 0001:00028970       ?CreateImpl@?$CMemoryPoolFactory@VNODE@?$CLinkedlist@PAVSectorInfo@@K@util@@@util@@QAEXH@Z 00429970 f i FieldInfo.obj
 0001:00028a90       ?Initialize@?$CMemoryPoolFactory@VNODE@?$CLinkedlist@PAVSectorInfo@@K@util@@@util@@UAE_NIIPBDPAX@Z 00429a90 f i FieldInfo.obj
 0001:00028ac0       ?_Insert_n@?$vector@PAVUser@@V?$CustomAllocator@PAVUser@@@util@@@std@@IAEXV?$_Vector_const_iterator@PAVUser@@V?$CustomAllocator@PAVUser@@@util@@@2@IABQAVUser@@@Z 00429ac0 f i UserManager.obj
 0001:00028ac0       ?_Insert_n@?$vector@KV?$CustomAllocator@K@util@@@std@@IAEXV?$_Vector_const_iterator@KV?$CustomAllocator@K@util@@@2@IABK@Z 00429ac0 f i FieldInfo.obj
 0001:00028c60       ?insert@?$vector@PAVUser@@V?$CustomAllocator@PAVUser@@@util@@@std@@QAE?AV?$_Vector_iterator@PAVUser@@V?$CustomAllocator@PAVUser@@@util@@@2@V?$_Vector_const_iterator@PAVUser@@V?$CustomAllocator@PAVUser@@@util@@@2@ABQAVUser@@@Z 00429c60 f i UserManager.obj
 0001:00028c60       ?insert@?$vector@KV?$CustomAllocator@K@util@@@std@@QAE?AV?$_Vector_iterator@KV?$CustomAllocator@K@util@@@2@V?$_Vector_const_iterator@KV?$CustomAllocator@K@util@@@2@ABK@Z 00429c60 f i FieldInfo.obj
 0001:00028d10       ??0WorldLog@@QAE@XZ        00429d10 f   WorldLog.obj
 0001:00028dc0       ??1WorldLog@@UAE@XZ        00429dc0 f   WorldLog.obj
 0001:00028e50       ?SetLogAble@WorldLog@@QAEXXZ 00429e50 f   WorldLog.obj
 0001:00028f10       ?LogNotification@WorldLog@@QAEXAAUNotificationInfo@@@Z 00429f10 f   WorldLog.obj
 0001:00028fb0       ?WriteNormalChat@WorldLog@@QAEXPAVUser@@HPADK@Z 00429fb0 f   WorldLog.obj
 0001:000290a0       ?WriteShoutChat@WorldLog@@QAEXPAVUser@@HPADK@Z 0042a0a0 f   WorldLog.obj
 0001:00029190       ?WritePartyChat@WorldLog@@QAEXPAVUser@@HPADK@Z 0042a190 f   WorldLog.obj
 0001:00029280       ?WriteGuildChat@WorldLog@@QAEXPAVUser@@HPAVWorldGuild@@PADK@Z 0042a280 f   WorldLog.obj
 0001:00029380       ?WriteWhisperChat@WorldLog@@QAEXPAVUser@@H0PADK@Z 0042a380 f   WorldLog.obj
 0001:000294a0       ?WriteFriendChat@WorldLog@@QAEXPAVUser@@H0PADK@Z 0042a4a0 f   WorldLog.obj
 0001:000295c0       ?WriteChannelChat@WorldLog@@QAEXPAVUser@@HPADK@Z 0042a5c0 f   WorldLog.obj
 0001:000296a0       ?LogSettleHeimLotto@WorldLog@@QAEXHPAVUser@@HGE_K@Z 0042a6a0 f   WorldLog.obj
 0001:00029780       ?LogAction@WorldLog@@QAEXHPAVUser@@PBD1@Z 0042a780 f   WorldLog.obj
 0001:00029840       ??_GWorldLog@@UAEPAXI@Z    0042a840 f i WorldLog.obj
 0001:00029840       ??_EWorldLog@@UAEPAXI@Z    0042a840 f i WorldLog.obj
 0001:00029860       ?CreateRearCamp@WorldGuild@@QAEXE@Z 0042a860 f   WorldGuild.obj
 0001:000298a0       ?DestroyRearCamp@WorldGuild@@QAEXE@Z 0042a8a0 f   WorldGuild.obj
 0001:000298e0       ?SerializeWorldGuildInfo@WorldGuild@@QAEXAAUWORLD_GUILD_INFO@@W4eSERIALIZE@@@Z 0042a8e0 f   WorldGuild.obj
 0001:00029910       ?GetGuildNotice@WorldGuild@@QAEPBDXZ 0042a910 f   WorldGuild.obj
 0001:00029920       ?SetGuildNotice@WorldGuild@@QAEXAAY0DAB@$$CBD@Z 0042a920 f   WorldGuild.obj
 0001:00029950       ?ChangeGuildName@WorldGuild@@QAEXPBD@Z 0042a950 f   WorldGuild.obj
 0001:00029980       ??0WorldGuild@@QAE@XZ      0042a980 f   WorldGuild.obj
 0001:00029a00       ??1WorldGuild@@UAE@XZ      0042aa00 f   WorldGuild.obj
 0001:00029a40       ?Destroy@WorldGuild@@QAEXXZ 0042aa40 f   WorldGuild.obj
 0001:00029aa0       ?Withdraw@WorldGuild@@QAEXH@Z 0042aaa0 f   WorldGuild.obj
 0001:00029b00       ?ChangeMemberDuty@WorldGuild@@QAEHHW4eGUILD_DUTY@@@Z 0042ab00 f   WorldGuild.obj
 0001:00029b50       ?DestroyMember@WorldGuild@@QAEXABH@Z 0042ab50 f   WorldGuild.obj
 0001:00029ba0       ?SendAllMember@WorldGuild@@QAEXPAEG@Z 0042aba0 f   WorldGuild.obj
 0001:00029c10       ?SendCorpsMember@WorldGuild@@QAEXEPAEG@Z 0042ac10 f   WorldGuild.obj
 0001:00029c90       ?CreateMember@WorldGuild@@QAEXABUBASE_GUILD_MEMBER_INFO@@@Z 0042ac90 f   WorldGuild.obj
 0001:00029cf0       ?SerializeBaseMemberInfo@WorldGuild@@QAEXAAUBASE_GUILD_MEMBER_INFO@@W4eSERIALIZE@@@Z 0042acf0 f   WorldGuild.obj
 0001:00029d50       ?Join@WorldGuild@@QAEXABUBASE_GUILD_MEMBER_INFO@@@Z 0042ad50 f   WorldGuild.obj
 0001:00029d60       ?Create@WorldGuild@@QAEXABUWORLD_GUILD_INFO@@ABUBASE_GUILD_MEMBER_INFO@@@Z 0042ad60 f   WorldGuild.obj
 0001:00029d90       ?Initialize@?$SolarHashTable@PAVWorldGuildMember@@K@util@@QAE_NK@Z 0042ad90 f i WorldGuild.obj
 0001:00029e30       ?Free@?$NotUseChunkImpl@VCommChatZone@@@internal@util@@UAEXQAX@Z 0042ae30 f i ChatRoomManager.obj
 0001:00029e30       ?Free@?$NotUseChunkImpl@VAccountDBProxySession@@@internal@util@@UAEXQAX@Z 0042ae30 f i ServerSessionFactory.obj
 0001:00029e30       ?Free@?$NotUseChunkImpl@VWorldGuild@@@internal@util@@UAEXQAX@Z 0042ae30 f i WorldGuild.obj
 0001:00029e30       ?Free@?$NotUseChunkImpl@VBattleServerSession@@@internal@util@@UAEXQAX@Z 0042ae30 f i ServerSessionFactory.obj
 0001:00029e30       ?Free@?$NotUseChunkImpl@VChatZone@@@internal@util@@UAEXQAX@Z 0042ae30 f i ZoneFactory.obj
 0001:00029e30       ?Free@?$NotUseChunkImpl@VTempServerSession@@@internal@util@@UAEXQAX@Z 0042ae30 f i ServerSessionFactory.obj
 0001:00029e30       ?Free@?$NotUseChunkImpl@VMasterServerSession@@@internal@util@@UAEXQAX@Z 0042ae30 f i ServerSessionFactory.obj
 0001:00029e30       ?Free@?$NotUseChunkImpl@VTempUser@@@internal@util@@UAEXQAX@Z 0042ae30 f i UserFactory.obj
 0001:00029e30       ?Free@?$NotUseChunkImpl@VWorldGuildMember@@@internal@util@@UAEXQAX@Z 0042ae30 f i WorldGuildMember.obj
 0001:00029e30       ?Free@?$NotUseChunkImpl@VViewPortZone@@@internal@util@@UAEXQAX@Z 0042ae30 f i ZoneFactory.obj
 0001:00029e30       ?Free@?$NotUseChunkImpl@VVillageZone@@@internal@util@@UAEXQAX@Z 0042ae30 f i ZoneFactory.obj
 0001:00029e30       ?Free@?$NotUseChunkImpl@VGameDBProxySession@@@internal@util@@UAEXQAX@Z 0042ae30 f i ServerSessionFactory.obj
 0001:00029e30       ?Free@?$NotUseChunkImpl@VActiveUser@@@internal@util@@UAEXQAX@Z 0042ae30 f i UserFactory.obj
 0001:00029e30       ?Free@?$NotUseChunkImpl@VAgentServerSession@@@internal@util@@UAEXQAX@Z 0042ae30 f i ServerSessionFactory.obj
 0001:00029e30       ?Free@?$NotUseChunkImpl@VFieldServerSession@@@internal@util@@UAEXQAX@Z 0042ae30 f i ServerSessionFactory.obj
 0001:00029e50       ?Alloc@?$NotUseChunkImpl@VWorldGuild@@@internal@util@@UAEPAXXZ 0042ae50 f i WorldGuild.obj
 0001:00029ec0       ?Create@?$VariableSizeChunkImpl@VWorldGuild@@@internal@util@@CAXPAX@Z 0042aec0 f i WorldGuild.obj
 0001:00029f10       ??_GWorldGuild@@UAEPAXI@Z  0042af10 f i WorldGuild.obj
 0001:00029f10       ??_EWorldGuild@@UAEPAXI@Z  0042af10 f i WorldGuild.obj
 0001:00029f60       ??1?$CMemoryPoolFactory@VWorldGuild@@@util@@UAE@XZ 0042af60 f i WorldGuild.obj
 0001:00029fd0       ??_G?$CMemoryPoolFactory@VWorldGuild@@@util@@UAEPAXI@Z 0042afd0 f i WorldGuild.obj
 0001:00029fd0       ??_E?$CMemoryPoolFactory@VWorldGuild@@@util@@UAEPAXI@Z 0042afd0 f i WorldGuild.obj
 0001:00029ff0       ??0?$VariableSizeChunkImpl@VWorldGuild@@@internal@util@@QAE@XZ 0042aff0 f i WorldGuild.obj
 0001:0002a050       ??1?$VariableSizeChunkImpl@VWorldGuild@@@internal@util@@UAE@XZ 0042b050 f i WorldGuild.obj
 0001:0002a0c0       ??_G?$VariableSizeChunkImpl@VWorldGuild@@@internal@util@@UAEPAXI@Z 0042b0c0 f i WorldGuild.obj
 0001:0002a0c0       ??_E?$VariableSizeChunkImpl@VWorldGuild@@@internal@util@@UAEPAXI@Z 0042b0c0 f i WorldGuild.obj
 0001:0002a0e0       ??0?$GUILDPOOL@VWorldGuild@@@@QAE@XZ 0042b0e0 f i WorldGuild.obj
 0001:0002a140       ??1?$GUILDPOOL@VWorldGuild@@@@QAE@XZ 0042b140 f i WorldGuild.obj
 0001:0002a1a0       ?Alloc@?$FixedSizeChunkImpl@VWorldGuild@@@internal@util@@UAEPAXXZ 0042b1a0 f i WorldGuild.obj
 0001:0002a210       ??_E?$FixedSizeChunkImpl@VWorldGuild@@@internal@util@@UAEPAXI@Z 0042b210 f i WorldGuild.obj
 0001:0002a210       ??_G?$FixedSizeChunkImpl@VWorldGuild@@@internal@util@@UAEPAXI@Z 0042b210 f i WorldGuild.obj
 0001:0002a240       ?CreateImpl@?$CMemoryPoolFactory@VWorldGuild@@@util@@QAEXH@Z 0042b240 f i WorldGuild.obj
 0001:0002a360       ?Initialize@?$CMemoryPoolFactory@VWorldGuild@@@util@@UAE_NIIPBDPAX@Z 0042b360 f i WorldGuild.obj
 0001:0002a390       ??0WorldGuildMember@@QAE@XZ 0042b390 f   WorldGuildMember.obj
 0001:0002a3a0       ??1WorldGuildMember@@UAE@XZ 0042b3a0 f   WorldGuildMember.obj
 0001:0002a3b0       ?Serialize@WorldGuildMember@@QAEXAAUBASE_GUILD_MEMBER_INFO@@W4eSERIALIZE@@@Z 0042b3b0 f   WorldGuildMember.obj
 0001:0002a410       ?SetCharName@WorldGuildMember@@QAEXPBD@Z 0042b410 f   WorldGuildMember.obj
 0001:0002a430       ??_GWorldGuildMember@@UAEPAXI@Z 0042b430 f i WorldGuildMember.obj
 0001:0002a430       ??_EWorldGuildMember@@UAEPAXI@Z 0042b430 f i WorldGuildMember.obj
 0001:0002a450       ?Release@?$CMemoryPoolFactory@USTRUCT_FRIEND_INFO@@@util@@UAEXXZ 0042b450 f i UserManager.obj
 0001:0002a450       ?Release@?$CMemoryPoolFactory@VActiveUser@@@util@@UAEXXZ 0042b450 f i UserFactory.obj
 0001:0002a450       ?Release@?$CMemoryPoolFactory@VViewPortZone@@@util@@UAEXXZ 0042b450 f i ZoneFactory.obj
 0001:0002a450       ?Release@?$CMemoryPoolFactory@VCommChatZone@@@util@@UAEXXZ 0042b450 f i ChatRoomManager.obj
 0001:0002a450       ?Release@?$CMemoryPoolFactory@VChatZone@@@util@@UAEXXZ 0042b450 f i ZoneFactory.obj
 0001:0002a450       ?Release@?$CMemoryPoolFactory@USTRUCT_BLOCK_INFO@@@util@@UAEXXZ 0042b450 f i UserManager.obj
 0001:0002a450       ?Release@?$CMemoryPoolFactory@VAccountDBProxySession@@@util@@UAEXXZ 0042b450 f i ServerSessionFactory.obj
 0001:0002a450       ?Release@?$CMemoryPoolFactory@VBattleServerSession@@@util@@UAEXXZ 0042b450 f i ServerSessionFactory.obj
 0001:0002a450       ?Release@?$CMemoryPoolFactory@VTempUser@@@util@@UAEXXZ 0042b450 f i UserFactory.obj
 0001:0002a450       ?Release@?$CMemoryPoolFactory@VGameDBProxySession@@@util@@UAEXXZ 0042b450 f i ServerSessionFactory.obj
 0001:0002a450       ?Release@?$CMemoryPoolFactory@VAgentServerSession@@@util@@UAEXXZ 0042b450 f i ServerSessionFactory.obj
 0001:0002a450       ?Release@?$CMemoryPoolFactory@USTRUCT_REVENGE_INFO@@@util@@UAEXXZ 0042b450 f i UserManager.obj
 0001:0002a450       ?Release@?$CMemoryPoolFactory@VWorldGuildMember@@@util@@UAEXXZ 0042b450 f i WorldGuildMember.obj
 0001:0002a450       ?Release@?$CMemoryPoolFactory@VMasterServerSession@@@util@@UAEXXZ 0042b450 f i ServerSessionFactory.obj
 0001:0002a450       ?Release@?$CMemoryPoolFactory@VNODE@?$CLinkedlist@PAVSectorInfo@@K@util@@@util@@UAEXXZ 0042b450 f i FieldInfo.obj
 0001:0002a450       ?Release@?$CMemoryPoolFactory@VFieldServerSession@@@util@@UAEXXZ 0042b450 f i ServerSessionFactory.obj
 0001:0002a450       ?Release@?$CMemoryPoolFactory@VNODE@?$CLinkedlist@PAVBaseZone@@K@util@@@util@@UAEXXZ 0042b450 f i BaseZone.obj
 0001:0002a450       ?Release@?$CMemoryPoolFactory@VWorldGuild@@@util@@UAEXXZ 0042b450 f i WorldGuild.obj
 0001:0002a450       ?Release@?$CMemoryPoolFactory@VTempServerSession@@@util@@UAEXXZ 0042b450 f i ServerSessionFactory.obj
 0001:0002a450       ?Release@?$CMemoryPoolFactory@USTRUCT_GROUP_MEMBER_INFO@@@util@@UAEXXZ 0042b450 f i GroupManager.obj
 0001:0002a450       ?Release@?$CMemoryPoolFactory@VVillageZone@@@util@@UAEXXZ 0042b450 f i ZoneFactory.obj
 0001:0002a450       ?Release@?$CMemoryPoolFactory@VChannel@@@util@@UAEXXZ 0042b450 f i ChannelManager.obj
 0001:0002a460       ?Alloc@?$NotUseChunkImpl@VWorldGuildMember@@@internal@util@@UAEPAXXZ 0042b460 f i WorldGuildMember.obj
 0001:0002a480       ?Create@?$VariableSizeChunkImpl@VWorldGuildMember@@@internal@util@@CAXPAX@Z 0042b480 f i WorldGuildMember.obj
 0001:0002a490       ??1?$CMemoryPoolFactory@VWorldGuildMember@@@util@@UAE@XZ 0042b490 f i WorldGuildMember.obj
 0001:0002a500       ??_E?$CMemoryPoolFactory@VWorldGuildMember@@@util@@UAEPAXI@Z 0042b500 f i WorldGuildMember.obj
 0001:0002a500       ??_G?$CMemoryPoolFactory@VWorldGuildMember@@@util@@UAEPAXI@Z 0042b500 f i WorldGuildMember.obj
 0001:0002a520       ??0?$VariableSizeChunkImpl@VWorldGuildMember@@@internal@util@@QAE@XZ 0042b520 f i WorldGuildMember.obj
 0001:0002a580       ??1?$VariableSizeChunkImpl@VWorldGuildMember@@@internal@util@@UAE@XZ 0042b580 f i WorldGuildMember.obj
 0001:0002a5f0       ??_G?$VariableSizeChunkImpl@VWorldGuildMember@@@internal@util@@UAEPAXI@Z 0042b5f0 f i WorldGuildMember.obj
 0001:0002a5f0       ??_E?$VariableSizeChunkImpl@VWorldGuildMember@@@internal@util@@UAEPAXI@Z 0042b5f0 f i WorldGuildMember.obj
 0001:0002a610       ??0?$GUILDPOOL@VWorldGuildMember@@@@QAE@XZ 0042b610 f i WorldGuildMember.obj
 0001:0002a670       ??1?$GUILDPOOL@VWorldGuildMember@@@@QAE@XZ 0042b670 f i WorldGuildMember.obj
 0001:0002a6d0       ?Alloc@?$FixedSizeChunkImpl@VWorldGuildMember@@@internal@util@@UAEPAXXZ 0042b6d0 f i WorldGuildMember.obj
 0001:0002a6f0       ??_E?$FixedSizeChunkImpl@VWorldGuildMember@@@internal@util@@UAEPAXI@Z 0042b6f0 f i WorldGuildMember.obj
 0001:0002a6f0       ??_G?$FixedSizeChunkImpl@VWorldGuildMember@@@internal@util@@UAEPAXI@Z 0042b6f0 f i WorldGuildMember.obj
 0001:0002a720       ?CreateImpl@?$CMemoryPoolFactory@VWorldGuildMember@@@util@@QAEXH@Z 0042b720 f i WorldGuildMember.obj
 0001:0002a840       ?Initialize@?$CMemoryPoolFactory@VWorldGuildMember@@@util@@UAE_NIIPBDPAX@Z 0042b840 f i WorldGuildMember.obj
 0001:0002a870       ?SendGuildMessage@WorldGuildManager@@QAEXPAEG@Z 0042b870 f   WorldGuildManager.obj
 0001:0002a880       ??0WorldGuildManager@@QAE@XZ 0042b880 f   WorldGuildManager.obj
 0001:0002a8e0       ??1WorldGuildManager@@UAE@XZ 0042b8e0 f   WorldGuildManager.obj
 0001:0002a920       ?SendDominationHeimReturnMemo@WorldGuildManager@@QAEXPBUMSG_WZ_GUILD_DOMINATION_RETURNHIME_CMD@@@Z 0042b920 f   WorldGuildManager.obj
 0001:0002aa60       ?Release@WorldGuildManager@@QAEXXZ 0042ba60 f   WorldGuildManager.obj
 0001:0002aad0       ?DestroyGuild@WorldGuildManager@@QAE?AW4eGUILD_RESULT@RC@@PAVUser@@@Z 0042bad0 f   WorldGuildManager.obj
 0001:0002ab20       ?DestroyGuild@WorldGuildManager@@QAEXH@Z 0042bb20 f   WorldGuildManager.obj
 0001:0002ab90       ?WithdrawGuild@WorldGuildManager@@QAEXHH@Z 0042bb90 f   WorldGuildManager.obj
 0001:0002abe0       ?DisplayerGuildInfo@WorldGuildManager@@QAEXXZ 0042bbe0 f   WorldGuildManager.obj
 0001:0002ac30       ?ChangeMemberDuty@WorldGuildManager@@QAEHHHW4eGUILD_DUTY@@@Z 0042bc30 f   WorldGuildManager.obj
 0001:0002aca0       ?SendGuildPacket@WorldGuildManager@@QAEHHPAEG@Z 0042bca0 f   WorldGuildManager.obj
 0001:0002ad00       ?CreateRearCamp@WorldGuildManager@@QAEHHE@Z 0042bd00 f   WorldGuildManager.obj
 0001:0002ad40       ?DestroyRearCamp@WorldGuildManager@@QAEHHE@Z 0042bd40 f   WorldGuildManager.obj
 0001:0002ad80       ?ChangeCommander@WorldGuildManager@@QAEXHHE@Z 0042bd80 f   WorldGuildManager.obj
 0001:0002ade0       ?ChangeCorps@WorldGuildManager@@QAEXHHE@Z 0042bde0 f   WorldGuildManager.obj
 0001:0002ae30       ?CreateGuild@WorldGuildManager@@QAEXABUWORLD_GUILD_INFO@@ABUBASE_GUILD_MEMBER_INFO@@@Z 0042be30 f   WorldGuildManager.obj
 0001:0002aee0       ?LoginGuild@WorldGuildManager@@QAEXABUWORLD_GUILD_INFO@@ABUBASE_GUILD_MEMBER_INFO@@@Z 0042bee0 f   WorldGuildManager.obj
 0001:0002af30       ?LogoutGuild@WorldGuildManager@@QAE?AW4eGUILD_RESULT@RC@@HH@Z 0042bf30 f   WorldGuildManager.obj
 0001:0002afd0       ?GetCharName@WorldGuildManager@@QAEXHHPADH@Z 0042bfd0 f   WorldGuildManager.obj
 0001:0002b030       ?RequestGuildRestore@WorldGuildManager@@QAEXHH@Z 0042c030 f   WorldGuildManager.obj
 0001:0002b100       ?GuildRestore@WorldGuildManager@@QAEXABUWORLD_GUILD_INFO@@ABUBASE_GUILD_MEMBER_INFO@@@Z 0042c100 f   WorldGuildManager.obj
 0001:0002b150       ?SerializeWorldGuildInfo@WorldGuildManager@@QAEXHAAUWORLD_GUILD_INFO@@W4eSERIALIZE@@@Z 0042c150 f   WorldGuildManager.obj
 0001:0002b190       ?SerializeBaseMemberInfo@WorldGuildManager@@QAEXHAAUBASE_GUILD_MEMBER_INFO@@W4eSERIALIZE@@@Z 0042c190 f   WorldGuildManager.obj
 0001:0002b1d0       ?KickMember@WorldGuildManager@@QAEXHH@Z 0042c1d0 f   WorldGuildManager.obj
 0001:0002b210       ?JoinGuild@WorldGuildManager@@QAEXHABUBASE_GUILD_MEMBER_INFO@@@Z 0042c210 f   WorldGuildManager.obj
 0001:0002b250       ?CanChangeNotice@WorldGuildManager@@QAE?AW4eGUILD_RESULT@RC@@HHPBDAAH@Z 0042c250 f   WorldGuildManager.obj
 0001:0002b2e0       ?ChangeNotice@WorldGuildManager@@QAE_NHAAY0DAB@$$CBD@Z 0042c2e0 f   WorldGuildManager.obj
 0001:0002b320       ?GetValueInMemo@WorldGuildManager@@QAEHPBDAAW4eSYSTEM_MEMO_TYPE@@AAG@Z 0042c320 f   WorldGuildManager.obj
 0001:0002b4d0       ?Initialize@?$SolarHashTable@PAVWorldGuild@@K@util@@QAE_NK@Z 0042c4d0 f i WorldGuildManager.obj
 0001:0002b570       ??_GWorldGuildManager@@UAEPAXI@Z 0042c570 f i WorldGuildManager.obj
 0001:0002b570       ??_EWorldGuildManager@@UAEPAXI@Z 0042c570 f i WorldGuildManager.obj
 0001:0002b5c0       ??0GMCmdString@@QAE@XZ     0042c5c0 f   GMCmdString.obj
 0001:0002b600       ??1GMCmdString@@QAE@XZ     0042c600 f   GMCmdString.obj
 0001:0002b610       ?Init@GMCmdString@@QAE_NXZ 0042c610 f   GMCmdString.obj
 0001:0002b6a0       ?IsGMUser@GMCmdManager@@QAEHPAVUser@@@Z 0042c6a0 f   GMCmdManager.obj
 0001:0002b6f0       ?ProcessWorldNotice@GMCmdManager@@AAEXPAVUser@@PAD@Z 0042c6f0 f   GMCmdManager.obj
 0001:0002b800       ?ProcessWorldNotice@GMCmdManager@@AAE_NPAVUser@@AAV?$chunk_vector@V?$basic_string@DU?$char_traits@D@std@@V?$CustomAllocator@D@util@@@std@@@util@@@Z 0042c800 f   GMCmdManager.obj
 0001:0002ba50       ?ProcessChannelNotice@GMCmdManager@@AAE_NPAVUser@@AAV?$chunk_vector@V?$basic_string@DU?$char_traits@D@std@@V?$CustomAllocator@D@util@@@std@@@util@@@Z 0042ca50 f   GMCmdManager.obj
 0001:0002bd60       ?ProcessChannelNotice@GMCmdManager@@AAEXPAVUser@@PAD@Z 0042cd60 f   GMCmdManager.obj
 0001:0002bec0       ?ProcessZoneNotice@GMCmdManager@@AAEXPAVUser@@PAD@Z 0042cec0 f   GMCmdManager.obj
 0001:0002c080       ?ProcessNoticeType@GMCmdManager@@QAE_NPAVUser@@W4eNOTICE_TYPE@@PAD@Z 0042d080 f   GMCmdManager.obj
 0001:0002c0e0       ?ProcessZoneNotice@GMCmdManager@@AAE_NPAVUser@@AAV?$chunk_vector@V?$basic_string@DU?$char_traits@D@std@@V?$CustomAllocator@D@util@@@std@@@util@@@Z 0042d0e0 f   GMCmdManager.obj
 0001:0002c470       ?ProcessCommand@GMCmdManager@@QAE_NPAVUser@@AAV?$chunk_vector@V?$basic_string@DU?$char_traits@D@std@@V?$CustomAllocator@D@util@@@std@@@util@@@Z 0042d470 f   GMCmdManager.obj
 0001:0002c560       ??1GMCmdManager@@QAE@XZ    0042d560 f   GMCmdManager.obj
 0001:0002c5d0       ?ParseCommand@GMCmdManager@@QAE_NPAVUser@@PBD@Z 0042d5d0 f   GMCmdManager.obj
 0001:0002c6a0       ??0GMCmdManager@@QAE@XZ    0042d6a0 f   GMCmdManager.obj
 0001:0002c730       ?compare@?$basic_string@DU?$char_traits@D@std@@V?$CustomAllocator@D@util@@@std@@QBEHIIPBDI@Z 0042d730 f i GMCmdManager.obj
 0001:0002c730       ?compare@?$basic_string@DU?$char_traits@D@std@@V?$allocator@D@2@@std@@QBEHIIPBDI@Z 0042d730 f i CharNameUserList.obj
 0001:0002c7a0       ?compare@?$basic_string@DU?$char_traits@D@std@@V?$CustomAllocator@D@util@@@std@@QBEHPBD@Z 0042d7a0 f i GMCmdManager.obj
 0001:0002c7d0       ?erase@?$basic_string@DU?$char_traits@D@std@@V?$CustomAllocator@D@util@@@std@@QAEAAV12@II@Z 0042d7d0 f i GMCmdManager.obj
 0001:0002c7d0       ?erase@?$basic_string@DU?$char_traits@D@std@@V?$allocator@D@2@@std@@QAEAAV12@II@Z 0042d7d0 f i WorldServer.obj
 0001:0002c860       ?_Copy@?$basic_string@DU?$char_traits@D@std@@V?$CustomAllocator@D@util@@@std@@IAEXII@Z 0042d860 f i GMCmdManager.obj
 0001:0002c910       ??0?$basic_string@DU?$char_traits@D@std@@V?$CustomAllocator@D@util@@@std@@QAE@XZ 0042d910 f i GMCmdManager.obj
 0001:0002c930       ??1?$basic_string@DU?$char_traits@D@std@@V?$CustomAllocator@D@util@@@std@@QAE@XZ 0042d930 f i GMCmdManager.obj
 0001:0002c960       ?destroy@?$CustomAllocator@V?$basic_string@DU?$char_traits@D@std@@V?$CustomAllocator@D@util@@@std@@@util@@QAEXPAV?$basic_string@DU?$char_traits@D@std@@V?$CustomAllocator@D@util@@@std@@@Z 0042d960 f i GMCmdManager.obj
 0001:0002c990       ?assign@?$basic_string@DU?$char_traits@D@std@@V?$CustomAllocator@D@util@@@std@@QAEAAV12@ABV12@II@Z 0042d990 f i GMCmdManager.obj
 0001:0002ca70       ??0?$basic_string@DU?$char_traits@D@std@@V?$CustomAllocator@D@util@@@std@@QAE@ABV01@@Z 0042da70 f i GMCmdManager.obj
 0001:0002caa0       ??$_Destroy_range@V?$CustomAllocator@V?$basic_string@DU?$char_traits@D@std@@V?$CustomAllocator@D@util@@@std@@@util@@@std@@YAXPAV?$basic_string@DU?$char_traits@D@std@@V?$CustomAllocator@D@util@@@0@0AAV?$CustomAllocator@V?$basic_string@DU?$char_traits@D@std@@V?$CustomAllocator@D@util@@@std@@@util@@U_Nonscalar_ptr_iterator_tag@0@@Z 0042daa0 f i GMCmdManager.obj
 0001:0002cae0       ?_Destroy@?$vector@V?$basic_string@DU?$char_traits@D@std@@V?$CustomAllocator@D@util@@@std@@V?$CustomAllocator@V?$basic_string@DU?$char_traits@D@std@@V?$CustomAllocator@D@util@@@std@@@util@@@std@@IAEXPAV?$basic_string@DU?$char_traits@D@std@@V?$CustomAllocator@D@util@@@2@0@Z 0042dae0 f i GMCmdManager.obj
 0001:0002cb00       ?_Xlen@?$vector@U_List_position@?$_Hash@V?$_Hmap_traits@KPAVChatZone@@V?$hash_compare@KU?$less@K@std@@@stdext@@V?$CustomAllocator@PAVChatZone@@@util@@$0A@@stdext@@@stdext@@V?$CustomAllocator@U_List_position@?$_Hash@V?$_Hmap_traits@KPAVChatZone@@V?$hash_compare@KU?$less@K@std@@@stdext@@V?$CustomAllocator@PAVChatZone@@@util@@$0A@@stdext@@@stdext@@@util@@@std@@KAXXZ 0042db00 f i Channel.obj
 0001:0002cb00       ?_Xlen@?$vector@U_List_position@?$_Hash@V?$_Hmap_traits@KPAVUser@@V?$hash_compare@KU?$less@K@std@@@stdext@@V?$CustomAllocator@PAVUser@@@util@@$0A@@stdext@@@stdext@@V?$CustomAllocator@U_List_position@?$_Hash@V?$_Hmap_traits@KPAVUser@@V?$hash_compare@KU?$less@K@std@@@stdext@@V?$CustomAllocator@PAVUser@@@util@@$0A@@stdext@@@stdext@@@util@@@std@@KAXXZ 0042db00 f i GuidUserList.obj
 0001:0002cb00       ?_Xlen@?$vector@U_List_position@?$_Hash@V?$_Hmap_traits@KPAVBASE_FUNC@util@@V?$hash_compare@KU?$less@K@std@@@stdext@@V?$allocator@U?$pair@$$CBKPAVBASE_FUNC@util@@@std@@@std@@$0A@@stdext@@@stdext@@V?$allocator@U_List_position@?$_Hash@V?$_Hmap_traits@KPAVBASE_FUNC@util@@V?$hash_compare@KU?$less@K@std@@@stdext@@V?$allocator@U?$pair@$$CBKPAVBASE_FUNC@util@@@std@@@std@@$0A@@stdext@@@stdext@@@std@@@std@@KAXXZ 0042db00 f i PacketHandler.obj
 0001:0002cb00       ?_Xlen@?$vector@HV?$allocator@H@std@@@std@@KAXXZ 0042db00 f i LottoConfig.obj
 0001:0002cb00       ?_Xlen@?$vector@U_List_position@?$_Hash@V?$_Hmap_traits@W4eITEMTYPE@@USPECIAL_ITEM_INFO@@V?$hash_compare@W4eITEMTYPE@@U?$less@W4eITEMTYPE@@@std@@@stdext@@V?$CustomAllocator@USPECIAL_ITEM_INFO@@@util@@$0A@@stdext@@@stdext@@V?$CustomAllocator@U_List_position@?$_Hash@V?$_Hmap_traits@W4eITEMTYPE@@USPECIAL_ITEM_INFO@@V?$hash_compare@W4eITEMTYPE@@U?$less@W4eITEMTYPE@@@std@@@stdext@@V?$CustomAllocator@USPECIAL_ITEM_INFO@@@util@@$0A@@stdext@@@stdext@@@util@@@std@@KAXXZ 0042db00 f i User.obj
 0001:0002cb00       ?_Xlen@?$vector@U_List_position@?$_Hash@V?$_Hmap_traits@KPAVVillageZone@@V?$hash_compare@KU?$less@K@std@@@stdext@@V?$CustomAllocator@PAVVillageZone@@@util@@$0A@@stdext@@@stdext@@V?$CustomAllocator@U_List_position@?$_Hash@V?$_Hmap_traits@KPAVVillageZone@@V?$hash_compare@KU?$less@K@std@@@stdext@@V?$CustomAllocator@PAVVillageZone@@@util@@$0A@@stdext@@@stdext@@@util@@@std@@KAXXZ 0042db00 f i Channel.obj
 0001:0002cb00       ?_Xlen@?$vector@U_List_position@?$_Hash@V?$_Hmap_traits@KPBUsWUTINFO_BASE@@V?$hash_compare@KU?$less@K@std@@@stdext@@V?$CustomAllocator@PBUsWUTINFO_BASE@@@util@@$0A@@stdext@@@stdext@@V?$CustomAllocator@U_List_position@?$_Hash@V?$_Hmap_traits@KPBUsWUTINFO_BASE@@V?$hash_compare@KU?$less@K@std@@@stdext@@V?$CustomAllocator@PBUsWUTINFO_BASE@@@util@@$0A@@stdext@@@stdext@@@util@@@std@@KAXXZ 0042db00 f i programcommon_s:MapInfoParser.obj
 0001:0002cb00       ?_Xlen@?$vector@KV?$CustomAllocator@K@util@@@std@@KAXXZ 0042db00 f i FieldInfo.obj
 0001:0002cb00       ?_Xlen@?$vector@PAVUser@@V?$CustomAllocator@PAVUser@@@util@@@std@@KAXXZ 0042db00 f i UserManager.obj
 0001:0002cb00       ?_Xlen@?$vector@ULottoWinner@@V?$allocator@ULottoWinner@@@std@@@std@@KAXXZ 0042db00 f i Lotto.obj
 0001:0002cb00       ?_Xlen@?$vector@U_List_position@?$_Hash@V?$_Hmap_traits@HULottoEntry@@V?$hash_compare@HU?$less@H@std@@@stdext@@V?$allocator@U?$pair@$$CBHULottoEntry@@@std@@@std@@$0A@@stdext@@@stdext@@V?$allocator@U_List_position@?$_Hash@V?$_Hmap_traits@HULottoEntry@@V?$hash_compare@HU?$less@H@std@@@stdext@@V?$allocator@U?$pair@$$CBHULottoEntry@@@std@@@std@@$0A@@stdext@@@stdext@@@std@@@std@@KAXXZ 0042db00 f i Lotto.obj
 0001:0002cb00       ?_Xlen@?$vector@U_List_position@?$_Hash@V?$_Hmap_traits@KPBVMapGroupBase@@V?$hash_compare@KU?$less@K@std@@@stdext@@V?$CustomAllocator@PBVMapGroupBase@@@util@@$0A@@stdext@@@stdext@@V?$CustomAllocator@U_List_position@?$_Hash@V?$_Hmap_traits@KPBVMapGroupBase@@V?$hash_compare@KU?$less@K@std@@@stdext@@V?$CustomAllocator@PBVMapGroupBase@@@util@@$0A@@stdext@@@stdext@@@util@@@std@@KAXXZ 0042db00 f i programcommon_s:MapInfoParser.obj
 0001:0002cb00       ?_Xlen@?$vector@PAUEVENT_INFO@@V?$allocator@PAUEVENT_INFO@@@std@@@std@@KAXXZ 0042db00 f i programcommon_s:SunEventInfoParser.obj
 0001:0002cb00       ?_Xlen@?$vector@V?$basic_string@DU?$char_traits@D@std@@V?$CustomAllocator@D@util@@@std@@V?$CustomAllocator@V?$basic_string@DU?$char_traits@D@std@@V?$CustomAllocator@D@util@@@std@@@util@@@std@@KAXXZ 0042db00 f i GMCmdManager.obj
 0001:0002cb00       ?_Xlen@?$vector@U_List_position@?$_Hash@V?$_Hmap_traits@KPBUsMAPINFO_BASE@@V?$hash_compare@KU?$less@K@std@@@stdext@@V?$CustomAllocator@PBUsMAPINFO_BASE@@@util@@$0A@@stdext@@@stdext@@V?$CustomAllocator@U_List_position@?$_Hash@V?$_Hmap_traits@KPBUsMAPINFO_BASE@@V?$hash_compare@KU?$less@K@std@@@stdext@@V?$CustomAllocator@PBUsMAPINFO_BASE@@@util@@$0A@@stdext@@@stdext@@@util@@@std@@KAXXZ 0042db00 f i programcommon_s:MapInfoParser.obj
 0001:0002cb00       ?_Xlen@?$vector@U_List_position@?$_Hash@V?$_Hmap_traits@KPBUsWMOINFO_BASE@@V?$hash_compare@KU?$less@K@std@@@stdext@@V?$CustomAllocator@PBUsWMOINFO_BASE@@@util@@$0A@@stdext@@@stdext@@V?$CustomAllocator@U_List_position@?$_Hash@V?$_Hmap_traits@KPBUsWMOINFO_BASE@@V?$hash_compare@KU?$less@K@std@@@stdext@@V?$CustomAllocator@PBUsWMOINFO_BASE@@@util@@$0A@@stdext@@@stdext@@@util@@@std@@KAXXZ 0042db00 f i programcommon_s:MapInfoParser.obj
 0001:0002cb00       ?_Xlen@?$vector@U_List_position@?$_Hash@V?$_Hmap_traits@KPAVBaseZone@@V?$hash_compare@KU?$less@K@std@@@stdext@@V?$CustomAllocator@PAVBaseZone@@@util@@$0A@@stdext@@@stdext@@V?$CustomAllocator@U_List_position@?$_Hash@V?$_Hmap_traits@KPAVBaseZone@@V?$hash_compare@KU?$less@K@std@@@stdext@@V?$CustomAllocator@PAVBaseZone@@@util@@$0A@@stdext@@@stdext@@@util@@@std@@KAXXZ 0042db00 f i BaseZone.obj
 0001:0002cb00       ?_Xlen@?$vector@U_List_position@?$_Hash@V?$_Hmap_traits@KPBUsFIELDINFO_BASE@@V?$hash_compare@KU?$less@K@std@@@stdext@@V?$CustomAllocator@PBUsFIELDINFO_BASE@@@util@@$0A@@stdext@@@stdext@@V?$CustomAllocator@U_List_position@?$_Hash@V?$_Hmap_traits@KPBUsFIELDINFO_BASE@@V?$hash_compare@KU?$less@K@std@@@stdext@@V?$CustomAllocator@PBUsFIELDINFO_BASE@@@util@@$0A@@stdext@@@stdext@@@util@@@std@@KAXXZ 0042db00 f i programcommon_s:MapInfoParser.obj
 0001:0002cb00       ?_Xlen@?$vector@U_List_position@?$_Hash@V?$_Hmap_traits@KPAVViewPortZone@@V?$hash_compare@KU?$less@K@std@@@stdext@@V?$CustomAllocator@PAVViewPortZone@@@util@@$0A@@stdext@@@stdext@@V?$CustomAllocator@U_List_position@?$_Hash@V?$_Hmap_traits@KPAVViewPortZone@@V?$hash_compare@KU?$less@K@std@@@stdext@@V?$CustomAllocator@PAVViewPortZone@@@util@@$0A@@stdext@@@stdext@@@util@@@std@@KAXXZ 0042db00 f i BaseZone.obj
 0001:0002cb80       ??$_Copy_opt@PAV?$basic_string@DU?$char_traits@D@std@@V?$CustomAllocator@D@util@@@std@@PAV12@Uforward_iterator_tag@2@@std@@YAPAV?$basic_string@DU?$char_traits@D@std@@V?$CustomAllocator@D@util@@@0@PAV10@00Uforward_iterator_tag@0@U_Nonscalar_ptr_iterator_tag@0@U_Range_checked_iterator_tag@0@@Z 0042db80 f i GMCmdManager.obj
 0001:0002cbc0       ??1?$vector@V?$basic_string@DU?$char_traits@D@std@@V?$CustomAllocator@D@util@@@std@@V?$CustomAllocator@V?$basic_string@DU?$char_traits@D@std@@V?$CustomAllocator@D@util@@@std@@@util@@@std@@QAE@XZ 0042dbc0 f i GMCmdManager.obj
 0001:0002cc10       ??$_Copy_opt@PAV?$basic_string@DU?$char_traits@D@std@@V?$CustomAllocator@D@util@@@std@@PAV12@@std@@YAPAV?$basic_string@DU?$char_traits@D@std@@V?$CustomAllocator@D@util@@@0@PAV10@00Urandom_access_iterator_tag@0@U_Nonscalar_ptr_iterator_tag@0@U_Range_checked_iterator_tag@0@@Z 0042dc10 f i GMCmdManager.obj
 0001:0002cc70       ??1?$chunk_vector@V?$basic_string@DU?$char_traits@D@std@@V?$CustomAllocator@D@util@@@std@@@util@@QAE@XZ 0042dc70 f i GMCmdManager.obj
 0001:0002cc80       ??$_Uninit_move@PAV?$basic_string@DU?$char_traits@D@std@@V?$CustomAllocator@D@util@@@std@@PAV12@V?$CustomAllocator@V?$basic_string@DU?$char_traits@D@std@@V?$CustomAllocator@D@util@@@std@@@util@@@std@@YAPAV?$basic_string@DU?$char_traits@D@std@@V?$CustomAllocator@D@util@@@0@PAV10@00AAV?$CustomAllocator@V?$basic_string@DU?$char_traits@D@std@@V?$CustomAllocator@D@util@@@std@@@util@@U_Swap_move_tag@0@U_Range_checked_iterator_tag@0@@Z 0042dc80 f i GMCmdManager.obj
 0001:0002cdb0       ?erase@?$vector@V?$basic_string@DU?$char_traits@D@std@@V?$CustomAllocator@D@util@@@std@@V?$CustomAllocator@V?$basic_string@DU?$char_traits@D@std@@V?$CustomAllocator@D@util@@@std@@@util@@@std@@QAE?AV?$_Vector_iterator@V?$basic_string@DU?$char_traits@D@std@@V?$CustomAllocator@D@util@@@std@@V?$CustomAllocator@V?$basic_string@DU?$char_traits@D@std@@V?$CustomAllocator@D@util@@@std@@@util@@@2@V?$_Vector_const_iterator@V?$basic_string@DU?$char_traits@D@std@@V?$CustomAllocator@D@util@@@std@@V?$CustomAllocator@V?$basic_string@DU?$char_traits@D@std@@V?$CustomAllocator@D@util@@@std@@@util@@@2@0@Z 0042ddb0 f i GMCmdManager.obj
 0001:0002ce60       ?reserve@?$vector@V?$basic_string@DU?$char_traits@D@std@@V?$CustomAllocator@D@util@@@std@@V?$CustomAllocator@V?$basic_string@DU?$char_traits@D@std@@V?$CustomAllocator@D@util@@@std@@@util@@@std@@QAEXI@Z 0042de60 f i GMCmdManager.obj
 0001:0002cfb0       ?Release@PartyFactory@@QAEXXZ 0042dfb0 f   PartyFactory.obj
 0001:0002cfc0       ?Init@PartyFactory@@QAEXK@Z 0042dfc0 f   PartyFactory.obj
 0001:0002cfe0       ?Alloc@PartyFactory@@QAEPAVCommChatZone@@G@Z 0042dfe0 f   PartyFactory.obj
 0001:0002d010       ?Free@PartyFactory@@QAEXPAVCommChatZone@@@Z 0042e010 f   PartyFactory.obj
 0001:0002d040       ??1PartyFactory@@UAE@XZ    0042e040 f   PartyFactory.obj
 0001:0002d060       ??0PartyFactory@@QAE@XZ    0042e060 f   PartyFactory.obj
 0001:0002d0a0       ??_GPartyFactory@@UAEPAXI@Z 0042e0a0 f i PartyFactory.obj
 0001:0002d0a0       ??_EPartyFactory@@UAEPAXI@Z 0042e0a0 f i PartyFactory.obj
 0001:0002d0d0       ?Instance@?$Singleton@VPartyFactory@@$00@util@@SAPAVPartyFactory@@XZ 0042e0d0 f i PartyManager.obj
 0001:0002d150       ?Initialize@?$SolarHashTable@PAVCommChatZone@@K@util@@QAE_NK@Z 0042e150 f i PartyManager.obj
 0001:0002d1f0       ??0PartyManager@@QAE@XZ    0042e1f0 f   PartyManager.obj
 0001:0002d260       ?CreateParty@PartyManager@@QAEPAVCommChatZone@@G@Z 0042e260 f   PartyManager.obj
 0001:0002d2b0       ??1PartyManager@@QAE@XZ    0042e2b0 f   PartyManager.obj
 0001:0002d380       ?JoinParty@PartyManager@@QAEHGPAVUser@@@Z 0042e380 f   PartyManager.obj
 0001:0002d410       ?DestroyParty@PartyManager@@QAEXG@Z 0042e410 f   PartyManager.obj
 0001:0002d470       ?RestoreParty@PartyManager@@QAEXGPAVUser@@@Z 0042e470 f   PartyManager.obj
 0001:0002d4f0       ?SetRoomKey@PartyManager@@QAEXGG@Z 0042e4f0 f   PartyManager.obj
 0001:0002d520       ?WithdrawParty@PartyManager@@QAEHPAVUser@@@Z 0042e520 f   PartyManager.obj
 0001:0002d5b0       ??0WorldScriptParserManager@@QAE@XZ 0042e5b0 f   WorldScriptParserManager.obj
 0001:0002d5d0       ??1WorldScriptParserManager@@UAE@XZ 0042e5d0 f   WorldScriptParserManager.obj
 0001:0002d5e0       ?InitParserPool@WorldScriptParserManager@@UAEXPAX@Z 0042e5e0 f   WorldScriptParserManager.obj
 0001:0002d610       ?RegisterParser@WorldScriptParserManager@@UAEHXZ 0042e610 f   WorldScriptParserManager.obj
 0001:0002d7b0       ?DestroyInstanceEx@WorldScriptParserManager@@UAEXXZ 0042e7b0 f   WorldScriptParserManager.obj
 0001:0002d840       ?Instance@?$Singleton@VSunEventInfoParser@@$00@util@@SAPAVSunEventInfoParser@@XZ 0042e840 f i WorldScriptParserManager.obj
 0001:0002d8c0       ?_Lrotate@?$_Tree@V?$_Tmap_traits@GUNotificationParserStruct@@U?$less@G@std@@V?$allocator@U?$pair@$$CBGUNotificationParserStruct@@@std@@@3@$0A@@std@@@std@@IAEXPAU_Node@?$_Tree_nod@V?$_Tmap_traits@GUNotificationParserStruct@@U?$less@G@std@@V?$allocator@U?$pair@$$CBGUNotificationParserStruct@@@std@@@3@$0A@@std@@@2@@Z 0042e8c0 f i WorldScriptParserManager.obj
 0001:0002d910       ?_Max@?$_Tree@V?$_Tmap_traits@GUNotificationParserStruct@@U?$less@G@std@@V?$allocator@U?$pair@$$CBGUNotificationParserStruct@@@std@@@3@$0A@@std@@@std@@KAPAU_Node@?$_Tree_nod@V?$_Tmap_traits@GUNotificationParserStruct@@U?$less@G@std@@V?$allocator@U?$pair@$$CBGUNotificationParserStruct@@@std@@@3@$0A@@std@@@2@PAU342@@Z 0042e910 f i WorldScriptParserManager.obj
 0001:0002d930       ?_Min@?$_Tree@V?$_Tmap_traits@GUNotificationParserStruct@@U?$less@G@std@@V?$allocator@U?$pair@$$CBGUNotificationParserStruct@@@std@@@3@$0A@@std@@@std@@KAPAU_Node@?$_Tree_nod@V?$_Tmap_traits@GUNotificationParserStruct@@U?$less@G@std@@V?$allocator@U?$pair@$$CBGUNotificationParserStruct@@@std@@@3@$0A@@std@@@2@PAU342@@Z 0042e930 f i WorldScriptParserManager.obj
 0001:0002d950       ?_Rrotate@?$_Tree@V?$_Tmap_traits@GUNotificationParserStruct@@U?$less@G@std@@V?$allocator@U?$pair@$$CBGUNotificationParserStruct@@@std@@@3@$0A@@std@@@std@@IAEXPAU_Node@?$_Tree_nod@V?$_Tmap_traits@GUNotificationParserStruct@@U?$less@G@std@@V?$allocator@U?$pair@$$CBGUNotificationParserStruct@@@std@@@3@$0A@@std@@@2@@Z 0042e950 f i WorldScriptParserManager.obj
 0001:0002d9b0       ?_Inc@const_iterator@?$_Tree@V?$_Tmap_traits@GUNotificationParserStruct@@U?$less@G@std@@V?$allocator@U?$pair@$$CBGUNotificationParserStruct@@@std@@@3@$0A@@std@@@std@@QAEXXZ 0042e9b0 f i WorldScriptParserManager.obj
 0001:0002da20       ??_EWorldScriptParserManager@@UAEPAXI@Z 0042ea20 f i WorldScriptParserManager.obj
 0001:0002da20       ??_GWorldScriptParserManager@@UAEPAXI@Z 0042ea20 f i WorldScriptParserManager.obj
 0001:0002da50       ?_Buynode@?$_Tree@V?$_Tmap_traits@GUNotificationParserStruct@@U?$less@G@std@@V?$allocator@U?$pair@$$CBGUNotificationParserStruct@@@std@@@3@$0A@@std@@@std@@IAEPAU_Node@?$_Tree_nod@V?$_Tmap_traits@GUNotificationParserStruct@@U?$less@G@std@@V?$allocator@U?$pair@$$CBGUNotificationParserStruct@@@std@@@3@$0A@@std@@@2@XZ 0042ea50 f i WorldScriptParserManager.obj
 0001:0002da90       ?_Erase@?$_Tree@V?$_Tmap_traits@GUNotificationParserStruct@@U?$less@G@std@@V?$allocator@U?$pair@$$CBGUNotificationParserStruct@@@std@@@3@$0A@@std@@@std@@IAEXPAU_Node@?$_Tree_nod@V?$_Tmap_traits@GUNotificationParserStruct@@U?$less@G@std@@V?$allocator@U?$pair@$$CBGUNotificationParserStruct@@@std@@@3@$0A@@std@@@2@@Z 0042ea90 f i WorldScriptParserManager.obj
 0001:0002dad0       ??0?$_Tree@V?$_Tmap_traits@GUNotificationParserStruct@@U?$less@G@std@@V?$allocator@U?$pair@$$CBGUNotificationParserStruct@@@std@@@3@$0A@@std@@@std@@QAE@ABU?$less@G@1@ABV?$allocator@U?$pair@$$CBGUNotificationParserStruct@@@std@@@1@@Z 0042ead0 f i WorldScriptParserManager.obj
 0001:0002db60       ?erase@?$_Tree@V?$_Tmap_traits@GUNotificationParserStruct@@U?$less@G@std@@V?$allocator@U?$pair@$$CBGUNotificationParserStruct@@@std@@@3@$0A@@std@@@std@@QAE?AViterator@12@Vconst_iterator@12@@Z 0042eb60 f i WorldScriptParserManager.obj
 0001:0002de30       ?erase@?$_Tree@V?$_Tmap_traits@GUNotificationParserStruct@@U?$less@G@std@@V?$allocator@U?$pair@$$CBGUNotificationParserStruct@@@std@@@3@$0A@@std@@@std@@QAE?AViterator@12@Vconst_iterator@12@0@Z 0042ee30 f i WorldScriptParserManager.obj
 0001:0002df10       ??1?$_Tree@V?$_Tmap_traits@GUNotificationParserStruct@@U?$less@G@std@@V?$allocator@U?$pair@$$CBGUNotificationParserStruct@@@std@@@3@$0A@@std@@@std@@QAE@XZ 0042ef10 f i WorldScriptParserManager.obj
 0001:0002df90       ??0NotificationInfoParser@@QAE@XZ 0042ef90 f i WorldScriptParserManager.obj
 0001:0002e000       ??1NotificationInfoParser@@UAE@XZ 0042f000 f i WorldScriptParserManager.obj
 0001:0002e070       ??_ENotificationInfoParser@@UAEPAXI@Z 0042f070 f i WorldScriptParserManager.obj
 0001:0002e070       ??_GNotificationInfoParser@@UAEPAXI@Z 0042f070 f i WorldScriptParserManager.obj
 0001:0002e090       ?Instance@?$Singleton@VNotificationInfoParser@@$00@util@@SAPAVNotificationInfoParser@@XZ 0042f090 f i WorldScriptParserManager.obj
 0001:0002e110       ?AllocMemberInfo@GroupManager@@AAEPAUSTRUCT_GROUP_MEMBER_INFO@@XZ 0042f110 f   GroupManager.obj
 0001:0002e120       ?SetGroupHighMember@GroupManager@@QAEXPAVUser@@W4eGROUP_STAT@@@Z 0042f120 f   GroupManager.obj
 0001:0002e140       ?SetGroupLowMember@GroupManager@@AAEXPAVUser@@W4eGROUP_STAT@@@Z 0042f140 f   GroupManager.obj
 0001:0002e160       ?GetGroupHighMember@GroupManager@@QAE?AW4eGROUP_STAT@@PAVUser@@@Z 0042f160 f   GroupManager.obj
 0001:0002e180       ?GetGroupLowMember@GroupManager@@QAE?AW4eGROUP_STAT@@PAVUser@@@Z 0042f180 f   GroupManager.obj
 0001:0002e1b0       ??1GroupManager@@QAE@XZ    0042f1b0 f   GroupManager.obj
 0001:0002e1c0       ?SendGroupMemberInfo@GroupManager@@QAEXPAVUser@@ABUSTRUCT_GROUP_MEMBER_INFO@@W4eGROUP_STAT@@@Z 0042f1c0 f   GroupManager.obj
 0001:0002e260       ?SendGroupInfoSet@GroupManager@@AAEXPAVUser@@W4eGROUP_STAT@@1@Z 0042f260 f   GroupManager.obj
 0001:0002e340       ?SendAccumEXP@GroupManager@@AAE_NKH_J@Z 0042f340 f   GroupManager.obj
 0001:0002e3a0       ?IsOverBonusDate@GroupManager@@QAE_N_KH@Z 0042f3a0 f   GroupManager.obj
 0001:0002e440       ?InsertMemberInfo@GroupManager@@QAEPAUSTRUCT_GROUP_MEMBER_INFO@@PAVUser@@PAU2@W4eGROUP_STAT@@@Z 0042f440 f   GroupManager.obj
 0001:0002e4d0       ?SendAccumEXPMemo@GroupManager@@QAEXPAVUser@@@Z 0042f4d0 f   GroupManager.obj
 0001:0002e610       ??0GroupManager@@QAE@XZ    0042f610 f   GroupManager.obj
 0001:0002e650       ?FindGroupMember@GroupManager@@QAEPAUSTRUCT_GROUP_MEMBER_INFO@@PAVUser@@PAD@Z 0042f650 f   GroupManager.obj
 0001:0002e730       ?GetLowMemberCount@GroupManager@@QAEHPAVUser@@@Z 0042f730 f   GroupManager.obj
 0001:0002e7e0       ?SendMemberList@GroupManager@@QAEXPAVUser@@@Z 0042f7e0 f   GroupManager.obj
 0001:0002e970       ?NotifyEXPState@GroupManager@@AAEXPAVUser@@@Z 0042f970 f   GroupManager.obj
 0001:0002eb40       ?NotifyMoneyState@GroupManager@@AAEXPAVUser@@@Z 0042fb40 f   GroupManager.obj
 0001:0002ecd0       ?NotifyLevelUpState@GroupManager@@AAEXPAVUser@@@Z 0042fcd0 f   GroupManager.obj
 0001:0002ede0       ?UpdateGroupInfo@GroupManager@@QAEXPAVUser@@@Z 0042fde0 f   GroupManager.obj
 0001:0002ef10       ?CanAddGroupMember@GroupManager@@QAE_NPAVUser@@0PAUMSG_BASE@@@Z 0042ff10 f   GroupManager.obj
 0001:0002f100       ?FindGroupMember@GroupManager@@QAEPAUSTRUCT_GROUP_MEMBER_INFO@@PAVUser@@K@Z 00430100 f   GroupManager.obj
 0001:0002f180       ?SetMemeberConnectStat@GroupManager@@AAE_NPAVUser@@KH@Z 00430180 f   GroupManager.obj
 0001:0002f1b0       ?NotifyLoginState@GroupManager@@AAEXPAVUser@@@Z 004301b0 f   GroupManager.obj
 0001:0002f2e0       ?NotifyLogOutState@GroupManager@@AAEXPAVUser@@@Z 004302e0 f   GroupManager.obj
 0001:0002f420       ?SendAroundMember@GroupManager@@QAEXPAVUser@@W4eSTAT_ALAM@1@@Z 00430420 f   GroupManager.obj
 0001:0002f4e0       ?RemoveMemberInfo@GroupManager@@QAEXPAVUser@@K@Z 004304e0 f   GroupManager.obj
 0001:0002f570       ?RealeseMember@GroupManager@@QAEXPAVUser@@@Z 00430570 f   GroupManager.obj
 0001:0002f5c0       ?AddMemberInfo@GroupManager@@QAEXPAVUser@@ABUSTRUCT_GROUP_MEMBER_INFO@@@Z 004305c0 f   GroupManager.obj
 0001:0002f6a0       ?SetMemberInfo@GroupManager@@QAE_NPAVUser@@ABUSTRUCT_GROUP_MEMBER_INFO@@@Z 004306a0 f   GroupManager.obj
 0001:0002f780       ?Alloc@?$CMemoryPoolFactory@VWorldGuildMember@@@util@@UAEPAXXZ 00430780 f i WorldGuildMember.obj
 0001:0002f780       ?Alloc@?$CMemoryPoolFactory@VGameDBProxySession@@@util@@UAEPAXXZ 00430780 f i ServerSessionFactory.obj
 0001:0002f780       ?Alloc@?$CMemoryPoolFactory@VWorldGuild@@@util@@UAEPAXXZ 00430780 f i WorldGuild.obj
 0001:0002f780       ?Alloc@?$CMemoryPoolFactory@VMasterServerSession@@@util@@UAEPAXXZ 00430780 f i ServerSessionFactory.obj
 0001:0002f780       ?Alloc@?$CMemoryPoolFactory@VChannel@@@util@@UAEPAXXZ 00430780 f i ChannelManager.obj
 0001:0002f780       ?Alloc@?$CMemoryPoolFactory@VAccountDBProxySession@@@util@@UAEPAXXZ 00430780 f i ServerSessionFactory.obj
 0001:0002f780       ?Alloc@?$CMemoryPoolFactory@VViewPortZone@@@util@@UAEPAXXZ 00430780 f i ZoneFactory.obj
 0001:0002f780       ?Alloc@?$CMemoryPoolFactory@VTempUser@@@util@@UAEPAXXZ 00430780 f i UserFactory.obj
 0001:0002f780       ?Alloc@?$CMemoryPoolFactory@VCommChatZone@@@util@@UAEPAXXZ 00430780 f i ChatRoomManager.obj
 0001:0002f780       ?Alloc@?$CMemoryPoolFactory@USTRUCT_FRIEND_INFO@@@util@@UAEPAXXZ 00430780 f i UserManager.obj
 0001:0002f780       ?Alloc@?$CMemoryPoolFactory@VChatZone@@@util@@UAEPAXXZ 00430780 f i ZoneFactory.obj
 0001:0002f780       ?Alloc@?$CMemoryPoolFactory@VActiveUser@@@util@@UAEPAXXZ 00430780 f i UserFactory.obj
 0001:0002f780       ?Alloc@?$CMemoryPoolFactory@VFieldServerSession@@@util@@UAEPAXXZ 00430780 f i ServerSessionFactory.obj
 0001:0002f780       ?Alloc@?$CMemoryPoolFactory@USTRUCT_BLOCK_INFO@@@util@@UAEPAXXZ 00430780 f i UserManager.obj
 0001:0002f780       ?Alloc@?$CMemoryPoolFactory@USTRUCT_REVENGE_INFO@@@util@@UAEPAXXZ 00430780 f i UserManager.obj
 0001:0002f780       ?Alloc@?$CMemoryPoolFactory@VNODE@?$CLinkedlist@PAVSectorInfo@@K@util@@@util@@UAEPAXXZ 00430780 f i FieldInfo.obj
 0001:0002f780       ?Alloc@?$CMemoryPoolFactory@VTempServerSession@@@util@@UAEPAXXZ 00430780 f i ServerSessionFactory.obj
 0001:0002f780       ?Alloc@?$CMemoryPoolFactory@VNODE@?$CLinkedlist@PAVBaseZone@@K@util@@@util@@UAEPAXXZ 00430780 f i BaseZone.obj
 0001:0002f780       ?Alloc@?$CMemoryPoolFactory@VAgentServerSession@@@util@@UAEPAXXZ 00430780 f i ServerSessionFactory.obj
 0001:0002f780       ?Alloc@?$CMemoryPoolFactory@USTRUCT_GROUP_MEMBER_INFO@@@util@@UAEPAXXZ 00430780 f i GroupManager.obj
 0001:0002f780       ?Alloc@?$CMemoryPoolFactory@VVillageZone@@@util@@UAEPAXXZ 00430780 f i ZoneFactory.obj
 0001:0002f780       ?Alloc@?$CMemoryPoolFactory@VBattleServerSession@@@util@@UAEPAXXZ 00430780 f i ServerSessionFactory.obj
 0001:0002f790       ?Free@?$CMemoryPoolFactory@VTempServerSession@@@util@@UAEHPAX@Z 00430790 f i ServerSessionFactory.obj
 0001:0002f790       ?Free@?$CMemoryPoolFactory@VMasterServerSession@@@util@@UAEHPAX@Z 00430790 f i ServerSessionFactory.obj
 0001:0002f790       ?Free@?$CMemoryPoolFactory@VVillageZone@@@util@@UAEHPAX@Z 00430790 f i ZoneFactory.obj
 0001:0002f790       ?Free@?$CMemoryPoolFactory@VTempUser@@@util@@UAEHPAX@Z 00430790 f i UserFactory.obj
 0001:0002f790       ?Free@?$CMemoryPoolFactory@VCommChatZone@@@util@@UAEHPAX@Z 00430790 f i ChatRoomManager.obj
 0001:0002f790       ?Free@?$CMemoryPoolFactory@VBattleServerSession@@@util@@UAEHPAX@Z 00430790 f i ServerSessionFactory.obj
 0001:0002f790       ?Free@?$CMemoryPoolFactory@VActiveUser@@@util@@UAEHPAX@Z 00430790 f i UserFactory.obj
 0001:0002f790       ?Free@?$CMemoryPoolFactory@VChannel@@@util@@UAEHPAX@Z 00430790 f i ChannelManager.obj
 0001:0002f790       ?Free@?$CMemoryPoolFactory@VViewPortZone@@@util@@UAEHPAX@Z 00430790 f i ZoneFactory.obj
 0001:0002f790       ?Free@?$CMemoryPoolFactory@VGameDBProxySession@@@util@@UAEHPAX@Z 00430790 f i ServerSessionFactory.obj
 0001:0002f790       ?Free@?$CMemoryPoolFactory@VNODE@?$CLinkedlist@PAVSectorInfo@@K@util@@@util@@UAEHPAX@Z 00430790 f i FieldInfo.obj
 0001:0002f790       ?Free@?$CMemoryPoolFactory@VWorldGuild@@@util@@UAEHPAX@Z 00430790 f i WorldGuild.obj
 0001:0002f790       ?Free@?$CMemoryPoolFactory@VAgentServerSession@@@util@@UAEHPAX@Z 00430790 f i ServerSessionFactory.obj
 0001:0002f790       ?Free@?$CMemoryPoolFactory@VWorldGuildMember@@@util@@UAEHPAX@Z 00430790 f i WorldGuildMember.obj
 0001:0002f790       ?Free@?$CMemoryPoolFactory@VFieldServerSession@@@util@@UAEHPAX@Z 00430790 f i ServerSessionFactory.obj
 0001:0002f790       ?Free@?$CMemoryPoolFactory@VChatZone@@@util@@UAEHPAX@Z 00430790 f i ZoneFactory.obj
 0001:0002f790       ?Free@?$CMemoryPoolFactory@VNODE@?$CLinkedlist@PAVBaseZone@@K@util@@@util@@UAEHPAX@Z 00430790 f i BaseZone.obj
 0001:0002f790       ?Free@?$CMemoryPoolFactory@VAccountDBProxySession@@@util@@UAEHPAX@Z 00430790 f i ServerSessionFactory.obj
 0001:0002f790       ?Free@?$CMemoryPoolFactory@USTRUCT_GROUP_MEMBER_INFO@@@util@@UAEHPAX@Z 00430790 f i GroupManager.obj
 0001:0002f790       ?Free@?$CMemoryPoolFactory@USTRUCT_BLOCK_INFO@@@util@@UAEHPAX@Z 00430790 f i UserManager.obj
 0001:0002f790       ?Free@?$CMemoryPoolFactory@USTRUCT_FRIEND_INFO@@@util@@UAEHPAX@Z 00430790 f i UserManager.obj
 0001:0002f790       ?Free@?$CMemoryPoolFactory@USTRUCT_REVENGE_INFO@@@util@@UAEHPAX@Z 00430790 f i UserManager.obj
 0001:0002f7b0       ?Alloc@?$NotUseChunkImpl@USTRUCT_GROUP_MEMBER_INFO@@@internal@util@@UAEPAXXZ 004307b0 f i GroupManager.obj
 0001:0002f7e0       ??0?$VariableSizeChunkImpl@USTRUCT_GROUP_MEMBER_INFO@@@internal@util@@QAE@XZ 004307e0 f i GroupManager.obj
 0001:0002f840       ??1?$VariableSizeChunkImpl@USTRUCT_GROUP_MEMBER_INFO@@@internal@util@@UAE@XZ 00430840 f i GroupManager.obj
 0001:0002f8b0       ??_G?$VariableSizeChunkImpl@USTRUCT_GROUP_MEMBER_INFO@@@internal@util@@UAEPAXI@Z 004308b0 f i GroupManager.obj
 0001:0002f8b0       ??_E?$VariableSizeChunkImpl@USTRUCT_GROUP_MEMBER_INFO@@@internal@util@@UAEPAXI@Z 004308b0 f i GroupManager.obj
 0001:0002f8d0       ??1?$CMemoryPoolFactory@USTRUCT_GROUP_MEMBER_INFO@@@util@@UAE@XZ 004308d0 f i GroupManager.obj
 0001:0002f940       ??_E?$CMemoryPoolFactory@USTRUCT_GROUP_MEMBER_INFO@@@util@@UAEPAXI@Z 00430940 f i GroupManager.obj
 0001:0002f940       ??_G?$CMemoryPoolFactory@USTRUCT_GROUP_MEMBER_INFO@@@util@@UAEPAXI@Z 00430940 f i GroupManager.obj
 0001:0002f960       ?find@?$_Tree@V?$_Tmap_traits@KPAVServerSession@@U?$less@K@std@@V?$CustomAllocator@PAVServerSession@@@util@@$0A@@std@@@std@@QAE?AViterator@12@ABK@Z 00430960 f i ServerSessionManager.obj
 0001:0002f960       ?find@?$_Tree@V?$_Tmap_traits@KPAUSTRUCT_BLOCK_INFO@@U?$less@K@std@@V?$CustomAllocator@PAUSTRUCT_BLOCK_INFO@@@util@@$0A@@std@@@std@@QAE?AViterator@12@ABK@Z 00430960 f i User.obj
 0001:0002f960       ?find@?$_Tree@V?$_Tmap_traits@KPAVChannel@@U?$less@K@std@@V?$CustomAllocator@PAVChannel@@@util@@$0A@@std@@@std@@QAE?AViterator@12@ABK@Z 00430960 f i ChannelManager.obj
 0001:0002f960       ?find@?$_Tree@V?$_Tmap_traits@KPAVFriendInvitationCommand@@U?$less@K@std@@V?$CustomAllocator@PAVFriendInvitationCommand@@@util@@$0A@@std@@@std@@QAE?AViterator@12@ABK@Z 00430960 f i servercommon:FriendInvitationInvoker.obj
 0001:0002f960       ?find@?$_Tree@V?$_Tmap_traits@KPAUSTRUCT_REVENGE_INFO@@U?$less@K@std@@V?$CustomAllocator@PAUSTRUCT_REVENGE_INFO@@@util@@$0A@@std@@@std@@QAE?AViterator@12@ABK@Z 00430960 f i User.obj
 0001:0002f960       ?find@?$_Tree@V?$_Tmap_traits@KPBUsMAP_ENTERENCE_PORTAL_BASE@@U?$less@K@std@@V?$CustomAllocator@PBUsMAP_ENTERENCE_PORTAL_BASE@@@util@@$0A@@std@@@std@@QBE?AVconst_iterator@12@ABK@Z 00430960 f i programcommon_s:MapInfoParser.obj
 0001:0002f960       ?find@?$_Tree@V?$_Tmap_traits@KPAUSTRUCT_GROUP_MEMBER_INFO@@U?$less@K@std@@V?$CustomAllocator@PAUSTRUCT_GROUP_MEMBER_INFO@@@util@@$0A@@std@@@std@@QAE?AViterator@12@ABK@Z 00430960 f i GroupManager.obj
 0001:0002f960       ?find@?$_Tree@V?$_Tmap_traits@KPAVUser@@U?$less@K@std@@V?$CustomAllocator@PAVUser@@@util@@$0A@@std@@@std@@QAE?AViterator@12@ABK@Z 00430960 f i User.obj
 0001:0002f960       ?find@?$_Tree@V?$_Tmap_traits@KPAUSTRUCT_FRIEND_INFO@@U?$less@K@std@@V?$CustomAllocator@PAUSTRUCT_FRIEND_INFO@@@util@@$0A@@std@@@std@@QAE?AViterator@12@ABK@Z 00430960 f i FriendMap.obj
 0001:0002f960       ?find@?$_Tree@V?$_Tmap_traits@KPAVFieldInfo@@U?$less@K@std@@V?$CustomAllocator@PAVFieldInfo@@@util@@$0A@@std@@@std@@QAE?AViterator@12@ABK@Z 00430960 f i ChannelManager.obj
 0001:0002f9f0       ?Alloc@?$FixedSizeChunkImpl@USTRUCT_GROUP_MEMBER_INFO@@@internal@util@@UAEPAXXZ 004309f0 f i GroupManager.obj
 0001:0002fa20       ??_E?$FixedSizeChunkImpl@USTRUCT_GROUP_MEMBER_INFO@@@internal@util@@UAEPAXI@Z 00430a20 f i GroupManager.obj
 0001:0002fa20       ??_G?$FixedSizeChunkImpl@USTRUCT_GROUP_MEMBER_INFO@@@internal@util@@UAEPAXI@Z 00430a20 f i GroupManager.obj
 0001:0002fa50       ?CreateImpl@?$CMemoryPoolFactory@USTRUCT_GROUP_MEMBER_INFO@@@util@@QAEXH@Z 00430a50 f i GroupManager.obj
 0001:0002fb70       ?Initialize@?$CMemoryPoolFactory@USTRUCT_GROUP_MEMBER_INFO@@@util@@UAE_NIIPBDPAX@Z 00430b70 f i GroupManager.obj
 0001:0002fba0       ?OnEntrySave@LottoState@@UAEXPAUMSG_BASE@@@Z 00430ba0 f i Lotto.obj
 0001:0002fba0       ?SetTypeName@IMemoryPoolFactoryImpl@internal@util@@UAEXPBD@Z 00430ba0 f i ServerSessionFactory.obj
 0001:0002fba0       ?OnHeimConsumption@LottoState@@UAEXPAUMSG_BASE@@@Z 00430ba0 f i Lotto.obj
 0001:0002fba0       ?OnRollOver@LottoState@@UAEXPAUMSG_BASE@@@Z 00430ba0 f i Lotto.obj
 0001:0002fba0       ?OnLoad@LottoState@@UAEXPAUMSG_BASE@@@Z 00430ba0 f i Lotto.obj
 0001:0002fba0       ?OnWinnerList@LottoState@@UAEXPAUMSG_BASE@@@Z 00430ba0 f i Lotto.obj
 0001:0002fba0       ?Init@IParser@@UAEXK@Z     00430ba0 f i ChannelManager.obj
 0001:0002fba0       ?CloseFile@CPackFile@@QAEXPAX@Z 00430ba0 f i utility_s:FilePackerManager.obj
 0001:0002fba0       ?OnTicketAcquisition@LottoState@@UAEXPAUMSG_BASE@@@Z 00430ba0 f i Lotto.obj
 0001:0002fbb0       ??_ELottoDrawingState@@UAEPAXI@Z 00430bb0 f i Lotto.obj
 0001:0002fbb0       ??_ELottoInactiveState@@UAEPAXI@Z 00430bb0 f i Lotto.obj
 0001:0002fbb0       ??_GLottoState@@UAEPAXI@Z  00430bb0 f i Lotto.obj
 0001:0002fbb0       ??_GLottoFinalState@@UAEPAXI@Z 00430bb0 f i Lotto.obj
 0001:0002fbb0       ??_ELottoState@@UAEPAXI@Z  00430bb0 f i Lotto.obj
 0001:0002fbb0       ??_GLottoDrawingState@@UAEPAXI@Z 00430bb0 f i Lotto.obj
 0001:0002fbb0       ??_ELottoActiveState@@UAEPAXI@Z 00430bb0 f i Lotto.obj
 0001:0002fbb0       ??_ELottoInitialState@@UAEPAXI@Z 00430bb0 f i Lotto.obj
 0001:0002fbb0       ??_GLottoInitialState@@UAEPAXI@Z 00430bb0 f i Lotto.obj
 0001:0002fbb0       ??_GLottoInactiveState@@UAEPAXI@Z 00430bb0 f i Lotto.obj
 0001:0002fbb0       ??_GLottoActiveState@@UAEPAXI@Z 00430bb0 f i Lotto.obj
 0001:0002fbb0       ??_ELottoFinalState@@UAEPAXI@Z 00430bb0 f i Lotto.obj
 0001:0002fbd0       ?AddCurrentTotalAccum@Lotto@@AAE_J_J@Z 00430bd0 f   Lotto.obj
 0001:0002fc10       ?CheckMatches@Lotto@@ABEHPAE@Z 00430c10 f   Lotto.obj
 0001:0002fc60       ?AreValidPicks@Lotto@@CA_NPAE@Z 00430c60 f   Lotto.obj
 0001:0002fca0       ?GetCurrentWinningNum@Lotto@@QBEXPAE@Z 00430ca0 f   Lotto.obj
 0001:0002fd00       ?GetResult@Lotto@@AAEPAULottoResult@@H@Z 00430d00 f   Lotto.obj
 0001:0002fd40       ?Sort@Lotto@@CAXPAE@Z      00430d40 f   Lotto.obj
 0001:0002fd60       ?CalculatePrizes@Lotto@@AAEXXZ 00430d60 f   Lotto.obj
 0001:0002ffe0       ?TransitState@Lotto@@AAEXW4State@1@@Z 00430fe0 f   Lotto.obj
 0001:00030040       ?ForceRollOver@Lotto@@QAEXXZ 00431040 f   Lotto.obj
 0001:00030070       ?PickRandomNumbers@Lotto@@CAXPAE@Z 00431070 f   Lotto.obj
 0001:000300c0       ?RollOver@Lotto@@AAEXPAE@Z 004310c0 f   Lotto.obj
 0001:000302f0       ?FindEntry@Lotto@@AAEPAULottoEntry@@H@Z 004312f0 f   Lotto.obj
 0001:00030360       ?OnHeimConsumption@Lotto@@AAEHHW4eHEIM_CONSUMPTION_TYPE@@_JH@Z 00431360 f   Lotto.obj
 0001:00030460       ?ProcessTicket@Lotto@@AAE_NHH_NPAEPAH2@Z 00431460 f   Lotto.obj
 0001:00030530       ?EnterTicket@Lotto@@AAEXHHHPAE@Z 00431530 f   Lotto.obj
 0001:000305b0       ??1Lotto@@QAE@XZ           004315b0 f   Lotto.obj
 0001:000306f0       ??0Lotto@@AAE@XZ           004316f0 f   Lotto.obj
 0001:00030950       ?ReleaseEntry@Lotto@@AAEXH@Z 00431950 f   Lotto.obj
 0001:00030960       ?NewEntry@Lotto@@AAEPAULottoEntry@@H@Z 00431960 f   Lotto.obj
 0001:00030bc0       ??D?$_Deque_const_iterator@ULottoTicket@@V?$allocator@ULottoTicket@@@std@@$00@std@@QBEABULottoTicket@@XZ 00431bc0 f i Lotto.obj
 0001:00030c50       ??$_Allocate@H@std@@YAPAHIPAH@Z 00431c50 f i LottoConfig.obj
 0001:00030c50       ??$_Allocate@PAULottoTicket@@@std@@YAPAPAULottoTicket@@IPAPAU1@@Z 00431c50 f i Lotto.obj
 0001:00030c50       ??$_Allocate@PAUEVENT_INFO@@@std@@YAPAPAUEVENT_INFO@@IPAPAU1@@Z 00431c50 f i programcommon_s:SunEventInfoParser.obj
 0001:00030cb0       ??$_Allocate@ULottoWinner@@@std@@YAPAULottoWinner@@IPAU1@@Z 00431cb0 f i Lotto.obj
 0001:00030d10       ?pop_front@?$deque@ULottoTicket@@V?$allocator@ULottoTicket@@@std@@@std@@QAEXXZ 00431d10 f i Lotto.obj
 0001:00030d40       ?pop_back@?$deque@ULottoTicket@@V?$allocator@ULottoTicket@@@std@@@std@@QAEXXZ 00431d40 f i Lotto.obj
 0001:00030d60       ?_Tidy@?$deque@ULottoTicket@@V?$allocator@ULottoTicket@@@std@@@std@@IAEXXZ 00431d60 f i Lotto.obj
 0001:00030dd0       ?_Buynode@?$list@U?$pair@$$CBHULottoEntry@@@std@@V?$allocator@U?$pair@$$CBHULottoEntry@@@std@@@2@@std@@IAEPAU_Node@?$_List_nod@U?$pair@$$CBHULottoEntry@@@std@@V?$allocator@U?$pair@$$CBHULottoEntry@@@std@@@2@@2@XZ 00431dd0 f i Lotto.obj
 0001:00030df0       ?_Ufill@?$vector@U_List_position@?$_Hash@V?$_Hmap_traits@KPBUsWMOINFO_BASE@@V?$hash_compare@KU?$less@K@std@@@stdext@@V?$CustomAllocator@PBUsWMOINFO_BASE@@@util@@$0A@@stdext@@@stdext@@V?$CustomAllocator@U_List_position@?$_Hash@V?$_Hmap_traits@KPBUsWMOINFO_BASE@@V?$hash_compare@KU?$less@K@std@@@stdext@@V?$CustomAllocator@PBUsWMOINFO_BASE@@@util@@$0A@@stdext@@@stdext@@@util@@@std@@IAEPAU_List_position@?$_Hash@V?$_Hmap_traits@KPBUsWMOINFO_BASE@@V?$hash_compare@KU?$less@K@std@@@stdext@@V?$CustomAllocator@PBUsWMOINFO_BASE@@@util@@$0A@@stdext@@@stdext@@PAU345@IABU345@@Z 00431df0 f i programcommon_s:MapInfoParser.obj
 0001:00030df0       ?_Ufill@?$vector@U_List_position@?$_Hash@V?$_Hmap_traits@KPBUsFIELDINFO_BASE@@V?$hash_compare@KU?$less@K@std@@@stdext@@V?$CustomAllocator@PBUsFIELDINFO_BASE@@@util@@$0A@@stdext@@@stdext@@V?$CustomAllocator@U_List_position@?$_Hash@V?$_Hmap_traits@KPBUsFIELDINFO_BASE@@V?$hash_compare@KU?$less@K@std@@@stdext@@V?$CustomAllocator@PBUsFIELDINFO_BASE@@@util@@$0A@@stdext@@@stdext@@@util@@@std@@IAEPAU_List_position@?$_Hash@V?$_Hmap_traits@KPBUsFIELDINFO_BASE@@V?$hash_compare@KU?$less@K@std@@@stdext@@V?$CustomAllocator@PBUsFIELDINFO_BASE@@@util@@$0A@@stdext@@@stdext@@PAU345@IABU345@@Z 00431df0 f i programcommon_s:MapInfoParser.obj
 0001:00030df0       ?_Ufill@?$vector@U_List_position@?$_Hash@V?$_Hmap_traits@KPAVChatZone@@V?$hash_compare@KU?$less@K@std@@@stdext@@V?$CustomAllocator@PAVChatZone@@@util@@$0A@@stdext@@@stdext@@V?$CustomAllocator@U_List_position@?$_Hash@V?$_Hmap_traits@KPAVChatZone@@V?$hash_compare@KU?$less@K@std@@@stdext@@V?$CustomAllocator@PAVChatZone@@@util@@$0A@@stdext@@@stdext@@@util@@@std@@IAEPAU_List_position@?$_Hash@V?$_Hmap_traits@KPAVChatZone@@V?$hash_compare@KU?$less@K@std@@@stdext@@V?$CustomAllocator@PAVChatZone@@@util@@$0A@@stdext@@@stdext@@PAU345@IABU345@@Z 00431df0 f i Channel.obj
 0001:00030df0       ?_Ufill@?$vector@U_List_position@?$_Hash@V?$_Hmap_traits@KPAVVillageZone@@V?$hash_compare@KU?$less@K@std@@@stdext@@V?$CustomAllocator@PAVVillageZone@@@util@@$0A@@stdext@@@stdext@@V?$CustomAllocator@U_List_position@?$_Hash@V?$_Hmap_traits@KPAVVillageZone@@V?$hash_compare@KU?$less@K@std@@@stdext@@V?$CustomAllocator@PAVVillageZone@@@util@@$0A@@stdext@@@stdext@@@util@@@std@@IAEPAU_List_position@?$_Hash@V?$_Hmap_traits@KPAVVillageZone@@V?$hash_compare@KU?$less@K@std@@@stdext@@V?$CustomAllocator@PAVVillageZone@@@util@@$0A@@stdext@@@stdext@@PAU345@IABU345@@Z 00431df0 f i Channel.obj
 0001:00030df0       ?_Ufill@?$vector@U_List_position@?$_Hash@V?$_Hmap_traits@KPAVUser@@V?$hash_compare@KU?$less@K@std@@@stdext@@V?$CustomAllocator@PAVUser@@@util@@$0A@@stdext@@@stdext@@V?$CustomAllocator@U_List_position@?$_Hash@V?$_Hmap_traits@KPAVUser@@V?$hash_compare@KU?$less@K@std@@@stdext@@V?$CustomAllocator@PAVUser@@@util@@$0A@@stdext@@@stdext@@@util@@@std@@IAEPAU_List_position@?$_Hash@V?$_Hmap_traits@KPAVUser@@V?$hash_compare@KU?$less@K@std@@@stdext@@V?$CustomAllocator@PAVUser@@@util@@$0A@@stdext@@@stdext@@PAU345@IABU345@@Z 00431df0 f i GuidUserList.obj
 0001:00030df0       ?_Ufill@?$vector@U_List_position@?$_Hash@V?$_Hmap_traits@KPBVMapGroupBase@@V?$hash_compare@KU?$less@K@std@@@stdext@@V?$CustomAllocator@PBVMapGroupBase@@@util@@$0A@@stdext@@@stdext@@V?$CustomAllocator@U_List_position@?$_Hash@V?$_Hmap_traits@KPBVMapGroupBase@@V?$hash_compare@KU?$less@K@std@@@stdext@@V?$CustomAllocator@PBVMapGroupBase@@@util@@$0A@@stdext@@@stdext@@@util@@@std@@IAEPAU_List_position@?$_Hash@V?$_Hmap_traits@KPBVMapGroupBase@@V?$hash_compare@KU?$less@K@std@@@stdext@@V?$CustomAllocator@PBVMapGroupBase@@@util@@$0A@@stdext@@@stdext@@PAU345@IABU345@@Z 00431df0 f i programcommon_s:MapInfoParser.obj
 0001:00030df0       ?_Ufill@?$vector@U_List_position@?$_Hash@V?$_Hmap_traits@KPAVBaseZone@@V?$hash_compare@KU?$less@K@std@@@stdext@@V?$CustomAllocator@PAVBaseZone@@@util@@$0A@@stdext@@@stdext@@V?$CustomAllocator@U_List_position@?$_Hash@V?$_Hmap_traits@KPAVBaseZone@@V?$hash_compare@KU?$less@K@std@@@stdext@@V?$CustomAllocator@PAVBaseZone@@@util@@$0A@@stdext@@@stdext@@@util@@@std@@IAEPAU_List_position@?$_Hash@V?$_Hmap_traits@KPAVBaseZone@@V?$hash_compare@KU?$less@K@std@@@stdext@@V?$CustomAllocator@PAVBaseZone@@@util@@$0A@@stdext@@@stdext@@PAU345@IABU345@@Z 00431df0 f i BaseZone.obj
 0001:00030df0       ?_Ufill@?$vector@U_List_position@?$_Hash@V?$_Hmap_traits@KPAVBASE_FUNC@util@@V?$hash_compare@KU?$less@K@std@@@stdext@@V?$allocator@U?$pair@$$CBKPAVBASE_FUNC@util@@@std@@@std@@$0A@@stdext@@@stdext@@V?$allocator@U_List_position@?$_Hash@V?$_Hmap_traits@KPAVBASE_FUNC@util@@V?$hash_compare@KU?$less@K@std@@@stdext@@V?$allocator@U?$pair@$$CBKPAVBASE_FUNC@util@@@std@@@std@@$0A@@stdext@@@stdext@@@std@@@std@@IAEPAU_List_position@?$_Hash@V?$_Hmap_traits@KPAVBASE_FUNC@util@@V?$hash_compare@KU?$less@K@std@@@stdext@@V?$allocator@U?$pair@$$CBKPAVBASE_FUNC@util@@@std@@@std@@$0A@@stdext@@@stdext@@PAU345@IABU345@@Z 00431df0 f i PacketHandler.obj
 0001:00030df0       ?_Ufill@?$vector@U_List_position@?$_Hash@V?$_Hmap_traits@KPAVViewPortZone@@V?$hash_compare@KU?$less@K@std@@@stdext@@V?$CustomAllocator@PAVViewPortZone@@@util@@$0A@@stdext@@@stdext@@V?$CustomAllocator@U_List_position@?$_Hash@V?$_Hmap_traits@KPAVViewPortZone@@V?$hash_compare@KU?$less@K@std@@@stdext@@V?$CustomAllocator@PAVViewPortZone@@@util@@$0A@@stdext@@@stdext@@@util@@@std@@IAEPAU_List_position@?$_Hash@V?$_Hmap_traits@KPAVViewPortZone@@V?$hash_compare@KU?$less@K@std@@@stdext@@V?$CustomAllocator@PAVViewPortZone@@@util@@$0A@@stdext@@@stdext@@PAU345@IABU345@@Z 00431df0 f i BaseZone.obj
 0001:00030df0       ?_Ufill@?$vector@U_List_position@?$_Hash@V?$_Hmap_traits@W4eITEMTYPE@@USPECIAL_ITEM_INFO@@V?$hash_compare@W4eITEMTYPE@@U?$less@W4eITEMTYPE@@@std@@@stdext@@V?$CustomAllocator@USPECIAL_ITEM_INFO@@@util@@$0A@@stdext@@@stdext@@V?$CustomAllocator@U_List_position@?$_Hash@V?$_Hmap_traits@W4eITEMTYPE@@USPECIAL_ITEM_INFO@@V?$hash_compare@W4eITEMTYPE@@U?$less@W4eITEMTYPE@@@std@@@stdext@@V?$CustomAllocator@USPECIAL_ITEM_INFO@@@util@@$0A@@stdext@@@stdext@@@util@@@std@@IAEPAU_List_position@?$_Hash@V?$_Hmap_traits@W4eITEMTYPE@@USPECIAL_ITEM_INFO@@V?$hash_compare@W4eITEMTYPE@@U?$less@W4eITEMTYPE@@@std@@@stdext@@V?$CustomAllocator@USPECIAL_ITEM_INFO@@@util@@$0A@@stdext@@@stdext@@PAU345@IABU345@@Z 00431df0 f i User.obj
 0001:00030df0       ?_Ufill@?$vector@U_List_position@?$_Hash@V?$_Hmap_traits@HULottoEntry@@V?$hash_compare@HU?$less@H@std@@@stdext@@V?$allocator@U?$pair@$$CBHULottoEntry@@@std@@@std@@$0A@@stdext@@@stdext@@V?$allocator@U_List_position@?$_Hash@V?$_Hmap_traits@HULottoEntry@@V?$hash_compare@HU?$less@H@std@@@stdext@@V?$allocator@U?$pair@$$CBHULottoEntry@@@std@@@std@@$0A@@stdext@@@stdext@@@std@@@std@@IAEPAU_List_position@?$_Hash@V?$_Hmap_traits@HULottoEntry@@V?$hash_compare@HU?$less@H@std@@@stdext@@V?$allocator@U?$pair@$$CBHULottoEntry@@@std@@@std@@$0A@@stdext@@@stdext@@PAU345@IABU345@@Z 00431df0 f i Lotto.obj
 0001:00030df0       ?_Ufill@?$vector@U_List_position@?$_Hash@V?$_Hmap_traits@KPBUsWUTINFO_BASE@@V?$hash_compare@KU?$less@K@std@@@stdext@@V?$CustomAllocator@PBUsWUTINFO_BASE@@@util@@$0A@@stdext@@@stdext@@V?$CustomAllocator@U_List_position@?$_Hash@V?$_Hmap_traits@KPBUsWUTINFO_BASE@@V?$hash_compare@KU?$less@K@std@@@stdext@@V?$CustomAllocator@PBUsWUTINFO_BASE@@@util@@$0A@@stdext@@@stdext@@@util@@@std@@IAEPAU_List_position@?$_Hash@V?$_Hmap_traits@KPBUsWUTINFO_BASE@@V?$hash_compare@KU?$less@K@std@@@stdext@@V?$CustomAllocator@PBUsWUTINFO_BASE@@@util@@$0A@@stdext@@@stdext@@PAU345@IABU345@@Z 00431df0 f i programcommon_s:MapInfoParser.obj
 0001:00030df0       ?_Ufill@?$vector@U_List_position@?$_Hash@V?$_Hmap_traits@KPBUsMAPINFO_BASE@@V?$hash_compare@KU?$less@K@std@@@stdext@@V?$CustomAllocator@PBUsMAPINFO_BASE@@@util@@$0A@@stdext@@@stdext@@V?$CustomAllocator@U_List_position@?$_Hash@V?$_Hmap_traits@KPBUsMAPINFO_BASE@@V?$hash_compare@KU?$less@K@std@@@stdext@@V?$CustomAllocator@PBUsMAPINFO_BASE@@@util@@$0A@@stdext@@@stdext@@@util@@@std@@IAEPAU_List_position@?$_Hash@V?$_Hmap_traits@KPBUsMAPINFO_BASE@@V?$hash_compare@KU?$less@K@std@@@stdext@@V?$CustomAllocator@PBUsMAPINFO_BASE@@@util@@$0A@@stdext@@@stdext@@PAU345@IABU345@@Z 00431df0 f i programcommon_s:MapInfoParser.obj
 0001:00030e30       ?_Reverse@?$deque@ULottoTicket@@V?$allocator@ULottoTicket@@@std@@@std@@QAEXII@Z 00431e30 f i Lotto.obj
 0001:00030f60       ??1LottoEntry@@QAE@XZ      00431f60 f i Lotto.obj
 0001:00030f80       ??1?$pair@$$CBHULottoEntry@@@std@@QAE@XZ 00431f80 f i Lotto.obj
 0001:00030f80       ??1?$pair@HULottoEntry@@@std@@QAE@XZ 00431f80 f i Lotto.obj
 0001:00030fa0       ?lower_bound@?$_Hash@V?$_Hmap_traits@HULottoEntry@@V?$hash_compare@HU?$less@H@std@@@stdext@@V?$allocator@U?$pair@$$CBHULottoEntry@@@std@@@std@@$0A@@stdext@@@stdext@@QAE?AV?$_Iterator@$00@?$list@U?$pair@$$CBHULottoEntry@@@std@@V?$allocator@U?$pair@$$CBHULottoEntry@@@std@@@2@@std@@ABH@Z 00431fa0 f i Lotto.obj
 0001:00030fa0       ?lower_bound@?$_Hash@V?$_Hmap_traits@W4eITEMTYPE@@USPECIAL_ITEM_INFO@@V?$hash_compare@W4eITEMTYPE@@U?$less@W4eITEMTYPE@@@std@@@stdext@@V?$CustomAllocator@USPECIAL_ITEM_INFO@@@util@@$0A@@stdext@@@stdext@@QAE?AV?$_Iterator@$00@?$list@U?$pair@$$CBW4eITEMTYPE@@USPECIAL_ITEM_INFO@@@std@@V?$CustomAllocator@U?$pair@$$CBW4eITEMTYPE@@USPECIAL_ITEM_INFO@@@std@@@util@@@std@@ABW4eITEMTYPE@@@Z 00431fa0 f i servercommon:ItemOwnFlag.obj
 0001:000310f0       ?equal_range@?$_Hash@V?$_Hmap_traits@HULottoEntry@@V?$hash_compare@HU?$less@H@std@@@stdext@@V?$allocator@U?$pair@$$CBHULottoEntry@@@std@@@std@@$0A@@stdext@@@stdext@@QAE?AU?$pair@V?$_Iterator@$00@?$list@U?$pair@$$CBHULottoEntry@@@std@@V?$allocator@U?$pair@$$CBHULottoEntry@@@std@@@2@@std@@V123@@std@@ABH@Z 004320f0 f i Lotto.obj
 0001:000310f0       ?equal_range@?$_Hash@V?$_Hmap_traits@W4eITEMTYPE@@USPECIAL_ITEM_INFO@@V?$hash_compare@W4eITEMTYPE@@U?$less@W4eITEMTYPE@@@std@@@stdext@@V?$CustomAllocator@USPECIAL_ITEM_INFO@@@util@@$0A@@stdext@@@stdext@@QAE?AU?$pair@V?$_Iterator@$00@?$list@U?$pair@$$CBW4eITEMTYPE@@USPECIAL_ITEM_INFO@@@std@@V?$CustomAllocator@U?$pair@$$CBW4eITEMTYPE@@USPECIAL_ITEM_INFO@@@std@@@util@@@std@@V123@@std@@ABW4eITEMTYPE@@@Z 004320f0 f i servercommon:ItemOwnFlag.obj
 0001:00031260       ??0?$list@U?$pair@$$CBHULottoEntry@@@std@@V?$allocator@U?$pair@$$CBHULottoEntry@@@std@@@2@@std@@QAE@ABV?$allocator@U?$pair@$$CBHULottoEntry@@@std@@@1@@Z 00432260 f i Lotto.obj
 0001:000312d0       ??$_Umove@PAU_List_position@?$_Hash@V?$_Hmap_traits@W4eITEMTYPE@@USPECIAL_ITEM_INFO@@V?$hash_compare@W4eITEMTYPE@@U?$less@W4eITEMTYPE@@@std@@@stdext@@V?$CustomAllocator@USPECIAL_ITEM_INFO@@@util@@$0A@@stdext@@@stdext@@@?$vector@U_List_position@?$_Hash@V?$_Hmap_traits@W4eITEMTYPE@@USPECIAL_ITEM_INFO@@V?$hash_compare@W4eITEMTYPE@@U?$less@W4eITEMTYPE@@@std@@@stdext@@V?$CustomAllocator@USPECIAL_ITEM_INFO@@@util@@$0A@@stdext@@@stdext@@V?$CustomAllocator@U_List_position@?$_Hash@V?$_Hmap_traits@W4eITEMTYPE@@USPECIAL_ITEM_INFO@@V?$hash_compare@W4eITEMTYPE@@U?$less@W4eITEMTYPE@@@std@@@stdext@@V?$CustomAllocator@USPECIAL_ITEM_INFO@@@util@@$0A@@stdext@@@stdext@@@util@@@std@@IAEPAU_List_position@?$_Hash@V?$_Hmap_traits@W4eITEMTYPE@@USPECIAL_ITEM_INFO@@V?$hash_compare@W4eITEMTYPE@@U?$less@W4eITEMTYPE@@@std@@@stdext@@V?$CustomAllocator@USPECIAL_ITEM_INFO@@@util@@$0A@@stdext@@@stdext@@PAU234@00@Z 004322d0 f i User.obj
 0001:000312d0       ??$_Umove@PAU_List_position@?$_Hash@V?$_Hmap_traits@KPAVBaseZone@@V?$hash_compare@KU?$less@K@std@@@stdext@@V?$CustomAllocator@PAVBaseZone@@@util@@$0A@@stdext@@@stdext@@@?$vector@U_List_position@?$_Hash@V?$_Hmap_traits@KPAVBaseZone@@V?$hash_compare@KU?$less@K@std@@@stdext@@V?$CustomAllocator@PAVBaseZone@@@util@@$0A@@stdext@@@stdext@@V?$CustomAllocator@U_List_position@?$_Hash@V?$_Hmap_traits@KPAVBaseZone@@V?$hash_compare@KU?$less@K@std@@@stdext@@V?$CustomAllocator@PAVBaseZone@@@util@@$0A@@stdext@@@stdext@@@util@@@std@@IAEPAU_List_position@?$_Hash@V?$_Hmap_traits@KPAVBaseZone@@V?$hash_compare@KU?$less@K@std@@@stdext@@V?$CustomAllocator@PAVBaseZone@@@util@@$0A@@stdext@@@stdext@@PAU234@00@Z 004322d0 f i BaseZone.obj
 0001:000312d0       ??$_Umove@PAU_List_position@?$_Hash@V?$_Hmap_traits@HULottoEntry@@V?$hash_compare@HU?$less@H@std@@@stdext@@V?$allocator@U?$pair@$$CBHULottoEntry@@@std@@@std@@$0A@@stdext@@@stdext@@@?$vector@U_List_position@?$_Hash@V?$_Hmap_traits@HULottoEntry@@V?$hash_compare@HU?$less@H@std@@@stdext@@V?$allocator@U?$pair@$$CBHULottoEntry@@@std@@@std@@$0A@@stdext@@@stdext@@V?$allocator@U_List_position@?$_Hash@V?$_Hmap_traits@HULottoEntry@@V?$hash_compare@HU?$less@H@std@@@stdext@@V?$allocator@U?$pair@$$CBHULottoEntry@@@std@@@std@@$0A@@stdext@@@stdext@@@std@@@std@@IAEPAU_List_position@?$_Hash@V?$_Hmap_traits@HULottoEntry@@V?$hash_compare@HU?$less@H@std@@@stdext@@V?$allocator@U?$pair@$$CBHULottoEntry@@@std@@@std@@$0A@@stdext@@@stdext@@PAU234@00@Z 004322d0 f i Lotto.obj
 0001:000312d0       ??$_Umove@PAU_List_position@?$_Hash@V?$_Hmap_traits@KPBVMapGroupBase@@V?$hash_compare@KU?$less@K@std@@@stdext@@V?$CustomAllocator@PBVMapGroupBase@@@util@@$0A@@stdext@@@stdext@@@?$vector@U_List_position@?$_Hash@V?$_Hmap_traits@KPBVMapGroupBase@@V?$hash_compare@KU?$less@K@std@@@stdext@@V?$CustomAllocator@PBVMapGroupBase@@@util@@$0A@@stdext@@@stdext@@V?$CustomAllocator@U_List_position@?$_Hash@V?$_Hmap_traits@KPBVMapGroupBase@@V?$hash_compare@KU?$less@K@std@@@stdext@@V?$CustomAllocator@PBVMapGroupBase@@@util@@$0A@@stdext@@@stdext@@@util@@@std@@IAEPAU_List_position@?$_Hash@V?$_Hmap_traits@KPBVMapGroupBase@@V?$hash_compare@KU?$less@K@std@@@stdext@@V?$CustomAllocator@PBVMapGroupBase@@@util@@$0A@@stdext@@@stdext@@PAU234@00@Z 004322d0 f i programcommon_s:MapInfoParser.obj
 0001:000312d0       ??$_Umove@PAU_List_position@?$_Hash@V?$_Hmap_traits@KPAVVillageZone@@V?$hash_compare@KU?$less@K@std@@@stdext@@V?$CustomAllocator@PAVVillageZone@@@util@@$0A@@stdext@@@stdext@@@?$vector@U_List_position@?$_Hash@V?$_Hmap_traits@KPAVVillageZone@@V?$hash_compare@KU?$less@K@std@@@stdext@@V?$CustomAllocator@PAVVillageZone@@@util@@$0A@@stdext@@@stdext@@V?$CustomAllocator@U_List_position@?$_Hash@V?$_Hmap_traits@KPAVVillageZone@@V?$hash_compare@KU?$less@K@std@@@stdext@@V?$CustomAllocator@PAVVillageZone@@@util@@$0A@@stdext@@@stdext@@@util@@@std@@IAEPAU_List_position@?$_Hash@V?$_Hmap_traits@KPAVVillageZone@@V?$hash_compare@KU?$less@K@std@@@stdext@@V?$CustomAllocator@PAVVillageZone@@@util@@$0A@@stdext@@@stdext@@PAU234@00@Z 004322d0 f i Channel.obj
 0001:000312d0       ??$_Umove@PAU_List_position@?$_Hash@V?$_Hmap_traits@KPBUsMAPINFO_BASE@@V?$hash_compare@KU?$less@K@std@@@stdext@@V?$CustomAllocator@PBUsMAPINFO_BASE@@@util@@$0A@@stdext@@@stdext@@@?$vector@U_List_position@?$_Hash@V?$_Hmap_traits@KPBUsMAPINFO_BASE@@V?$hash_compare@KU?$less@K@std@@@stdext@@V?$CustomAllocator@PBUsMAPINFO_BASE@@@util@@$0A@@stdext@@@stdext@@V?$CustomAllocator@U_List_position@?$_Hash@V?$_Hmap_traits@KPBUsMAPINFO_BASE@@V?$hash_compare@KU?$less@K@std@@@stdext@@V?$CustomAllocator@PBUsMAPINFO_BASE@@@util@@$0A@@stdext@@@stdext@@@util@@@std@@IAEPAU_List_position@?$_Hash@V?$_Hmap_traits@KPBUsMAPINFO_BASE@@V?$hash_compare@KU?$less@K@std@@@stdext@@V?$CustomAllocator@PBUsMAPINFO_BASE@@@util@@$0A@@stdext@@@stdext@@PAU234@00@Z 004322d0 f i programcommon_s:MapInfoParser.obj
 0001:000312d0       ??$_Umove@PAU_List_position@?$_Hash@V?$_Hmap_traits@KPAVBASE_FUNC@util@@V?$hash_compare@KU?$less@K@std@@@stdext@@V?$allocator@U?$pair@$$CBKPAVBASE_FUNC@util@@@std@@@std@@$0A@@stdext@@@stdext@@@?$vector@U_List_position@?$_Hash@V?$_Hmap_traits@KPAVBASE_FUNC@util@@V?$hash_compare@KU?$less@K@std@@@stdext@@V?$allocator@U?$pair@$$CBKPAVBASE_FUNC@util@@@std@@@std@@$0A@@stdext@@@stdext@@V?$allocator@U_List_position@?$_Hash@V?$_Hmap_traits@KPAVBASE_FUNC@util@@V?$hash_compare@KU?$less@K@std@@@stdext@@V?$allocator@U?$pair@$$CBKPAVBASE_FUNC@util@@@std@@@std@@$0A@@stdext@@@stdext@@@std@@@std@@IAEPAU_List_position@?$_Hash@V?$_Hmap_traits@KPAVBASE_FUNC@util@@V?$hash_compare@KU?$less@K@std@@@stdext@@V?$allocator@U?$pair@$$CBKPAVBASE_FUNC@util@@@std@@@std@@$0A@@stdext@@@stdext@@PAU234@00@Z 004322d0 f i PacketHandler.obj
 0001:000312d0       ??$_Umove@PAU_List_position@?$_Hash@V?$_Hmap_traits@KPBUsWMOINFO_BASE@@V?$hash_compare@KU?$less@K@std@@@stdext@@V?$CustomAllocator@PBUsWMOINFO_BASE@@@util@@$0A@@stdext@@@stdext@@@?$vector@U_List_position@?$_Hash@V?$_Hmap_traits@KPBUsWMOINFO_BASE@@V?$hash_compare@KU?$less@K@std@@@stdext@@V?$CustomAllocator@PBUsWMOINFO_BASE@@@util@@$0A@@stdext@@@stdext@@V?$CustomAllocator@U_List_position@?$_Hash@V?$_Hmap_traits@KPBUsWMOINFO_BASE@@V?$hash_compare@KU?$less@K@std@@@stdext@@V?$CustomAllocator@PBUsWMOINFO_BASE@@@util@@$0A@@stdext@@@stdext@@@util@@@std@@IAEPAU_List_position@?$_Hash@V?$_Hmap_traits@KPBUsWMOINFO_BASE@@V?$hash_compare@KU?$less@K@std@@@stdext@@V?$CustomAllocator@PBUsWMOINFO_BASE@@@util@@$0A@@stdext@@@stdext@@PAU234@00@Z 004322d0 f i programcommon_s:MapInfoParser.obj
 0001:000312d0       ??$_Umove@PAU_List_position@?$_Hash@V?$_Hmap_traits@KPAVViewPortZone@@V?$hash_compare@KU?$less@K@std@@@stdext@@V?$CustomAllocator@PAVViewPortZone@@@util@@$0A@@stdext@@@stdext@@@?$vector@U_List_position@?$_Hash@V?$_Hmap_traits@KPAVViewPortZone@@V?$hash_compare@KU?$less@K@std@@@stdext@@V?$CustomAllocator@PAVViewPortZone@@@util@@$0A@@stdext@@@stdext@@V?$CustomAllocator@U_List_position@?$_Hash@V?$_Hmap_traits@KPAVViewPortZone@@V?$hash_compare@KU?$less@K@std@@@stdext@@V?$CustomAllocator@PAVViewPortZone@@@util@@$0A@@stdext@@@stdext@@@util@@@std@@IAEPAU_List_position@?$_Hash@V?$_Hmap_traits@KPAVViewPortZone@@V?$hash_compare@KU?$less@K@std@@@stdext@@V?$CustomAllocator@PAVViewPortZone@@@util@@$0A@@stdext@@@stdext@@PAU234@00@Z 004322d0 f i BaseZone.obj
 0001:000312d0       ??$_Umove@PAU_List_position@?$_Hash@V?$_Hmap_traits@KPAVChatZone@@V?$hash_compare@KU?$less@K@std@@@stdext@@V?$CustomAllocator@PAVChatZone@@@util@@$0A@@stdext@@@stdext@@@?$vector@U_List_position@?$_Hash@V?$_Hmap_traits@KPAVChatZone@@V?$hash_compare@KU?$less@K@std@@@stdext@@V?$CustomAllocator@PAVChatZone@@@util@@$0A@@stdext@@@stdext@@V?$CustomAllocator@U_List_position@?$_Hash@V?$_Hmap_traits@KPAVChatZone@@V?$hash_compare@KU?$less@K@std@@@stdext@@V?$CustomAllocator@PAVChatZone@@@util@@$0A@@stdext@@@stdext@@@util@@@std@@IAEPAU_List_position@?$_Hash@V?$_Hmap_traits@KPAVChatZone@@V?$hash_compare@KU?$less@K@std@@@stdext@@V?$CustomAllocator@PAVChatZone@@@util@@$0A@@stdext@@@stdext@@PAU234@00@Z 004322d0 f i Channel.obj
 0001:000312d0       ??$_Umove@PAU_List_position@?$_Hash@V?$_Hmap_traits@KPAVUser@@V?$hash_compare@KU?$less@K@std@@@stdext@@V?$CustomAllocator@PAVUser@@@util@@$0A@@stdext@@@stdext@@@?$vector@U_List_position@?$_Hash@V?$_Hmap_traits@KPAVUser@@V?$hash_compare@KU?$less@K@std@@@stdext@@V?$CustomAllocator@PAVUser@@@util@@$0A@@stdext@@@stdext@@V?$CustomAllocator@U_List_position@?$_Hash@V?$_Hmap_traits@KPAVUser@@V?$hash_compare@KU?$less@K@std@@@stdext@@V?$CustomAllocator@PAVUser@@@util@@$0A@@stdext@@@stdext@@@util@@@std@@IAEPAU_List_position@?$_Hash@V?$_Hmap_traits@KPAVUser@@V?$hash_compare@KU?$less@K@std@@@stdext@@V?$CustomAllocator@PAVUser@@@util@@$0A@@stdext@@@stdext@@PAU234@00@Z 004322d0 f i GuidUserList.obj
 0001:000312d0       ??$_Umove@PAU_List_position@?$_Hash@V?$_Hmap_traits@KPBUsFIELDINFO_BASE@@V?$hash_compare@KU?$less@K@std@@@stdext@@V?$CustomAllocator@PBUsFIELDINFO_BASE@@@util@@$0A@@stdext@@@stdext@@@?$vector@U_List_position@?$_Hash@V?$_Hmap_traits@KPBUsFIELDINFO_BASE@@V?$hash_compare@KU?$less@K@std@@@stdext@@V?$CustomAllocator@PBUsFIELDINFO_BASE@@@util@@$0A@@stdext@@@stdext@@V?$CustomAllocator@U_List_position@?$_Hash@V?$_Hmap_traits@KPBUsFIELDINFO_BASE@@V?$hash_compare@KU?$less@K@std@@@stdext@@V?$CustomAllocator@PBUsFIELDINFO_BASE@@@util@@$0A@@stdext@@@stdext@@@util@@@std@@IAEPAU_List_position@?$_Hash@V?$_Hmap_traits@KPBUsFIELDINFO_BASE@@V?$hash_compare@KU?$less@K@std@@@stdext@@V?$CustomAllocator@PBUsFIELDINFO_BASE@@@util@@$0A@@stdext@@@stdext@@PAU234@00@Z 004322d0 f i programcommon_s:MapInfoParser.obj
 0001:000312d0       ??$_Umove@PAU_List_position@?$_Hash@V?$_Hmap_traits@KPBUsWUTINFO_BASE@@V?$hash_compare@KU?$less@K@std@@@stdext@@V?$CustomAllocator@PBUsWUTINFO_BASE@@@util@@$0A@@stdext@@@stdext@@@?$vector@U_List_position@?$_Hash@V?$_Hmap_traits@KPBUsWUTINFO_BASE@@V?$hash_compare@KU?$less@K@std@@@stdext@@V?$CustomAllocator@PBUsWUTINFO_BASE@@@util@@$0A@@stdext@@@stdext@@V?$CustomAllocator@U_List_position@?$_Hash@V?$_Hmap_traits@KPBUsWUTINFO_BASE@@V?$hash_compare@KU?$less@K@std@@@stdext@@V?$CustomAllocator@PBUsWUTINFO_BASE@@@util@@$0A@@stdext@@@stdext@@@util@@@std@@IAEPAU_List_position@?$_Hash@V?$_Hmap_traits@KPBUsWUTINFO_BASE@@V?$hash_compare@KU?$less@K@std@@@stdext@@V?$CustomAllocator@PBUsWUTINFO_BASE@@@util@@$0A@@stdext@@@stdext@@PAU234@00@Z 004322d0 f i programcommon_s:MapInfoParser.obj
 0001:00031300       ?_Xlen@?$deque@ULottoTicket@@V?$allocator@ULottoTicket@@@std@@@std@@KAXXZ 00432300 f i Lotto.obj
 0001:00031300       ?_Xlen@?$deque@PAUAlignNode@ObjectKeyGeneratorBase@internal@util@@V?$CustomAllocator@PAUAlignNode@ObjectKeyGeneratorBase@internal@util@@@4@@std@@KAXXZ 00432300 f i utility_s:ObjKeyGenerator.obj
 0001:00031380       ?_Incsize@?$list@U?$pair@$$CBHULottoEntry@@@std@@V?$allocator@U?$pair@$$CBHULottoEntry@@@std@@@2@@std@@IAEXI@Z 00432380 f i Lotto.obj
 0001:00031420       ?_Insert_n@?$vector@U_List_position@?$_Hash@V?$_Hmap_traits@KPAVBASE_FUNC@util@@V?$hash_compare@KU?$less@K@std@@@stdext@@V?$allocator@U?$pair@$$CBKPAVBASE_FUNC@util@@@std@@@std@@$0A@@stdext@@@stdext@@V?$allocator@U_List_position@?$_Hash@V?$_Hmap_traits@KPAVBASE_FUNC@util@@V?$hash_compare@KU?$less@K@std@@@stdext@@V?$allocator@U?$pair@$$CBKPAVBASE_FUNC@util@@@std@@@std@@$0A@@stdext@@@stdext@@@std@@@std@@IAEXV?$_Vector_const_iterator@U_List_position@?$_Hash@V?$_Hmap_traits@KPAVBASE_FUNC@util@@V?$hash_compare@KU?$less@K@std@@@stdext@@V?$allocator@U?$pair@$$CBKPAVBASE_FUNC@util@@@std@@@std@@$0A@@stdext@@@stdext@@V?$allocator@U_List_position@?$_Hash@V?$_Hmap_traits@KPAVBASE_FUNC@util@@V?$hash_compare@KU?$less@K@std@@@stdext@@V?$allocator@U?$pair@$$CBKPAVBASE_FUNC@util@@@std@@@std@@$0A@@stdext@@@stdext@@@std@@@2@IABU_List_position@?$_Hash@V?$_Hmap_traits@KPAVBASE_FUNC@util@@V?$hash_compare@KU?$less@K@std@@@stdext@@V?$allocator@U?$pair@$$CBKPAVBASE_FUNC@util@@@std@@@std@@$0A@@stdext@@@stdext@@@Z 00432420 f i PacketHandler.obj
 0001:00031420       ?_Insert_n@?$vector@U_List_position@?$_Hash@V?$_Hmap_traits@HULottoEntry@@V?$hash_compare@HU?$less@H@std@@@stdext@@V?$allocator@U?$pair@$$CBHULottoEntry@@@std@@@std@@$0A@@stdext@@@stdext@@V?$allocator@U_List_position@?$_Hash@V?$_Hmap_traits@HULottoEntry@@V?$hash_compare@HU?$less@H@std@@@stdext@@V?$allocator@U?$pair@$$CBHULottoEntry@@@std@@@std@@$0A@@stdext@@@stdext@@@std@@@std@@IAEXV?$_Vector_const_iterator@U_List_position@?$_Hash@V?$_Hmap_traits@HULottoEntry@@V?$hash_compare@HU?$less@H@std@@@stdext@@V?$allocator@U?$pair@$$CBHULottoEntry@@@std@@@std@@$0A@@stdext@@@stdext@@V?$allocator@U_List_position@?$_Hash@V?$_Hmap_traits@HULottoEntry@@V?$hash_compare@HU?$less@H@std@@@stdext@@V?$allocator@U?$pair@$$CBHULottoEntry@@@std@@@std@@$0A@@stdext@@@stdext@@@std@@@2@IABU_List_position@?$_Hash@V?$_Hmap_traits@HULottoEntry@@V?$hash_compare@HU?$less@H@std@@@stdext@@V?$allocator@U?$pair@$$CBHULottoEntry@@@std@@@std@@$0A@@stdext@@@stdext@@@Z 00432420 f i Lotto.obj
 0001:00031670       ?_Growmap@?$deque@ULottoTicket@@V?$allocator@ULottoTicket@@@std@@@std@@IAEXI@Z 00432670 f i Lotto.obj
 0001:000317e0       ?push_back@?$deque@ULottoTicket@@V?$allocator@ULottoTicket@@@std@@@std@@QAEXABULottoTicket@@@Z 004327e0 f i Lotto.obj
 0001:00031860       ?push_front@?$deque@ULottoTicket@@V?$allocator@ULottoTicket@@@std@@@std@@QAEXABULottoTicket@@@Z 00432860 f i Lotto.obj
 0001:000318e0       ?erase@?$list@U?$pair@$$CBHULottoEntry@@@std@@V?$allocator@U?$pair@$$CBHULottoEntry@@@std@@@2@@std@@QAE?AV?$_Iterator@$00@12@V?$_Const_iterator@$00@12@@Z 004328e0 f i Lotto.obj
 0001:00031970       ??0?$vector@U_List_position@?$_Hash@V?$_Hmap_traits@KPAVBASE_FUNC@util@@V?$hash_compare@KU?$less@K@std@@@stdext@@V?$allocator@U?$pair@$$CBKPAVBASE_FUNC@util@@@std@@@std@@$0A@@stdext@@@stdext@@V?$allocator@U_List_position@?$_Hash@V?$_Hmap_traits@KPAVBASE_FUNC@util@@V?$hash_compare@KU?$less@K@std@@@stdext@@V?$allocator@U?$pair@$$CBKPAVBASE_FUNC@util@@@std@@@std@@$0A@@stdext@@@stdext@@@std@@@std@@QAE@ABV?$allocator@U_List_position@?$_Hash@V?$_Hmap_traits@KPAVBASE_FUNC@util@@V?$hash_compare@KU?$less@K@std@@@stdext@@V?$allocator@U?$pair@$$CBKPAVBASE_FUNC@util@@@std@@@std@@$0A@@stdext@@@stdext@@@1@@Z 00432970 f i PacketHandler.obj
 0001:00031970       ??0?$vector@U_List_position@?$_Hash@V?$_Hmap_traits@HULottoEntry@@V?$hash_compare@HU?$less@H@std@@@stdext@@V?$allocator@U?$pair@$$CBHULottoEntry@@@std@@@std@@$0A@@stdext@@@stdext@@V?$allocator@U_List_position@?$_Hash@V?$_Hmap_traits@HULottoEntry@@V?$hash_compare@HU?$less@H@std@@@stdext@@V?$allocator@U?$pair@$$CBHULottoEntry@@@std@@@std@@$0A@@stdext@@@stdext@@@std@@@std@@QAE@ABV?$allocator@U_List_position@?$_Hash@V?$_Hmap_traits@HULottoEntry@@V?$hash_compare@HU?$less@H@std@@@stdext@@V?$allocator@U?$pair@$$CBHULottoEntry@@@std@@@std@@$0A@@stdext@@@stdext@@@1@@Z 00432970 f i Lotto.obj
 0001:000319d0       ?clear@?$list@U?$pair@$$CBHULottoEntry@@@std@@V?$allocator@U?$pair@$$CBHULottoEntry@@@std@@@2@@std@@QAEXXZ 004329d0 f i Lotto.obj
 0001:00031a20       ?_Assign_n@?$vector@U_List_position@?$_Hash@V?$_Hmap_traits@KPAVBASE_FUNC@util@@V?$hash_compare@KU?$less@K@std@@@stdext@@V?$allocator@U?$pair@$$CBKPAVBASE_FUNC@util@@@std@@@std@@$0A@@stdext@@@stdext@@V?$allocator@U_List_position@?$_Hash@V?$_Hmap_traits@KPAVBASE_FUNC@util@@V?$hash_compare@KU?$less@K@std@@@stdext@@V?$allocator@U?$pair@$$CBKPAVBASE_FUNC@util@@@std@@@std@@$0A@@stdext@@@stdext@@@std@@@std@@IAEXIABU_List_position@?$_Hash@V?$_Hmap_traits@KPAVBASE_FUNC@util@@V?$hash_compare@KU?$less@K@std@@@stdext@@V?$allocator@U?$pair@$$CBKPAVBASE_FUNC@util@@@std@@@std@@$0A@@stdext@@@stdext@@@Z 00432a20 f i PacketHandler.obj
 0001:00031a20       ?_Assign_n@?$vector@U_List_position@?$_Hash@V?$_Hmap_traits@HULottoEntry@@V?$hash_compare@HU?$less@H@std@@@stdext@@V?$allocator@U?$pair@$$CBHULottoEntry@@@std@@@std@@$0A@@stdext@@@stdext@@V?$allocator@U_List_position@?$_Hash@V?$_Hmap_traits@HULottoEntry@@V?$hash_compare@HU?$less@H@std@@@stdext@@V?$allocator@U?$pair@$$CBHULottoEntry@@@std@@@std@@$0A@@stdext@@@stdext@@@std@@@std@@IAEXIABU_List_position@?$_Hash@V?$_Hmap_traits@HULottoEntry@@V?$hash_compare@HU?$less@H@std@@@stdext@@V?$allocator@U?$pair@$$CBHULottoEntry@@@std@@@std@@$0A@@stdext@@@stdext@@@Z 00432a20 f i Lotto.obj
 0001:00031aa0       ??$_Insert@V?$_Deque_const_iterator@ULottoTicket@@V?$allocator@ULottoTicket@@@std@@$00@std@@@?$deque@ULottoTicket@@V?$allocator@ULottoTicket@@@std@@@std@@QAEXV?$_Deque_const_iterator@ULottoTicket@@V?$allocator@ULottoTicket@@@std@@$00@1@00Uinput_iterator_tag@1@@Z 00432aa0 f i Lotto.obj
 0001:00031cc0       ?erase@?$_Hash@V?$_Hmap_traits@HULottoEntry@@V?$hash_compare@HU?$less@H@std@@@stdext@@V?$allocator@U?$pair@$$CBHULottoEntry@@@std@@@std@@$0A@@stdext@@@stdext@@QAE?AV?$_Iterator@$00@?$list@U?$pair@$$CBHULottoEntry@@@std@@V?$allocator@U?$pair@$$CBHULottoEntry@@@std@@@2@@std@@V?$_Const_iterator@$00@45@@Z 00432cc0 f i Lotto.obj
 0001:00031dc0       ??0?$deque@ULottoTicket@@V?$allocator@ULottoTicket@@@std@@@std@@QAE@ABV01@@Z 00432dc0 f i Lotto.obj
 0001:00031ea0       ??1?$list@U?$pair@$$CBHULottoEntry@@@std@@V?$allocator@U?$pair@$$CBHULottoEntry@@@std@@@2@@std@@QAE@XZ 00432ea0 f i Lotto.obj
 0001:00031ed0       ??1?$_Hash@V?$_Hmap_traits@HULottoEntry@@V?$hash_compare@HU?$less@H@std@@@stdext@@V?$allocator@U?$pair@$$CBHULottoEntry@@@std@@@std@@$0A@@stdext@@@stdext@@QAE@XZ 00432ed0 f i Lotto.obj
 0001:00031f20       ??0?$_Hash@V?$_Hmap_traits@HULottoEntry@@V?$hash_compare@HU?$less@H@std@@@stdext@@V?$allocator@U?$pair@$$CBHULottoEntry@@@std@@@std@@$0A@@stdext@@@stdext@@QAE@ABV?$hash_compare@HU?$less@H@std@@@1@ABV?$allocator@U?$pair@$$CBHULottoEntry@@@std@@@std@@@Z 00432f20 f i Lotto.obj
 0001:00031fe0       ?clear@?$_Hash@V?$_Hmap_traits@HULottoEntry@@V?$hash_compare@HU?$less@H@std@@@stdext@@V?$allocator@U?$pair@$$CBHULottoEntry@@@std@@@std@@$0A@@stdext@@@stdext@@QAEXXZ 00432fe0 f i Lotto.obj
 0001:00032030       ??1?$hash_map@HULottoEntry@@V?$hash_compare@HU?$less@H@std@@@stdext@@V?$allocator@U?$pair@$$CBHULottoEntry@@@std@@@std@@@stdext@@QAE@XZ 00433030 f i Lotto.obj
 0001:00032040       ?erase@?$_Hash@V?$_Hmap_traits@HULottoEntry@@V?$hash_compare@HU?$less@H@std@@@stdext@@V?$allocator@U?$pair@$$CBHULottoEntry@@@std@@@std@@$0A@@stdext@@@stdext@@QAE?AV?$_Iterator@$00@?$list@U?$pair@$$CBHULottoEntry@@@std@@V?$allocator@U?$pair@$$CBHULottoEntry@@@std@@@2@@std@@V?$_Const_iterator@$00@45@0@Z 00433040 f i Lotto.obj
 0001:00032140       ??$_Construct@U?$pair@$$CBHULottoEntry@@@std@@U12@@std@@YAXPAU?$pair@$$CBHULottoEntry@@@0@ABU10@@Z 00433140 f i Lotto.obj
 0001:000321c0       ?erase@?$_Hash@V?$_Hmap_traits@HULottoEntry@@V?$hash_compare@HU?$less@H@std@@@stdext@@V?$allocator@U?$pair@$$CBHULottoEntry@@@std@@@std@@$0A@@stdext@@@stdext@@QAEIABH@Z 004331c0 f i Lotto.obj
 0001:00032230       ?_Buynode@?$list@U?$pair@$$CBHULottoEntry@@@std@@V?$allocator@U?$pair@$$CBHULottoEntry@@@std@@@2@@std@@IAEPAU_Node@?$_List_nod@U?$pair@$$CBHULottoEntry@@@std@@V?$allocator@U?$pair@$$CBHULottoEntry@@@std@@@2@@2@PAU342@0ABU?$pair@$$CBHULottoEntry@@@2@@Z 00433230 f i Lotto.obj
 0001:000322d0       ?insert@?$list@U?$pair@$$CBHULottoEntry@@@std@@V?$allocator@U?$pair@$$CBHULottoEntry@@@std@@@2@@std@@QAE?AV?$_Iterator@$00@12@V?$_Const_iterator@$00@12@ABU?$pair@$$CBHULottoEntry@@@2@@Z 004332d0 f i Lotto.obj
 0001:00032360       ?_Splice@?$list@U?$pair@$$CBHULottoEntry@@@std@@V?$allocator@U?$pair@$$CBHULottoEntry@@@std@@@2@@std@@QAEXV?$_Const_iterator@$00@12@AAV12@00I_N@Z 00433360 f i Lotto.obj
 0001:000323d0       ?splice@?$list@U?$pair@$$CBHULottoEntry@@@std@@V?$allocator@U?$pair@$$CBHULottoEntry@@@std@@@2@@std@@QAEXV?$_Const_iterator@$00@12@AAV12@0@Z 004333d0 f i Lotto.obj
 0001:00032490       ?_Insert@?$_Hash@V?$_Hmap_traits@HULottoEntry@@V?$hash_compare@HU?$less@H@std@@@stdext@@V?$allocator@U?$pair@$$CBHULottoEntry@@@std@@@std@@$0A@@stdext@@@stdext@@IAE?AU?$pair@V?$_Iterator@$00@?$list@U?$pair@$$CBHULottoEntry@@@std@@V?$allocator@U?$pair@$$CBHULottoEntry@@@std@@@2@@std@@_N@std@@ABU?$pair@$$CBHULottoEntry@@@4@V?$_Iterator@$00@?$list@U?$pair@$$CBHULottoEntry@@@std@@V?$allocator@U?$pair@$$CBHULottoEntry@@@std@@@2@@4@@Z 00433490 f i Lotto.obj
 0001:00032810       ?_Reinsert@?$_Hash@V?$_Hmap_traits@HULottoEntry@@V?$hash_compare@HU?$less@H@std@@@stdext@@V?$allocator@U?$pair@$$CBHULottoEntry@@@std@@@std@@$0A@@stdext@@@stdext@@IAEXXZ 00433810 f i Lotto.obj
 0001:000328a0       ?GetPrize@LottoConfig@@QBEPBULottoPrize@@H@Z 004338a0 f   LottoConfig.obj
 0001:000328f0       ??1LottoConfig@@QAE@XZ     004338f0 f   LottoConfig.obj
 0001:00032940       ??0LottoConfig@@QAE@XZ     00433940 f   LottoConfig.obj
 0001:00032960       ?Init@LottoConfig@@QAE_NXZ 00433960 f   LottoConfig.obj
 0001:00032ad0       ??$_Med3@V?$reverse_iterator@PAH@std@@@std@@YAXV?$reverse_iterator@PAH@0@00@Z 00433ad0 f i LottoConfig.obj
 0001:00032b30       ??$_Copy_backward_opt@V?$reverse_iterator@PAH@std@@V12@Uforward_iterator_tag@2@@std@@YA?AV?$reverse_iterator@PAH@0@V10@00Uforward_iterator_tag@0@U_Nonscalar_ptr_iterator_tag@0@U_Range_checked_iterator_tag@0@@Z 00433b30 f i LottoConfig.obj
 0001:00032b80       ??$_Unchecked_move_backward@PAPAVUser@@PAPAV1@@stdext@@YAPAPAVUser@@PAPAV1@00@Z 00433b80 f i UserManager.obj
 0001:00032b80       ??$_Unchecked_move_backward@PAKPAK@stdext@@YAPAKPAK00@Z 00433b80 f i FieldInfo.obj
 0001:00032b80       ??$_Unchecked_move_backward@PAPAUEVENT_INFO@@PAPAU1@@stdext@@YAPAPAUEVENT_INFO@@PAPAU1@00@Z 00433b80 f i programcommon_s:SunEventInfoParser.obj
 0001:00032b80       ??$_Unchecked_move_backward@PAHPAH@stdext@@YAPAHPAH00@Z 00433b80 f i LottoConfig.obj
 0001:00032bb0       ??$_Median@V?$reverse_iterator@PAH@std@@@std@@YAXV?$reverse_iterator@PAH@0@00@Z 00433bb0 f i LottoConfig.obj
 0001:00032c50       ??$_Push_heap@V?$reverse_iterator@PAH@std@@HH@std@@YAXV?$reverse_iterator@PAH@0@HHH@Z 00433c50 f i LottoConfig.obj
 0001:00032cc0       ??$_Unguarded_partition@V?$reverse_iterator@PAH@std@@@std@@YA?AU?$pair@V?$reverse_iterator@PAH@std@@V12@@0@V?$reverse_iterator@PAH@0@0@Z 00433cc0 f i LottoConfig.obj
 0001:00032e60       ??$_Adjust_heap@V?$reverse_iterator@PAH@std@@HH@std@@YAXV?$reverse_iterator@PAH@0@HHH@Z 00433e60 f i LottoConfig.obj
 0001:00032f00       ??$_Umove@PAPAVUser@@@?$vector@PAVUser@@V?$CustomAllocator@PAVUser@@@util@@@std@@IAEPAPAVUser@@PAPAV2@00@Z 00433f00 f i UserManager.obj
 0001:00032f00       ??$_Umove@PAK@?$vector@KV?$CustomAllocator@K@util@@@std@@IAEPAKPAK00@Z 00433f00 f i FieldInfo.obj
 0001:00032f00       ??$_Umove@PAH@?$vector@HV?$allocator@H@std@@@std@@IAEPAHPAH00@Z 00433f00 f i LottoConfig.obj
 0001:00032f00       ??$_Umove@PAPAUEVENT_INFO@@@?$vector@PAUEVENT_INFO@@V?$allocator@PAUEVENT_INFO@@@std@@@std@@IAEPAPAUEVENT_INFO@@PAPAU2@00@Z 00433f00 f i programcommon_s:SunEventInfoParser.obj
 0001:00032f40       ??$_Make_heap@V?$reverse_iterator@PAH@std@@HH@std@@YAXV?$reverse_iterator@PAH@0@0PAH1@Z 00433f40 f i LottoConfig.obj
 0001:00032f90       ??$_Sort_heap@V?$reverse_iterator@PAH@std@@@std@@YAXV?$reverse_iterator@PAH@0@0@Z 00433f90 f i LottoConfig.obj
 0001:00032ff0       ??$_Insertion_sort1@V?$reverse_iterator@PAH@std@@H@std@@YAXV?$reverse_iterator@PAH@0@0PAH@Z 00433ff0 f i LottoConfig.obj
 0001:00033080       ??$_Sort@V?$reverse_iterator@PAH@std@@H@std@@YAXV?$reverse_iterator@PAH@0@0H@Z 00434080 f i LottoConfig.obj
 0001:00033180       ??0?$vector@PAUEVENT_INFO@@V?$allocator@PAUEVENT_INFO@@@std@@@std@@QAE@XZ 00434180 f i programcommon_s:SunEventInfoParser.obj
 0001:00033180       ??0?$vector@HV?$allocator@H@std@@@std@@QAE@XZ 00434180 f i LottoConfig.obj
 0001:00033180       ??0?$vector@ULottoWinner@@V?$allocator@ULottoWinner@@@std@@@std@@QAE@XZ 00434180 f i Lotto.obj
 0001:000331e0       ?push_back@?$vector@HV?$allocator@H@std@@@std@@QAEXABH@Z 004341e0 f i LottoConfig.obj
 0001:00033250       ??0LottoState@@QAE@E@Z     00434250 f   LottoState.obj
 0001:00033270       ?OnActualReward@LottoState@@UAEXPAUMSG_BASE@@@Z 00434270 f   LottoState.obj
 0001:00033280       ?SendToClient@LottoState@@IAE_NHPAEG@Z 00434280 f   LottoState.obj
 0001:000332d0       ?BroadcastToClients@LottoState@@IAEXPAEG@Z 004342d0 f   LottoState.obj
 0001:000332f0       ?SendToDBProxy@LottoState@@IAE_NPAEG@Z 004342f0 f   LottoState.obj
 0001:00033330       ?SendToAgentServer@LottoState@@IAE_NHPAEG@Z 00434330 f   LottoState.obj
 0001:000333a0       ?OnInfoRequest@LottoState@@UAEXHPAUMSG_BASE@@@Z 004343a0 f   LottoState.obj
 0001:00033400       ?OnEntryRequest@LottoState@@UAEXHPAUMSG_BASE@@@Z 00434400 f   LottoState.obj
 0001:00033460       ?OnNoticeConfirm@LottoState@@UAEXHPAUMSG_BASE@@@Z 00434460 f   LottoState.obj
 0001:000334c0       ?OnReward@LottoState@@UAEXPAUMSG_BASE@@@Z 004344c0 f   LottoState.obj
 0001:00033650       ?OnNoticeList@LottoState@@UAEXPAUMSG_BASE@@@Z 00434650 f   LottoState.obj
 0001:00033710       ?OnNoticeDelete@LottoState@@UAEXPAUMSG_BASE@@@Z 00434710 f   LottoState.obj
 0001:00033770       ?BroadcastLottoStart@LottoState@@IAEXH@Z 00434770 f   LottoState.obj
 0001:000337a0       ?BroadcastCountdown@LottoState@@IAEXH@Z 004347a0 f   LottoState.obj
 0001:000337f0       ?BroadcastLottoFinish@LottoState@@IAEXXZ 004347f0 f   LottoState.obj
 0001:000338a0       ?NotifyTicketAcquisition@LottoState@@IAEXHH@Z 004348a0 f   LottoState.obj
 0001:00033900       ?RequestEntryLoad@LottoState@@IAEXHE_N@Z 00434900 f   LottoState.obj
 0001:00033970       ?RequestLoad@LottoState@@IAEXXZ 00434970 f   LottoState.obj
 0001:000339c0       ?RequestWinnerList@LottoState@@IAEXH@Z 004349c0 f   LottoState.obj
 0001:00033a20       ?RequestTicketAdd@LottoState@@IAEXHH@Z 00434a20 f   LottoState.obj
 0001:00033a80       ?RequestEntrySave@LottoState@@IAEXHEEPAE@Z 00434a80 f   LottoState.obj
 0001:00033b50       ?RequestRollOver@LottoState@@IAEXGC_J00PAE@Z 00434b50 f   LottoState.obj
 0001:00033c20       ?RequestAccumulate@LottoState@@IAEXG_J@Z 00434c20 f   LottoState.obj
 0001:00033c80       ?RequestReward@LottoState@@IAEXAAULottoWinner@@@Z 00434c80 f   LottoState.obj
 0001:00033e80       ?RequestNoticeList@LottoState@@IAEXH@Z 00434e80 f   LottoState.obj
 0001:00033ed0       ?RequestPaymentUpdate@LottoState@@IAEXHK@Z 00434ed0 f   LottoState.obj
 0001:00033f20       ?OnPlayerJoin@LottoState@@UAEXH@Z 00434f20 f   LottoState.obj
 0001:00033fd0       ?OnPlayerLeave@LottoState@@UAEXH@Z 00434fd0 f   LottoState.obj
 0001:00034020       ?OnNoticeRequest@LottoState@@UAEXHPAUMSG_BASE@@@Z 00435020 f   LottoState.obj
 0001:00034070       ?SendInfoResponse@LottoState@@IAEXHE@Z 00435070 f   LottoState.obj
 0001:00034480       ?OnEntryLoad@LottoState@@UAEXPAUMSG_BASE@@@Z 00435480 f   LottoState.obj
 0001:00034590       ?time_t2FileTime@Schedule@@SAXJPAU_FILETIME@@@Z 00435590 f   Schedule.obj
 0001:000345d0       ?FileTime2time_t@Schedule@@SAJPBU_FILETIME@@PAJ@Z 004355d0 f   Schedule.obj
 0001:00034650       ?time_t2SystemTime@Schedule@@SAXJPAU_SYSTEMTIME@@@Z 00435650 f   Schedule.obj
 0001:00034690       ?SetTimer@ScheduleToken@@QAEXJ@Z 00435690 f   Schedule.obj
 0001:00034720       ?SystemTime2time_t@Schedule@@SAJPBU_SYSTEMTIME@@PAJ@Z 00435720 f   Schedule.obj
 0001:00034750       ?SecondsTo@ScheduleToken@@QBEHPBU_SYSTEMTIME@@@Z 00435750 f   Schedule.obj
 0001:000347e0       ?FindNearestAhead@Schedule@@QBE_NAAVScheduleToken@@@Z 004357e0 f   Schedule.obj
 0001:00034a50       ?SecondsTo@ScheduleToken@@QBEHXZ 00435a50 f   Schedule.obj
 0001:00034a80       ?OnInfoRequest@LottoActiveState@@UAEXHPAUMSG_BASE@@@Z 00435a80 f   ActiveState.obj
 0001:00034ae0       ?OnTicketAcquisition@LottoActiveState@@UAEXPAUMSG_BASE@@@Z 00435ae0 f   ActiveState.obj
 0001:00034b50       ?OnHeimConsumption@LottoActiveState@@UAEXPAUMSG_BASE@@@Z 00435b50 f   ActiveState.obj
 0001:00034b90       ?OnEntryRequest@LottoActiveState@@UAEXHPAUMSG_BASE@@@Z 00435b90 f   ActiveState.obj
 0001:00034c50       ?OnEntrySave@LottoActiveState@@UAEXPAUMSG_BASE@@@Z 00435c50 f   ActiveState.obj
 0001:00034d40       ?BroadcastTotalAccum@LottoActiveState@@AAEX_J_N@Z 00435d40 f   ActiveState.obj
 0001:00034de0       ?OnExit@LottoActiveState@@UAEXXZ 00435de0 f   ActiveState.obj
 0001:00034e30       ?OnTotalAccumChange@LottoActiveState@@UAEX_J@Z 00435e30 f   ActiveState.obj
 0001:00034e90       ?OnEnter@LottoActiveState@@UAEXXZ 00435e90 f   ActiveState.obj
 0001:00034fa0       ?OnTick@LottoActiveState@@UAEXXZ 00435fa0 f   ActiveState.obj
 0001:000351e0       ??A?$vector@HV?$allocator@H@std@@@std@@QBEABHI@Z 004361e0 f i ActiveState.obj
 0001:00035210       ?OnExit@LottoDrawingState@@UAEXXZ 00436210 f   DrawingState.obj
 0001:00035220       ?OnTick@LottoDrawingState@@UAEXXZ 00436220 f   DrawingState.obj
 0001:00035230       ?OnInfoRequest@LottoDrawingState@@UAEXHPAUMSG_BASE@@@Z 00436230 f   DrawingState.obj
 0001:00035290       ?OnRollOver@LottoDrawingState@@UAEXPAUMSG_BASE@@@Z 00436290 f   DrawingState.obj
 0001:00035350       ?OnEnter@LottoDrawingState@@UAEXXZ 00436350 f   DrawingState.obj
 0001:00035450       ?OnWinnerList@LottoDrawingState@@UAEXPAUMSG_BASE@@@Z 00436450 f   DrawingState.obj
 0001:00035590       ??$_Copy_backward_opt@PAULottoWinner@@PAU1@@std@@YAPAULottoWinner@@PAU1@00Urandom_access_iterator_tag@0@U_Nonscalar_ptr_iterator_tag@0@U_Range_checked_iterator_tag@0@@Z 00436590 f i DrawingState.obj
 0001:000355e0       ??$_Uninit_copy@PAULottoWinner@@PAU1@V?$allocator@ULottoWinner@@@std@@@std@@YAPAULottoWinner@@PAU1@00AAV?$allocator@ULottoWinner@@@0@U_Nonscalar_ptr_iterator_tag@0@U_Range_checked_iterator_tag@0@@Z 004365e0 f i DrawingState.obj
 0001:00035620       ??$unchecked_copy@PAULottoWinner@@PAU1@@stdext@@YAPAULottoWinner@@PAU1@00@Z 00436620 f i DrawingState.obj
 0001:00035660       ??$fill@PAULottoWinner@@U1@@std@@YAXPAULottoWinner@@0ABU1@@Z 00436660 f i DrawingState.obj
 0001:00035690       ??$_Uninit_fill_n@PAULottoWinner@@IU1@V?$allocator@ULottoWinner@@@std@@@std@@YAXPAULottoWinner@@IABU1@AAV?$allocator@ULottoWinner@@@0@U_Nonscalar_ptr_iterator_tag@0@U_Range_checked_iterator_tag@0@@Z 00436690 f i DrawingState.obj
 0001:000356c0       ??$_Unchecked_move_backward@PAULottoWinner@@PAU1@@stdext@@YAPAULottoWinner@@PAU1@00@Z 004366c0 f i DrawingState.obj
 0001:000356f0       ?_Ufill@?$vector@ULottoWinner@@V?$allocator@ULottoWinner@@@std@@@std@@IAEPAULottoWinner@@PAU3@IABU3@@Z 004366f0 f i DrawingState.obj
 0001:00035730       ?erase@?$vector@ULottoWinner@@V?$allocator@ULottoWinner@@@std@@@std@@QAE?AV?$_Vector_iterator@ULottoWinner@@V?$allocator@ULottoWinner@@@std@@@2@V?$_Vector_const_iterator@ULottoWinner@@V?$allocator@ULottoWinner@@@std@@@2@0@Z 00436730 f i DrawingState.obj
 0001:000357b0       ??$_Umove@PAULottoWinner@@@?$vector@ULottoWinner@@V?$allocator@ULottoWinner@@@std@@@std@@IAEPAULottoWinner@@PAU2@00@Z 004367b0 f i DrawingState.obj
 0001:000357e0       ?_Insert_n@?$vector@ULottoWinner@@V?$allocator@ULottoWinner@@@std@@@std@@IAEXV?$_Vector_const_iterator@ULottoWinner@@V?$allocator@ULottoWinner@@@std@@@2@IABULottoWinner@@@Z 004367e0 f i DrawingState.obj
 0001:00035a30       ?insert@?$vector@ULottoWinner@@V?$allocator@ULottoWinner@@@std@@@std@@QAE?AV?$_Vector_iterator@ULottoWinner@@V?$allocator@ULottoWinner@@@std@@@2@V?$_Vector_const_iterator@ULottoWinner@@V?$allocator@ULottoWinner@@@std@@@2@ABULottoWinner@@@Z 00436a30 f i DrawingState.obj
 0001:00035af0       ?push_back@?$vector@ULottoWinner@@V?$allocator@ULottoWinner@@@std@@@std@@QAEXABULottoWinner@@@Z 00436af0 f i DrawingState.obj
 0001:00035b70       ?OnEnter@LottoFinalState@@UAEXXZ 00436b70 f   FinalState.obj
 0001:00035b80       ?OnExit@LottoFinalState@@UAEXXZ 00436b80 f   FinalState.obj
 0001:00035b90       ?OnInfoRequest@LottoInactiveState@@UAEXHPAUMSG_BASE@@@Z 00436b90 f   InactiveState.obj
 0001:00035bf0       ?OnExit@LottoInactiveState@@UAEXXZ 00436bf0 f   InactiveState.obj
 0001:00035c10       ?OnEnter@LottoInactiveState@@UAEXXZ 00436c10 f   InactiveState.obj
 0001:00035c60       ?OnTick@LottoInactiveState@@UAEXXZ 00436c60 f   InactiveState.obj
 0001:00035e20       ?OnRollOver@LottoInitialState@@UAEXPAUMSG_BASE@@@Z 00436e20 f   InitialState.obj
 0001:00035e80       ?OnExit@LottoInitialState@@UAEXXZ 00436e80 f   InitialState.obj
 0001:00035ea0       ?OnLoad@LottoInitialState@@UAEXPAUMSG_BASE@@@Z 00436ea0 f   InitialState.obj
 0001:00035fe0       ?OnTick@LottoInitialState@@UAEXXZ 00436fe0 f   InitialState.obj
 0001:00036060       ?OnEnter@LottoInitialState@@UAEXXZ 00437060 f   InitialState.obj
 0001:000360e0       ?OnWinnerList@LottoInitialState@@UAEXPAUMSG_BASE@@@Z 004370e0 f   InitialState.obj
 0001:00036220       ??0FriendInvitationLevelChangedProc@@QAE@XZ 00437220 f   FriendInvitationLevelChangedProc.obj
 0001:00036230       ??1FriendInvitationLevelChangedProc@@QAE@XZ 00437230 f   FriendInvitationLevelChangedProc.obj
 0001:00036240       ?EventEnd@FriendInvitationLevelChangedProc@@AAEXPAVUser@@@Z 00437240 f   FriendInvitationLevelChangedProc.obj
 0001:000362a0       ?SendReWardInfo@FriendInvitationLevelChangedProc@@AAEXHPBDPAVUser@@GW4eSYSTEM_MEMO_TYPE@@@Z 004372a0 f   FriendInvitationLevelChangedProc.obj
 0001:000363b0       ?ChangedEventLevel@FriendInvitationLevelChangedProc@@QAEXPAVUser@@G@Z 004373b0 f   FriendInvitationLevelChangedProc.obj
 0001:00036490       ??1FriendInvitationListProc@@QAE@XZ 00437490 f   FriendInvitationListProc.obj
 0001:000364b0       ?GetInvitateFriendList@FriendInvitationListProc@@QAEXW4FRIEND_TYPE@User@@PAV3@AAUINVITATEFRIENDLIST_INFO@@@Z 004374b0 f   FriendInvitationListProc.obj
 0001:00036510       ?GetInvitateFriendList@FriendInvitationListProc@@QAEXW4FRIEND_TYPE@User@@PAV3@AAUINVITATEFRIENDLIST_INFO@@K@Z 00437510 f   FriendInvitationListProc.obj
 0001:00036540       ?RemoveInvitateFriend@FriendInvitationListProc@@QAEXW4FRIEND_TYPE@User@@PAV3@K@Z 00437540 f   FriendInvitationListProc.obj
 0001:00036620       ?SendInvitateFriendList@FriendInvitationListProc@@QAEXPAVUser@@AAUINVITATEFRIENDLIST_INFO@@W4FRIEND_ACTION@3@K@Z 00437620 f   FriendInvitationListProc.obj
 0001:000366c0       ??0FriendInvitationListProc@@QAE@XZ 004376c0 f   FriendInvitationListProc.obj
 0001:00036710       ?SendInvitateFriendList@FriendInvitationListProc@@QAEXW4FRIEND_TYPE@User@@PAV3@W4FRIEND_ACTION@INVITATEFRIENDLIST_INFO@@K@Z 00437710 f   FriendInvitationListProc.obj
 0001:00036760       ?IsSetFriendsNormalSts@FriendInvitationListProc@@QAEHPAVUser@@@Z 00437760 f   FriendInvitationListProc.obj
 0001:00036870       ?SendPacket@AgentNetWorkSession@@UAEHPAVUser@@AAUINVITATEFRIENDLIST_INFO@@W4FRIEND_ACTION@3@@Z 00437870 f i FriendInvitationListProc.obj
 0001:00036910       ?SendPacket@ClientNetWorkSession@@UAEHPAVUser@@AAUINVITATEFRIENDLIST_INFO@@W4FRIEND_ACTION@3@@Z 00437910 f i FriendInvitationListProc.obj
 0001:00036970       ?OnAddFriend@WFriendInvitationController@@QAEXAAUSTRUCT_FRIEND_INFO@@AAUSTRUCT_FRIEND_DB_INFO@@PAVUser@@@Z 00437970 f   WFriendInvitationController.obj
 0001:00036a30       ?GetFriendSts@WFriendInvitationController@@QAEEPAVUser@@K@Z 00437a30 f   WFriendInvitationController.obj
 0001:00036a80       ?SendInvitateFriendList@WFriendInvitationController@@QAEXPAVUser@@K@Z 00437a80 f   WFriendInvitationController.obj
 0001:00036ac0       ??0WFriendInvitationController@@QAE@XZ 00437ac0 f   WFriendInvitationController.obj
 0001:00036b20       ??1WFriendInvitationController@@QAE@XZ 00437b20 f   WFriendInvitationController.obj
 0001:00036b90       ?OnAddInvitatedFriendCMD@WFriendInvitationController@@QAEXPAXPAUMSG_BASE@@G@Z 00437b90 f   WFriendInvitationController.obj
 0001:00036d00       ?OnCharacterLevelUp@WFriendInvitationController@@QAEXPAXPAUMSG_BASE@@G@Z 00437d00 f   WFriendInvitationController.obj
 0001:00036dc0       ?InviateFriendRemove@WFriendInvitationController@@AAEXHH@Z 00437dc0 f   WFriendInvitationController.obj
 0001:00036ea0       ?OnFriendRemove@WFriendInvitationController@@QAEXPAXPAUMSG_BASE@@G@Z 00437ea0 f   WFriendInvitationController.obj
 0001:00036ee0       ?OnFriendBlock@WFriendInvitationController@@QAEXPAXPAUMSG_BASE@@G@Z 00437ee0 f   WFriendInvitationController.obj
 0001:00036f20       ?SendSystemMemoToDBProxy@WorldSystemMemo@@AAEXPBUBasicSystemMemoInfo@@K@Z 00437f20 f   WorldSystemMemo.obj
 0001:000370d0       ?SendSystemMemoOfLotto@WorldSystemMemo@@AAEXPBUSystemMemoInfoOfLotto@@K@Z 004380d0 f   WorldSystemMemo.obj
 0001:00037230       ?SendSystemMemo@WorldSystemMemo@@QAEXPBUBasicSystemMemoInfo@@KW4eSYSTEM_MEMO_TYPE@@@Z 00438230 f   WorldSystemMemo.obj
 0001:00037260       ?SendNotification@NotificationManager@@AAEXAAUNotificationInfo@@@Z 00438260 f   NotificationManager.obj
 0001:000372e0       ?ClearNotification@NotificationManager@@QAEXXZ 004382e0 f   NotificationManager.obj
 0001:00037320       ?GetPrevNotifications@NotificationManager@@QAEXAAUMSG_CW_NOTIFICATION_PREV_ACK@@@Z 00438320 f   NotificationManager.obj
 0001:000373e0       ??0NotificationManager@@QAE@XZ 004383e0 f   NotificationManager.obj
 0001:000373f0       ??1NotificationManager@@QAE@XZ 004383f0 f   NotificationManager.obj
 0001:00037410       ?AddNotification@NotificationManager@@AAEXAAUNotificationInfo@@@Z 00438410 f   NotificationManager.obj
 0001:00037480       ?ProcessNotification@NotificationManager@@QAEXAAUNotificationInfo@@@Z 00438480 f   NotificationManager.obj
 0001:000374d0       ?_Buynode@?$list@UNotificationInfo@@V?$allocator@UNotificationInfo@@@std@@@std@@IAEPAU_Node@?$_List_nod@UNotificationInfo@@V?$allocator@UNotificationInfo@@@std@@@2@XZ 004384d0 f i NotificationManager.obj
 0001:000374f0       ?_Tidy@?$list@U?$pair@$$CBKPAVBASE_FUNC@util@@@std@@V?$allocator@U?$pair@$$CBKPAVBASE_FUNC@util@@@std@@@2@@std@@IAEXXZ 004384f0 f i PacketHandler.obj
 0001:000374f0       ?_Tidy@?$list@UNotificationInfo@@V?$allocator@UNotificationInfo@@@std@@@std@@IAEXXZ 004384f0 f i NotificationManager.obj
 0001:00037540       ?_Buynode@?$list@UNotificationInfo@@V?$allocator@UNotificationInfo@@@std@@@std@@IAEPAU_Node@?$_List_nod@UNotificationInfo@@V?$allocator@UNotificationInfo@@@std@@@2@PAU342@0ABUNotificationInfo@@@Z 00438540 f i NotificationManager.obj
 0001:000375a0       ??0?$list@UNotificationInfo@@V?$allocator@UNotificationInfo@@@std@@@std@@QAE@XZ 004385a0 f i NotificationManager.obj
 0001:00037610       ?erase@?$list@U?$pair@$$CBKPAVBASE_FUNC@util@@@std@@V?$allocator@U?$pair@$$CBKPAVBASE_FUNC@util@@@std@@@2@@std@@QAE?AV?$_Iterator@$00@12@V?$_Const_iterator@$00@12@@Z 00438610 f i PacketHandler.obj
 0001:00037610       ?erase@?$list@UNotificationInfo@@V?$allocator@UNotificationInfo@@@std@@@std@@QAE?AV?$_Iterator@$00@12@V?$_Const_iterator@$00@12@@Z 00438610 f i NotificationManager.obj
 0001:00037690       ?_Incsize@?$list@UNotificationInfo@@V?$allocator@UNotificationInfo@@@std@@@std@@IAEXI@Z 00438690 f i NotificationManager.obj
 0001:00037730       ?MessageCount@@YAHEPADZZ   00438730 f   stdafx.obj
 0001:000377f0       ?CheckSkipType@ns_formula@@YA_NW4eATTR_TYPE@@_N@Z 004387f0 f   solarslot_s:ItemOptionHeader.obj
 0001:00037820       ?CheckAttrValidity@ns_formula@@YA_NW4eATTR_TYPE@@HH@Z 00438820 f   solarslot_s:ItemOptionHeader.obj
 0001:00037840       ?CheckStatsRelatedOption@ns_formula@@YA_NG@Z 00438840 f   solarslot_s:ItemOptionHeader.obj
 0001:00037880       ??0ServiceApp@@QAE@PBD@Z   00438880 f   servercommon:ServiceApp.obj
 0001:000378b0       ??1ServiceApp@@UAE@XZ      004388b0 f   servercommon:ServiceApp.obj
 0001:000378c0       ?SetServiceName@ServiceApp@@QAEXPBD@Z 004388c0 f   servercommon:ServiceApp.obj
 0001:000378e0       ?DebugOut@ServiceApp@@QAEXPADK@Z 004388e0 f   servercommon:ServiceApp.obj
 0001:00037950       ?SetApplicationDirectory@ServiceApp@@SAXXZ 00438950 f   servercommon:ServiceApp.obj
 0001:000379f0       ?HandleStart@ServiceApp@@QAEXKPAPAD@Z 004389f0 f   servercommon:ServiceApp.obj
 0001:00037b10       ?HandleControl@ServiceApp@@QAEXK@Z 00438b10 f   servercommon:ServiceApp.obj
 0001:00037c10       ?StartServiceA@ServiceApp@@QAEXP6GXKPAPAD@ZP6GXK@Z@Z 00438c10 f   servercommon:ServiceApp.obj
 0001:00037c70       ??_GServiceApp@@UAEPAXI@Z  00438c70 f i servercommon:ServiceApp.obj
 0001:00037c70       ??_EServiceApp@@UAEPAXI@Z  00438c70 f i servercommon:ServiceApp.obj
 0001:00037c90       ??0CSunLog@@QAE@XZ         00438c90 f   servercommon:SunLog.obj
 0001:00037cb0       ?SetLogLevel@CSunLog@@QAEXE@Z 00438cb0 f   servercommon:SunLog.obj
 0001:00037cd0       ?RegisterHandler@CSunLog@@QAEXP6AHPBV1@PBDPAD@Z@Z 00438cd0 f   servercommon:SunLog.obj
 0001:00037ce0       ?WriteMessage_IO@CSunLog@@SAHPAXPBEK@Z 00438ce0 f   servercommon:SunLog.obj
 0001:00037d80       ?WriteMessage_Console@CSunLog@@SAHPBV1@PBDPAD@Z 00438d80 f   servercommon:SunLog.obj
 0001:00037e00       ?WriteMessage_File@CSunLog@@SAHPBV1@PBDPAD@Z 00438e00 f   servercommon:SunLog.obj
 0001:00037ea0       ?WriteMessage_Console2@CSunLog@@SAHPBV1@PBDPAD@Z 00438ea0 f   servercommon:SunLog.obj
 0001:00037eb0       ?WriteMessage_Console3@CSunLog@@SAHPBV1@PBDPAD@Z 00438eb0 f   servercommon:SunLog.obj
 0001:00037f10       ?GetCategoryNameByCode@@YA?AUCHAR_WRAPPER@@W4eLOGCATEGORY@CSunLog@@@Z 00438f10 f   servercommon:SunLog.obj
 0001:00037f40       ?MakePrefixFormat@CSunLog@@CAHW4ePREFIX@1@PADKW4eLOGCATEGORY@1@@Z 00438f40 f   servercommon:SunLog.obj
 0001:00038010       ??0CSunLogInfo@CSunLog@@QAE@XZ 00439010 f   servercommon:SunLog.obj
 0001:00038080       ??1CSunLogInfo@CSunLog@@QAE@XZ 00439080 f   servercommon:SunLog.obj
 0001:000380d0       ?CheckHandler@CSunLog@@AAEHAAP6AHPBV1@PBDPAD@Z3@Z 004390d0 f   servercommon:SunLog.obj
 0001:00038140       ?Flush@CSunLog@@QAEXW4eLOGOPTION@1@@Z 00439140 f   servercommon:SunLog.obj
 0001:00038190       ?LOGGINGwithARG@CSunLog@@SAHPAV1@W4eLOGOPTION@1@W4eLOGLEVEL@1@W4eLOGCATEGORY@1@PBDPAD@Z 00439190 f   servercommon:SunLog.obj
 0001:00038240       ??1CSunLog@@QAE@XZ         00439240 f   servercommon:SunLog.obj
 0001:000382d0       ?Init@CSunLog@@UAEHEEPBD0H@Z 004392d0 f   servercommon:SunLog.obj
 0001:000384c0       ?Update@CSunLog@@QAEXXZ    004394c0 f   servercommon:SunLog.obj
 0001:00038520       ?MessageOut@@YA_NW4eSUN_LOG_LEVEL@@PBDZZ 00439520 f   servercommon:SunLog.Interfaces.obj
 0001:000385e0       ?ConsoleOut@@YA_NW4eSUN_LOG_LEVEL@@PBDZZ 004395e0 f   servercommon:SunLog.Interfaces.obj
 0001:000386a0       ?MessageOutEx@@YA_NPAVCSunLog@@W4eLOGLEVEL@1@W4eLOGOPTION@1@W4eLOGCATEGORY@1@PBDZZ 004396a0 f   servercommon:SunLog.Interfaces.obj
 0001:00038760       ?MessageSecure@@YAHKKPBD00W4eABUSE_TYPE@@W4eABUSE_SUB_TYPE@@0ZZ 00439760 f   servercommon:SunLog.Interfaces.obj
 0001:00038900       ?AssertionLogger4Pool_Server@@YAXXZ 00439900 f   servercommon:SunLog.Interfaces.obj
 0001:00038910       ?GetServerType2String@@YAPADW4eSERVER_TYPE@@@Z 00439910 f   servercommon:ServerGlobal.obj
 0001:00038930       ?GetCommandLineArg@@YAHHPAD0H@Z 00439930 f   servercommon:ServerGlobal.obj
 0001:00038a00       ?DisplayDebugInfo@@YAXW4eSERVER_TYPE@@HHKKKKGGG@Z 00439a00 f   servercommon:ServerGlobal.obj
 0001:00038b80       ?SetApplicationDirectory@@YAXXZ 00439b80 f   servercommon:ServerGlobal.obj
 0001:00038c20       ?ParseArguments@@YAHPAD@Z  00439c20 f   servercommon:ServerGlobal.obj
 0001:00038c90       ?BASE_NUMBER@SERVER_VERSION_INFO@@SAKXZ 00439c90 f   servercommon:ServerBuildVersion.obj
 0001:00038ca0       ?RELEASE_BUILD_NUMBER@SERVER_VERSION_INFO@@SAKXZ 00439ca0 f   servercommon:ServerBuildVersion.obj
 0001:00038cb0       ??8const_iterator@?$_Tree@V?$_Tmap_traits@KU?$pair@V?$Delegator@VIWorkNode@@@@H@std@@U?$less@K@2@V?$CustomAllocator@U?$pair@V?$Delegator@VIWorkNode@@@@H@std@@@util@@$0A@@std@@@std@@QBE_NABV012@@Z 00439cb0 f i servercommon:WorkLoadManager.obj
 0001:00038ce0       ?_Max@?$_Tree@V?$_Tmap_traits@KU?$pair@V?$Delegator@VIWorkNode@@@@H@std@@U?$less@K@2@V?$CustomAllocator@U?$pair@V?$Delegator@VIWorkNode@@@@H@std@@@util@@$0A@@std@@@std@@KAPAU_Node@?$_Tree_nod@V?$_Tmap_traits@KU?$pair@V?$Delegator@VIWorkNode@@@@H@std@@U?$less@K@2@V?$CustomAllocator@U?$pair@V?$Delegator@VIWorkNode@@@@H@std@@@util@@$0A@@std@@@2@PAU342@@Z 00439ce0 f i servercommon:WorkLoadManager.obj
 0001:00038d00       ?_Min@?$_Tree@V?$_Tmap_traits@KU?$pair@V?$Delegator@VIWorkNode@@@@H@std@@U?$less@K@2@V?$CustomAllocator@U?$pair@V?$Delegator@VIWorkNode@@@@H@std@@@util@@$0A@@std@@@std@@KAPAU_Node@?$_Tree_nod@V?$_Tmap_traits@KU?$pair@V?$Delegator@VIWorkNode@@@@H@std@@U?$less@K@2@V?$CustomAllocator@U?$pair@V?$Delegator@VIWorkNode@@@@H@std@@@util@@$0A@@std@@@2@PAU342@@Z 00439d00 f i servercommon:WorkLoadManager.obj
 0001:00038d20       ?_Rrotate@?$_Tree@V?$_Tmap_traits@KU?$pair@V?$Delegator@VIWorkNode@@@@H@std@@U?$less@K@2@V?$CustomAllocator@U?$pair@V?$Delegator@VIWorkNode@@@@H@std@@@util@@$0A@@std@@@std@@IAEXPAU_Node@?$_Tree_nod@V?$_Tmap_traits@KU?$pair@V?$Delegator@VIWorkNode@@@@H@std@@U?$less@K@2@V?$CustomAllocator@U?$pair@V?$Delegator@VIWorkNode@@@@H@std@@@util@@$0A@@std@@@2@@Z 00439d20 f i servercommon:WorkLoadManager.obj
 0001:00038d80       ?_Dec@const_iterator@?$_Tree@V?$_Tmap_traits@KU?$pair@V?$Delegator@VIWorkNode@@@@H@std@@U?$less@K@2@V?$CustomAllocator@U?$pair@V?$Delegator@VIWorkNode@@@@H@std@@@util@@$0A@@std@@@std@@QAEXXZ 00439d80 f i servercommon:WorkLoadManager.obj
 0001:00038e10       ?_Inc@const_iterator@?$_Tree@V?$_Tmap_traits@KU?$pair@V?$Delegator@VIWorkNode@@@@H@std@@U?$less@K@2@V?$CustomAllocator@U?$pair@V?$Delegator@VIWorkNode@@@@H@std@@@util@@$0A@@std@@@std@@QAEXXZ 00439e10 f i servercommon:WorkLoadManager.obj
 0001:00038e80       ??1?$pair@V?$Delegator@VIWorkNode@@@@H@std@@QAE@XZ 00439e80 f i servercommon:WorkLoadManager.obj
 0001:00038e80       ??1?$Delegator@VIWorkNode@@@@QAE@XZ 00439e80 f i servercommon:WorkLoadManager.obj
 0001:00038e90       ??1?$pair@KU?$pair@V?$Delegator@VIWorkNode@@@@H@std@@@std@@QAE@XZ 00439e90 f i servercommon:WorkLoadManager.obj
 0001:00038e90       ??1?$pair@$$CBKU?$pair@V?$Delegator@VIWorkNode@@@@H@std@@@std@@QAE@XZ 00439e90 f i servercommon:WorkLoadManager.obj
 0001:00038ea0       ?_NodeRelease@WorkLoadManager@@AAEXU?$pair@KU?$pair@V?$Delegator@VIWorkNode@@@@H@std@@@std@@@Z 00439ea0 f   servercommon:WorkLoadManager.obj
 0001:00038f00       ?PendingTask@WorkLoadManager@@SAKKH@Z 00439f00 f   servercommon:WorkLoadManager.obj
 0001:00038f70       ?ReleaseTaskAll@WorkLoadManager@@SAXXZ 00439f70 f   servercommon:WorkLoadManager.obj
 0001:00038ff0       ?OnMsg@WorkLoadManager@@SAXPAUsSIG_MSG@@K@Z 00439ff0 f   servercommon:WorkLoadManager.obj
 0001:000390e0       ?ReleaseTask@WorkLoadManager@@SAXKH@Z 0043a0e0 f   servercommon:WorkLoadManager.obj
 0001:000391c0       ?_NodeUpdate@WorkLoadManager@@AAEXV?$_Iterator@$00@?$list@KV?$CustomAllocator@K@util@@@std@@@Z 0043a1c0 f   servercommon:WorkLoadManager.obj
 0001:000392e0       ?Update@WorkLoadManager@@SAXXZ 0043a2e0 f   servercommon:WorkLoadManager.obj
 0001:00039350       ?RegisterTask@WorkLoadManager@@SAKPAVIWorkNode@@HK@Z 0043a350 f   servercommon:WorkLoadManager.obj
 0001:000394a0       ??1WorkLoadManager@@AAE@XZ 0043a4a0 f   servercommon:WorkLoadManager.obj
 0001:00039510       ??0WorkLoadManager@@AAE@XZ 0043a510 f   servercommon:WorkLoadManager.obj
 0001:000395e0       ?CreateInstance@WorkLoadManager@@SAAAV?$Delegator@VWorkLoadManager@@@@XZ 0043a5e0 f   servercommon:WorkLoadManager.obj
 0001:00039650       ?DestroyInstance@WorkLoadManager@@SAXXZ 0043a650 f   servercommon:WorkLoadManager.obj
 0001:00039680       ?clear@?$list@KV?$CustomAllocator@K@util@@@std@@QAEXXZ 0043a680 f i servercommon:WorkLoadManager.obj
 0001:000396c0       ?_Lrotate@?$_Tree@V?$_Tmap_traits@KU?$pair@V?$Delegator@VIWorkNode@@@@H@std@@U?$less@K@2@V?$CustomAllocator@U?$pair@V?$Delegator@VIWorkNode@@@@H@std@@@util@@$0A@@std@@@std@@IAEXPAU_Node@?$_Tree_nod@V?$_Tmap_traits@KU?$pair@V?$Delegator@VIWorkNode@@@@H@std@@U?$less@K@2@V?$CustomAllocator@U?$pair@V?$Delegator@VIWorkNode@@@@H@std@@@util@@$0A@@std@@@2@@Z 0043a6c0 f i servercommon:WorkLoadManager.obj
 0001:00039710       ?_Buynode@?$_Tree@V?$_Tmap_traits@KU?$pair@V?$Delegator@VIWorkNode@@@@H@std@@U?$less@K@2@V?$CustomAllocator@U?$pair@V?$Delegator@VIWorkNode@@@@H@std@@@util@@$0A@@std@@@std@@IAEPAU_Node@?$_Tree_nod@V?$_Tmap_traits@KU?$pair@V?$Delegator@VIWorkNode@@@@H@std@@U?$less@K@2@V?$CustomAllocator@U?$pair@V?$Delegator@VIWorkNode@@@@H@std@@@util@@$0A@@std@@@2@XZ 0043a710 f i servercommon:WorkLoadManager.obj
 0001:00039750       ?_Buynode@?$_Tree@V?$_Tmap_traits@KU?$pair@V?$Delegator@VIWorkNode@@@@H@std@@U?$less@K@2@V?$CustomAllocator@U?$pair@V?$Delegator@VIWorkNode@@@@H@std@@@util@@$0A@@std@@@std@@IAEPAU_Node@?$_Tree_nod@V?$_Tmap_traits@KU?$pair@V?$Delegator@VIWorkNode@@@@H@std@@U?$less@K@2@V?$CustomAllocator@U?$pair@V?$Delegator@VIWorkNode@@@@H@std@@@util@@$0A@@std@@@2@PAU342@00ABU?$pair@$$CBKU?$pair@V?$Delegator@VIWorkNode@@@@H@std@@@2@D@Z 0043a750 f i servercommon:WorkLoadManager.obj
 0001:000397a0       ?_Erase@?$_Tree@V?$_Tmap_traits@KU?$pair@V?$Delegator@VIWorkNode@@@@H@std@@U?$less@K@2@V?$CustomAllocator@U?$pair@V?$Delegator@VIWorkNode@@@@H@std@@@util@@$0A@@std@@@std@@IAEXPAU_Node@?$_Tree_nod@V?$_Tmap_traits@KU?$pair@V?$Delegator@VIWorkNode@@@@H@std@@U?$less@K@2@V?$CustomAllocator@U?$pair@V?$Delegator@VIWorkNode@@@@H@std@@@util@@$0A@@std@@@2@@Z 0043a7a0 f i servercommon:WorkLoadManager.obj
 0001:000397e0       ??$for_each@Viterator@?$_Tree@V?$_Tmap_traits@KU?$pair@V?$Delegator@VIWorkNode@@@@H@std@@U?$less@K@2@V?$CustomAllocator@U?$pair@V?$Delegator@VIWorkNode@@@@H@std@@@util@@$0A@@std@@@std@@V?$binder1st@V?$mem_fun1_t@XVWorkLoadManager@@U?$pair@KU?$pair@V?$Delegator@VIWorkNode@@@@H@std@@@std@@@std@@@3@@std@@YA?AV?$binder1st@V?$mem_fun1_t@XVWorkLoadManager@@U?$pair@KU?$pair@V?$Delegator@VIWorkNode@@@@H@std@@@std@@@std@@@0@Viterator@?$_Tree@V?$_Tmap_traits@KU?$pair@V?$Delegator@VIWorkNode@@@@H@std@@U?$less@K@2@V?$CustomAllocator@U?$pair@V?$Delegator@VIWorkNode@@@@H@std@@@util@@$0A@@std@@@0@0V10@@Z 0043a7e0 f i servercommon:WorkLoadManager.obj
 0001:000398f0       ?find@?$_Tree@V?$_Tmap_traits@KU?$pair@V?$Delegator@VIWorkNode@@@@H@std@@U?$less@K@2@V?$CustomAllocator@U?$pair@V?$Delegator@VIWorkNode@@@@H@std@@@util@@$0A@@std@@@std@@QAE?AViterator@12@ABK@Z 0043a8f0 f i servercommon:WorkLoadManager.obj
 0001:00039980       ??0?$_Tree@V?$_Tmap_traits@KU?$pair@V?$Delegator@VIWorkNode@@@@H@std@@U?$less@K@2@V?$CustomAllocator@U?$pair@V?$Delegator@VIWorkNode@@@@H@std@@@util@@$0A@@std@@@std@@QAE@ABU?$less@K@1@ABV?$CustomAllocator@U?$pair@$$CBKU?$pair@V?$Delegator@VIWorkNode@@@@H@std@@@std@@@util@@@Z 0043a980 f i servercommon:WorkLoadManager.obj
 0001:00039a10       ?erase@?$_Tree@V?$_Tmap_traits@KU?$pair@V?$Delegator@VIWorkNode@@@@H@std@@U?$less@K@2@V?$CustomAllocator@U?$pair@V?$Delegator@VIWorkNode@@@@H@std@@@util@@$0A@@std@@@std@@QAE?AViterator@12@Vconst_iterator@12@@Z 0043aa10 f i servercommon:WorkLoadManager.obj
 0001:00039ce0       ?_Insert@?$_Tree@V?$_Tmap_traits@KU?$pair@V?$Delegator@VIWorkNode@@@@H@std@@U?$less@K@2@V?$CustomAllocator@U?$pair@V?$Delegator@VIWorkNode@@@@H@std@@@util@@$0A@@std@@@std@@IAE?AViterator@12@_NPAU_Node@?$_Tree_nod@V?$_Tmap_traits@KU?$pair@V?$Delegator@VIWorkNode@@@@H@std@@U?$less@K@2@V?$CustomAllocator@U?$pair@V?$Delegator@VIWorkNode@@@@H@std@@@util@@$0A@@std@@@2@ABU?$pair@$$CBKU?$pair@V?$Delegator@VIWorkNode@@@@H@std@@@2@@Z 0043ace0 f i servercommon:WorkLoadManager.obj
 0001:00039ee0       ?erase@?$_Tree@V?$_Tmap_traits@KU?$pair@V?$Delegator@VIWorkNode@@@@H@std@@U?$less@K@2@V?$CustomAllocator@U?$pair@V?$Delegator@VIWorkNode@@@@H@std@@@util@@$0A@@std@@@std@@QAE?AViterator@12@Vconst_iterator@12@0@Z 0043aee0 f i servercommon:WorkLoadManager.obj
 0001:00039fc0       ?insert@?$_Tree@V?$_Tmap_traits@KU?$pair@V?$Delegator@VIWorkNode@@@@H@std@@U?$less@K@2@V?$CustomAllocator@U?$pair@V?$Delegator@VIWorkNode@@@@H@std@@@util@@$0A@@std@@@std@@QAE?AU?$pair@Viterator@?$_Tree@V?$_Tmap_traits@KU?$pair@V?$Delegator@VIWorkNode@@@@H@std@@U?$less@K@2@V?$CustomAllocator@U?$pair@V?$Delegator@VIWorkNode@@@@H@std@@@util@@$0A@@std@@@std@@_N@2@ABU?$pair@$$CBKU?$pair@V?$Delegator@VIWorkNode@@@@H@std@@@2@@Z 0043afc0 f i servercommon:WorkLoadManager.obj
 0001:0003a0b0       ??1?$_Tree@V?$_Tmap_traits@KU?$pair@V?$Delegator@VIWorkNode@@@@H@std@@U?$less@K@2@V?$CustomAllocator@U?$pair@V?$Delegator@VIWorkNode@@@@H@std@@@util@@$0A@@std@@@std@@QAE@XZ 0043b0b0 f i servercommon:WorkLoadManager.obj
 0001:0003a130       ?insert@?$_Tree@V?$_Tmap_traits@KU?$pair@V?$Delegator@VIWorkNode@@@@H@std@@U?$less@K@2@V?$CustomAllocator@U?$pair@V?$Delegator@VIWorkNode@@@@H@std@@@util@@$0A@@std@@@std@@QAE?AViterator@12@Vconst_iterator@12@ABU?$pair@$$CBKU?$pair@V?$Delegator@VIWorkNode@@@@H@std@@@2@@Z 0043b130 f i servercommon:WorkLoadManager.obj
 0001:0003a300       ??1?$chunk_map@KU?$pair@V?$Delegator@VIWorkNode@@@@H@std@@U?$less@K@2@@util@@QAE@XZ 0043b300 f i servercommon:WorkLoadManager.obj
 0001:0003a310       ?IsSendToWorldServer@ItemOwnFlag@@QAEHW4eITEMTYPE@@@Z 0043b310 f   servercommon:ItemOwnFlag.obj
 0001:0003a340       ?IsSendToAgentServer@ItemOwnFlag@@QAEHW4eITEMTYPE@@@Z 0043b340 f   servercommon:ItemOwnFlag.obj
 0001:0003a370       ?GetAllSpecialItemInfoToWorld@ItemOwnFlag@@QAEHPAUSPECIAL_ITEM_OWN_INFO@@H@Z 0043b370 f   servercommon:ItemOwnFlag.obj
 0001:0003a420       ?FindItemInfo@ItemOwnFlag@@QAEPAUSPECIAL_ITEM_INFO@@W4eITEMTYPE@@@Z 0043b420 f   servercommon:ItemOwnFlag.obj
 0001:0003a490       ?QueryShoutItemsExist@ItemOwnFlag@@QAEXAAH00@Z 0043b490 f   servercommon:ItemOwnFlag.obj
 0001:0003a4f0       ?GetItemNum@ItemOwnFlag@@QAEHW4eITEMTYPE@@@Z 0043b4f0 f   servercommon:ItemOwnFlag.obj
 0001:0003a510       ?Init@ItemOwnFlag@@QAEXXZ  0043b510 f   servercommon:ItemOwnFlag.obj
 0001:0003a520       ?IncItemInfo@ItemOwnFlag@@QAEXW4eITEMTYPE@@H@Z 0043b520 f   servercommon:ItemOwnFlag.obj
 0001:0003a580       ?DecItemInfo@ItemOwnFlag@@QAEHW4eITEMTYPE@@H@Z 0043b580 f   servercommon:ItemOwnFlag.obj
 0001:0003a5e0       ?_Buynode@?$list@U?$pair@$$CBW4eITEMTYPE@@USPECIAL_ITEM_INFO@@@std@@V?$CustomAllocator@U?$pair@$$CBW4eITEMTYPE@@USPECIAL_ITEM_INFO@@@std@@@util@@@std@@IAEPAU_Node@?$_List_nod@U?$pair@$$CBW4eITEMTYPE@@USPECIAL_ITEM_INFO@@@std@@V?$CustomAllocator@U?$pair@$$CBW4eITEMTYPE@@USPECIAL_ITEM_INFO@@@std@@@util@@@2@PAU342@0ABU?$pair@$$CBW4eITEMTYPE@@USPECIAL_ITEM_INFO@@@2@@Z 0043b5e0 f i servercommon:ItemOwnFlag.obj
 0001:0003a620       ??$_Distance2@V?$_Iterator@$00@?$list@U?$pair@$$CBHULottoEntry@@@std@@V?$allocator@U?$pair@$$CBHULottoEntry@@@std@@@2@@std@@I@std@@YAXV?$_Iterator@$00@?$list@U?$pair@$$CBHULottoEntry@@@std@@V?$allocator@U?$pair@$$CBHULottoEntry@@@std@@@2@@0@0AAIUbidirectional_iterator_tag@0@@Z 0043b620 f i Lotto.obj
 0001:0003a620       ??$_Distance2@V?$_Iterator@$00@?$list@U?$pair@$$CBW4eITEMTYPE@@USPECIAL_ITEM_INFO@@@std@@V?$CustomAllocator@U?$pair@$$CBW4eITEMTYPE@@USPECIAL_ITEM_INFO@@@std@@@util@@@std@@I@std@@YAXV?$_Iterator@$00@?$list@U?$pair@$$CBW4eITEMTYPE@@USPECIAL_ITEM_INFO@@@std@@V?$CustomAllocator@U?$pair@$$CBW4eITEMTYPE@@USPECIAL_ITEM_INFO@@@std@@@util@@@0@0AAIUbidirectional_iterator_tag@0@@Z 0043b620 f i servercommon:ItemOwnFlag.obj
 0001:0003a690       ?erase@?$_Hash@V?$_Hmap_traits@KPAVBaseZone@@V?$hash_compare@KU?$less@K@std@@@stdext@@V?$CustomAllocator@PAVBaseZone@@@util@@$0A@@stdext@@@stdext@@QAE?AV?$_Iterator@$00@?$list@U?$pair@$$CBKPAVBaseZone@@@std@@V?$CustomAllocator@U?$pair@$$CBKPAVBaseZone@@@std@@@util@@@std@@V?$_Const_iterator@$00@45@@Z 0043b690 f i BaseZone.obj
 0001:0003a690       ?erase@?$_Hash@V?$_Hmap_traits@W4eITEMTYPE@@USPECIAL_ITEM_INFO@@V?$hash_compare@W4eITEMTYPE@@U?$less@W4eITEMTYPE@@@std@@@stdext@@V?$CustomAllocator@USPECIAL_ITEM_INFO@@@util@@$0A@@stdext@@@stdext@@QAE?AV?$_Iterator@$00@?$list@U?$pair@$$CBW4eITEMTYPE@@USPECIAL_ITEM_INFO@@@std@@V?$CustomAllocator@U?$pair@$$CBW4eITEMTYPE@@USPECIAL_ITEM_INFO@@@std@@@util@@@std@@V?$_Const_iterator@$00@45@@Z 0043b690 f i servercommon:ItemOwnFlag.obj
 0001:0003a690       ?erase@?$_Hash@V?$_Hmap_traits@KPAVChatZone@@V?$hash_compare@KU?$less@K@std@@@stdext@@V?$CustomAllocator@PAVChatZone@@@util@@$0A@@stdext@@@stdext@@QAE?AV?$_Iterator@$00@?$list@U?$pair@$$CBKPAVChatZone@@@std@@V?$CustomAllocator@U?$pair@$$CBKPAVChatZone@@@std@@@util@@@std@@V?$_Const_iterator@$00@45@@Z 0043b690 f i Channel.obj
 0001:0003a690       ?erase@?$_Hash@V?$_Hmap_traits@KPAVUser@@V?$hash_compare@KU?$less@K@std@@@stdext@@V?$CustomAllocator@PAVUser@@@util@@$0A@@stdext@@@stdext@@QAE?AV?$_Iterator@$00@?$list@U?$pair@$$CBKPAVUser@@@std@@V?$CustomAllocator@U?$pair@$$CBKPAVUser@@@std@@@util@@@std@@V?$_Const_iterator@$00@45@@Z 0043b690 f i GuidUserList.obj
 0001:0003a790       ?_Incsize@?$list@U?$pair@$$CBW4eITEMTYPE@@USPECIAL_ITEM_INFO@@@std@@V?$CustomAllocator@U?$pair@$$CBW4eITEMTYPE@@USPECIAL_ITEM_INFO@@@std@@@util@@@std@@IAEXI@Z 0043b790 f i servercommon:ItemOwnFlag.obj
 0001:0003a830       ?insert@?$list@U?$pair@$$CBW4eITEMTYPE@@USPECIAL_ITEM_INFO@@@std@@V?$CustomAllocator@U?$pair@$$CBW4eITEMTYPE@@USPECIAL_ITEM_INFO@@@std@@@util@@@std@@QAE?AV?$_Iterator@$00@12@V?$_Const_iterator@$00@12@ABU?$pair@$$CBW4eITEMTYPE@@USPECIAL_ITEM_INFO@@@2@@Z 0043b830 f i servercommon:ItemOwnFlag.obj
 0001:0003a8c0       ?_Splice@?$list@U?$pair@$$CBW4eITEMTYPE@@USPECIAL_ITEM_INFO@@@std@@V?$CustomAllocator@U?$pair@$$CBW4eITEMTYPE@@USPECIAL_ITEM_INFO@@@std@@@util@@@std@@QAEXV?$_Const_iterator@$00@12@AAV12@00I_N@Z 0043b8c0 f i servercommon:ItemOwnFlag.obj
 0001:0003a930       ?splice@?$list@U?$pair@$$CBW4eITEMTYPE@@USPECIAL_ITEM_INFO@@@std@@V?$CustomAllocator@U?$pair@$$CBW4eITEMTYPE@@USPECIAL_ITEM_INFO@@@std@@@util@@@std@@QAEXV?$_Const_iterator@$00@12@AAV12@0@Z 0043b930 f i servercommon:ItemOwnFlag.obj
 0001:0003a9f0       ?_Insert@?$_Hash@V?$_Hmap_traits@W4eITEMTYPE@@USPECIAL_ITEM_INFO@@V?$hash_compare@W4eITEMTYPE@@U?$less@W4eITEMTYPE@@@std@@@stdext@@V?$CustomAllocator@USPECIAL_ITEM_INFO@@@util@@$0A@@stdext@@@stdext@@IAE?AU?$pair@V?$_Iterator@$00@?$list@U?$pair@$$CBW4eITEMTYPE@@USPECIAL_ITEM_INFO@@@std@@V?$CustomAllocator@U?$pair@$$CBW4eITEMTYPE@@USPECIAL_ITEM_INFO@@@std@@@util@@@std@@_N@std@@ABU?$pair@$$CBW4eITEMTYPE@@USPECIAL_ITEM_INFO@@@4@V?$_Iterator@$00@?$list@U?$pair@$$CBW4eITEMTYPE@@USPECIAL_ITEM_INFO@@@std@@V?$CustomAllocator@U?$pair@$$CBW4eITEMTYPE@@USPECIAL_ITEM_INFO@@@std@@@util@@@4@@Z 0043b9f0 f i servercommon:ItemOwnFlag.obj
 0001:0003ad70       ?_Reinsert@?$_Hash@V?$_Hmap_traits@W4eITEMTYPE@@USPECIAL_ITEM_INFO@@V?$hash_compare@W4eITEMTYPE@@U?$less@W4eITEMTYPE@@@std@@@stdext@@V?$CustomAllocator@USPECIAL_ITEM_INFO@@@util@@$0A@@stdext@@@stdext@@IAEXXZ 0043bd70 f i servercommon:ItemOwnFlag.obj
 0001:0003ae00       ?clear@?$_Hash@V?$_Hmap_traits@W4eITEMTYPE@@USPECIAL_ITEM_INFO@@V?$hash_compare@W4eITEMTYPE@@U?$less@W4eITEMTYPE@@@std@@@stdext@@V?$CustomAllocator@USPECIAL_ITEM_INFO@@@util@@$0A@@stdext@@@stdext@@QAEXXZ 0043be00 f i servercommon:ItemOwnFlag.obj
 0001:0003ae00       ?clear@?$_Hash@V?$_Hmap_traits@KPAVVillageZone@@V?$hash_compare@KU?$less@K@std@@@stdext@@V?$CustomAllocator@PAVVillageZone@@@util@@$0A@@stdext@@@stdext@@QAEXXZ 0043be00 f i Channel.obj
 0001:0003ae00       ?clear@?$_Hash@V?$_Hmap_traits@KPAVUser@@V?$hash_compare@KU?$less@K@std@@@stdext@@V?$CustomAllocator@PAVUser@@@util@@$0A@@stdext@@@stdext@@QAEXXZ 0043be00 f i GuidUserList.obj
 0001:0003ae00       ?clear@?$_Hash@V?$_Hmap_traits@KPAVViewPortZone@@V?$hash_compare@KU?$less@K@std@@@stdext@@V?$CustomAllocator@PAVViewPortZone@@@util@@$0A@@stdext@@@stdext@@QAEXXZ 0043be00 f i BaseZone.obj
 0001:0003ae00       ?clear@?$_Hash@V?$_Hmap_traits@KPBVMapGroupBase@@V?$hash_compare@KU?$less@K@std@@@stdext@@V?$CustomAllocator@PBVMapGroupBase@@@util@@$0A@@stdext@@@stdext@@QAEXXZ 0043be00 f i programcommon_s:MapInfoParser.obj
 0001:0003ae00       ?clear@?$_Hash@V?$_Hmap_traits@KPBUsWMOINFO_BASE@@V?$hash_compare@KU?$less@K@std@@@stdext@@V?$CustomAllocator@PBUsWMOINFO_BASE@@@util@@$0A@@stdext@@@stdext@@QAEXXZ 0043be00 f i programcommon_s:MapInfoParser.obj
 0001:0003ae00       ?clear@?$_Hash@V?$_Hmap_traits@KPAVChatZone@@V?$hash_compare@KU?$less@K@std@@@stdext@@V?$CustomAllocator@PAVChatZone@@@util@@$0A@@stdext@@@stdext@@QAEXXZ 0043be00 f i Channel.obj
 0001:0003ae00       ?clear@?$_Hash@V?$_Hmap_traits@KPBUsMAPINFO_BASE@@V?$hash_compare@KU?$less@K@std@@@stdext@@V?$CustomAllocator@PBUsMAPINFO_BASE@@@util@@$0A@@stdext@@@stdext@@QAEXXZ 0043be00 f i programcommon_s:MapInfoParser.obj
 0001:0003ae00       ?clear@?$_Hash@V?$_Hmap_traits@KPBUsWUTINFO_BASE@@V?$hash_compare@KU?$less@K@std@@@stdext@@V?$CustomAllocator@PBUsWUTINFO_BASE@@@util@@$0A@@stdext@@@stdext@@QAEXXZ 0043be00 f i programcommon_s:MapInfoParser.obj
 0001:0003ae00       ?clear@?$_Hash@V?$_Hmap_traits@KPBUsFIELDINFO_BASE@@V?$hash_compare@KU?$less@K@std@@@stdext@@V?$CustomAllocator@PBUsFIELDINFO_BASE@@@util@@$0A@@stdext@@@stdext@@QAEXXZ 0043be00 f i programcommon_s:MapInfoParser.obj
 0001:0003ae00       ?clear@?$_Hash@V?$_Hmap_traits@KPAVBaseZone@@V?$hash_compare@KU?$less@K@std@@@stdext@@V?$CustomAllocator@PAVBaseZone@@@util@@$0A@@stdext@@@stdext@@QAEXXZ 0043be00 f i BaseZone.obj
 0001:0003ae70       ?erase@?$_Hash@V?$_Hmap_traits@W4eITEMTYPE@@USPECIAL_ITEM_INFO@@V?$hash_compare@W4eITEMTYPE@@U?$less@W4eITEMTYPE@@@std@@@stdext@@V?$CustomAllocator@USPECIAL_ITEM_INFO@@@util@@$0A@@stdext@@@stdext@@QAE?AV?$_Iterator@$00@?$list@U?$pair@$$CBW4eITEMTYPE@@USPECIAL_ITEM_INFO@@@std@@V?$CustomAllocator@U?$pair@$$CBW4eITEMTYPE@@USPECIAL_ITEM_INFO@@@std@@@util@@@std@@V?$_Const_iterator@$00@45@0@Z 0043be70 f i servercommon:ItemOwnFlag.obj
 0001:0003af70       ?erase@?$_Hash@V?$_Hmap_traits@W4eITEMTYPE@@USPECIAL_ITEM_INFO@@V?$hash_compare@W4eITEMTYPE@@U?$less@W4eITEMTYPE@@@std@@@stdext@@V?$CustomAllocator@USPECIAL_ITEM_INFO@@@util@@$0A@@stdext@@@stdext@@QAEIABW4eITEMTYPE@@@Z 0043bf70 f i servercommon:ItemOwnFlag.obj
 0001:0003afe0       ??4tag_MMEMO_INFOS@@QAEAAU0@ABU0@@Z 0043bfe0 f   servercommon:ServerStruct.obj
 0001:0003b010       ?SetResult@tag_MMEMO_ERR_RESULT@@QAEXK@Z 0043c010 f   servercommon:ServerStruct.obj
 0001:0003b090       ??4tag_MMEMO_ERR_RESULT@@QAEAAU0@ABU0@@Z 0043c090 f   servercommon:ServerStruct.obj
 0001:0003b0c0       ?Set@tag_MMEMO_RESULT@@QAE_NPBDKH_K00@Z 0043c0c0 f   servercommon:ServerStruct.obj
 0001:0003b170       ?Output@SERVER_CHARACTER_PART@@QAEXAAVArchiveOfStream@@@Z 0043c170 f   servercommon:ServerStruct.obj
 0001:0003b580       ?Input@SERVER_CHARACTER_PART@@QAEXAAVArchiveOfStream@@@Z 0043c580 f   servercommon:ServerStruct.obj
 0001:0003b980       ??0GMCmdParser@@QAE@XZ     0043c980 f   servercommon:GMCmdParser.obj
 0001:0003b990       ??1GMCmdParser@@QAE@XZ     0043c990 f   servercommon:GMCmdParser.obj
 0001:0003b9a0       ?Tokenize@GMCmdParser@@QAE_NPBDPAUGmCmdTokens@@@Z 0043c9a0 f   servercommon:GMCmdParser.obj
 0001:0003ba90       ?Parsing@GMCmdParser@@QAE_NPBDAAV?$chunk_vector@V?$basic_string@DU?$char_traits@D@std@@V?$CustomAllocator@D@util@@@std@@@util@@@Z 0043ca90 f   servercommon:GMCmdParser.obj
 0001:0003bce0       ?find@?$basic_string@DU?$char_traits@D@std@@V?$CustomAllocator@D@util@@@std@@QBEIPBDII@Z 0043cce0 f i servercommon:GMCmdParser.obj
 0001:0003bce0       ?find@?$basic_string@DU?$char_traits@D@std@@V?$allocator@D@2@@std@@QBEIPBDII@Z 0043cce0 f i Handler_DW.obj
 0001:0003bda0       ??Y?$_Vector_const_iterator@V?$basic_string@DU?$char_traits@D@std@@V?$CustomAllocator@D@util@@@std@@V?$CustomAllocator@V?$basic_string@DU?$char_traits@D@std@@V?$CustomAllocator@D@util@@@std@@@util@@@std@@QAEAAV01@H@Z 0043cda0 f i servercommon:GMCmdParser.obj
 0001:0003be00       ?assign@?$basic_string@DU?$char_traits@D@std@@V?$CustomAllocator@D@util@@@std@@QAEAAV12@PBDI@Z 0043ce00 f i servercommon:GMCmdParser.obj
 0001:0003bee0       ?substr@?$basic_string@DU?$char_traits@D@std@@V?$CustomAllocator@D@util@@@std@@QBE?AV12@II@Z 0043cee0 f i servercommon:GMCmdParser.obj
 0001:0003bf20       ??$_Uninit_fill_n@PAV?$basic_string@DU?$char_traits@D@std@@V?$CustomAllocator@D@util@@@std@@IV12@V?$CustomAllocator@V?$basic_string@DU?$char_traits@D@std@@V?$CustomAllocator@D@util@@@std@@@util@@@std@@YAXPAV?$basic_string@DU?$char_traits@D@std@@V?$CustomAllocator@D@util@@@0@IABV10@AAV?$CustomAllocator@V?$basic_string@DU?$char_traits@D@std@@V?$CustomAllocator@D@util@@@std@@@util@@U_Nonscalar_ptr_iterator_tag@0@U_Range_checked_iterator_tag@0@@Z 0043cf20 f i servercommon:GMCmdParser.obj
 0001:0003bfd0       ??$fill@PAV?$basic_string@DU?$char_traits@D@std@@V?$CustomAllocator@D@util@@@std@@V12@@std@@YAXPAV?$basic_string@DU?$char_traits@D@std@@V?$CustomAllocator@D@util@@@0@0ABV10@@Z 0043cfd0 f i servercommon:GMCmdParser.obj
 0001:0003c000       ?_Ufill@?$vector@V?$basic_string@DU?$char_traits@D@std@@V?$CustomAllocator@D@util@@@std@@V?$CustomAllocator@V?$basic_string@DU?$char_traits@D@std@@V?$CustomAllocator@D@util@@@std@@@util@@@std@@IAEPAV?$basic_string@DU?$char_traits@D@std@@V?$CustomAllocator@D@util@@@2@PAV32@IABV32@@Z 0043d000 f i servercommon:GMCmdParser.obj
 0001:0003c040       ??$_Move_backward_opt@PAV?$basic_string@DU?$char_traits@D@std@@V?$CustomAllocator@D@util@@@std@@PAV12@Uforward_iterator_tag@2@@std@@YAPAV?$basic_string@DU?$char_traits@D@std@@V?$CustomAllocator@D@util@@@0@PAV10@00Uforward_iterator_tag@0@U_Swap_move_tag@0@U_Range_checked_iterator_tag@0@@Z 0043d040 f i servercommon:GMCmdParser.obj
 0001:0003c0c0       ??$_Move_backward_opt@PAV?$basic_string@DU?$char_traits@D@std@@V?$CustomAllocator@D@util@@@std@@PAV12@@std@@YAPAV?$basic_string@DU?$char_traits@D@std@@V?$CustomAllocator@D@util@@@0@PAV10@00Urandom_access_iterator_tag@0@U_Swap_move_tag@0@U_Range_checked_iterator_tag@0@@Z 0043d0c0 f i servercommon:GMCmdParser.obj
 0001:0003c120       ??$_Umove@PAV?$basic_string@DU?$char_traits@D@std@@V?$CustomAllocator@D@util@@@std@@@?$vector@V?$basic_string@DU?$char_traits@D@std@@V?$CustomAllocator@D@util@@@std@@V?$CustomAllocator@V?$basic_string@DU?$char_traits@D@std@@V?$CustomAllocator@D@util@@@std@@@util@@@std@@IAEPAV?$basic_string@DU?$char_traits@D@std@@V?$CustomAllocator@D@util@@@1@PAV21@00@Z 0043d120 f i servercommon:GMCmdParser.obj
 0001:0003c150       ??$_Unchecked_move_backward@PAV?$basic_string@DU?$char_traits@D@std@@V?$CustomAllocator@D@util@@@std@@PAV12@@stdext@@YAPAV?$basic_string@DU?$char_traits@D@std@@V?$CustomAllocator@D@util@@@std@@PAV12@00@Z 0043d150 f i servercommon:GMCmdParser.obj
 0001:0003c180       ?_Insert_n@?$vector@V?$basic_string@DU?$char_traits@D@std@@V?$CustomAllocator@D@util@@@std@@V?$CustomAllocator@V?$basic_string@DU?$char_traits@D@std@@V?$CustomAllocator@D@util@@@std@@@util@@@std@@IAEXV?$_Vector_const_iterator@V?$basic_string@DU?$char_traits@D@std@@V?$CustomAllocator@D@util@@@std@@V?$CustomAllocator@V?$basic_string@DU?$char_traits@D@std@@V?$CustomAllocator@D@util@@@std@@@util@@@2@IABV?$basic_string@DU?$char_traits@D@std@@V?$CustomAllocator@D@util@@@2@@Z 0043d180 f i servercommon:GMCmdParser.obj
 0001:0003c510       ?insert@?$vector@V?$basic_string@DU?$char_traits@D@std@@V?$CustomAllocator@D@util@@@std@@V?$CustomAllocator@V?$basic_string@DU?$char_traits@D@std@@V?$CustomAllocator@D@util@@@std@@@util@@@std@@QAE?AV?$_Vector_iterator@V?$basic_string@DU?$char_traits@D@std@@V?$CustomAllocator@D@util@@@std@@V?$CustomAllocator@V?$basic_string@DU?$char_traits@D@std@@V?$CustomAllocator@D@util@@@std@@@util@@@2@V?$_Vector_const_iterator@V?$basic_string@DU?$char_traits@D@std@@V?$CustomAllocator@D@util@@@std@@V?$CustomAllocator@V?$basic_string@DU?$char_traits@D@std@@V?$CustomAllocator@D@util@@@std@@@util@@@2@ABV?$basic_string@DU?$char_traits@D@std@@V?$CustomAllocator@D@util@@@2@@Z 0043d510 f i servercommon:GMCmdParser.obj
 0001:0003c5d0       ?push_back@?$vector@V?$basic_string@DU?$char_traits@D@std@@V?$CustomAllocator@D@util@@@std@@V?$CustomAllocator@V?$basic_string@DU?$char_traits@D@std@@V?$CustomAllocator@D@util@@@std@@@util@@@std@@QAEXABV?$basic_string@DU?$char_traits@D@std@@V?$CustomAllocator@D@util@@@2@@Z 0043d5d0 f i servercommon:GMCmdParser.obj
 0001:0003c680       ?SetInvokerPtr@FriendInvitationController@@IAEXPAVFriendInvitationInvoker@@@Z 0043d680 f   servercommon:FriendInvitationController.obj
 0001:0003c6a0       ?GetFriendEvent@FriendInvitationController@@IAEPAUEVENT_INFO@@XZ 0043d6a0 f   servercommon:FriendInvitationController.obj
 0001:0003c6b0       ?CheckFriendInvitationEvent@FriendInvitationController@@QAEHXZ 0043d6b0 f   servercommon:FriendInvitationController.obj
 0001:0003c6f0       ?GetEventMaxLevel@FriendInvitationController@@QAEGXZ 0043d6f0 f   servercommon:FriendInvitationController.obj
 0001:0003c730       ?GetEventMinLevel@FriendInvitationController@@QAEGXZ 0043d730 f   servercommon:FriendInvitationController.obj
 0001:0003c770       ?GetAddExpRatio@FriendInvitationController@@QAEMG@Z 0043d770 f   servercommon:FriendInvitationController.obj
 0001:0003c7c0       ??0FriendInvitationController@@QAE@XZ 0043d7c0 f   servercommon:FriendInvitationController.obj
 0001:0003c7f0       ??1FriendInvitationController@@QAE@XZ 0043d7f0 f   servercommon:FriendInvitationController.obj
 0001:0003c810       ?ProcessCommand@FriendInvitationController@@QAEXPAXPAUMSG_BASE@@G@Z 0043d810 f   servercommon:FriendInvitationController.obj
 0001:0003c860       ?RemoveConCreateCommads@FriendInvitationInvoker@@IAEXXZ 0043d860 f   servercommon:FriendInvitationInvoker.obj
 0001:0003c920       ?ProcessCommand@FriendInvitationInvoker@@QAEXPAXPAUMSG_BASE@@G@Z 0043d920 f   servercommon:FriendInvitationInvoker.obj
 0001:0003c9d0       ?InsertConCreateCommad@FriendInvitationInvoker@@IAEXKPAVFriendInvitationCommand@@@Z 0043d9d0 f   servercommon:FriendInvitationInvoker.obj
 0001:0003ca10       ??1FriendInvitationInvoker@@QAE@XZ 0043da10 f   servercommon:FriendInvitationInvoker.obj
 0001:0003ca70       ??0FriendInvitationInvoker@@QAE@XZ 0043da70 f   servercommon:FriendInvitationInvoker.obj
 0001:0003caa0       ?_Tidy@?$list@U?$pair@$$CBKPBUsWMOINFO_BASE@@@std@@V?$CustomAllocator@U?$pair@$$CBKPBUsWMOINFO_BASE@@@std@@@util@@@std@@IAEXXZ 0043daa0 f i programcommon_s:MapInfoParser.obj
 0001:0003caa0       ?_Tidy@?$list@U?$pair@$$CBKPAVChatZone@@@std@@V?$CustomAllocator@U?$pair@$$CBKPAVChatZone@@@std@@@util@@@std@@IAEXXZ 0043daa0 f i Channel.obj
 0001:0003caa0       ?_Tidy@?$list@U?$pair@$$CBKPAVBaseZone@@@std@@V?$CustomAllocator@U?$pair@$$CBKPAVBaseZone@@@std@@@util@@@std@@IAEXXZ 0043daa0 f i BaseZone.obj
 0001:0003caa0       ?_Tidy@?$list@PAUSCRIPT_DATA@@V?$CustomAllocator@PAUSCRIPT_DATA@@@util@@@std@@IAEXXZ 0043daa0 f i programcommon_s:ScriptParserManager.obj
 0001:0003caa0       ?_Tidy@?$list@U?$pair@$$CBKPAVVillageZone@@@std@@V?$CustomAllocator@U?$pair@$$CBKPAVVillageZone@@@std@@@util@@@std@@IAEXXZ 0043daa0 f i Channel.obj
 0001:0003caa0       ?_Tidy@?$list@U?$pair@$$CBW4eITEMTYPE@@USPECIAL_ITEM_INFO@@@std@@V?$CustomAllocator@U?$pair@$$CBW4eITEMTYPE@@USPECIAL_ITEM_INFO@@@std@@@util@@@std@@IAEXXZ 0043daa0 f i User.obj
 0001:0003caa0       ?_Tidy@?$list@U?$pair@$$CBKPBUsFIELDINFO_BASE@@@std@@V?$CustomAllocator@U?$pair@$$CBKPBUsFIELDINFO_BASE@@@std@@@util@@@std@@IAEXXZ 0043daa0 f i programcommon_s:MapInfoParser.obj
 0001:0003caa0       ?_Tidy@?$list@U?$pair@$$CBKPAVUser@@@std@@V?$CustomAllocator@U?$pair@$$CBKPAVUser@@@std@@@util@@@std@@IAEXXZ 0043daa0 f i GuidUserList.obj
 0001:0003caa0       ?_Tidy@?$list@U?$pair@$$CBKPBUsWUTINFO_BASE@@@std@@V?$CustomAllocator@U?$pair@$$CBKPBUsWUTINFO_BASE@@@std@@@util@@@std@@IAEXXZ 0043daa0 f i programcommon_s:MapInfoParser.obj
 0001:0003caa0       ?_Tidy@?$list@U?$pair@$$CBKPBUsMAPINFO_BASE@@@std@@V?$CustomAllocator@U?$pair@$$CBKPBUsMAPINFO_BASE@@@std@@@util@@@std@@IAEXXZ 0043daa0 f i programcommon_s:MapInfoParser.obj
 0001:0003caa0       ?_Tidy@?$list@U?$pair@$$CBKPAVViewPortZone@@@std@@V?$CustomAllocator@U?$pair@$$CBKPAVViewPortZone@@@std@@@util@@@std@@IAEXXZ 0043daa0 f i BaseZone.obj
 0001:0003caa0       ?_Tidy@?$list@KV?$CustomAllocator@K@util@@@std@@IAEXXZ 0043daa0 f i servercommon:WorkLoadManager.obj
 0001:0003caa0       ?_Tidy@?$list@U?$pair@$$CBKPBVMapGroupBase@@@std@@V?$CustomAllocator@U?$pair@$$CBKPBVMapGroupBase@@@std@@@util@@@std@@IAEXXZ 0043daa0 f i programcommon_s:MapInfoParser.obj
 0001:0003caf0       ?_Buynode@?$list@PAUSCRIPT_DATA@@V?$CustomAllocator@PAUSCRIPT_DATA@@@util@@@std@@IAEPAU_Node@?$_List_nod@PAUSCRIPT_DATA@@V?$CustomAllocator@PAUSCRIPT_DATA@@@util@@@2@XZ 0043daf0 f i programcommon_s:ScriptParserManager.obj
 0001:0003caf0       ?_Buynode@?$list@KV?$CustomAllocator@K@util@@@std@@IAEPAU_Node@?$_List_nod@KV?$CustomAllocator@K@util@@@2@XZ 0043daf0 f i servercommon:WorkLoadManager.obj
 0001:0003cb10       ?_Buynode@?$list@KV?$CustomAllocator@K@util@@@std@@IAEPAU_Node@?$_List_nod@KV?$CustomAllocator@K@util@@@2@PAU342@0ABK@Z 0043db10 f i servercommon:WorkLoadManager.obj
 0001:0003cb10       ?_Buynode@?$list@PAUSCRIPT_DATA@@V?$CustomAllocator@PAUSCRIPT_DATA@@@util@@@std@@IAEPAU_Node@?$_List_nod@PAUSCRIPT_DATA@@V?$CustomAllocator@PAUSCRIPT_DATA@@@util@@@2@PAU342@0ABQAUSCRIPT_DATA@@@Z 0043db10 f i programcommon_s:ScriptParserManager.obj
 0001:0003cb50       ??0?$list@KV?$CustomAllocator@K@util@@@std@@QAE@ABV?$CustomAllocator@K@util@@@Z 0043db50 f i servercommon:WorkLoadManager.obj
 0001:0003cb50       ??0?$list@PAUSCRIPT_DATA@@V?$CustomAllocator@PAUSCRIPT_DATA@@@util@@@std@@QAE@ABV?$CustomAllocator@PAUSCRIPT_DATA@@@util@@@Z 0043db50 f i programcommon_s:ScriptParserManager.obj
 0001:0003cbc0       ??1ScriptParserManager@@UAE@XZ 0043dbc0 f   programcommon_s:ScriptParserManager.obj
 0001:0003cbe0       ?Load@ScriptParserManager@@QAEHXZ 0043dbe0 f   programcommon_s:ScriptParserManager.obj
 0001:0003cd00       ?Release@ScriptParserManager@@QAEXXZ 0043dd00 f   programcommon_s:ScriptParserManager.obj
 0001:0003cdd0       ?FindScript@ScriptParserManager@@QAEPAUSCRIPT_DATA@@W4eSCRIPT_CODE@@@Z 0043ddd0 f   programcommon_s:ScriptParserManager.obj
 0001:0003ce50       ?FindScript@ScriptParserManager@@QAEPAUSCRIPT_DATA@@PBD@Z 0043de50 f   programcommon_s:ScriptParserManager.obj
 0001:0003cf00       ?GetScriptDataNodeList@ScriptParserManager@@IAEHPAUsSCRIPT_DATA_INFO_NODE@@G@Z 0043df00 f   programcommon_s:ScriptParserManager.obj
 0001:0003cfe0       ??0ScriptParserManager@@QAE@XZ 0043dfe0 f   programcommon_s:ScriptParserManager.obj
 0001:0003d000       ?GetVersion@ScriptParserManager@@QAEPBDW4eSCRIPT_CODE@@@Z 0043e000 f   programcommon_s:ScriptParserManager.obj
 0001:0003d020       ?GetFileName@ScriptParserManager@@QAEPBDW4eSCRIPT_CODE@@@Z 0043e020 f   programcommon_s:ScriptParserManager.obj
 0001:0003d040       ?RegisterScriptData@ScriptParserManager@@IAEHW4eSCRIPT_CODE@@PBDQAVIParser@@W4eSEPERATOR_MODE@@1HQ6AXXZ@Z 0043e040 f   programcommon_s:ScriptParserManager.obj
 0001:0003d190       ??_GScriptParserManager@@UAEPAXI@Z 0043e190 f i programcommon_s:ScriptParserManager.obj
 0001:0003d190       ??_EScriptParserManager@@UAEPAXI@Z 0043e190 f i programcommon_s:ScriptParserManager.obj
 0001:0003d1d0       ?_Incsize@?$list@PAUSCRIPT_DATA@@V?$CustomAllocator@PAUSCRIPT_DATA@@@util@@@std@@IAEXI@Z 0043e1d0 f i programcommon_s:ScriptParserManager.obj
 0001:0003d1d0       ?_Incsize@?$list@KV?$CustomAllocator@K@util@@@std@@IAEXI@Z 0043e1d0 f i servercommon:WorkLoadManager.obj
 0001:0003d270       ?Init@ProhibitionWordParser@@QAEXPAD@Z 0043e270 f   programcommon_s:ProhibitionWordParser.obj
 0001:0003d280       ?InitPattern@ProhibitionWordParser@@QAEXXZ 0043e280 f   programcommon_s:ProhibitionWordParser.obj
 0001:0003d2d0       ?CalFailFuction@ProhibitionWordParser@@QAEXXZ 0043e2d0 f   programcommon_s:ProhibitionWordParser.obj
 0001:0003d340       ?Create@ProhibitionWordParser@@UAEJXZ 0043e340 f   programcommon_s:ProhibitionWordParser.obj
 0001:0003d350       ?Destroy@ProhibitionWordParser@@UAEJXZ 0043e350 f   programcommon_s:ProhibitionWordParser.obj
 0001:0003d360       ?Save@ProhibitionWordParser@@UAEJPBD@Z 0043e360 f   programcommon_s:ProhibitionWordParser.obj
 0001:0003d370       ?Load@ProhibitionWordParser@@UAEJPBD_N@Z 0043e370 f   programcommon_s:ProhibitionWordParser.obj
 0001:0003d380       ?LoadFromPack@ProhibitionWordParser@@UAEJPBD_N@Z 0043e380 f   programcommon_s:ProhibitionWordParser.obj
 0001:0003d390       ?GetReplaceTarget@ProhibitionWordParser@@MAEPADPAHPAD@Z 0043e390 f   programcommon_s:ProhibitionWordParser.obj
 0001:0003d3a0       ?CheckIncludeSymbol@ProhibitionWordParser@@QAEXPAD@Z 0043e3a0 f   programcommon_s:ProhibitionWordParser.obj
 0001:0003d4c0       ?CheckFilter@ProhibitionWordParser@@ABE_NPBDI@Z 0043e4c0 f   programcommon_s:ProhibitionWordParser.obj
 0001:0003d600       ?CheckFilterName@ProhibitionWordParser@@ABE_NPBDI@Z 0043e600 f   programcommon_s:ProhibitionWordParser.obj
 0001:0003d740       ?CheckFilter@ProhibitionWordParser@@QAEHAAVcSTRING_REF@util@@@Z 0043e740 f   programcommon_s:ProhibitionWordParser.obj
 0001:0003d850       ?CheckFilterName@ProhibitionWordParser@@QAEHAAVcSTRING_REF@util@@@Z 0043e850 f   programcommon_s:ProhibitionWordParser.obj
 0001:0003d960       ?CheckIncludeBanWord@ProhibitionWordParser@@QAEHPAD@Z 0043e960 f   programcommon_s:ProhibitionWordParser.obj
 0001:0003da10       ?VerifyCharName@ProhibitionWordParser@@QAEHAAVcSTRING_REF@util@@@Z 0043ea10 f   programcommon_s:ProhibitionWordParser.obj
 0001:0003da50       ??1ProhibitionWordParser@@UAE@XZ 0043ea50 f   programcommon_s:ProhibitionWordParser.obj
 0001:0003daf0       ??0ProhibitionWordParser@@QAE@XZ 0043eaf0 f   programcommon_s:ProhibitionWordParser.obj
 0001:0003dbd0       ?_LoadFilter@ProhibitionWordParser@@AAEHH@Z 0043ebd0 f   programcommon_s:ProhibitionWordParser.obj
 0001:0003dcb0       ?_LoadFilterName@ProhibitionWordParser@@AAEHH@Z 0043ecb0 f   programcommon_s:ProhibitionWordParser.obj
 0001:0003dd90       ?LoadScript@ProhibitionWordParser@@UAEHW4eSCRIPT_CODE@@H@Z 0043ed90 f   programcommon_s:ProhibitionWordParser.obj
 0001:0003dde0       ??_EProhibitionWordParser@@WDDM@AEPAXI@Z 0043ede0 f i programcommon_s:ProhibitionWordParser.obj
 0001:0003ddf0       ??_EProhibitionWordParser@@UAEPAXI@Z 0043edf0 f i programcommon_s:ProhibitionWordParser.obj
 0001:0003ddf0       ??_GProhibitionWordParser@@UAEPAXI@Z 0043edf0 f i programcommon_s:ProhibitionWordParser.obj
 0001:0003de10       ?Release@GameOptionParser@@UAEXXZ 0043ee10 f   programcommon_s:GameOptionParser.obj
 0001:0003de20       ?CheckMaxLevel@GameOptionParser@@QAEHG@Z 0043ee20 f   programcommon_s:GameOptionParser.obj
 0001:0003de40       ?ShoutLevelCheck@GameOptionParser@@QAEHABUGAME_OPTION@@G@Z 0043ee40 f   programcommon_s:GameOptionParser.obj
 0001:0003de70       ?_Load@GameOptionParser@@QAEHH@Z 0043ee70 f   programcommon_s:GameOptionParser.obj
 0001:0003def0       ??0GameOptionParser@@QAE@XZ 0043eef0 f   programcommon_s:GameOptionParser.obj
 0001:0003df20       ??1GameOptionParser@@UAE@XZ 0043ef20 f   programcommon_s:GameOptionParser.obj
 0001:0003df30       ?LoadScript@GameOptionParser@@UAEHW4eSCRIPT_CODE@@H@Z 0043ef30 f   programcommon_s:GameOptionParser.obj
 0001:0003df50       ??_GGameOptionParser@@UAEPAXI@Z 0043ef50 f i programcommon_s:GameOptionParser.obj
 0001:0003df50       ??_EGameOptionParser@@UAEPAXI@Z 0043ef50 f i programcommon_s:GameOptionParser.obj
 0001:0003df80       ?CheckValidMapKind@sMAPINFO_BASE@@QBE_NXZ 0043ef80 f   programcommon_s:Struct.obj
 0001:0003e020       ?init@AttendanceInfo@@QAEXKEW4eATTENDANCE_TYPE@@W4eATTENDANCE_INFO@@@Z 0043f020 f   programcommon_s:Struct.obj
 0001:0003e0b0       ?GetAttendance@AttendanceInfo@@QAEPAW4eATTENDANCE_INFO@@H@Z 0043f0b0 f   programcommon_s:Struct.obj
 0001:0003e0d0       ?SetAttendance@AttendanceInfo@@QAE_NHW4eATTENDANCE_INFO@@@Z 0043f0d0 f   programcommon_s:Struct.obj
 0001:0003e0f0       ?IsEqualAttendanceInfo@AttendanceInfo@@QAE_NHW4eATTENDANCE_INFO@@@Z 0043f0f0 f   programcommon_s:Struct.obj
 0001:0003e120       ?Clear@NotificationInfo@@QAEXXZ 0043f120 f   programcommon_s:Struct.obj
 0001:0003e150       ??0AttendanceInfo@@QAE@XZ  0043f150 f   programcommon_s:Struct.obj
 0001:0003e160       ?GetAttendanceInfoCount@AttendanceInfo@@QAEHW4eATTENDANCE_INFO@@@Z 0043f160 f   programcommon_s:Struct.obj
 0001:0003e180       ?SetInfo@NotificationInfo@@QAEXPBDGKW4NotificationType@@GH@Z 0043f180 f   programcommon_s:Struct.obj
 0001:0003e1c0       ?Initialize@MapInfoParserWorkingContainer@MapInfoParser@@QAEXXZ 0043f1c0 f   programcommon_s:MapInfoParser.obj
 0001:0003e1d0       ?Release@MapInfoParserWorkingContainer@MapInfoParser@@QAEXXZ 0043f1d0 f   programcommon_s:MapInfoParser.obj
 0001:0003e220       ?DestroyInstance@MapInfoParser@@SAXXZ 0043f220 f   programcommon_s:MapInfoParser.obj
 0001:0003e240       ?Init@MapInfoParser@@UAEXK@Z 0043f240 f   programcommon_s:MapInfoParser.obj
 0001:0003e250       ?_LoadWorldSubInfo@MapInfoParser@@AAE_NXZ 0043f250 f   programcommon_s:MapInfoParser.obj
 0001:0003e3a0       ?ApplyRuleset@MapInfoParser@@AAE_NQAUsMAPINFO_BASE@@@Z 0043f3a0 f   programcommon_s:MapInfoParser.obj
 0001:0003e440       ?GetCurrentMapPortalIndex@MapInfoParser@@QBEGPBDK@Z 0043f440 f   programcommon_s:MapInfoParser.obj
 0001:0003e4f0       ?GetCurrentMapPortalIndexVer2@MapInfoParser@@QBEGKK@Z 0043f4f0 f   programcommon_s:MapInfoParser.obj
 0001:0003e540       ?GetWayPointIndex@MapInfoParser@@QBEGKK@Z 0043f540 f   programcommon_s:MapInfoParser.obj
 0001:0003e5a0       ?BuildConstStaticZoneTable@MapInfoParser@@AAEXXZ 0043f5a0 f   programcommon_s:MapInfoParser.obj
 0001:0003e620       ?FindMapPortalInfo@MapInfoParser@@QBEHPAGIHE@Z 0043f620 f   programcommon_s:MapInfoParser.obj
 0001:0003e6b0       ?GetMapPortal@MapInfoParser@@QBEPBUsMAP_ENTERENCE_PORTAL_BASE@@K@Z 0043f6b0 f   programcommon_s:MapInfoParser.obj
 0001:0003e720       ?GetMapInfoIndex@MapGroupBase@@QBEPBUsMAPINFO_BASE@@G@Z 0043f720 f   programcommon_s:MapInfoParser.obj
 0001:0003e790       ?GetMapInfoCode@MapGroupBase@@QBEPBUsMAPINFO_BASE@@G@Z 0043f790 f   programcommon_s:MapInfoParser.obj
 0001:0003e800       ?GetFieldInfo@MapInfoParser@@QBEPBUsFIELDINFO_BASE@@K@Z 0043f800 f   programcommon_s:MapInfoParser.obj
 0001:0003e870       ?GetMapGroup@MapInfoParser@@QBEPBVMapGroupBase@@K@Z 0043f870 f   programcommon_s:MapInfoParser.obj
 0001:0003e8e0       ?FindWMOInfo@MapInfoParser@@QBEPBUsWMOINFO_BASE@@G@Z 0043f8e0 f   programcommon_s:MapInfoParser.obj
 0001:0003e960       ?FindWUTInfo@MapInfoParser@@QBEPBUsWUTINFO_BASE@@G@Z 0043f960 f   programcommon_s:MapInfoParser.obj
 0001:0003e9e0       ?FindMapInfo@MapInfoParser@@QBEPBUsMAPINFO_BASE@@G@Z 0043f9e0 f   programcommon_s:MapInfoParser.obj
 0001:0003ea60       ?GetRandomFieldCodeInZone@MapInfoParser@@QBEGG@Z 0043fa60 f   programcommon_s:MapInfoParser.obj
 0001:0003eaa0       ?AddMapPortal@MapInfoParser@@AAEXPBUsMAP_ENTERENCE_PORTAL_BASE@@G@Z 0043faa0 f   programcommon_s:MapInfoParser.obj
 0001:0003eaf0       ?_LoadMapEnterencePortal@MapInfoParser@@AAE_NXZ 0043faf0 f   programcommon_s:MapInfoParser.obj
 0001:0003eea0       ??1MapGroupBase@@AAE@XZ    0043fea0 f   programcommon_s:MapInfoParser.obj
 0001:0003ef70       ?AddMapGroup@MapInfoParser@@AAEXPBVMapGroupBase@@G@Z 0043ff70 f   programcommon_s:MapInfoParser.obj
 0001:0003efd0       ?AddMapInfo@MapInfoParser@@AAEXPBUsMAPINFO_BASE@@G@Z 0043ffd0 f   programcommon_s:MapInfoParser.obj
 0001:0003f030       ?AddMapInfoIndex@MapGroupBase@@AAEXPBUsMAPINFO_BASE@@G@Z 00440030 f   programcommon_s:MapInfoParser.obj
 0001:0003f050       ?AddMapInfoCode@MapGroupBase@@AAEXPBUsMAPINFO_BASE@@G@Z 00440050 f   programcommon_s:MapInfoParser.obj
 0001:0003f070       ??0MapInfoParser@@AAE@XZ   00440070 f   programcommon_s:MapInfoParser.obj
 0001:0003f1b0       ?Unload@MapInfoParser@@QAEXXZ 004401b0 f   programcommon_s:MapInfoParser.obj
 0001:0003f370       ?_LoadFieldWMO@MapInfoParser@@AAE_NXZ 00440370 f   programcommon_s:MapInfoParser.obj
 0001:0003f510       ?_LoadFieldWUT@MapInfoParser@@AAE_NXZ 00440510 f   programcommon_s:MapInfoParser.obj
 0001:0003f6b0       ?_LoadField@MapInfoParser@@AAE_NXZ 004406b0 f   programcommon_s:MapInfoParser.obj
 0001:0003f880       ?_LoadWorld@MapInfoParser@@AAE_NXZ 00440880 f   programcommon_s:MapInfoParser.obj
 0001:00040210       ?CreateInstance@MapInfoParser@@CAPAV1@XZ 00441210 f   programcommon_s:MapInfoParser.obj
 0001:000402c0       ?Release@MapInfoParser@@UAEXXZ 004412c0 f   programcommon_s:MapInfoParser.obj
 0001:000402d0       ?LoadScript@MapInfoParser@@UAEHW4eSCRIPT_CODE@@H@Z 004412d0 f   programcommon_s:MapInfoParser.obj
 0001:000403b0       ??1MapInfoParser@@EAE@XZ   004413b0 f   programcommon_s:MapInfoParser.obj
 0001:000405a0       ?_Erase@?$_Tree@V?$_Tmap_traits@KPBUsMAP_ENTERENCE_PORTAL_BASE@@U?$less@K@std@@V?$CustomAllocator@PBUsMAP_ENTERENCE_PORTAL_BASE@@@util@@$0A@@std@@@std@@IAEXPAU_Node@?$_Tree_nod@V?$_Tmap_traits@KPBUsMAP_ENTERENCE_PORTAL_BASE@@U?$less@K@std@@V?$CustomAllocator@PBUsMAP_ENTERENCE_PORTAL_BASE@@@util@@$0A@@std@@@2@@Z 004415a0 f i programcommon_s:MapInfoParser.obj
 0001:000405a0       ?_Erase@?$_Tree@V?$_Tmap_traits@KPAVFieldInfo@@U?$less@K@std@@V?$CustomAllocator@PAVFieldInfo@@@util@@$0A@@std@@@std@@IAEXPAU_Node@?$_Tree_nod@V?$_Tmap_traits@KPAVFieldInfo@@U?$less@K@std@@V?$CustomAllocator@PAVFieldInfo@@@util@@$0A@@std@@@2@@Z 004415a0 f i ChannelManager.obj
 0001:000405a0       ?_Erase@?$_Tree@V?$_Tmap_traits@KPAUSTRUCT_GROUP_MEMBER_INFO@@U?$less@K@std@@V?$CustomAllocator@PAUSTRUCT_GROUP_MEMBER_INFO@@@util@@$0A@@std@@@std@@IAEXPAU_Node@?$_Tree_nod@V?$_Tmap_traits@KPAUSTRUCT_GROUP_MEMBER_INFO@@U?$less@K@std@@V?$CustomAllocator@PAUSTRUCT_GROUP_MEMBER_INFO@@@util@@$0A@@std@@@2@@Z 004415a0 f i User.obj
 0001:000405a0       ?_Erase@?$_Tree@V?$_Tmap_traits@KPAVServerSession@@U?$less@K@std@@V?$CustomAllocator@PAVServerSession@@@util@@$0A@@std@@@std@@IAEXPAU_Node@?$_Tree_nod@V?$_Tmap_traits@KPAVServerSession@@U?$less@K@std@@V?$CustomAllocator@PAVServerSession@@@util@@$0A@@std@@@2@@Z 004415a0 f i WorldServer.obj
 0001:000405a0       ?_Erase@?$_Tree@V?$_Tmap_traits@KPAVFriendInvitationCommand@@U?$less@K@std@@V?$CustomAllocator@PAVFriendInvitationCommand@@@util@@$0A@@std@@@std@@IAEXPAU_Node@?$_Tree_nod@V?$_Tmap_traits@KPAVFriendInvitationCommand@@U?$less@K@std@@V?$CustomAllocator@PAVFriendInvitationCommand@@@util@@$0A@@std@@@2@@Z 004415a0 f i servercommon:FriendInvitationInvoker.obj
 0001:000405a0       ?_Erase@?$_Tree@V?$_Tmap_traits@KPAUSTRUCT_REVENGE_INFO@@U?$less@K@std@@V?$CustomAllocator@PAUSTRUCT_REVENGE_INFO@@@util@@$0A@@std@@@std@@IAEXPAU_Node@?$_Tree_nod@V?$_Tmap_traits@KPAUSTRUCT_REVENGE_INFO@@U?$less@K@std@@V?$CustomAllocator@PAUSTRUCT_REVENGE_INFO@@@util@@$0A@@std@@@2@@Z 004415a0 f i User.obj
 0001:000405a0       ?_Erase@?$_Tree@V?$_Tmap_traits@KPAVUser@@U?$less@K@std@@V?$CustomAllocator@PAVUser@@@util@@$0A@@std@@@std@@IAEXPAU_Node@?$_Tree_nod@V?$_Tmap_traits@KPAVUser@@U?$less@K@std@@V?$CustomAllocator@PAVUser@@@util@@$0A@@std@@@2@@Z 004415a0 f i User.obj
 0001:000405a0       ?_Erase@?$_Tree@V?$_Tmap_traits@KPAUSTRUCT_FRIEND_INFO@@U?$less@K@std@@V?$CustomAllocator@PAUSTRUCT_FRIEND_INFO@@@util@@$0A@@std@@@std@@IAEXPAU_Node@?$_Tree_nod@V?$_Tmap_traits@KPAUSTRUCT_FRIEND_INFO@@U?$less@K@std@@V?$CustomAllocator@PAUSTRUCT_FRIEND_INFO@@@util@@$0A@@std@@@2@@Z 004415a0 f i FriendMap.obj
 0001:000405a0       ?_Erase@?$_Tree@V?$_Tmap_traits@KPAVChannel@@U?$less@K@std@@V?$CustomAllocator@PAVChannel@@@util@@$0A@@std@@@std@@IAEXPAU_Node@?$_Tree_nod@V?$_Tmap_traits@KPAVChannel@@U?$less@K@std@@V?$CustomAllocator@PAVChannel@@@util@@$0A@@std@@@2@@Z 004415a0 f i ChannelManager.obj
 0001:000405a0       ?_Erase@?$_Tree@V?$_Tmap_traits@KPAUSTRUCT_BLOCK_INFO@@U?$less@K@std@@V?$CustomAllocator@PAUSTRUCT_BLOCK_INFO@@@util@@$0A@@std@@@std@@IAEXPAU_Node@?$_Tree_nod@V?$_Tmap_traits@KPAUSTRUCT_BLOCK_INFO@@U?$less@K@std@@V?$CustomAllocator@PAUSTRUCT_BLOCK_INFO@@@util@@$0A@@std@@@2@@Z 004415a0 f i User.obj
 0001:000405e0       ?_Buynode@?$list@U?$pair@$$CBKPBUsMAPINFO_BASE@@@std@@V?$CustomAllocator@U?$pair@$$CBKPBUsMAPINFO_BASE@@@std@@@util@@@std@@IAEPAU_Node@?$_List_nod@U?$pair@$$CBKPBUsMAPINFO_BASE@@@std@@V?$CustomAllocator@U?$pair@$$CBKPBUsMAPINFO_BASE@@@std@@@util@@@2@XZ 004415e0 f i programcommon_s:MapInfoParser.obj
 0001:000405e0       ?_Buynode@?$list@U?$pair@$$CBKPAVChatZone@@@std@@V?$CustomAllocator@U?$pair@$$CBKPAVChatZone@@@std@@@util@@@std@@IAEPAU_Node@?$_List_nod@U?$pair@$$CBKPAVChatZone@@@std@@V?$CustomAllocator@U?$pair@$$CBKPAVChatZone@@@std@@@util@@@2@XZ 004415e0 f i Channel.obj
 0001:000405e0       ?_Buynode@?$list@U?$pair@$$CBKPBUsFIELDINFO_BASE@@@std@@V?$CustomAllocator@U?$pair@$$CBKPBUsFIELDINFO_BASE@@@std@@@util@@@std@@IAEPAU_Node@?$_List_nod@U?$pair@$$CBKPBUsFIELDINFO_BASE@@@std@@V?$CustomAllocator@U?$pair@$$CBKPBUsFIELDINFO_BASE@@@std@@@util@@@2@XZ 004415e0 f i programcommon_s:MapInfoParser.obj
 0001:000405e0       ?_Buynode@?$list@U?$pair@$$CBKPBUsWMOINFO_BASE@@@std@@V?$CustomAllocator@U?$pair@$$CBKPBUsWMOINFO_BASE@@@std@@@util@@@std@@IAEPAU_Node@?$_List_nod@U?$pair@$$CBKPBUsWMOINFO_BASE@@@std@@V?$CustomAllocator@U?$pair@$$CBKPBUsWMOINFO_BASE@@@std@@@util@@@2@XZ 004415e0 f i programcommon_s:MapInfoParser.obj
 0001:000405e0       ?_Buynode@?$list@U?$pair@$$CBKPAVBaseZone@@@std@@V?$CustomAllocator@U?$pair@$$CBKPAVBaseZone@@@std@@@util@@@std@@IAEPAU_Node@?$_List_nod@U?$pair@$$CBKPAVBaseZone@@@std@@V?$CustomAllocator@U?$pair@$$CBKPAVBaseZone@@@std@@@util@@@2@XZ 004415e0 f i BaseZone.obj
 0001:000405e0       ?_Buynode@?$list@U?$pair@$$CBKPAVUser@@@std@@V?$CustomAllocator@U?$pair@$$CBKPAVUser@@@std@@@util@@@std@@IAEPAU_Node@?$_List_nod@U?$pair@$$CBKPAVUser@@@std@@V?$CustomAllocator@U?$pair@$$CBKPAVUser@@@std@@@util@@@2@XZ 004415e0 f i GuidUserList.obj
 0001:000405e0       ?_Buynode@?$list@U?$pair@$$CBKPAVViewPortZone@@@std@@V?$CustomAllocator@U?$pair@$$CBKPAVViewPortZone@@@std@@@util@@@std@@IAEPAU_Node@?$_List_nod@U?$pair@$$CBKPAVViewPortZone@@@std@@V?$CustomAllocator@U?$pair@$$CBKPAVViewPortZone@@@std@@@util@@@2@XZ 004415e0 f i BaseZone.obj
 0001:000405e0       ?_Buynode@?$list@U?$pair@$$CBKPBVMapGroupBase@@@std@@V?$CustomAllocator@U?$pair@$$CBKPBVMapGroupBase@@@std@@@util@@@std@@IAEPAU_Node@?$_List_nod@U?$pair@$$CBKPBVMapGroupBase@@@std@@V?$CustomAllocator@U?$pair@$$CBKPBVMapGroupBase@@@std@@@util@@@2@XZ 004415e0 f i programcommon_s:MapInfoParser.obj
 0001:000405e0       ?_Buynode@?$list@U?$pair@$$CBKPAVVillageZone@@@std@@V?$CustomAllocator@U?$pair@$$CBKPAVVillageZone@@@std@@@util@@@std@@IAEPAU_Node@?$_List_nod@U?$pair@$$CBKPAVVillageZone@@@std@@V?$CustomAllocator@U?$pair@$$CBKPAVVillageZone@@@std@@@util@@@2@XZ 004415e0 f i Channel.obj
 0001:000405e0       ?_Buynode@?$list@U?$pair@$$CBKPBUsWUTINFO_BASE@@@std@@V?$CustomAllocator@U?$pair@$$CBKPBUsWUTINFO_BASE@@@std@@@util@@@std@@IAEPAU_Node@?$_List_nod@U?$pair@$$CBKPBUsWUTINFO_BASE@@@std@@V?$CustomAllocator@U?$pair@$$CBKPBUsWUTINFO_BASE@@@std@@@util@@@2@XZ 004415e0 f i programcommon_s:MapInfoParser.obj
 0001:00040600       ??C?$_Const_iterator@$00@?$list@U?$pair@$$CBKPBVMapGroupBase@@@std@@V?$CustomAllocator@U?$pair@$$CBKPBVMapGroupBase@@@std@@@util@@@std@@QBEPBU?$pair@$$CBKPBVMapGroupBase@@@2@XZ 00441600 f i programcommon_s:MapInfoParser.obj
 0001:00040600       ??C?$_Const_iterator@$00@?$list@U?$pair@$$CBKPBUsFIELDINFO_BASE@@@std@@V?$CustomAllocator@U?$pair@$$CBKPBUsFIELDINFO_BASE@@@std@@@util@@@std@@QBEPBU?$pair@$$CBKPBUsFIELDINFO_BASE@@@2@XZ 00441600 f i programcommon_s:MapInfoParser.obj
 0001:00040600       ??D?$_Iterator@$00@?$list@U?$pair@$$CBKPBUsMAPINFO_BASE@@@std@@V?$CustomAllocator@U?$pair@$$CBKPBUsMAPINFO_BASE@@@std@@@util@@@std@@QBEAAU?$pair@$$CBKPBUsMAPINFO_BASE@@@2@XZ 00441600 f i Channel.obj
 0001:00040600       ??C?$_Iterator@$00@?$list@U?$pair@$$CBKPAVViewPortZone@@@std@@V?$CustomAllocator@U?$pair@$$CBKPAVViewPortZone@@@std@@@util@@@std@@QBEPAU?$pair@$$CBKPAVViewPortZone@@@2@XZ 00441600 f i BaseZone.obj
 0001:00040630       ??$_Unchecked_move_backward@PAU_List_position@?$_Hash@V?$_Hmap_traits@KPAVVillageZone@@V?$hash_compare@KU?$less@K@std@@@stdext@@V?$CustomAllocator@PAVVillageZone@@@util@@$0A@@stdext@@@stdext@@PAU123@@stdext@@YAPAU_List_position@?$_Hash@V?$_Hmap_traits@KPAVVillageZone@@V?$hash_compare@KU?$less@K@std@@@stdext@@V?$CustomAllocator@PAVVillageZone@@@util@@$0A@@stdext@@@0@PAU120@00@Z 00441630 f i Channel.obj
 0001:00040630       ??$_Unchecked_move_backward@PAU_List_position@?$_Hash@V?$_Hmap_traits@KPBVMapGroupBase@@V?$hash_compare@KU?$less@K@std@@@stdext@@V?$CustomAllocator@PBVMapGroupBase@@@util@@$0A@@stdext@@@stdext@@PAU123@@stdext@@YAPAU_List_position@?$_Hash@V?$_Hmap_traits@KPBVMapGroupBase@@V?$hash_compare@KU?$less@K@std@@@stdext@@V?$CustomAllocator@PBVMapGroupBase@@@util@@$0A@@stdext@@@0@PAU120@00@Z 00441630 f i programcommon_s:MapInfoParser.obj
 0001:00040630       ??$_Unchecked_move_backward@PAU_List_position@?$_Hash@V?$_Hmap_traits@HULottoEntry@@V?$hash_compare@HU?$less@H@std@@@stdext@@V?$allocator@U?$pair@$$CBHULottoEntry@@@std@@@std@@$0A@@stdext@@@stdext@@PAU123@@stdext@@YAPAU_List_position@?$_Hash@V?$_Hmap_traits@HULottoEntry@@V?$hash_compare@HU?$less@H@std@@@stdext@@V?$allocator@U?$pair@$$CBHULottoEntry@@@std@@@std@@$0A@@stdext@@@0@PAU120@00@Z 00441630 f i Lotto.obj
 0001:00040630       ??$_Unchecked_move_backward@PAU_List_position@?$_Hash@V?$_Hmap_traits@KPBUsWUTINFO_BASE@@V?$hash_compare@KU?$less@K@std@@@stdext@@V?$CustomAllocator@PBUsWUTINFO_BASE@@@util@@$0A@@stdext@@@stdext@@PAU123@@stdext@@YAPAU_List_position@?$_Hash@V?$_Hmap_traits@KPBUsWUTINFO_BASE@@V?$hash_compare@KU?$less@K@std@@@stdext@@V?$CustomAllocator@PBUsWUTINFO_BASE@@@util@@$0A@@stdext@@@0@PAU120@00@Z 00441630 f i programcommon_s:MapInfoParser.obj
 0001:00040630       ??$_Unchecked_move_backward@PAU_List_position@?$_Hash@V?$_Hmap_traits@KPAVBASE_FUNC@util@@V?$hash_compare@KU?$less@K@std@@@stdext@@V?$allocator@U?$pair@$$CBKPAVBASE_FUNC@util@@@std@@@std@@$0A@@stdext@@@stdext@@PAU123@@stdext@@YAPAU_List_position@?$_Hash@V?$_Hmap_traits@KPAVBASE_FUNC@util@@V?$hash_compare@KU?$less@K@std@@@stdext@@V?$allocator@U?$pair@$$CBKPAVBASE_FUNC@util@@@std@@@std@@$0A@@stdext@@@0@PAU120@00@Z 00441630 f i PacketHandler.obj
 0001:00040630       ??$_Unchecked_move_backward@PAU_List_position@?$_Hash@V?$_Hmap_traits@KPBUsFIELDINFO_BASE@@V?$hash_compare@KU?$less@K@std@@@stdext@@V?$CustomAllocator@PBUsFIELDINFO_BASE@@@util@@$0A@@stdext@@@stdext@@PAU123@@stdext@@YAPAU_List_position@?$_Hash@V?$_Hmap_traits@KPBUsFIELDINFO_BASE@@V?$hash_compare@KU?$less@K@std@@@stdext@@V?$CustomAllocator@PBUsFIELDINFO_BASE@@@util@@$0A@@stdext@@@0@PAU120@00@Z 00441630 f i programcommon_s:MapInfoParser.obj
 0001:00040630       ??$_Unchecked_move_backward@PAU_List_position@?$_Hash@V?$_Hmap_traits@KPBUsWMOINFO_BASE@@V?$hash_compare@KU?$less@K@std@@@stdext@@V?$CustomAllocator@PBUsWMOINFO_BASE@@@util@@$0A@@stdext@@@stdext@@PAU123@@stdext@@YAPAU_List_position@?$_Hash@V?$_Hmap_traits@KPBUsWMOINFO_BASE@@V?$hash_compare@KU?$less@K@std@@@stdext@@V?$CustomAllocator@PBUsWMOINFO_BASE@@@util@@$0A@@stdext@@@0@PAU120@00@Z 00441630 f i programcommon_s:MapInfoParser.obj
 0001:00040630       ??$_Unchecked_move_backward@PAU_List_position@?$_Hash@V?$_Hmap_traits@KPAVViewPortZone@@V?$hash_compare@KU?$less@K@std@@@stdext@@V?$CustomAllocator@PAVViewPortZone@@@util@@$0A@@stdext@@@stdext@@PAU123@@stdext@@YAPAU_List_position@?$_Hash@V?$_Hmap_traits@KPAVViewPortZone@@V?$hash_compare@KU?$less@K@std@@@stdext@@V?$CustomAllocator@PAVViewPortZone@@@util@@$0A@@stdext@@@0@PAU120@00@Z 00441630 f i BaseZone.obj
 0001:00040630       ??$_Unchecked_move_backward@PAU_List_position@?$_Hash@V?$_Hmap_traits@KPAVChatZone@@V?$hash_compare@KU?$less@K@std@@@stdext@@V?$CustomAllocator@PAVChatZone@@@util@@$0A@@stdext@@@stdext@@PAU123@@stdext@@YAPAU_List_position@?$_Hash@V?$_Hmap_traits@KPAVChatZone@@V?$hash_compare@KU?$less@K@std@@@stdext@@V?$CustomAllocator@PAVChatZone@@@util@@$0A@@stdext@@@0@PAU120@00@Z 00441630 f i Channel.obj
 0001:00040630       ??$_Unchecked_move_backward@PAU_List_position@?$_Hash@V?$_Hmap_traits@KPAVUser@@V?$hash_compare@KU?$less@K@std@@@stdext@@V?$CustomAllocator@PAVUser@@@util@@$0A@@stdext@@@stdext@@PAU123@@stdext@@YAPAU_List_position@?$_Hash@V?$_Hmap_traits@KPAVUser@@V?$hash_compare@KU?$less@K@std@@@stdext@@V?$CustomAllocator@PAVUser@@@util@@$0A@@stdext@@@0@PAU120@00@Z 00441630 f i GuidUserList.obj
 0001:00040630       ??$_Unchecked_move_backward@PAU_List_position@?$_Hash@V?$_Hmap_traits@KPAVBaseZone@@V?$hash_compare@KU?$less@K@std@@@stdext@@V?$CustomAllocator@PAVBaseZone@@@util@@$0A@@stdext@@@stdext@@PAU123@@stdext@@YAPAU_List_position@?$_Hash@V?$_Hmap_traits@KPAVBaseZone@@V?$hash_compare@KU?$less@K@std@@@stdext@@V?$CustomAllocator@PAVBaseZone@@@util@@$0A@@stdext@@@0@PAU120@00@Z 00441630 f i BaseZone.obj
 0001:00040630       ??$_Unchecked_move_backward@PAU_List_position@?$_Hash@V?$_Hmap_traits@W4eITEMTYPE@@USPECIAL_ITEM_INFO@@V?$hash_compare@W4eITEMTYPE@@U?$less@W4eITEMTYPE@@@std@@@stdext@@V?$CustomAllocator@USPECIAL_ITEM_INFO@@@util@@$0A@@stdext@@@stdext@@PAU123@@stdext@@YAPAU_List_position@?$_Hash@V?$_Hmap_traits@W4eITEMTYPE@@USPECIAL_ITEM_INFO@@V?$hash_compare@W4eITEMTYPE@@U?$less@W4eITEMTYPE@@@std@@@stdext@@V?$CustomAllocator@USPECIAL_ITEM_INFO@@@util@@$0A@@stdext@@@0@PAU120@00@Z 00441630 f i User.obj
 0001:00040630       ??$_Unchecked_move_backward@PAU_List_position@?$_Hash@V?$_Hmap_traits@KPBUsMAPINFO_BASE@@V?$hash_compare@KU?$less@K@std@@@stdext@@V?$CustomAllocator@PBUsMAPINFO_BASE@@@util@@$0A@@stdext@@@stdext@@PAU123@@stdext@@YAPAU_List_position@?$_Hash@V?$_Hmap_traits@KPBUsMAPINFO_BASE@@V?$hash_compare@KU?$less@K@std@@@stdext@@V?$CustomAllocator@PBUsMAPINFO_BASE@@@util@@$0A@@stdext@@@0@PAU120@00@Z 00441630 f i programcommon_s:MapInfoParser.obj
 0001:00040670       ??1?$_Tree_val@V?$_Tmap_traits@W4eSCRIPT_CODE@@V?$basic_string@DU?$char_traits@D@std@@V?$allocator@D@2@@std@@U?$less@W4eSCRIPT_CODE@@@3@V?$CustomAllocator@V?$basic_string@DU?$char_traits@D@std@@V?$allocator@D@2@@std@@@util@@$0A@@std@@@std@@QAE@XZ 00441670 f i programcommon_s:ScriptCode.IParser.Impl.obj
 0001:00040670       ??1?$_Tree_val@V?$_Tmap_traits@KPAVFieldInfo@@U?$less@K@std@@V?$CustomAllocator@PAVFieldInfo@@@util@@$0A@@std@@@std@@QAE@XZ 00441670 f i ChannelManager.obj
 0001:00040670       ??1?$_List_val@U?$pair@$$CBW4eITEMTYPE@@USPECIAL_ITEM_INFO@@@std@@V?$CustomAllocator@U?$pair@$$CBW4eITEMTYPE@@USPECIAL_ITEM_INFO@@@std@@@util@@@std@@QAE@XZ 00441670 f i User.obj
 0001:00040670       ??1?$_List_val@PAUSCRIPT_DATA@@V?$CustomAllocator@PAUSCRIPT_DATA@@@util@@@std@@QAE@XZ 00441670 f i programcommon_s:ScriptParserManager.obj
 0001:00040670       ??1?$_Tree_val@V?$_Tmap_traits@KV?$chunk_map@KPAVUser@@U?$less@K@std@@@util@@U?$less@K@std@@V?$CustomAllocator@V?$chunk_map@KPAVUser@@U?$less@K@std@@@util@@@2@$0A@@std@@@std@@QAE@XZ 00441670 f i UserManager.obj
 0001:00040670       ??1?$_Vector_val@U_List_position@?$_Hash@V?$_Hmap_traits@KPAVBaseZone@@V?$hash_compare@KU?$less@K@std@@@stdext@@V?$CustomAllocator@PAVBaseZone@@@util@@$0A@@stdext@@@stdext@@V?$CustomAllocator@U_List_position@?$_Hash@V?$_Hmap_traits@KPAVBaseZone@@V?$hash_compare@KU?$less@K@std@@@stdext@@V?$CustomAllocator@PAVBaseZone@@@util@@$0A@@stdext@@@stdext@@@util@@@std@@QAE@XZ 00441670 f i BaseZone.obj
 0001:00040670       ??1?$_Vector_val@U_List_position@?$_Hash@V?$_Hmap_traits@KPBUsWMOINFO_BASE@@V?$hash_compare@KU?$less@K@std@@@stdext@@V?$CustomAllocator@PBUsWMOINFO_BASE@@@util@@$0A@@stdext@@@stdext@@V?$CustomAllocator@U_List_position@?$_Hash@V?$_Hmap_traits@KPBUsWMOINFO_BASE@@V?$hash_compare@KU?$less@K@std@@@stdext@@V?$CustomAllocator@PBUsWMOINFO_BASE@@@util@@$0A@@stdext@@@stdext@@@util@@@std@@QAE@XZ 00441670 f i programcommon_s:MapInfoParser.obj
 0001:00040670       ??1?$_Vector_val@U_List_position@?$_Hash@V?$_Hmap_traits@KPBVMapGroupBase@@V?$hash_compare@KU?$less@K@std@@@stdext@@V?$CustomAllocator@PBVMapGroupBase@@@util@@$0A@@stdext@@@stdext@@V?$CustomAllocator@U_List_position@?$_Hash@V?$_Hmap_traits@KPBVMapGroupBase@@V?$hash_compare@KU?$less@K@std@@@stdext@@V?$CustomAllocator@PBVMapGroupBase@@@util@@$0A@@stdext@@@stdext@@@util@@@std@@QAE@XZ 00441670 f i programcommon_s:MapInfoParser.obj
 0001:00040670       ??1?$_Vector_val@U_List_position@?$_Hash@V?$_Hmap_traits@KPAVVillageZone@@V?$hash_compare@KU?$less@K@std@@@stdext@@V?$CustomAllocator@PAVVillageZone@@@util@@$0A@@stdext@@@stdext@@V?$CustomAllocator@U_List_position@?$_Hash@V?$_Hmap_traits@KPAVVillageZone@@V?$hash_compare@KU?$less@K@std@@@stdext@@V?$CustomAllocator@PAVVillageZone@@@util@@$0A@@stdext@@@stdext@@@util@@@std@@QAE@XZ 00441670 f i Channel.obj
 0001:00040670       ??1?$_List_val@KV?$CustomAllocator@K@util@@@std@@QAE@XZ 00441670 f i servercommon:WorkLoadManager.obj
 0001:00040670       ??1?$_List_val@U?$pair@$$CBKPBUsWMOINFO_BASE@@@std@@V?$CustomAllocator@U?$pair@$$CBKPBUsWMOINFO_BASE@@@std@@@util@@@std@@QAE@XZ 00441670 f i programcommon_s:MapInfoParser.obj
 0001:00040670       ??1?$_Tree_val@V?$_Tmap_traits@KPAVFriendInvitationCommand@@U?$less@K@std@@V?$CustomAllocator@PAVFriendInvitationCommand@@@util@@$0A@@std@@@std@@QAE@XZ 00441670 f i servercommon:FriendInvitationInvoker.obj
 0001:00040670       ??1?$_List_val@U?$pair@$$CBKPAVUser@@@std@@V?$CustomAllocator@U?$pair@$$CBKPAVUser@@@std@@@util@@@std@@QAE@XZ 00441670 f i GuidUserList.obj
 0001:00040670       ??1?$_Tree_val@V?$_Tmap_traits@KPAUSTRUCT_BLOCK_INFO@@U?$less@K@std@@V?$CustomAllocator@PAUSTRUCT_BLOCK_INFO@@@util@@$0A@@std@@@std@@QAE@XZ 00441670 f i User.obj
 0001:00040670       ??1?$_Tree_val@V?$_Tmap_traits@KPAUSTRUCT_GROUP_MEMBER_INFO@@U?$less@K@std@@V?$CustomAllocator@PAUSTRUCT_GROUP_MEMBER_INFO@@@util@@$0A@@std@@@std@@QAE@XZ 00441670 f i User.obj
 0001:00040670       ??1?$_Vector_val@USlangTextInfo@ITextFilter@@V?$CustomAllocator@USlangTextInfo@ITextFilter@@@util@@@std@@QAE@XZ 00441670 f i utility_s:TextFilter.obj
 0001:00040670       ??1?$_List_val@U?$pair@$$CBKPBUsMAPINFO_BASE@@@std@@V?$CustomAllocator@U?$pair@$$CBKPBUsMAPINFO_BASE@@@std@@@util@@@std@@QAE@XZ 00441670 f i programcommon_s:MapInfoParser.obj
 0001:00040670       ??1?$_Tree_val@V?$_Tmap_traits@KPBUsMAP_ENTERENCE_PORTAL_BASE@@U?$less@K@std@@V?$CustomAllocator@PBUsMAP_ENTERENCE_PORTAL_BASE@@@util@@$0A@@std@@@std@@QAE@XZ 00441670 f i programcommon_s:MapInfoParser.obj
 0001:00040670       ??1?$_List_val@U?$pair@$$CBKPBUsWUTINFO_BASE@@@std@@V?$CustomAllocator@U?$pair@$$CBKPBUsWUTINFO_BASE@@@std@@@util@@@std@@QAE@XZ 00441670 f i programcommon_s:MapInfoParser.obj
 0001:00040670       ??1?$_Tree_val@V?$_Tmap_traits@KU?$pair@V?$Delegator@VIWorkNode@@@@H@std@@U?$less@K@2@V?$CustomAllocator@U?$pair@V?$Delegator@VIWorkNode@@@@H@std@@@util@@$0A@@std@@@std@@QAE@XZ 00441670 f i servercommon:WorkLoadManager.obj
 0001:00040670       ??1?$_Vector_val@U_List_position@?$_Hash@V?$_Hmap_traits@KPAVUser@@V?$hash_compare@KU?$less@K@std@@@stdext@@V?$CustomAllocator@PAVUser@@@util@@$0A@@stdext@@@stdext@@V?$CustomAllocator@U_List_position@?$_Hash@V?$_Hmap_traits@KPAVUser@@V?$hash_compare@KU?$less@K@std@@@stdext@@V?$CustomAllocator@PAVUser@@@util@@$0A@@stdext@@@stdext@@@util@@@std@@QAE@XZ 00441670 f i GuidUserList.obj
 0001:00040670       ??1?$_Tree_val@V?$_Tmap_traits@KUSERVER_LINKEDZONE_INFO@@U?$less@K@std@@V?$CustomAllocator@USERVER_LINKEDZONE_INFO@@@util@@$0A@@std@@@std@@QAE@XZ 00441670 f i ChannelManager.obj
 0001:00040670       ??1?$_List_val@U?$pair@$$CBKPAVVillageZone@@@std@@V?$CustomAllocator@U?$pair@$$CBKPAVVillageZone@@@std@@@util@@@std@@QAE@XZ 00441670 f i Channel.obj
 0001:00040670       ??1?$_Vector_val@U_List_position@?$_Hash@V?$_Hmap_traits@KPBUsWUTINFO_BASE@@V?$hash_compare@KU?$less@K@std@@@stdext@@V?$CustomAllocator@PBUsWUTINFO_BASE@@@util@@$0A@@stdext@@@stdext@@V?$CustomAllocator@U_List_position@?$_Hash@V?$_Hmap_traits@KPBUsWUTINFO_BASE@@V?$hash_compare@KU?$less@K@std@@@stdext@@V?$CustomAllocator@PBUsWUTINFO_BASE@@@util@@$0A@@stdext@@@stdext@@@util@@@std@@QAE@XZ 00441670 f i programcommon_s:MapInfoParser.obj
 0001:00040670       ??1?$_Vector_val@U_List_position@?$_Hash@V?$_Hmap_traits@W4eITEMTYPE@@USPECIAL_ITEM_INFO@@V?$hash_compare@W4eITEMTYPE@@U?$less@W4eITEMTYPE@@@std@@@stdext@@V?$CustomAllocator@USPECIAL_ITEM_INFO@@@util@@$0A@@stdext@@@stdext@@V?$CustomAllocator@U_List_position@?$_Hash@V?$_Hmap_traits@W4eITEMTYPE@@USPECIAL_ITEM_INFO@@V?$hash_compare@W4eITEMTYPE@@U?$less@W4eITEMTYPE@@@std@@@stdext@@V?$CustomAllocator@USPECIAL_ITEM_INFO@@@util@@$0A@@stdext@@@stdext@@@util@@@std@@QAE@XZ 00441670 f i User.obj
 0001:00040670       ??1?$_Vector_val@U_List_position@?$_Hash@V?$_Hmap_traits@KPBUsMAPINFO_BASE@@V?$hash_compare@KU?$less@K@std@@@stdext@@V?$CustomAllocator@PBUsMAPINFO_BASE@@@util@@$0A@@stdext@@@stdext@@V?$CustomAllocator@U_List_position@?$_Hash@V?$_Hmap_traits@KPBUsMAPINFO_BASE@@V?$hash_compare@KU?$less@K@std@@@stdext@@V?$CustomAllocator@PBUsMAPINFO_BASE@@@util@@$0A@@stdext@@@stdext@@@util@@@std@@QAE@XZ 00441670 f i programcommon_s:MapInfoParser.obj
 0001:00040670       ??1?$_Vector_val@V?$basic_string@DU?$char_traits@D@std@@V?$CustomAllocator@D@util@@@std@@V?$CustomAllocator@V?$basic_string@DU?$char_traits@D@std@@V?$CustomAllocator@D@util@@@std@@@util@@@std@@QAE@XZ 00441670 f i GMCmdManager.obj
 0001:00040670       ??1?$_Tree_val@V?$_Tmap_traits@KPAVUser@@U?$less@K@std@@V?$CustomAllocator@PAVUser@@@util@@$0A@@std@@@std@@QAE@XZ 00441670 f i User.obj
 0001:00040670       ??1?$_List_val@U?$pair@$$CBKPAVBaseZone@@@std@@V?$CustomAllocator@U?$pair@$$CBKPAVBaseZone@@@std@@@util@@@std@@QAE@XZ 00441670 f i BaseZone.obj
 0001:00040670       ??1?$_Vector_val@KV?$CustomAllocator@K@util@@@std@@QAE@XZ 00441670 f i FieldInfo.obj
